ARM GAS  /tmp/cc6GYW95.s 			page 1


   1              		.cpu cortex-m0plus
   2              		.eabi_attribute 20, 1
   3              		.eabi_attribute 21, 1
   4              		.eabi_attribute 23, 3
   5              		.eabi_attribute 24, 1
   6              		.eabi_attribute 25, 1
   7              		.eabi_attribute 26, 1
   8              		.eabi_attribute 30, 4
   9              		.eabi_attribute 34, 0
  10              		.eabi_attribute 18, 4
  11              		.file	"cmsis_os.c"
  12              		.text
  13              	.Ltext0:
  14              		.cfi_sections	.debug_frame
  15              		.section	.text.osKernelStart,"ax",%progbits
  16              		.align	1
  17              		.global	osKernelStart
  18              		.arch armv6s-m
  19              		.syntax unified
  20              		.code	16
  21              		.thumb_func
  22              		.fpu softvfp
  24              	osKernelStart:
  25              	.LFB28:
  26              		.file 1 "Middlewares/Third_Party/FreeRTOS/Source/CMSIS_RTOS/cmsis_os.c"
   1:Middlewares/Third_Party/FreeRTOS/Source/CMSIS_RTOS/cmsis_os.c **** /* ----------------------------------------------------------------------
   2:Middlewares/Third_Party/FreeRTOS/Source/CMSIS_RTOS/cmsis_os.c ****  * $Date:        5. February 2013
   3:Middlewares/Third_Party/FreeRTOS/Source/CMSIS_RTOS/cmsis_os.c ****  * $Revision:    V1.02
   4:Middlewares/Third_Party/FreeRTOS/Source/CMSIS_RTOS/cmsis_os.c ****  *
   5:Middlewares/Third_Party/FreeRTOS/Source/CMSIS_RTOS/cmsis_os.c ****  * Project:      CMSIS-RTOS API
   6:Middlewares/Third_Party/FreeRTOS/Source/CMSIS_RTOS/cmsis_os.c ****  * Title:        cmsis_os.c
   7:Middlewares/Third_Party/FreeRTOS/Source/CMSIS_RTOS/cmsis_os.c ****  *
   8:Middlewares/Third_Party/FreeRTOS/Source/CMSIS_RTOS/cmsis_os.c ****  * Version 0.02
   9:Middlewares/Third_Party/FreeRTOS/Source/CMSIS_RTOS/cmsis_os.c ****  *    Initial Proposal Phase
  10:Middlewares/Third_Party/FreeRTOS/Source/CMSIS_RTOS/cmsis_os.c ****  * Version 0.03
  11:Middlewares/Third_Party/FreeRTOS/Source/CMSIS_RTOS/cmsis_os.c ****  *    osKernelStart added, optional feature: main started as thread
  12:Middlewares/Third_Party/FreeRTOS/Source/CMSIS_RTOS/cmsis_os.c ****  *    osSemaphores have standard behavior
  13:Middlewares/Third_Party/FreeRTOS/Source/CMSIS_RTOS/cmsis_os.c ****  *    osTimerCreate does not start the timer, added osTimerStart
  14:Middlewares/Third_Party/FreeRTOS/Source/CMSIS_RTOS/cmsis_os.c ****  *    osThreadPass is renamed to osThreadYield
  15:Middlewares/Third_Party/FreeRTOS/Source/CMSIS_RTOS/cmsis_os.c ****  * Version 1.01
  16:Middlewares/Third_Party/FreeRTOS/Source/CMSIS_RTOS/cmsis_os.c ****  *    Support for C++ interface
  17:Middlewares/Third_Party/FreeRTOS/Source/CMSIS_RTOS/cmsis_os.c ****  *     - const attribute removed from the osXxxxDef_t typedef's
  18:Middlewares/Third_Party/FreeRTOS/Source/CMSIS_RTOS/cmsis_os.c ****  *     - const attribute added to the osXxxxDef macros
  19:Middlewares/Third_Party/FreeRTOS/Source/CMSIS_RTOS/cmsis_os.c ****  *    Added: osTimerDelete, osMutexDelete, osSemaphoreDelete
  20:Middlewares/Third_Party/FreeRTOS/Source/CMSIS_RTOS/cmsis_os.c ****  *    Added: osKernelInitialize
  21:Middlewares/Third_Party/FreeRTOS/Source/CMSIS_RTOS/cmsis_os.c ****  * Version 1.02
  22:Middlewares/Third_Party/FreeRTOS/Source/CMSIS_RTOS/cmsis_os.c ****  *    Control functions for short timeouts in microsecond resolution:
  23:Middlewares/Third_Party/FreeRTOS/Source/CMSIS_RTOS/cmsis_os.c ****  *    Added: osKernelSysTick, osKernelSysTickFrequency, osKernelSysTickMicroSec
  24:Middlewares/Third_Party/FreeRTOS/Source/CMSIS_RTOS/cmsis_os.c ****  *    Removed: osSignalGet 
  25:Middlewares/Third_Party/FreeRTOS/Source/CMSIS_RTOS/cmsis_os.c ****  *    
  26:Middlewares/Third_Party/FreeRTOS/Source/CMSIS_RTOS/cmsis_os.c ****  *  
  27:Middlewares/Third_Party/FreeRTOS/Source/CMSIS_RTOS/cmsis_os.c ****  *----------------------------------------------------------------------------
  28:Middlewares/Third_Party/FreeRTOS/Source/CMSIS_RTOS/cmsis_os.c ****  *
  29:Middlewares/Third_Party/FreeRTOS/Source/CMSIS_RTOS/cmsis_os.c ****  * Portions Copyright © 2016 STMicroelectronics International N.V. All rights reserved.
  30:Middlewares/Third_Party/FreeRTOS/Source/CMSIS_RTOS/cmsis_os.c ****  * Portions Copyright (c) 2013 ARM LIMITED
  31:Middlewares/Third_Party/FreeRTOS/Source/CMSIS_RTOS/cmsis_os.c ****  * All rights reserved.
  32:Middlewares/Third_Party/FreeRTOS/Source/CMSIS_RTOS/cmsis_os.c ****  * Redistribution and use in source and binary forms, with or without
ARM GAS  /tmp/cc6GYW95.s 			page 2


  33:Middlewares/Third_Party/FreeRTOS/Source/CMSIS_RTOS/cmsis_os.c ****  * modification, are permitted provided that the following conditions are met:
  34:Middlewares/Third_Party/FreeRTOS/Source/CMSIS_RTOS/cmsis_os.c ****  *  - Redistributions of source code must retain the above copyright
  35:Middlewares/Third_Party/FreeRTOS/Source/CMSIS_RTOS/cmsis_os.c ****  *    notice, this list of conditions and the following disclaimer.
  36:Middlewares/Third_Party/FreeRTOS/Source/CMSIS_RTOS/cmsis_os.c ****  *  - Redistributions in binary form must reproduce the above copyright
  37:Middlewares/Third_Party/FreeRTOS/Source/CMSIS_RTOS/cmsis_os.c ****  *    notice, this list of conditions and the following disclaimer in the
  38:Middlewares/Third_Party/FreeRTOS/Source/CMSIS_RTOS/cmsis_os.c ****  *    documentation and/or other materials provided with the distribution.
  39:Middlewares/Third_Party/FreeRTOS/Source/CMSIS_RTOS/cmsis_os.c ****  *  - Neither the name of ARM  nor the names of its contributors may be used
  40:Middlewares/Third_Party/FreeRTOS/Source/CMSIS_RTOS/cmsis_os.c ****  *    to endorse or promote products derived from this software without
  41:Middlewares/Third_Party/FreeRTOS/Source/CMSIS_RTOS/cmsis_os.c ****  *    specific prior written permission.
  42:Middlewares/Third_Party/FreeRTOS/Source/CMSIS_RTOS/cmsis_os.c ****  *
  43:Middlewares/Third_Party/FreeRTOS/Source/CMSIS_RTOS/cmsis_os.c ****  * THIS SOFTWARE IS PROVIDED BY THE COPYRIGHT HOLDERS AND CONTRIBUTORS "AS IS"
  44:Middlewares/Third_Party/FreeRTOS/Source/CMSIS_RTOS/cmsis_os.c ****  * AND ANY EXPRESS OR IMPLIED WARRANTIES, INCLUDING, BUT NOT LIMITED TO, THE
  45:Middlewares/Third_Party/FreeRTOS/Source/CMSIS_RTOS/cmsis_os.c ****  * IMPLIED WARRANTIES OF MERCHANTABILITY AND FITNESS FOR A PARTICULAR PURPOSE
  46:Middlewares/Third_Party/FreeRTOS/Source/CMSIS_RTOS/cmsis_os.c ****  * ARE DISCLAIMED. IN NO EVENT SHALL COPYRIGHT HOLDERS AND CONTRIBUTORS BE
  47:Middlewares/Third_Party/FreeRTOS/Source/CMSIS_RTOS/cmsis_os.c ****  * LIABLE FOR ANY DIRECT, INDIRECT, INCIDENTAL, SPECIAL, EXEMPLARY, OR
  48:Middlewares/Third_Party/FreeRTOS/Source/CMSIS_RTOS/cmsis_os.c ****  * CONSEQUENTIAL DAMAGES (INCLUDING, BUT NOT LIMITED TO, PROCUREMENT OF
  49:Middlewares/Third_Party/FreeRTOS/Source/CMSIS_RTOS/cmsis_os.c ****  * SUBSTITUTE GOODS OR SERVICES; LOSS OF USE, DATA, OR PROFITS; OR BUSINESS
  50:Middlewares/Third_Party/FreeRTOS/Source/CMSIS_RTOS/cmsis_os.c ****  * INTERRUPTION) HOWEVER CAUSED AND ON ANY THEORY OF LIABILITY, WHETHER IN
  51:Middlewares/Third_Party/FreeRTOS/Source/CMSIS_RTOS/cmsis_os.c ****  * CONTRACT, STRICT LIABILITY, OR TORT (INCLUDING NEGLIGENCE OR OTHERWISE)
  52:Middlewares/Third_Party/FreeRTOS/Source/CMSIS_RTOS/cmsis_os.c ****  * ARISING IN ANY WAY OUT OF THE USE OF THIS SOFTWARE, EVEN IF ADVISED OF THE
  53:Middlewares/Third_Party/FreeRTOS/Source/CMSIS_RTOS/cmsis_os.c ****  * POSSIBILITY OF SUCH DAMAGE.
  54:Middlewares/Third_Party/FreeRTOS/Source/CMSIS_RTOS/cmsis_os.c ****  *---------------------------------------------------------------------------*/
  55:Middlewares/Third_Party/FreeRTOS/Source/CMSIS_RTOS/cmsis_os.c **** 
  56:Middlewares/Third_Party/FreeRTOS/Source/CMSIS_RTOS/cmsis_os.c **** #include <string.h>
  57:Middlewares/Third_Party/FreeRTOS/Source/CMSIS_RTOS/cmsis_os.c **** #include "cmsis_os.h"
  58:Middlewares/Third_Party/FreeRTOS/Source/CMSIS_RTOS/cmsis_os.c **** 
  59:Middlewares/Third_Party/FreeRTOS/Source/CMSIS_RTOS/cmsis_os.c **** /*
  60:Middlewares/Third_Party/FreeRTOS/Source/CMSIS_RTOS/cmsis_os.c ****  * ARM Compiler 4/5
  61:Middlewares/Third_Party/FreeRTOS/Source/CMSIS_RTOS/cmsis_os.c ****  */
  62:Middlewares/Third_Party/FreeRTOS/Source/CMSIS_RTOS/cmsis_os.c **** #if   defined ( __CC_ARM )
  63:Middlewares/Third_Party/FreeRTOS/Source/CMSIS_RTOS/cmsis_os.c **** 
  64:Middlewares/Third_Party/FreeRTOS/Source/CMSIS_RTOS/cmsis_os.c ****   #define __ASM            __asm                                      
  65:Middlewares/Third_Party/FreeRTOS/Source/CMSIS_RTOS/cmsis_os.c ****   #define __INLINE         __inline                                     
  66:Middlewares/Third_Party/FreeRTOS/Source/CMSIS_RTOS/cmsis_os.c ****   #define __STATIC_INLINE  static __inline
  67:Middlewares/Third_Party/FreeRTOS/Source/CMSIS_RTOS/cmsis_os.c **** 
  68:Middlewares/Third_Party/FreeRTOS/Source/CMSIS_RTOS/cmsis_os.c ****   #include "cmsis_armcc.h"
  69:Middlewares/Third_Party/FreeRTOS/Source/CMSIS_RTOS/cmsis_os.c **** 
  70:Middlewares/Third_Party/FreeRTOS/Source/CMSIS_RTOS/cmsis_os.c **** /*
  71:Middlewares/Third_Party/FreeRTOS/Source/CMSIS_RTOS/cmsis_os.c ****  * GNU Compiler
  72:Middlewares/Third_Party/FreeRTOS/Source/CMSIS_RTOS/cmsis_os.c ****  */
  73:Middlewares/Third_Party/FreeRTOS/Source/CMSIS_RTOS/cmsis_os.c **** #elif defined ( __GNUC__ )
  74:Middlewares/Third_Party/FreeRTOS/Source/CMSIS_RTOS/cmsis_os.c **** 
  75:Middlewares/Third_Party/FreeRTOS/Source/CMSIS_RTOS/cmsis_os.c ****   #define __ASM            __asm                                      /*!< asm keyword for GNU Comp
  76:Middlewares/Third_Party/FreeRTOS/Source/CMSIS_RTOS/cmsis_os.c ****   #define __INLINE         inline                                     /*!< inline keyword for GNU C
  77:Middlewares/Third_Party/FreeRTOS/Source/CMSIS_RTOS/cmsis_os.c ****   #define __STATIC_INLINE  static inline
  78:Middlewares/Third_Party/FreeRTOS/Source/CMSIS_RTOS/cmsis_os.c **** 
  79:Middlewares/Third_Party/FreeRTOS/Source/CMSIS_RTOS/cmsis_os.c ****   #include "cmsis_gcc.h"
  80:Middlewares/Third_Party/FreeRTOS/Source/CMSIS_RTOS/cmsis_os.c **** 
  81:Middlewares/Third_Party/FreeRTOS/Source/CMSIS_RTOS/cmsis_os.c **** 
  82:Middlewares/Third_Party/FreeRTOS/Source/CMSIS_RTOS/cmsis_os.c **** /*
  83:Middlewares/Third_Party/FreeRTOS/Source/CMSIS_RTOS/cmsis_os.c ****  * IAR Compiler
  84:Middlewares/Third_Party/FreeRTOS/Source/CMSIS_RTOS/cmsis_os.c ****  */
  85:Middlewares/Third_Party/FreeRTOS/Source/CMSIS_RTOS/cmsis_os.c **** #elif defined ( __ICCARM__ )
  86:Middlewares/Third_Party/FreeRTOS/Source/CMSIS_RTOS/cmsis_os.c **** 
  87:Middlewares/Third_Party/FreeRTOS/Source/CMSIS_RTOS/cmsis_os.c ****   #ifndef   __ASM
  88:Middlewares/Third_Party/FreeRTOS/Source/CMSIS_RTOS/cmsis_os.c ****     #define __ASM                     __asm
  89:Middlewares/Third_Party/FreeRTOS/Source/CMSIS_RTOS/cmsis_os.c ****   #endif
ARM GAS  /tmp/cc6GYW95.s 			page 3


  90:Middlewares/Third_Party/FreeRTOS/Source/CMSIS_RTOS/cmsis_os.c ****   #ifndef   __INLINE
  91:Middlewares/Third_Party/FreeRTOS/Source/CMSIS_RTOS/cmsis_os.c ****     #define __INLINE                  inline
  92:Middlewares/Third_Party/FreeRTOS/Source/CMSIS_RTOS/cmsis_os.c ****   #endif
  93:Middlewares/Third_Party/FreeRTOS/Source/CMSIS_RTOS/cmsis_os.c ****   #ifndef   __STATIC_INLINE
  94:Middlewares/Third_Party/FreeRTOS/Source/CMSIS_RTOS/cmsis_os.c ****     #define __STATIC_INLINE           static inline
  95:Middlewares/Third_Party/FreeRTOS/Source/CMSIS_RTOS/cmsis_os.c ****   #endif
  96:Middlewares/Third_Party/FreeRTOS/Source/CMSIS_RTOS/cmsis_os.c **** 
  97:Middlewares/Third_Party/FreeRTOS/Source/CMSIS_RTOS/cmsis_os.c ****   #include <cmsis_iar.h>
  98:Middlewares/Third_Party/FreeRTOS/Source/CMSIS_RTOS/cmsis_os.c **** #endif
  99:Middlewares/Third_Party/FreeRTOS/Source/CMSIS_RTOS/cmsis_os.c **** 
 100:Middlewares/Third_Party/FreeRTOS/Source/CMSIS_RTOS/cmsis_os.c **** extern void xPortSysTickHandler(void);
 101:Middlewares/Third_Party/FreeRTOS/Source/CMSIS_RTOS/cmsis_os.c **** 
 102:Middlewares/Third_Party/FreeRTOS/Source/CMSIS_RTOS/cmsis_os.c **** /* Convert from CMSIS type osPriority to FreeRTOS priority number */
 103:Middlewares/Third_Party/FreeRTOS/Source/CMSIS_RTOS/cmsis_os.c **** static unsigned portBASE_TYPE makeFreeRtosPriority (osPriority priority)
 104:Middlewares/Third_Party/FreeRTOS/Source/CMSIS_RTOS/cmsis_os.c **** {
 105:Middlewares/Third_Party/FreeRTOS/Source/CMSIS_RTOS/cmsis_os.c ****   unsigned portBASE_TYPE fpriority = tskIDLE_PRIORITY;
 106:Middlewares/Third_Party/FreeRTOS/Source/CMSIS_RTOS/cmsis_os.c ****   
 107:Middlewares/Third_Party/FreeRTOS/Source/CMSIS_RTOS/cmsis_os.c ****   if (priority != osPriorityError) {
 108:Middlewares/Third_Party/FreeRTOS/Source/CMSIS_RTOS/cmsis_os.c ****     fpriority += (priority - osPriorityIdle);
 109:Middlewares/Third_Party/FreeRTOS/Source/CMSIS_RTOS/cmsis_os.c ****   }
 110:Middlewares/Third_Party/FreeRTOS/Source/CMSIS_RTOS/cmsis_os.c ****   
 111:Middlewares/Third_Party/FreeRTOS/Source/CMSIS_RTOS/cmsis_os.c ****   return fpriority;
 112:Middlewares/Third_Party/FreeRTOS/Source/CMSIS_RTOS/cmsis_os.c **** }
 113:Middlewares/Third_Party/FreeRTOS/Source/CMSIS_RTOS/cmsis_os.c **** 
 114:Middlewares/Third_Party/FreeRTOS/Source/CMSIS_RTOS/cmsis_os.c **** #if (INCLUDE_uxTaskPriorityGet == 1)
 115:Middlewares/Third_Party/FreeRTOS/Source/CMSIS_RTOS/cmsis_os.c **** /* Convert from FreeRTOS priority number to CMSIS type osPriority */
 116:Middlewares/Third_Party/FreeRTOS/Source/CMSIS_RTOS/cmsis_os.c **** static osPriority makeCmsisPriority (unsigned portBASE_TYPE fpriority)
 117:Middlewares/Third_Party/FreeRTOS/Source/CMSIS_RTOS/cmsis_os.c **** {
 118:Middlewares/Third_Party/FreeRTOS/Source/CMSIS_RTOS/cmsis_os.c ****   osPriority priority = osPriorityError;
 119:Middlewares/Third_Party/FreeRTOS/Source/CMSIS_RTOS/cmsis_os.c ****   
 120:Middlewares/Third_Party/FreeRTOS/Source/CMSIS_RTOS/cmsis_os.c ****   if ((fpriority - tskIDLE_PRIORITY) <= (osPriorityRealtime - osPriorityIdle)) {
 121:Middlewares/Third_Party/FreeRTOS/Source/CMSIS_RTOS/cmsis_os.c ****     priority = (osPriority)((int)osPriorityIdle + (int)(fpriority - tskIDLE_PRIORITY));
 122:Middlewares/Third_Party/FreeRTOS/Source/CMSIS_RTOS/cmsis_os.c ****   }
 123:Middlewares/Third_Party/FreeRTOS/Source/CMSIS_RTOS/cmsis_os.c ****   
 124:Middlewares/Third_Party/FreeRTOS/Source/CMSIS_RTOS/cmsis_os.c ****   return priority;
 125:Middlewares/Third_Party/FreeRTOS/Source/CMSIS_RTOS/cmsis_os.c **** }
 126:Middlewares/Third_Party/FreeRTOS/Source/CMSIS_RTOS/cmsis_os.c **** #endif
 127:Middlewares/Third_Party/FreeRTOS/Source/CMSIS_RTOS/cmsis_os.c **** 
 128:Middlewares/Third_Party/FreeRTOS/Source/CMSIS_RTOS/cmsis_os.c **** 
 129:Middlewares/Third_Party/FreeRTOS/Source/CMSIS_RTOS/cmsis_os.c **** /* Determine whether we are in thread mode or handler mode. */
 130:Middlewares/Third_Party/FreeRTOS/Source/CMSIS_RTOS/cmsis_os.c **** static int inHandlerMode (void)
 131:Middlewares/Third_Party/FreeRTOS/Source/CMSIS_RTOS/cmsis_os.c **** {
 132:Middlewares/Third_Party/FreeRTOS/Source/CMSIS_RTOS/cmsis_os.c ****   return __get_IPSR() != 0;
 133:Middlewares/Third_Party/FreeRTOS/Source/CMSIS_RTOS/cmsis_os.c **** }
 134:Middlewares/Third_Party/FreeRTOS/Source/CMSIS_RTOS/cmsis_os.c **** 
 135:Middlewares/Third_Party/FreeRTOS/Source/CMSIS_RTOS/cmsis_os.c **** /*********************** Kernel Control Functions *****************************/
 136:Middlewares/Third_Party/FreeRTOS/Source/CMSIS_RTOS/cmsis_os.c **** /**
 137:Middlewares/Third_Party/FreeRTOS/Source/CMSIS_RTOS/cmsis_os.c **** * @brief  Initialize the RTOS Kernel for creating objects.
 138:Middlewares/Third_Party/FreeRTOS/Source/CMSIS_RTOS/cmsis_os.c **** * @retval status code that indicates the execution status of the function.
 139:Middlewares/Third_Party/FreeRTOS/Source/CMSIS_RTOS/cmsis_os.c **** * @note   MUST REMAIN UNCHANGED: \b osKernelInitialize shall be consistent in every CMSIS-RTOS.
 140:Middlewares/Third_Party/FreeRTOS/Source/CMSIS_RTOS/cmsis_os.c **** */
 141:Middlewares/Third_Party/FreeRTOS/Source/CMSIS_RTOS/cmsis_os.c **** osStatus osKernelInitialize (void);
 142:Middlewares/Third_Party/FreeRTOS/Source/CMSIS_RTOS/cmsis_os.c **** 
 143:Middlewares/Third_Party/FreeRTOS/Source/CMSIS_RTOS/cmsis_os.c **** /**
 144:Middlewares/Third_Party/FreeRTOS/Source/CMSIS_RTOS/cmsis_os.c **** * @brief  Start the RTOS Kernel with executing the specified thread.
 145:Middlewares/Third_Party/FreeRTOS/Source/CMSIS_RTOS/cmsis_os.c **** * @param  thread_def    thread definition referenced with \ref osThread.
 146:Middlewares/Third_Party/FreeRTOS/Source/CMSIS_RTOS/cmsis_os.c **** * @param  argument      pointer that is passed to the thread function as start argument.
ARM GAS  /tmp/cc6GYW95.s 			page 4


 147:Middlewares/Third_Party/FreeRTOS/Source/CMSIS_RTOS/cmsis_os.c **** * @retval status code that indicates the execution status of the function
 148:Middlewares/Third_Party/FreeRTOS/Source/CMSIS_RTOS/cmsis_os.c **** * @note   MUST REMAIN UNCHANGED: \b osKernelStart shall be consistent in every CMSIS-RTOS.
 149:Middlewares/Third_Party/FreeRTOS/Source/CMSIS_RTOS/cmsis_os.c **** */
 150:Middlewares/Third_Party/FreeRTOS/Source/CMSIS_RTOS/cmsis_os.c **** osStatus osKernelStart (void)
 151:Middlewares/Third_Party/FreeRTOS/Source/CMSIS_RTOS/cmsis_os.c **** {
  27              		.loc 1 151 1 view -0
  28              		.cfi_startproc
  29              		@ args = 0, pretend = 0, frame = 0
  30              		@ frame_needed = 0, uses_anonymous_args = 0
 152:Middlewares/Third_Party/FreeRTOS/Source/CMSIS_RTOS/cmsis_os.c ****   vTaskStartScheduler();
  31              		.loc 1 152 3 view .LVU1
 151:Middlewares/Third_Party/FreeRTOS/Source/CMSIS_RTOS/cmsis_os.c ****   vTaskStartScheduler();
  32              		.loc 1 151 1 is_stmt 0 view .LVU2
  33 0000 10B5     		push	{r4, lr}
  34              	.LCFI0:
  35              		.cfi_def_cfa_offset 8
  36              		.cfi_offset 4, -8
  37              		.cfi_offset 14, -4
  38              		.loc 1 152 3 view .LVU3
  39 0002 FFF7FEFF 		bl	vTaskStartScheduler
  40              	.LVL0:
 153:Middlewares/Third_Party/FreeRTOS/Source/CMSIS_RTOS/cmsis_os.c ****   
 154:Middlewares/Third_Party/FreeRTOS/Source/CMSIS_RTOS/cmsis_os.c ****   return osOK;
  41              		.loc 1 154 3 is_stmt 1 view .LVU4
 155:Middlewares/Third_Party/FreeRTOS/Source/CMSIS_RTOS/cmsis_os.c **** }
  42              		.loc 1 155 1 is_stmt 0 view .LVU5
  43              		@ sp needed
  44 0006 0020     		movs	r0, #0
  45 0008 10BD     		pop	{r4, pc}
  46              		.cfi_endproc
  47              	.LFE28:
  49              		.section	.text.osKernelRunning,"ax",%progbits
  50              		.align	1
  51              		.global	osKernelRunning
  52              		.syntax unified
  53              		.code	16
  54              		.thumb_func
  55              		.fpu softvfp
  57              	osKernelRunning:
  58              	.LFB29:
 156:Middlewares/Third_Party/FreeRTOS/Source/CMSIS_RTOS/cmsis_os.c **** 
 157:Middlewares/Third_Party/FreeRTOS/Source/CMSIS_RTOS/cmsis_os.c **** /**
 158:Middlewares/Third_Party/FreeRTOS/Source/CMSIS_RTOS/cmsis_os.c **** * @brief  Check if the RTOS kernel is already started
 159:Middlewares/Third_Party/FreeRTOS/Source/CMSIS_RTOS/cmsis_os.c **** * @param  None
 160:Middlewares/Third_Party/FreeRTOS/Source/CMSIS_RTOS/cmsis_os.c **** * @retval (0) RTOS is not started
 161:Middlewares/Third_Party/FreeRTOS/Source/CMSIS_RTOS/cmsis_os.c **** *         (1) RTOS is started
 162:Middlewares/Third_Party/FreeRTOS/Source/CMSIS_RTOS/cmsis_os.c **** *         (-1) if this feature is disabled in FreeRTOSConfig.h 
 163:Middlewares/Third_Party/FreeRTOS/Source/CMSIS_RTOS/cmsis_os.c **** * @note  MUST REMAIN UNCHANGED: \b osKernelRunning shall be consistent in every CMSIS-RTOS.
 164:Middlewares/Third_Party/FreeRTOS/Source/CMSIS_RTOS/cmsis_os.c **** */
 165:Middlewares/Third_Party/FreeRTOS/Source/CMSIS_RTOS/cmsis_os.c **** int32_t osKernelRunning(void)
 166:Middlewares/Third_Party/FreeRTOS/Source/CMSIS_RTOS/cmsis_os.c **** {
  59              		.loc 1 166 1 is_stmt 1 view -0
  60              		.cfi_startproc
  61              		@ args = 0, pretend = 0, frame = 0
  62              		@ frame_needed = 0, uses_anonymous_args = 0
 167:Middlewares/Third_Party/FreeRTOS/Source/CMSIS_RTOS/cmsis_os.c **** #if ( ( INCLUDE_xTaskGetSchedulerState == 1 ) || ( configUSE_TIMERS == 1 ) )
 168:Middlewares/Third_Party/FreeRTOS/Source/CMSIS_RTOS/cmsis_os.c ****   if (xTaskGetSchedulerState() == taskSCHEDULER_NOT_STARTED)
ARM GAS  /tmp/cc6GYW95.s 			page 5


  63              		.loc 1 168 3 view .LVU7
 166:Middlewares/Third_Party/FreeRTOS/Source/CMSIS_RTOS/cmsis_os.c **** #if ( ( INCLUDE_xTaskGetSchedulerState == 1 ) || ( configUSE_TIMERS == 1 ) )
  64              		.loc 1 166 1 is_stmt 0 view .LVU8
  65 0000 10B5     		push	{r4, lr}
  66              	.LCFI1:
  67              		.cfi_def_cfa_offset 8
  68              		.cfi_offset 4, -8
  69              		.cfi_offset 14, -4
  70              		.loc 1 168 7 view .LVU9
  71 0002 FFF7FEFF 		bl	xTaskGetSchedulerState
  72              	.LVL1:
  73              		.loc 1 168 6 view .LVU10
  74 0006 0138     		subs	r0, r0, #1
  75 0008 431E     		subs	r3, r0, #1
  76 000a 9841     		sbcs	r0, r0, r3
 169:Middlewares/Third_Party/FreeRTOS/Source/CMSIS_RTOS/cmsis_os.c ****     return 0;
 170:Middlewares/Third_Party/FreeRTOS/Source/CMSIS_RTOS/cmsis_os.c ****   else
 171:Middlewares/Third_Party/FreeRTOS/Source/CMSIS_RTOS/cmsis_os.c ****     return 1;
 172:Middlewares/Third_Party/FreeRTOS/Source/CMSIS_RTOS/cmsis_os.c **** #else
 173:Middlewares/Third_Party/FreeRTOS/Source/CMSIS_RTOS/cmsis_os.c **** 	return (-1);
 174:Middlewares/Third_Party/FreeRTOS/Source/CMSIS_RTOS/cmsis_os.c **** #endif	
 175:Middlewares/Third_Party/FreeRTOS/Source/CMSIS_RTOS/cmsis_os.c **** }
  77              		.loc 1 175 1 view .LVU11
  78              		@ sp needed
  79 000c 10BD     		pop	{r4, pc}
  80              		.cfi_endproc
  81              	.LFE29:
  83              		.section	.text.osKernelSysTick,"ax",%progbits
  84              		.align	1
  85              		.global	osKernelSysTick
  86              		.syntax unified
  87              		.code	16
  88              		.thumb_func
  89              		.fpu softvfp
  91              	osKernelSysTick:
  92              	.LFB30:
 176:Middlewares/Third_Party/FreeRTOS/Source/CMSIS_RTOS/cmsis_os.c **** 
 177:Middlewares/Third_Party/FreeRTOS/Source/CMSIS_RTOS/cmsis_os.c **** #if (defined (osFeature_SysTick)  &&  (osFeature_SysTick != 0))     // System Timer available
 178:Middlewares/Third_Party/FreeRTOS/Source/CMSIS_RTOS/cmsis_os.c **** /**
 179:Middlewares/Third_Party/FreeRTOS/Source/CMSIS_RTOS/cmsis_os.c **** * @brief  Get the value of the Kernel SysTick timer
 180:Middlewares/Third_Party/FreeRTOS/Source/CMSIS_RTOS/cmsis_os.c **** * @param  None
 181:Middlewares/Third_Party/FreeRTOS/Source/CMSIS_RTOS/cmsis_os.c **** * @retval None
 182:Middlewares/Third_Party/FreeRTOS/Source/CMSIS_RTOS/cmsis_os.c **** * @note   MUST REMAIN UNCHANGED: \b osKernelSysTick shall be consistent in every CMSIS-RTOS.
 183:Middlewares/Third_Party/FreeRTOS/Source/CMSIS_RTOS/cmsis_os.c **** */
 184:Middlewares/Third_Party/FreeRTOS/Source/CMSIS_RTOS/cmsis_os.c **** uint32_t osKernelSysTick(void)
 185:Middlewares/Third_Party/FreeRTOS/Source/CMSIS_RTOS/cmsis_os.c **** {
  93              		.loc 1 185 1 is_stmt 1 view -0
  94              		.cfi_startproc
  95              		@ args = 0, pretend = 0, frame = 0
  96              		@ frame_needed = 0, uses_anonymous_args = 0
 186:Middlewares/Third_Party/FreeRTOS/Source/CMSIS_RTOS/cmsis_os.c ****   if (inHandlerMode()) {
  97              		.loc 1 186 3 view .LVU13
  98              	.LBB88:
  99              	.LBI88:
 130:Middlewares/Third_Party/FreeRTOS/Source/CMSIS_RTOS/cmsis_os.c **** {
 100              		.loc 1 130 12 view .LVU14
 101              	.LBE88:
ARM GAS  /tmp/cc6GYW95.s 			page 6


 132:Middlewares/Third_Party/FreeRTOS/Source/CMSIS_RTOS/cmsis_os.c **** }
 102              		.loc 1 132 3 view .LVU15
 103              	.LBB93:
 104              	.LBB89:
 105              	.LBI89:
 106              		.file 2 "Drivers/CMSIS/Include/cmsis_gcc.h"
   1:Drivers/CMSIS/Include/cmsis_gcc.h **** /**************************************************************************//**
   2:Drivers/CMSIS/Include/cmsis_gcc.h ****  * @file     cmsis_gcc.h
   3:Drivers/CMSIS/Include/cmsis_gcc.h ****  * @brief    CMSIS compiler GCC header file
   4:Drivers/CMSIS/Include/cmsis_gcc.h ****  * @version  V5.0.4
   5:Drivers/CMSIS/Include/cmsis_gcc.h ****  * @date     09. April 2018
   6:Drivers/CMSIS/Include/cmsis_gcc.h ****  ******************************************************************************/
   7:Drivers/CMSIS/Include/cmsis_gcc.h **** /*
   8:Drivers/CMSIS/Include/cmsis_gcc.h ****  * Copyright (c) 2009-2018 Arm Limited. All rights reserved.
   9:Drivers/CMSIS/Include/cmsis_gcc.h ****  *
  10:Drivers/CMSIS/Include/cmsis_gcc.h ****  * SPDX-License-Identifier: Apache-2.0
  11:Drivers/CMSIS/Include/cmsis_gcc.h ****  *
  12:Drivers/CMSIS/Include/cmsis_gcc.h ****  * Licensed under the Apache License, Version 2.0 (the License); you may
  13:Drivers/CMSIS/Include/cmsis_gcc.h ****  * not use this file except in compliance with the License.
  14:Drivers/CMSIS/Include/cmsis_gcc.h ****  * You may obtain a copy of the License at
  15:Drivers/CMSIS/Include/cmsis_gcc.h ****  *
  16:Drivers/CMSIS/Include/cmsis_gcc.h ****  * www.apache.org/licenses/LICENSE-2.0
  17:Drivers/CMSIS/Include/cmsis_gcc.h ****  *
  18:Drivers/CMSIS/Include/cmsis_gcc.h ****  * Unless required by applicable law or agreed to in writing, software
  19:Drivers/CMSIS/Include/cmsis_gcc.h ****  * distributed under the License is distributed on an AS IS BASIS, WITHOUT
  20:Drivers/CMSIS/Include/cmsis_gcc.h ****  * WARRANTIES OR CONDITIONS OF ANY KIND, either express or implied.
  21:Drivers/CMSIS/Include/cmsis_gcc.h ****  * See the License for the specific language governing permissions and
  22:Drivers/CMSIS/Include/cmsis_gcc.h ****  * limitations under the License.
  23:Drivers/CMSIS/Include/cmsis_gcc.h ****  */
  24:Drivers/CMSIS/Include/cmsis_gcc.h **** 
  25:Drivers/CMSIS/Include/cmsis_gcc.h **** #ifndef __CMSIS_GCC_H
  26:Drivers/CMSIS/Include/cmsis_gcc.h **** #define __CMSIS_GCC_H
  27:Drivers/CMSIS/Include/cmsis_gcc.h **** 
  28:Drivers/CMSIS/Include/cmsis_gcc.h **** /* ignore some GCC warnings */
  29:Drivers/CMSIS/Include/cmsis_gcc.h **** #pragma GCC diagnostic push
  30:Drivers/CMSIS/Include/cmsis_gcc.h **** #pragma GCC diagnostic ignored "-Wsign-conversion"
  31:Drivers/CMSIS/Include/cmsis_gcc.h **** #pragma GCC diagnostic ignored "-Wconversion"
  32:Drivers/CMSIS/Include/cmsis_gcc.h **** #pragma GCC diagnostic ignored "-Wunused-parameter"
  33:Drivers/CMSIS/Include/cmsis_gcc.h **** 
  34:Drivers/CMSIS/Include/cmsis_gcc.h **** /* Fallback for __has_builtin */
  35:Drivers/CMSIS/Include/cmsis_gcc.h **** #ifndef __has_builtin
  36:Drivers/CMSIS/Include/cmsis_gcc.h ****   #define __has_builtin(x) (0)
  37:Drivers/CMSIS/Include/cmsis_gcc.h **** #endif
  38:Drivers/CMSIS/Include/cmsis_gcc.h **** 
  39:Drivers/CMSIS/Include/cmsis_gcc.h **** /* CMSIS compiler specific defines */
  40:Drivers/CMSIS/Include/cmsis_gcc.h **** #ifndef   __ASM
  41:Drivers/CMSIS/Include/cmsis_gcc.h ****   #define __ASM                                  __asm
  42:Drivers/CMSIS/Include/cmsis_gcc.h **** #endif
  43:Drivers/CMSIS/Include/cmsis_gcc.h **** #ifndef   __INLINE
  44:Drivers/CMSIS/Include/cmsis_gcc.h ****   #define __INLINE                               inline
  45:Drivers/CMSIS/Include/cmsis_gcc.h **** #endif
  46:Drivers/CMSIS/Include/cmsis_gcc.h **** #ifndef   __STATIC_INLINE
  47:Drivers/CMSIS/Include/cmsis_gcc.h ****   #define __STATIC_INLINE                        static inline
  48:Drivers/CMSIS/Include/cmsis_gcc.h **** #endif
  49:Drivers/CMSIS/Include/cmsis_gcc.h **** #ifndef   __STATIC_FORCEINLINE                 
  50:Drivers/CMSIS/Include/cmsis_gcc.h ****   #define __STATIC_FORCEINLINE                   __attribute__((always_inline)) static inline
  51:Drivers/CMSIS/Include/cmsis_gcc.h **** #endif                                           
ARM GAS  /tmp/cc6GYW95.s 			page 7


  52:Drivers/CMSIS/Include/cmsis_gcc.h **** #ifndef   __NO_RETURN
  53:Drivers/CMSIS/Include/cmsis_gcc.h ****   #define __NO_RETURN                            __attribute__((__noreturn__))
  54:Drivers/CMSIS/Include/cmsis_gcc.h **** #endif
  55:Drivers/CMSIS/Include/cmsis_gcc.h **** #ifndef   __USED
  56:Drivers/CMSIS/Include/cmsis_gcc.h ****   #define __USED                                 __attribute__((used))
  57:Drivers/CMSIS/Include/cmsis_gcc.h **** #endif
  58:Drivers/CMSIS/Include/cmsis_gcc.h **** #ifndef   __WEAK
  59:Drivers/CMSIS/Include/cmsis_gcc.h ****   #define __WEAK                                 __attribute__((weak))
  60:Drivers/CMSIS/Include/cmsis_gcc.h **** #endif
  61:Drivers/CMSIS/Include/cmsis_gcc.h **** #ifndef   __PACKED
  62:Drivers/CMSIS/Include/cmsis_gcc.h ****   #define __PACKED                               __attribute__((packed, aligned(1)))
  63:Drivers/CMSIS/Include/cmsis_gcc.h **** #endif
  64:Drivers/CMSIS/Include/cmsis_gcc.h **** #ifndef   __PACKED_STRUCT
  65:Drivers/CMSIS/Include/cmsis_gcc.h ****   #define __PACKED_STRUCT                        struct __attribute__((packed, aligned(1)))
  66:Drivers/CMSIS/Include/cmsis_gcc.h **** #endif
  67:Drivers/CMSIS/Include/cmsis_gcc.h **** #ifndef   __PACKED_UNION
  68:Drivers/CMSIS/Include/cmsis_gcc.h ****   #define __PACKED_UNION                         union __attribute__((packed, aligned(1)))
  69:Drivers/CMSIS/Include/cmsis_gcc.h **** #endif
  70:Drivers/CMSIS/Include/cmsis_gcc.h **** #ifndef   __UNALIGNED_UINT32        /* deprecated */
  71:Drivers/CMSIS/Include/cmsis_gcc.h ****   #pragma GCC diagnostic push
  72:Drivers/CMSIS/Include/cmsis_gcc.h ****   #pragma GCC diagnostic ignored "-Wpacked"
  73:Drivers/CMSIS/Include/cmsis_gcc.h ****   #pragma GCC diagnostic ignored "-Wattributes"
  74:Drivers/CMSIS/Include/cmsis_gcc.h ****   struct __attribute__((packed)) T_UINT32 { uint32_t v; };
  75:Drivers/CMSIS/Include/cmsis_gcc.h ****   #pragma GCC diagnostic pop
  76:Drivers/CMSIS/Include/cmsis_gcc.h ****   #define __UNALIGNED_UINT32(x)                  (((struct T_UINT32 *)(x))->v)
  77:Drivers/CMSIS/Include/cmsis_gcc.h **** #endif
  78:Drivers/CMSIS/Include/cmsis_gcc.h **** #ifndef   __UNALIGNED_UINT16_WRITE
  79:Drivers/CMSIS/Include/cmsis_gcc.h ****   #pragma GCC diagnostic push
  80:Drivers/CMSIS/Include/cmsis_gcc.h ****   #pragma GCC diagnostic ignored "-Wpacked"
  81:Drivers/CMSIS/Include/cmsis_gcc.h ****   #pragma GCC diagnostic ignored "-Wattributes"
  82:Drivers/CMSIS/Include/cmsis_gcc.h ****   __PACKED_STRUCT T_UINT16_WRITE { uint16_t v; };
  83:Drivers/CMSIS/Include/cmsis_gcc.h ****   #pragma GCC diagnostic pop
  84:Drivers/CMSIS/Include/cmsis_gcc.h ****   #define __UNALIGNED_UINT16_WRITE(addr, val)    (void)((((struct T_UINT16_WRITE *)(void *)(addr))-
  85:Drivers/CMSIS/Include/cmsis_gcc.h **** #endif
  86:Drivers/CMSIS/Include/cmsis_gcc.h **** #ifndef   __UNALIGNED_UINT16_READ
  87:Drivers/CMSIS/Include/cmsis_gcc.h ****   #pragma GCC diagnostic push
  88:Drivers/CMSIS/Include/cmsis_gcc.h ****   #pragma GCC diagnostic ignored "-Wpacked"
  89:Drivers/CMSIS/Include/cmsis_gcc.h ****   #pragma GCC diagnostic ignored "-Wattributes"
  90:Drivers/CMSIS/Include/cmsis_gcc.h ****   __PACKED_STRUCT T_UINT16_READ { uint16_t v; };
  91:Drivers/CMSIS/Include/cmsis_gcc.h ****   #pragma GCC diagnostic pop
  92:Drivers/CMSIS/Include/cmsis_gcc.h ****   #define __UNALIGNED_UINT16_READ(addr)          (((const struct T_UINT16_READ *)(const void *)(add
  93:Drivers/CMSIS/Include/cmsis_gcc.h **** #endif
  94:Drivers/CMSIS/Include/cmsis_gcc.h **** #ifndef   __UNALIGNED_UINT32_WRITE
  95:Drivers/CMSIS/Include/cmsis_gcc.h ****   #pragma GCC diagnostic push
  96:Drivers/CMSIS/Include/cmsis_gcc.h ****   #pragma GCC diagnostic ignored "-Wpacked"
  97:Drivers/CMSIS/Include/cmsis_gcc.h ****   #pragma GCC diagnostic ignored "-Wattributes"
  98:Drivers/CMSIS/Include/cmsis_gcc.h ****   __PACKED_STRUCT T_UINT32_WRITE { uint32_t v; };
  99:Drivers/CMSIS/Include/cmsis_gcc.h ****   #pragma GCC diagnostic pop
 100:Drivers/CMSIS/Include/cmsis_gcc.h ****   #define __UNALIGNED_UINT32_WRITE(addr, val)    (void)((((struct T_UINT32_WRITE *)(void *)(addr))-
 101:Drivers/CMSIS/Include/cmsis_gcc.h **** #endif
 102:Drivers/CMSIS/Include/cmsis_gcc.h **** #ifndef   __UNALIGNED_UINT32_READ
 103:Drivers/CMSIS/Include/cmsis_gcc.h ****   #pragma GCC diagnostic push
 104:Drivers/CMSIS/Include/cmsis_gcc.h ****   #pragma GCC diagnostic ignored "-Wpacked"
 105:Drivers/CMSIS/Include/cmsis_gcc.h ****   #pragma GCC diagnostic ignored "-Wattributes"
 106:Drivers/CMSIS/Include/cmsis_gcc.h ****   __PACKED_STRUCT T_UINT32_READ { uint32_t v; };
 107:Drivers/CMSIS/Include/cmsis_gcc.h ****   #pragma GCC diagnostic pop
 108:Drivers/CMSIS/Include/cmsis_gcc.h ****   #define __UNALIGNED_UINT32_READ(addr)          (((const struct T_UINT32_READ *)(const void *)(add
ARM GAS  /tmp/cc6GYW95.s 			page 8


 109:Drivers/CMSIS/Include/cmsis_gcc.h **** #endif
 110:Drivers/CMSIS/Include/cmsis_gcc.h **** #ifndef   __ALIGNED
 111:Drivers/CMSIS/Include/cmsis_gcc.h ****   #define __ALIGNED(x)                           __attribute__((aligned(x)))
 112:Drivers/CMSIS/Include/cmsis_gcc.h **** #endif
 113:Drivers/CMSIS/Include/cmsis_gcc.h **** #ifndef   __RESTRICT
 114:Drivers/CMSIS/Include/cmsis_gcc.h ****   #define __RESTRICT                             __restrict
 115:Drivers/CMSIS/Include/cmsis_gcc.h **** #endif
 116:Drivers/CMSIS/Include/cmsis_gcc.h **** 
 117:Drivers/CMSIS/Include/cmsis_gcc.h **** 
 118:Drivers/CMSIS/Include/cmsis_gcc.h **** /* ###########################  Core Function Access  ########################### */
 119:Drivers/CMSIS/Include/cmsis_gcc.h **** /** \ingroup  CMSIS_Core_FunctionInterface
 120:Drivers/CMSIS/Include/cmsis_gcc.h ****     \defgroup CMSIS_Core_RegAccFunctions CMSIS Core Register Access Functions
 121:Drivers/CMSIS/Include/cmsis_gcc.h ****   @{
 122:Drivers/CMSIS/Include/cmsis_gcc.h ****  */
 123:Drivers/CMSIS/Include/cmsis_gcc.h **** 
 124:Drivers/CMSIS/Include/cmsis_gcc.h **** /**
 125:Drivers/CMSIS/Include/cmsis_gcc.h ****   \brief   Enable IRQ Interrupts
 126:Drivers/CMSIS/Include/cmsis_gcc.h ****   \details Enables IRQ interrupts by clearing the I-bit in the CPSR.
 127:Drivers/CMSIS/Include/cmsis_gcc.h ****            Can only be executed in Privileged modes.
 128:Drivers/CMSIS/Include/cmsis_gcc.h ****  */
 129:Drivers/CMSIS/Include/cmsis_gcc.h **** __STATIC_FORCEINLINE void __enable_irq(void)
 130:Drivers/CMSIS/Include/cmsis_gcc.h **** {
 131:Drivers/CMSIS/Include/cmsis_gcc.h ****   __ASM volatile ("cpsie i" : : : "memory");
 132:Drivers/CMSIS/Include/cmsis_gcc.h **** }
 133:Drivers/CMSIS/Include/cmsis_gcc.h **** 
 134:Drivers/CMSIS/Include/cmsis_gcc.h **** 
 135:Drivers/CMSIS/Include/cmsis_gcc.h **** /**
 136:Drivers/CMSIS/Include/cmsis_gcc.h ****   \brief   Disable IRQ Interrupts
 137:Drivers/CMSIS/Include/cmsis_gcc.h ****   \details Disables IRQ interrupts by setting the I-bit in the CPSR.
 138:Drivers/CMSIS/Include/cmsis_gcc.h ****            Can only be executed in Privileged modes.
 139:Drivers/CMSIS/Include/cmsis_gcc.h ****  */
 140:Drivers/CMSIS/Include/cmsis_gcc.h **** __STATIC_FORCEINLINE void __disable_irq(void)
 141:Drivers/CMSIS/Include/cmsis_gcc.h **** {
 142:Drivers/CMSIS/Include/cmsis_gcc.h ****   __ASM volatile ("cpsid i" : : : "memory");
 143:Drivers/CMSIS/Include/cmsis_gcc.h **** }
 144:Drivers/CMSIS/Include/cmsis_gcc.h **** 
 145:Drivers/CMSIS/Include/cmsis_gcc.h **** 
 146:Drivers/CMSIS/Include/cmsis_gcc.h **** /**
 147:Drivers/CMSIS/Include/cmsis_gcc.h ****   \brief   Get Control Register
 148:Drivers/CMSIS/Include/cmsis_gcc.h ****   \details Returns the content of the Control Register.
 149:Drivers/CMSIS/Include/cmsis_gcc.h ****   \return               Control Register value
 150:Drivers/CMSIS/Include/cmsis_gcc.h ****  */
 151:Drivers/CMSIS/Include/cmsis_gcc.h **** __STATIC_FORCEINLINE uint32_t __get_CONTROL(void)
 152:Drivers/CMSIS/Include/cmsis_gcc.h **** {
 153:Drivers/CMSIS/Include/cmsis_gcc.h ****   uint32_t result;
 154:Drivers/CMSIS/Include/cmsis_gcc.h **** 
 155:Drivers/CMSIS/Include/cmsis_gcc.h ****   __ASM volatile ("MRS %0, control" : "=r" (result) );
 156:Drivers/CMSIS/Include/cmsis_gcc.h ****   return(result);
 157:Drivers/CMSIS/Include/cmsis_gcc.h **** }
 158:Drivers/CMSIS/Include/cmsis_gcc.h **** 
 159:Drivers/CMSIS/Include/cmsis_gcc.h **** 
 160:Drivers/CMSIS/Include/cmsis_gcc.h **** #if (defined (__ARM_FEATURE_CMSE ) && (__ARM_FEATURE_CMSE == 3))
 161:Drivers/CMSIS/Include/cmsis_gcc.h **** /**
 162:Drivers/CMSIS/Include/cmsis_gcc.h ****   \brief   Get Control Register (non-secure)
 163:Drivers/CMSIS/Include/cmsis_gcc.h ****   \details Returns the content of the non-secure Control Register when in secure mode.
 164:Drivers/CMSIS/Include/cmsis_gcc.h ****   \return               non-secure Control Register value
 165:Drivers/CMSIS/Include/cmsis_gcc.h ****  */
ARM GAS  /tmp/cc6GYW95.s 			page 9


 166:Drivers/CMSIS/Include/cmsis_gcc.h **** __STATIC_FORCEINLINE uint32_t __TZ_get_CONTROL_NS(void)
 167:Drivers/CMSIS/Include/cmsis_gcc.h **** {
 168:Drivers/CMSIS/Include/cmsis_gcc.h ****   uint32_t result;
 169:Drivers/CMSIS/Include/cmsis_gcc.h **** 
 170:Drivers/CMSIS/Include/cmsis_gcc.h ****   __ASM volatile ("MRS %0, control_ns" : "=r" (result) );
 171:Drivers/CMSIS/Include/cmsis_gcc.h ****   return(result);
 172:Drivers/CMSIS/Include/cmsis_gcc.h **** }
 173:Drivers/CMSIS/Include/cmsis_gcc.h **** #endif
 174:Drivers/CMSIS/Include/cmsis_gcc.h **** 
 175:Drivers/CMSIS/Include/cmsis_gcc.h **** 
 176:Drivers/CMSIS/Include/cmsis_gcc.h **** /**
 177:Drivers/CMSIS/Include/cmsis_gcc.h ****   \brief   Set Control Register
 178:Drivers/CMSIS/Include/cmsis_gcc.h ****   \details Writes the given value to the Control Register.
 179:Drivers/CMSIS/Include/cmsis_gcc.h ****   \param [in]    control  Control Register value to set
 180:Drivers/CMSIS/Include/cmsis_gcc.h ****  */
 181:Drivers/CMSIS/Include/cmsis_gcc.h **** __STATIC_FORCEINLINE void __set_CONTROL(uint32_t control)
 182:Drivers/CMSIS/Include/cmsis_gcc.h **** {
 183:Drivers/CMSIS/Include/cmsis_gcc.h ****   __ASM volatile ("MSR control, %0" : : "r" (control) : "memory");
 184:Drivers/CMSIS/Include/cmsis_gcc.h **** }
 185:Drivers/CMSIS/Include/cmsis_gcc.h **** 
 186:Drivers/CMSIS/Include/cmsis_gcc.h **** 
 187:Drivers/CMSIS/Include/cmsis_gcc.h **** #if (defined (__ARM_FEATURE_CMSE ) && (__ARM_FEATURE_CMSE == 3))
 188:Drivers/CMSIS/Include/cmsis_gcc.h **** /**
 189:Drivers/CMSIS/Include/cmsis_gcc.h ****   \brief   Set Control Register (non-secure)
 190:Drivers/CMSIS/Include/cmsis_gcc.h ****   \details Writes the given value to the non-secure Control Register when in secure state.
 191:Drivers/CMSIS/Include/cmsis_gcc.h ****   \param [in]    control  Control Register value to set
 192:Drivers/CMSIS/Include/cmsis_gcc.h ****  */
 193:Drivers/CMSIS/Include/cmsis_gcc.h **** __STATIC_FORCEINLINE void __TZ_set_CONTROL_NS(uint32_t control)
 194:Drivers/CMSIS/Include/cmsis_gcc.h **** {
 195:Drivers/CMSIS/Include/cmsis_gcc.h ****   __ASM volatile ("MSR control_ns, %0" : : "r" (control) : "memory");
 196:Drivers/CMSIS/Include/cmsis_gcc.h **** }
 197:Drivers/CMSIS/Include/cmsis_gcc.h **** #endif
 198:Drivers/CMSIS/Include/cmsis_gcc.h **** 
 199:Drivers/CMSIS/Include/cmsis_gcc.h **** 
 200:Drivers/CMSIS/Include/cmsis_gcc.h **** /**
 201:Drivers/CMSIS/Include/cmsis_gcc.h ****   \brief   Get IPSR Register
 202:Drivers/CMSIS/Include/cmsis_gcc.h ****   \details Returns the content of the IPSR Register.
 203:Drivers/CMSIS/Include/cmsis_gcc.h ****   \return               IPSR Register value
 204:Drivers/CMSIS/Include/cmsis_gcc.h ****  */
 205:Drivers/CMSIS/Include/cmsis_gcc.h **** __STATIC_FORCEINLINE uint32_t __get_IPSR(void)
 107              		.loc 2 205 31 view .LVU16
 108              	.LBB90:
 206:Drivers/CMSIS/Include/cmsis_gcc.h **** {
 207:Drivers/CMSIS/Include/cmsis_gcc.h ****   uint32_t result;
 109              		.loc 2 207 3 view .LVU17
 208:Drivers/CMSIS/Include/cmsis_gcc.h **** 
 209:Drivers/CMSIS/Include/cmsis_gcc.h ****   __ASM volatile ("MRS %0, ipsr" : "=r" (result) );
 110              		.loc 2 209 3 view .LVU18
 111              	.LBE90:
 112              	.LBE89:
 113              	.LBE93:
 185:Middlewares/Third_Party/FreeRTOS/Source/CMSIS_RTOS/cmsis_os.c ****   if (inHandlerMode()) {
 114              		.loc 1 185 1 is_stmt 0 view .LVU19
 115 0000 10B5     		push	{r4, lr}
 116              	.LCFI2:
 117              		.cfi_def_cfa_offset 8
 118              		.cfi_offset 4, -8
ARM GAS  /tmp/cc6GYW95.s 			page 10


 119              		.cfi_offset 14, -4
 120              	.LBB94:
 121              	.LBB92:
 122              	.LBB91:
 123              		.loc 2 209 3 view .LVU20
 124              		.syntax divided
 125              	@ 209 "Drivers/CMSIS/Include/cmsis_gcc.h" 1
 126 0002 EFF30583 		MRS r3, ipsr
 127              	@ 0 "" 2
 128              	.LVL2:
 210:Drivers/CMSIS/Include/cmsis_gcc.h ****   return(result);
 129              		.loc 2 210 3 is_stmt 1 view .LVU21
 130              		.loc 2 210 3 is_stmt 0 view .LVU22
 131              		.thumb
 132              		.syntax unified
 133              	.LBE91:
 134              	.LBE92:
 135              	.LBE94:
 136              		.loc 1 186 6 view .LVU23
 137 0006 002B     		cmp	r3, #0
 138 0008 02D0     		beq	.L4
 187:Middlewares/Third_Party/FreeRTOS/Source/CMSIS_RTOS/cmsis_os.c ****     return xTaskGetTickCountFromISR();
 139              		.loc 1 187 5 is_stmt 1 view .LVU24
 140              		.loc 1 187 12 is_stmt 0 view .LVU25
 141 000a FFF7FEFF 		bl	xTaskGetTickCountFromISR
 142              	.LVL3:
 143              	.L3:
 188:Middlewares/Third_Party/FreeRTOS/Source/CMSIS_RTOS/cmsis_os.c ****   }
 189:Middlewares/Third_Party/FreeRTOS/Source/CMSIS_RTOS/cmsis_os.c ****   else {
 190:Middlewares/Third_Party/FreeRTOS/Source/CMSIS_RTOS/cmsis_os.c ****     return xTaskGetTickCount();
 191:Middlewares/Third_Party/FreeRTOS/Source/CMSIS_RTOS/cmsis_os.c ****   }
 192:Middlewares/Third_Party/FreeRTOS/Source/CMSIS_RTOS/cmsis_os.c **** }
 144              		.loc 1 192 1 view .LVU26
 145              		@ sp needed
 146 000e 10BD     		pop	{r4, pc}
 147              	.L4:
 190:Middlewares/Third_Party/FreeRTOS/Source/CMSIS_RTOS/cmsis_os.c ****   }
 148              		.loc 1 190 5 is_stmt 1 view .LVU27
 190:Middlewares/Third_Party/FreeRTOS/Source/CMSIS_RTOS/cmsis_os.c ****   }
 149              		.loc 1 190 12 is_stmt 0 view .LVU28
 150 0010 FFF7FEFF 		bl	xTaskGetTickCount
 151              	.LVL4:
 152 0014 FBE7     		b	.L3
 153              		.cfi_endproc
 154              	.LFE30:
 156              		.section	.text.osThreadCreate,"ax",%progbits
 157              		.align	1
 158              		.global	osThreadCreate
 159              		.syntax unified
 160              		.code	16
 161              		.thumb_func
 162              		.fpu softvfp
 164              	osThreadCreate:
 165              	.LVL5:
 166              	.LFB31:
 193:Middlewares/Third_Party/FreeRTOS/Source/CMSIS_RTOS/cmsis_os.c **** #endif    // System Timer available
 194:Middlewares/Third_Party/FreeRTOS/Source/CMSIS_RTOS/cmsis_os.c **** /*********************** Thread Management *****************************/
ARM GAS  /tmp/cc6GYW95.s 			page 11


 195:Middlewares/Third_Party/FreeRTOS/Source/CMSIS_RTOS/cmsis_os.c **** /**
 196:Middlewares/Third_Party/FreeRTOS/Source/CMSIS_RTOS/cmsis_os.c **** * @brief  Create a thread and add it to Active Threads and set it to state READY.
 197:Middlewares/Third_Party/FreeRTOS/Source/CMSIS_RTOS/cmsis_os.c **** * @param  thread_def    thread definition referenced with \ref osThread.
 198:Middlewares/Third_Party/FreeRTOS/Source/CMSIS_RTOS/cmsis_os.c **** * @param  argument      pointer that is passed to the thread function as start argument.
 199:Middlewares/Third_Party/FreeRTOS/Source/CMSIS_RTOS/cmsis_os.c **** * @retval thread ID for reference by other functions or NULL in case of error.
 200:Middlewares/Third_Party/FreeRTOS/Source/CMSIS_RTOS/cmsis_os.c **** * @note   MUST REMAIN UNCHANGED: \b osThreadCreate shall be consistent in every CMSIS-RTOS.
 201:Middlewares/Third_Party/FreeRTOS/Source/CMSIS_RTOS/cmsis_os.c **** */
 202:Middlewares/Third_Party/FreeRTOS/Source/CMSIS_RTOS/cmsis_os.c **** osThreadId osThreadCreate (const osThreadDef_t *thread_def, void *argument)
 203:Middlewares/Third_Party/FreeRTOS/Source/CMSIS_RTOS/cmsis_os.c **** {
 167              		.loc 1 203 1 is_stmt 1 view -0
 168              		.cfi_startproc
 169              		@ args = 0, pretend = 0, frame = 8
 170              		@ frame_needed = 0, uses_anonymous_args = 0
 204:Middlewares/Third_Party/FreeRTOS/Source/CMSIS_RTOS/cmsis_os.c ****   TaskHandle_t handle;
 171              		.loc 1 204 3 view .LVU30
 205:Middlewares/Third_Party/FreeRTOS/Source/CMSIS_RTOS/cmsis_os.c ****   
 206:Middlewares/Third_Party/FreeRTOS/Source/CMSIS_RTOS/cmsis_os.c **** #if( configSUPPORT_STATIC_ALLOCATION == 1 ) &&  ( configSUPPORT_DYNAMIC_ALLOCATION == 1 )
 207:Middlewares/Third_Party/FreeRTOS/Source/CMSIS_RTOS/cmsis_os.c ****   if((thread_def->buffer != NULL) && (thread_def->controlblock != NULL)) {
 208:Middlewares/Third_Party/FreeRTOS/Source/CMSIS_RTOS/cmsis_os.c ****     handle = xTaskCreateStatic((TaskFunction_t)thread_def->pthread,(const portCHAR *)thread_def->na
 209:Middlewares/Third_Party/FreeRTOS/Source/CMSIS_RTOS/cmsis_os.c ****               thread_def->stacksize, argument, makeFreeRtosPriority(thread_def->tpriority),
 210:Middlewares/Third_Party/FreeRTOS/Source/CMSIS_RTOS/cmsis_os.c ****               thread_def->buffer, thread_def->controlblock);
 211:Middlewares/Third_Party/FreeRTOS/Source/CMSIS_RTOS/cmsis_os.c ****   }
 212:Middlewares/Third_Party/FreeRTOS/Source/CMSIS_RTOS/cmsis_os.c ****   else {
 213:Middlewares/Third_Party/FreeRTOS/Source/CMSIS_RTOS/cmsis_os.c ****     if (xTaskCreate((TaskFunction_t)thread_def->pthread,(const portCHAR *)thread_def->name,
 214:Middlewares/Third_Party/FreeRTOS/Source/CMSIS_RTOS/cmsis_os.c ****               thread_def->stacksize, argument, makeFreeRtosPriority(thread_def->tpriority),
 215:Middlewares/Third_Party/FreeRTOS/Source/CMSIS_RTOS/cmsis_os.c ****               &handle) != pdPASS)  {
 216:Middlewares/Third_Party/FreeRTOS/Source/CMSIS_RTOS/cmsis_os.c ****       return NULL;
 217:Middlewares/Third_Party/FreeRTOS/Source/CMSIS_RTOS/cmsis_os.c ****     } 
 218:Middlewares/Third_Party/FreeRTOS/Source/CMSIS_RTOS/cmsis_os.c ****   }
 219:Middlewares/Third_Party/FreeRTOS/Source/CMSIS_RTOS/cmsis_os.c **** #elif( configSUPPORT_STATIC_ALLOCATION == 1 )
 220:Middlewares/Third_Party/FreeRTOS/Source/CMSIS_RTOS/cmsis_os.c **** 
 221:Middlewares/Third_Party/FreeRTOS/Source/CMSIS_RTOS/cmsis_os.c ****     handle = xTaskCreateStatic((TaskFunction_t)thread_def->pthread,(const portCHAR *)thread_def->na
 222:Middlewares/Third_Party/FreeRTOS/Source/CMSIS_RTOS/cmsis_os.c ****               thread_def->stacksize, argument, makeFreeRtosPriority(thread_def->tpriority),
 223:Middlewares/Third_Party/FreeRTOS/Source/CMSIS_RTOS/cmsis_os.c ****               thread_def->buffer, thread_def->controlblock);
 224:Middlewares/Third_Party/FreeRTOS/Source/CMSIS_RTOS/cmsis_os.c **** #else
 225:Middlewares/Third_Party/FreeRTOS/Source/CMSIS_RTOS/cmsis_os.c ****   if (xTaskCreate((TaskFunction_t)thread_def->pthread,(const portCHAR *)thread_def->name,
 172              		.loc 1 225 3 view .LVU31
 203:Middlewares/Third_Party/FreeRTOS/Source/CMSIS_RTOS/cmsis_os.c ****   TaskHandle_t handle;
 173              		.loc 1 203 1 is_stmt 0 view .LVU32
 174 0000 30B5     		push	{r4, r5, lr}
 175              	.LCFI3:
 176              		.cfi_def_cfa_offset 12
 177              		.cfi_offset 4, -12
 178              		.cfi_offset 5, -8
 179              		.cfi_offset 14, -4
 180 0002 0400     		movs	r4, r0
 181 0004 0B00     		movs	r3, r1
 182              		.loc 1 225 7 view .LVU33
 183 0006 2269     		ldr	r2, [r4, #16]
 184              		.loc 1 225 83 view .LVU34
 185 0008 2168     		ldr	r1, [r4]
 186              	.LVL6:
 187              		.loc 1 225 7 view .LVU35
 188 000a 0825     		movs	r5, #8
 189 000c 655F     		ldrsh	r5, [r4, r5]
 190              	.LVL7:
 191              	.LBB95:
ARM GAS  /tmp/cc6GYW95.s 			page 12


 192              	.LBI95:
 103:Middlewares/Third_Party/FreeRTOS/Source/CMSIS_RTOS/cmsis_os.c **** {
 193              		.loc 1 103 31 is_stmt 1 view .LVU36
 194              	.LBB96:
 105:Middlewares/Third_Party/FreeRTOS/Source/CMSIS_RTOS/cmsis_os.c ****   
 195              		.loc 1 105 3 view .LVU37
 107:Middlewares/Third_Party/FreeRTOS/Source/CMSIS_RTOS/cmsis_os.c ****     fpriority += (priority - osPriorityIdle);
 196              		.loc 1 107 3 view .LVU38
 197              	.LBE96:
 198              	.LBE95:
 199              		.loc 1 225 45 is_stmt 0 view .LVU39
 200 000e 4068     		ldr	r0, [r0, #4]
 201              	.LVL8:
 202              	.LBB99:
 203              	.LBB97:
 105:Middlewares/Third_Party/FreeRTOS/Source/CMSIS_RTOS/cmsis_os.c ****   
 204              		.loc 1 105 26 view .LVU40
 205 0010 0024     		movs	r4, #0
 206              	.LBE97:
 207              	.LBE99:
 203:Middlewares/Third_Party/FreeRTOS/Source/CMSIS_RTOS/cmsis_os.c ****   TaskHandle_t handle;
 208              		.loc 1 203 1 view .LVU41
 209 0012 85B0     		sub	sp, sp, #20
 210              	.LCFI4:
 211              		.cfi_def_cfa_offset 32
 212              		.loc 1 225 7 view .LVU42
 213 0014 92B2     		uxth	r2, r2
 214              	.LBB100:
 215              	.LBB98:
 107:Middlewares/Third_Party/FreeRTOS/Source/CMSIS_RTOS/cmsis_os.c ****     fpriority += (priority - osPriorityIdle);
 216              		.loc 1 107 6 view .LVU43
 217 0016 842D     		cmp	r5, #132
 218 0018 00D0     		beq	.L7
 108:Middlewares/Third_Party/FreeRTOS/Source/CMSIS_RTOS/cmsis_os.c ****   }
 219              		.loc 1 108 5 is_stmt 1 view .LVU44
 108:Middlewares/Third_Party/FreeRTOS/Source/CMSIS_RTOS/cmsis_os.c ****   }
 220              		.loc 1 108 15 is_stmt 0 view .LVU45
 221 001a EC1C     		adds	r4, r5, #3
 222              	.LVL9:
 223              	.L7:
 111:Middlewares/Third_Party/FreeRTOS/Source/CMSIS_RTOS/cmsis_os.c **** }
 224              		.loc 1 111 3 is_stmt 1 view .LVU46
 111:Middlewares/Third_Party/FreeRTOS/Source/CMSIS_RTOS/cmsis_os.c **** }
 225              		.loc 1 111 3 is_stmt 0 view .LVU47
 226              	.LBE98:
 227              	.LBE100:
 228              		.loc 1 225 7 view .LVU48
 229 001c 03AD     		add	r5, sp, #12
 230 001e 0195     		str	r5, [sp, #4]
 231 0020 0094     		str	r4, [sp]
 232 0022 FFF7FEFF 		bl	xTaskCreate
 233              	.LVL10:
 226:Middlewares/Third_Party/FreeRTOS/Source/CMSIS_RTOS/cmsis_os.c ****                    thread_def->stacksize, argument, makeFreeRtosPriority(thread_def->tpriority),
 227:Middlewares/Third_Party/FreeRTOS/Source/CMSIS_RTOS/cmsis_os.c ****                    &handle) != pdPASS)  {
 228:Middlewares/Third_Party/FreeRTOS/Source/CMSIS_RTOS/cmsis_os.c ****     return NULL;
 234              		.loc 1 228 12 view .LVU49
 235 0026 0023     		movs	r3, #0
ARM GAS  /tmp/cc6GYW95.s 			page 13


 225:Middlewares/Third_Party/FreeRTOS/Source/CMSIS_RTOS/cmsis_os.c ****                    thread_def->stacksize, argument, makeFreeRtosPriority(thread_def->tpriority),
 236              		.loc 1 225 6 view .LVU50
 237 0028 0128     		cmp	r0, #1
 238 002a 00D1     		bne	.L6
 229:Middlewares/Third_Party/FreeRTOS/Source/CMSIS_RTOS/cmsis_os.c ****   }     
 230:Middlewares/Third_Party/FreeRTOS/Source/CMSIS_RTOS/cmsis_os.c **** #endif
 231:Middlewares/Third_Party/FreeRTOS/Source/CMSIS_RTOS/cmsis_os.c ****   
 232:Middlewares/Third_Party/FreeRTOS/Source/CMSIS_RTOS/cmsis_os.c ****   return handle;
 239              		.loc 1 232 3 is_stmt 1 view .LVU51
 240              		.loc 1 232 10 is_stmt 0 view .LVU52
 241 002c 039B     		ldr	r3, [sp, #12]
 242              	.L6:
 233:Middlewares/Third_Party/FreeRTOS/Source/CMSIS_RTOS/cmsis_os.c **** }
 243              		.loc 1 233 1 view .LVU53
 244 002e 1800     		movs	r0, r3
 245 0030 05B0     		add	sp, sp, #20
 246              		@ sp needed
 247 0032 30BD     		pop	{r4, r5, pc}
 248              		.cfi_endproc
 249              	.LFE31:
 251              		.section	.text.osThreadGetId,"ax",%progbits
 252              		.align	1
 253              		.global	osThreadGetId
 254              		.syntax unified
 255              		.code	16
 256              		.thumb_func
 257              		.fpu softvfp
 259              	osThreadGetId:
 260              	.LFB32:
 234:Middlewares/Third_Party/FreeRTOS/Source/CMSIS_RTOS/cmsis_os.c **** 
 235:Middlewares/Third_Party/FreeRTOS/Source/CMSIS_RTOS/cmsis_os.c **** /**
 236:Middlewares/Third_Party/FreeRTOS/Source/CMSIS_RTOS/cmsis_os.c **** * @brief  Return the thread ID of the current running thread.
 237:Middlewares/Third_Party/FreeRTOS/Source/CMSIS_RTOS/cmsis_os.c **** * @retval thread ID for reference by other functions or NULL in case of error.
 238:Middlewares/Third_Party/FreeRTOS/Source/CMSIS_RTOS/cmsis_os.c **** * @note   MUST REMAIN UNCHANGED: \b osThreadGetId shall be consistent in every CMSIS-RTOS.
 239:Middlewares/Third_Party/FreeRTOS/Source/CMSIS_RTOS/cmsis_os.c **** */
 240:Middlewares/Third_Party/FreeRTOS/Source/CMSIS_RTOS/cmsis_os.c **** osThreadId osThreadGetId (void)
 241:Middlewares/Third_Party/FreeRTOS/Source/CMSIS_RTOS/cmsis_os.c **** {
 261              		.loc 1 241 1 is_stmt 1 view -0
 262              		.cfi_startproc
 263              		@ args = 0, pretend = 0, frame = 0
 264              		@ frame_needed = 0, uses_anonymous_args = 0
 242:Middlewares/Third_Party/FreeRTOS/Source/CMSIS_RTOS/cmsis_os.c **** #if ( ( INCLUDE_xTaskGetCurrentTaskHandle == 1 ) || ( configUSE_MUTEXES == 1 ) )
 243:Middlewares/Third_Party/FreeRTOS/Source/CMSIS_RTOS/cmsis_os.c ****   return xTaskGetCurrentTaskHandle();
 265              		.loc 1 243 3 view .LVU55
 241:Middlewares/Third_Party/FreeRTOS/Source/CMSIS_RTOS/cmsis_os.c **** #if ( ( INCLUDE_xTaskGetCurrentTaskHandle == 1 ) || ( configUSE_MUTEXES == 1 ) )
 266              		.loc 1 241 1 is_stmt 0 view .LVU56
 267 0000 10B5     		push	{r4, lr}
 268              	.LCFI5:
 269              		.cfi_def_cfa_offset 8
 270              		.cfi_offset 4, -8
 271              		.cfi_offset 14, -4
 272              		.loc 1 243 10 view .LVU57
 273 0002 FFF7FEFF 		bl	xTaskGetCurrentTaskHandle
 274              	.LVL11:
 244:Middlewares/Third_Party/FreeRTOS/Source/CMSIS_RTOS/cmsis_os.c **** #else
 245:Middlewares/Third_Party/FreeRTOS/Source/CMSIS_RTOS/cmsis_os.c **** 	return NULL;
 246:Middlewares/Third_Party/FreeRTOS/Source/CMSIS_RTOS/cmsis_os.c **** #endif
ARM GAS  /tmp/cc6GYW95.s 			page 14


 247:Middlewares/Third_Party/FreeRTOS/Source/CMSIS_RTOS/cmsis_os.c **** }
 275              		.loc 1 247 1 view .LVU58
 276              		@ sp needed
 277 0006 10BD     		pop	{r4, pc}
 278              		.cfi_endproc
 279              	.LFE32:
 281              		.section	.text.osThreadTerminate,"ax",%progbits
 282              		.align	1
 283              		.global	osThreadTerminate
 284              		.syntax unified
 285              		.code	16
 286              		.thumb_func
 287              		.fpu softvfp
 289              	osThreadTerminate:
 290              	.LVL12:
 291              	.LFB33:
 248:Middlewares/Third_Party/FreeRTOS/Source/CMSIS_RTOS/cmsis_os.c **** 
 249:Middlewares/Third_Party/FreeRTOS/Source/CMSIS_RTOS/cmsis_os.c **** /**
 250:Middlewares/Third_Party/FreeRTOS/Source/CMSIS_RTOS/cmsis_os.c **** * @brief  Terminate execution of a thread and remove it from Active Threads.
 251:Middlewares/Third_Party/FreeRTOS/Source/CMSIS_RTOS/cmsis_os.c **** * @param   thread_id   thread ID obtained by \ref osThreadCreate or \ref osThreadGetId.
 252:Middlewares/Third_Party/FreeRTOS/Source/CMSIS_RTOS/cmsis_os.c **** * @retval  status code that indicates the execution status of the function.
 253:Middlewares/Third_Party/FreeRTOS/Source/CMSIS_RTOS/cmsis_os.c **** * @note   MUST REMAIN UNCHANGED: \b osThreadTerminate shall be consistent in every CMSIS-RTOS.
 254:Middlewares/Third_Party/FreeRTOS/Source/CMSIS_RTOS/cmsis_os.c **** */
 255:Middlewares/Third_Party/FreeRTOS/Source/CMSIS_RTOS/cmsis_os.c **** osStatus osThreadTerminate (osThreadId thread_id)
 256:Middlewares/Third_Party/FreeRTOS/Source/CMSIS_RTOS/cmsis_os.c **** {
 292              		.loc 1 256 1 is_stmt 1 view -0
 293              		.cfi_startproc
 294              		@ args = 0, pretend = 0, frame = 0
 295              		@ frame_needed = 0, uses_anonymous_args = 0
 257:Middlewares/Third_Party/FreeRTOS/Source/CMSIS_RTOS/cmsis_os.c **** #if (INCLUDE_vTaskDelete == 1)
 258:Middlewares/Third_Party/FreeRTOS/Source/CMSIS_RTOS/cmsis_os.c ****   vTaskDelete(thread_id);
 296              		.loc 1 258 3 view .LVU60
 256:Middlewares/Third_Party/FreeRTOS/Source/CMSIS_RTOS/cmsis_os.c **** #if (INCLUDE_vTaskDelete == 1)
 297              		.loc 1 256 1 is_stmt 0 view .LVU61
 298 0000 10B5     		push	{r4, lr}
 299              	.LCFI6:
 300              		.cfi_def_cfa_offset 8
 301              		.cfi_offset 4, -8
 302              		.cfi_offset 14, -4
 303              		.loc 1 258 3 view .LVU62
 304 0002 FFF7FEFF 		bl	vTaskDelete
 305              	.LVL13:
 259:Middlewares/Third_Party/FreeRTOS/Source/CMSIS_RTOS/cmsis_os.c ****   return osOK;
 306              		.loc 1 259 3 is_stmt 1 view .LVU63
 260:Middlewares/Third_Party/FreeRTOS/Source/CMSIS_RTOS/cmsis_os.c **** #else
 261:Middlewares/Third_Party/FreeRTOS/Source/CMSIS_RTOS/cmsis_os.c ****   return osErrorOS;
 262:Middlewares/Third_Party/FreeRTOS/Source/CMSIS_RTOS/cmsis_os.c **** #endif
 263:Middlewares/Third_Party/FreeRTOS/Source/CMSIS_RTOS/cmsis_os.c **** }
 307              		.loc 1 263 1 is_stmt 0 view .LVU64
 308              		@ sp needed
 309 0006 0020     		movs	r0, #0
 310 0008 10BD     		pop	{r4, pc}
 311              		.cfi_endproc
 312              	.LFE33:
 314              		.section	.text.osThreadYield,"ax",%progbits
 315              		.align	1
 316              		.global	osThreadYield
ARM GAS  /tmp/cc6GYW95.s 			page 15


 317              		.syntax unified
 318              		.code	16
 319              		.thumb_func
 320              		.fpu softvfp
 322              	osThreadYield:
 323              	.LFB34:
 264:Middlewares/Third_Party/FreeRTOS/Source/CMSIS_RTOS/cmsis_os.c **** 
 265:Middlewares/Third_Party/FreeRTOS/Source/CMSIS_RTOS/cmsis_os.c **** /**
 266:Middlewares/Third_Party/FreeRTOS/Source/CMSIS_RTOS/cmsis_os.c **** * @brief  Pass control to next thread that is in state \b READY.
 267:Middlewares/Third_Party/FreeRTOS/Source/CMSIS_RTOS/cmsis_os.c **** * @retval status code that indicates the execution status of the function.
 268:Middlewares/Third_Party/FreeRTOS/Source/CMSIS_RTOS/cmsis_os.c **** * @note   MUST REMAIN UNCHANGED: \b osThreadYield shall be consistent in every CMSIS-RTOS.
 269:Middlewares/Third_Party/FreeRTOS/Source/CMSIS_RTOS/cmsis_os.c **** */
 270:Middlewares/Third_Party/FreeRTOS/Source/CMSIS_RTOS/cmsis_os.c **** osStatus osThreadYield (void)
 271:Middlewares/Third_Party/FreeRTOS/Source/CMSIS_RTOS/cmsis_os.c **** {
 324              		.loc 1 271 1 is_stmt 1 view -0
 325              		.cfi_startproc
 326              		@ args = 0, pretend = 0, frame = 0
 327              		@ frame_needed = 0, uses_anonymous_args = 0
 272:Middlewares/Third_Party/FreeRTOS/Source/CMSIS_RTOS/cmsis_os.c ****   taskYIELD();
 328              		.loc 1 272 3 view .LVU66
 271:Middlewares/Third_Party/FreeRTOS/Source/CMSIS_RTOS/cmsis_os.c ****   taskYIELD();
 329              		.loc 1 271 1 is_stmt 0 view .LVU67
 330 0000 10B5     		push	{r4, lr}
 331              	.LCFI7:
 332              		.cfi_def_cfa_offset 8
 333              		.cfi_offset 4, -8
 334              		.cfi_offset 14, -4
 335              		.loc 1 272 3 view .LVU68
 336 0002 FFF7FEFF 		bl	vPortYield
 337              	.LVL14:
 273:Middlewares/Third_Party/FreeRTOS/Source/CMSIS_RTOS/cmsis_os.c ****   
 274:Middlewares/Third_Party/FreeRTOS/Source/CMSIS_RTOS/cmsis_os.c ****   return osOK;
 338              		.loc 1 274 3 is_stmt 1 view .LVU69
 275:Middlewares/Third_Party/FreeRTOS/Source/CMSIS_RTOS/cmsis_os.c **** }
 339              		.loc 1 275 1 is_stmt 0 view .LVU70
 340              		@ sp needed
 341 0006 0020     		movs	r0, #0
 342 0008 10BD     		pop	{r4, pc}
 343              		.cfi_endproc
 344              	.LFE34:
 346              		.section	.text.osThreadSetPriority,"ax",%progbits
 347              		.align	1
 348              		.global	osThreadSetPriority
 349              		.syntax unified
 350              		.code	16
 351              		.thumb_func
 352              		.fpu softvfp
 354              	osThreadSetPriority:
 355              	.LVL15:
 356              	.LFB35:
 276:Middlewares/Third_Party/FreeRTOS/Source/CMSIS_RTOS/cmsis_os.c **** 
 277:Middlewares/Third_Party/FreeRTOS/Source/CMSIS_RTOS/cmsis_os.c **** /**
 278:Middlewares/Third_Party/FreeRTOS/Source/CMSIS_RTOS/cmsis_os.c **** * @brief   Change priority of an active thread.
 279:Middlewares/Third_Party/FreeRTOS/Source/CMSIS_RTOS/cmsis_os.c **** * @param   thread_id     thread ID obtained by \ref osThreadCreate or \ref osThreadGetId.
 280:Middlewares/Third_Party/FreeRTOS/Source/CMSIS_RTOS/cmsis_os.c **** * @param   priority      new priority value for the thread function.
 281:Middlewares/Third_Party/FreeRTOS/Source/CMSIS_RTOS/cmsis_os.c **** * @retval  status code that indicates the execution status of the function.
 282:Middlewares/Third_Party/FreeRTOS/Source/CMSIS_RTOS/cmsis_os.c **** * @note   MUST REMAIN UNCHANGED: \b osThreadSetPriority shall be consistent in every CMSIS-RTOS.
ARM GAS  /tmp/cc6GYW95.s 			page 16


 283:Middlewares/Third_Party/FreeRTOS/Source/CMSIS_RTOS/cmsis_os.c **** */
 284:Middlewares/Third_Party/FreeRTOS/Source/CMSIS_RTOS/cmsis_os.c **** osStatus osThreadSetPriority (osThreadId thread_id, osPriority priority)
 285:Middlewares/Third_Party/FreeRTOS/Source/CMSIS_RTOS/cmsis_os.c **** {
 357              		.loc 1 285 1 is_stmt 1 view -0
 358              		.cfi_startproc
 359              		@ args = 0, pretend = 0, frame = 0
 360              		@ frame_needed = 0, uses_anonymous_args = 0
 286:Middlewares/Third_Party/FreeRTOS/Source/CMSIS_RTOS/cmsis_os.c **** #if (INCLUDE_vTaskPrioritySet == 1)
 287:Middlewares/Third_Party/FreeRTOS/Source/CMSIS_RTOS/cmsis_os.c ****   vTaskPrioritySet(thread_id, makeFreeRtosPriority(priority));
 361              		.loc 1 287 3 view .LVU72
 285:Middlewares/Third_Party/FreeRTOS/Source/CMSIS_RTOS/cmsis_os.c **** #if (INCLUDE_vTaskPrioritySet == 1)
 362              		.loc 1 285 1 is_stmt 0 view .LVU73
 363 0000 0B00     		movs	r3, r1
 364              	.LVL16:
 365              	.LBB101:
 366              	.LBI101:
 103:Middlewares/Third_Party/FreeRTOS/Source/CMSIS_RTOS/cmsis_os.c **** {
 367              		.loc 1 103 31 is_stmt 1 view .LVU74
 368              	.LBB102:
 105:Middlewares/Third_Party/FreeRTOS/Source/CMSIS_RTOS/cmsis_os.c ****   
 369              		.loc 1 105 3 view .LVU75
 107:Middlewares/Third_Party/FreeRTOS/Source/CMSIS_RTOS/cmsis_os.c ****     fpriority += (priority - osPriorityIdle);
 370              		.loc 1 107 3 view .LVU76
 371              	.LBE102:
 372              	.LBE101:
 285:Middlewares/Third_Party/FreeRTOS/Source/CMSIS_RTOS/cmsis_os.c **** #if (INCLUDE_vTaskPrioritySet == 1)
 373              		.loc 1 285 1 is_stmt 0 view .LVU77
 374 0002 10B5     		push	{r4, lr}
 375              	.LCFI8:
 376              		.cfi_def_cfa_offset 8
 377              		.cfi_offset 4, -8
 378              		.cfi_offset 14, -4
 379              	.LBB104:
 380              	.LBB103:
 105:Middlewares/Third_Party/FreeRTOS/Source/CMSIS_RTOS/cmsis_os.c ****   
 381              		.loc 1 105 26 view .LVU78
 382 0004 0021     		movs	r1, #0
 383              	.LVL17:
 107:Middlewares/Third_Party/FreeRTOS/Source/CMSIS_RTOS/cmsis_os.c ****     fpriority += (priority - osPriorityIdle);
 384              		.loc 1 107 6 view .LVU79
 385 0006 842B     		cmp	r3, #132
 386 0008 00D0     		beq	.L15
 108:Middlewares/Third_Party/FreeRTOS/Source/CMSIS_RTOS/cmsis_os.c ****   }
 387              		.loc 1 108 5 is_stmt 1 view .LVU80
 108:Middlewares/Third_Party/FreeRTOS/Source/CMSIS_RTOS/cmsis_os.c ****   }
 388              		.loc 1 108 15 is_stmt 0 view .LVU81
 389 000a D91C     		adds	r1, r3, #3
 390              	.LVL18:
 391              	.L15:
 111:Middlewares/Third_Party/FreeRTOS/Source/CMSIS_RTOS/cmsis_os.c **** }
 392              		.loc 1 111 3 is_stmt 1 view .LVU82
 111:Middlewares/Third_Party/FreeRTOS/Source/CMSIS_RTOS/cmsis_os.c **** }
 393              		.loc 1 111 3 is_stmt 0 view .LVU83
 394              	.LBE103:
 395              	.LBE104:
 396              		.loc 1 287 3 view .LVU84
 397 000c FFF7FEFF 		bl	vTaskPrioritySet
ARM GAS  /tmp/cc6GYW95.s 			page 17


 398              	.LVL19:
 288:Middlewares/Third_Party/FreeRTOS/Source/CMSIS_RTOS/cmsis_os.c ****   return osOK;
 399              		.loc 1 288 3 is_stmt 1 view .LVU85
 289:Middlewares/Third_Party/FreeRTOS/Source/CMSIS_RTOS/cmsis_os.c **** #else
 290:Middlewares/Third_Party/FreeRTOS/Source/CMSIS_RTOS/cmsis_os.c ****   return osErrorOS;
 291:Middlewares/Third_Party/FreeRTOS/Source/CMSIS_RTOS/cmsis_os.c **** #endif
 292:Middlewares/Third_Party/FreeRTOS/Source/CMSIS_RTOS/cmsis_os.c **** }
 400              		.loc 1 292 1 is_stmt 0 view .LVU86
 401              		@ sp needed
 402 0010 0020     		movs	r0, #0
 403 0012 10BD     		pop	{r4, pc}
 404              		.cfi_endproc
 405              	.LFE35:
 407              		.section	.text.osThreadGetPriority,"ax",%progbits
 408              		.align	1
 409              		.global	osThreadGetPriority
 410              		.syntax unified
 411              		.code	16
 412              		.thumb_func
 413              		.fpu softvfp
 415              	osThreadGetPriority:
 416              	.LVL20:
 417              	.LFB36:
 293:Middlewares/Third_Party/FreeRTOS/Source/CMSIS_RTOS/cmsis_os.c **** 
 294:Middlewares/Third_Party/FreeRTOS/Source/CMSIS_RTOS/cmsis_os.c **** /**
 295:Middlewares/Third_Party/FreeRTOS/Source/CMSIS_RTOS/cmsis_os.c **** * @brief   Get current priority of an active thread.
 296:Middlewares/Third_Party/FreeRTOS/Source/CMSIS_RTOS/cmsis_os.c **** * @param   thread_id     thread ID obtained by \ref osThreadCreate or \ref osThreadGetId.
 297:Middlewares/Third_Party/FreeRTOS/Source/CMSIS_RTOS/cmsis_os.c **** * @retval  current priority value of the thread function.
 298:Middlewares/Third_Party/FreeRTOS/Source/CMSIS_RTOS/cmsis_os.c **** * @note   MUST REMAIN UNCHANGED: \b osThreadGetPriority shall be consistent in every CMSIS-RTOS.
 299:Middlewares/Third_Party/FreeRTOS/Source/CMSIS_RTOS/cmsis_os.c **** */
 300:Middlewares/Third_Party/FreeRTOS/Source/CMSIS_RTOS/cmsis_os.c **** osPriority osThreadGetPriority (osThreadId thread_id)
 301:Middlewares/Third_Party/FreeRTOS/Source/CMSIS_RTOS/cmsis_os.c **** {
 418              		.loc 1 301 1 is_stmt 1 view -0
 419              		.cfi_startproc
 420              		@ args = 0, pretend = 0, frame = 0
 421              		@ frame_needed = 0, uses_anonymous_args = 0
 302:Middlewares/Third_Party/FreeRTOS/Source/CMSIS_RTOS/cmsis_os.c **** #if (INCLUDE_uxTaskPriorityGet == 1)
 303:Middlewares/Third_Party/FreeRTOS/Source/CMSIS_RTOS/cmsis_os.c ****   if (inHandlerMode())
 422              		.loc 1 303 3 view .LVU88
 423              	.LBB105:
 424              	.LBI105:
 130:Middlewares/Third_Party/FreeRTOS/Source/CMSIS_RTOS/cmsis_os.c **** {
 425              		.loc 1 130 12 view .LVU89
 426              	.LBE105:
 132:Middlewares/Third_Party/FreeRTOS/Source/CMSIS_RTOS/cmsis_os.c **** }
 427              		.loc 1 132 3 view .LVU90
 428              	.LBB110:
 429              	.LBB106:
 430              	.LBI106:
 205:Drivers/CMSIS/Include/cmsis_gcc.h **** {
 431              		.loc 2 205 31 view .LVU91
 432              	.LBB107:
 207:Drivers/CMSIS/Include/cmsis_gcc.h **** 
 433              		.loc 2 207 3 view .LVU92
 209:Drivers/CMSIS/Include/cmsis_gcc.h ****   return(result);
 434              		.loc 2 209 3 view .LVU93
 435              	.LBE107:
ARM GAS  /tmp/cc6GYW95.s 			page 18


 436              	.LBE106:
 437              	.LBE110:
 301:Middlewares/Third_Party/FreeRTOS/Source/CMSIS_RTOS/cmsis_os.c **** #if (INCLUDE_uxTaskPriorityGet == 1)
 438              		.loc 1 301 1 is_stmt 0 view .LVU94
 439 0000 10B5     		push	{r4, lr}
 440              	.LCFI9:
 441              		.cfi_def_cfa_offset 8
 442              		.cfi_offset 4, -8
 443              		.cfi_offset 14, -4
 444              	.LBB111:
 445              	.LBB109:
 446              	.LBB108:
 209:Drivers/CMSIS/Include/cmsis_gcc.h ****   return(result);
 447              		.loc 2 209 3 view .LVU95
 448              		.syntax divided
 449              	@ 209 "Drivers/CMSIS/Include/cmsis_gcc.h" 1
 450 0002 EFF30583 		MRS r3, ipsr
 451              	@ 0 "" 2
 452              	.LVL21:
 453              		.loc 2 210 3 is_stmt 1 view .LVU96
 454              		.loc 2 210 3 is_stmt 0 view .LVU97
 455              		.thumb
 456              		.syntax unified
 457              	.LBE108:
 458              	.LBE109:
 459              	.LBE111:
 460              		.loc 1 303 6 view .LVU98
 461 0006 002B     		cmp	r3, #0
 462 0008 05D0     		beq	.L18
 304:Middlewares/Third_Party/FreeRTOS/Source/CMSIS_RTOS/cmsis_os.c ****   {
 305:Middlewares/Third_Party/FreeRTOS/Source/CMSIS_RTOS/cmsis_os.c ****     return makeCmsisPriority(uxTaskPriorityGetFromISR(thread_id));  
 463              		.loc 1 305 5 is_stmt 1 view .LVU99
 464              		.loc 1 305 12 is_stmt 0 view .LVU100
 465 000a FFF7FEFF 		bl	uxTaskPriorityGetFromISR
 466              	.LVL22:
 467              	.L23:
 468              	.LBB112:
 469              	.LBI112:
 116:Middlewares/Third_Party/FreeRTOS/Source/CMSIS_RTOS/cmsis_os.c **** {
 470              		.loc 1 116 19 is_stmt 1 view .LVU101
 471              	.LBB113:
 118:Middlewares/Third_Party/FreeRTOS/Source/CMSIS_RTOS/cmsis_os.c ****   
 472              		.loc 1 118 3 view .LVU102
 120:Middlewares/Third_Party/FreeRTOS/Source/CMSIS_RTOS/cmsis_os.c ****     priority = (osPriority)((int)osPriorityIdle + (int)(fpriority - tskIDLE_PRIORITY));
 473              		.loc 1 120 3 view .LVU103
 120:Middlewares/Third_Party/FreeRTOS/Source/CMSIS_RTOS/cmsis_os.c ****     priority = (osPriority)((int)osPriorityIdle + (int)(fpriority - tskIDLE_PRIORITY));
 474              		.loc 1 120 6 is_stmt 0 view .LVU104
 475 000e 0628     		cmp	r0, #6
 476 0010 04D9     		bls	.L22
 118:Middlewares/Third_Party/FreeRTOS/Source/CMSIS_RTOS/cmsis_os.c ****   
 477              		.loc 1 118 14 view .LVU105
 478 0012 8420     		movs	r0, #132
 479              	.LVL23:
 480              	.L20:
 118:Middlewares/Third_Party/FreeRTOS/Source/CMSIS_RTOS/cmsis_os.c ****   
 481              		.loc 1 118 14 view .LVU106
 482              	.LBE113:
ARM GAS  /tmp/cc6GYW95.s 			page 19


 483              	.LBE112:
 306:Middlewares/Third_Party/FreeRTOS/Source/CMSIS_RTOS/cmsis_os.c ****   }
 307:Middlewares/Third_Party/FreeRTOS/Source/CMSIS_RTOS/cmsis_os.c ****   else
 308:Middlewares/Third_Party/FreeRTOS/Source/CMSIS_RTOS/cmsis_os.c ****   {  
 309:Middlewares/Third_Party/FreeRTOS/Source/CMSIS_RTOS/cmsis_os.c ****     return makeCmsisPriority(uxTaskPriorityGet(thread_id));
 310:Middlewares/Third_Party/FreeRTOS/Source/CMSIS_RTOS/cmsis_os.c ****   }
 311:Middlewares/Third_Party/FreeRTOS/Source/CMSIS_RTOS/cmsis_os.c **** #else
 312:Middlewares/Third_Party/FreeRTOS/Source/CMSIS_RTOS/cmsis_os.c ****   return osPriorityError;
 313:Middlewares/Third_Party/FreeRTOS/Source/CMSIS_RTOS/cmsis_os.c **** #endif
 314:Middlewares/Third_Party/FreeRTOS/Source/CMSIS_RTOS/cmsis_os.c **** }
 484              		.loc 1 314 1 view .LVU107
 485              		@ sp needed
 486 0014 10BD     		pop	{r4, pc}
 487              	.LVL24:
 488              	.L18:
 309:Middlewares/Third_Party/FreeRTOS/Source/CMSIS_RTOS/cmsis_os.c ****   }
 489              		.loc 1 309 5 is_stmt 1 view .LVU108
 309:Middlewares/Third_Party/FreeRTOS/Source/CMSIS_RTOS/cmsis_os.c ****   }
 490              		.loc 1 309 12 is_stmt 0 view .LVU109
 491 0016 FFF7FEFF 		bl	uxTaskPriorityGet
 492              	.LVL25:
 493              	.LBB114:
 494              	.LBI114:
 116:Middlewares/Third_Party/FreeRTOS/Source/CMSIS_RTOS/cmsis_os.c **** {
 495              		.loc 1 116 19 is_stmt 1 view .LVU110
 496              	.LBB115:
 118:Middlewares/Third_Party/FreeRTOS/Source/CMSIS_RTOS/cmsis_os.c ****   
 497              		.loc 1 118 3 view .LVU111
 120:Middlewares/Third_Party/FreeRTOS/Source/CMSIS_RTOS/cmsis_os.c ****     priority = (osPriority)((int)osPriorityIdle + (int)(fpriority - tskIDLE_PRIORITY));
 498              		.loc 1 120 3 view .LVU112
 499 001a F8E7     		b	.L23
 500              	.LVL26:
 501              	.L22:
 121:Middlewares/Third_Party/FreeRTOS/Source/CMSIS_RTOS/cmsis_os.c ****   }
 502              		.loc 1 121 5 view .LVU113
 121:Middlewares/Third_Party/FreeRTOS/Source/CMSIS_RTOS/cmsis_os.c ****   }
 503              		.loc 1 121 49 is_stmt 0 view .LVU114
 504 001c 0338     		subs	r0, r0, #3
 505              	.LVL27:
 121:Middlewares/Third_Party/FreeRTOS/Source/CMSIS_RTOS/cmsis_os.c ****   }
 506              		.loc 1 121 14 view .LVU115
 507 001e 00B2     		sxth	r0, r0
 508              	.LVL28:
 121:Middlewares/Third_Party/FreeRTOS/Source/CMSIS_RTOS/cmsis_os.c ****   }
 509              		.loc 1 121 14 view .LVU116
 510 0020 F8E7     		b	.L20
 511              	.LBE115:
 512              	.LBE114:
 513              		.cfi_endproc
 514              	.LFE36:
 516              		.section	.text.osDelay,"ax",%progbits
 517              		.align	1
 518              		.global	osDelay
 519              		.syntax unified
 520              		.code	16
 521              		.thumb_func
 522              		.fpu softvfp
ARM GAS  /tmp/cc6GYW95.s 			page 20


 524              	osDelay:
 525              	.LVL29:
 526              	.LFB37:
 315:Middlewares/Third_Party/FreeRTOS/Source/CMSIS_RTOS/cmsis_os.c **** 
 316:Middlewares/Third_Party/FreeRTOS/Source/CMSIS_RTOS/cmsis_os.c **** /*********************** Generic Wait Functions *******************************/
 317:Middlewares/Third_Party/FreeRTOS/Source/CMSIS_RTOS/cmsis_os.c **** /**
 318:Middlewares/Third_Party/FreeRTOS/Source/CMSIS_RTOS/cmsis_os.c **** * @brief   Wait for Timeout (Time Delay)
 319:Middlewares/Third_Party/FreeRTOS/Source/CMSIS_RTOS/cmsis_os.c **** * @param   millisec      time delay value
 320:Middlewares/Third_Party/FreeRTOS/Source/CMSIS_RTOS/cmsis_os.c **** * @retval  status code that indicates the execution status of the function.
 321:Middlewares/Third_Party/FreeRTOS/Source/CMSIS_RTOS/cmsis_os.c **** */
 322:Middlewares/Third_Party/FreeRTOS/Source/CMSIS_RTOS/cmsis_os.c **** osStatus osDelay (uint32_t millisec)
 323:Middlewares/Third_Party/FreeRTOS/Source/CMSIS_RTOS/cmsis_os.c **** {
 527              		.loc 1 323 1 is_stmt 1 view -0
 528              		.cfi_startproc
 529              		@ args = 0, pretend = 0, frame = 0
 530              		@ frame_needed = 0, uses_anonymous_args = 0
 324:Middlewares/Third_Party/FreeRTOS/Source/CMSIS_RTOS/cmsis_os.c **** #if INCLUDE_vTaskDelay
 325:Middlewares/Third_Party/FreeRTOS/Source/CMSIS_RTOS/cmsis_os.c ****   TickType_t ticks = millisec / portTICK_PERIOD_MS;
 531              		.loc 1 325 3 view .LVU118
 326:Middlewares/Third_Party/FreeRTOS/Source/CMSIS_RTOS/cmsis_os.c ****   
 327:Middlewares/Third_Party/FreeRTOS/Source/CMSIS_RTOS/cmsis_os.c ****   vTaskDelay(ticks ? ticks : 1);          /* Minimum delay = 1 tick */
 532              		.loc 1 327 3 view .LVU119
 323:Middlewares/Third_Party/FreeRTOS/Source/CMSIS_RTOS/cmsis_os.c **** #if INCLUDE_vTaskDelay
 533              		.loc 1 323 1 is_stmt 0 view .LVU120
 534 0000 10B5     		push	{r4, lr}
 535              	.LCFI10:
 536              		.cfi_def_cfa_offset 8
 537              		.cfi_offset 4, -8
 538              		.cfi_offset 14, -4
 539              		.loc 1 327 3 view .LVU121
 540 0002 0028     		cmp	r0, #0
 541 0004 00D1     		bne	.L25
 542 0006 0130     		adds	r0, r0, #1
 543              	.LVL30:
 544              	.L25:
 545              		.loc 1 327 3 view .LVU122
 546 0008 FFF7FEFF 		bl	vTaskDelay
 547              	.LVL31:
 328:Middlewares/Third_Party/FreeRTOS/Source/CMSIS_RTOS/cmsis_os.c ****   
 329:Middlewares/Third_Party/FreeRTOS/Source/CMSIS_RTOS/cmsis_os.c ****   return osOK;
 548              		.loc 1 329 3 is_stmt 1 view .LVU123
 330:Middlewares/Third_Party/FreeRTOS/Source/CMSIS_RTOS/cmsis_os.c **** #else
 331:Middlewares/Third_Party/FreeRTOS/Source/CMSIS_RTOS/cmsis_os.c ****   (void) millisec;
 332:Middlewares/Third_Party/FreeRTOS/Source/CMSIS_RTOS/cmsis_os.c ****   
 333:Middlewares/Third_Party/FreeRTOS/Source/CMSIS_RTOS/cmsis_os.c ****   return osErrorResource;
 334:Middlewares/Third_Party/FreeRTOS/Source/CMSIS_RTOS/cmsis_os.c **** #endif
 335:Middlewares/Third_Party/FreeRTOS/Source/CMSIS_RTOS/cmsis_os.c **** }
 549              		.loc 1 335 1 is_stmt 0 view .LVU124
 550              		@ sp needed
 551 000c 0020     		movs	r0, #0
 552 000e 10BD     		pop	{r4, pc}
 553              		.cfi_endproc
 554              	.LFE37:
 556              		.section	.text.osTimerCreate,"ax",%progbits
 557              		.align	1
 558              		.global	osTimerCreate
 559              		.syntax unified
ARM GAS  /tmp/cc6GYW95.s 			page 21


 560              		.code	16
 561              		.thumb_func
 562              		.fpu softvfp
 564              	osTimerCreate:
 565              	.LVL32:
 566              	.LFB38:
 336:Middlewares/Third_Party/FreeRTOS/Source/CMSIS_RTOS/cmsis_os.c **** 
 337:Middlewares/Third_Party/FreeRTOS/Source/CMSIS_RTOS/cmsis_os.c **** #if (defined (osFeature_Wait)  &&  (osFeature_Wait != 0)) /* Generic Wait available */
 338:Middlewares/Third_Party/FreeRTOS/Source/CMSIS_RTOS/cmsis_os.c **** /**
 339:Middlewares/Third_Party/FreeRTOS/Source/CMSIS_RTOS/cmsis_os.c **** * @brief  Wait for Signal, Message, Mail, or Timeout
 340:Middlewares/Third_Party/FreeRTOS/Source/CMSIS_RTOS/cmsis_os.c **** * @param   millisec  timeout value or 0 in case of no time-out
 341:Middlewares/Third_Party/FreeRTOS/Source/CMSIS_RTOS/cmsis_os.c **** * @retval  event that contains signal, message, or mail information or error code.
 342:Middlewares/Third_Party/FreeRTOS/Source/CMSIS_RTOS/cmsis_os.c **** * @note   MUST REMAIN UNCHANGED: \b osWait shall be consistent in every CMSIS-RTOS.
 343:Middlewares/Third_Party/FreeRTOS/Source/CMSIS_RTOS/cmsis_os.c **** */
 344:Middlewares/Third_Party/FreeRTOS/Source/CMSIS_RTOS/cmsis_os.c **** osEvent osWait (uint32_t millisec);
 345:Middlewares/Third_Party/FreeRTOS/Source/CMSIS_RTOS/cmsis_os.c **** 
 346:Middlewares/Third_Party/FreeRTOS/Source/CMSIS_RTOS/cmsis_os.c **** #endif  /* Generic Wait available */
 347:Middlewares/Third_Party/FreeRTOS/Source/CMSIS_RTOS/cmsis_os.c **** 
 348:Middlewares/Third_Party/FreeRTOS/Source/CMSIS_RTOS/cmsis_os.c **** /***********************  Timer Management Functions ***************************/
 349:Middlewares/Third_Party/FreeRTOS/Source/CMSIS_RTOS/cmsis_os.c **** /**
 350:Middlewares/Third_Party/FreeRTOS/Source/CMSIS_RTOS/cmsis_os.c **** * @brief  Create a timer.
 351:Middlewares/Third_Party/FreeRTOS/Source/CMSIS_RTOS/cmsis_os.c **** * @param  timer_def     timer object referenced with \ref osTimer.
 352:Middlewares/Third_Party/FreeRTOS/Source/CMSIS_RTOS/cmsis_os.c **** * @param  type          osTimerOnce for one-shot or osTimerPeriodic for periodic behavior.
 353:Middlewares/Third_Party/FreeRTOS/Source/CMSIS_RTOS/cmsis_os.c **** * @param  argument      argument to the timer call back function.
 354:Middlewares/Third_Party/FreeRTOS/Source/CMSIS_RTOS/cmsis_os.c **** * @retval  timer ID for reference by other functions or NULL in case of error.
 355:Middlewares/Third_Party/FreeRTOS/Source/CMSIS_RTOS/cmsis_os.c **** * @note   MUST REMAIN UNCHANGED: \b osTimerCreate shall be consistent in every CMSIS-RTOS.
 356:Middlewares/Third_Party/FreeRTOS/Source/CMSIS_RTOS/cmsis_os.c **** */
 357:Middlewares/Third_Party/FreeRTOS/Source/CMSIS_RTOS/cmsis_os.c **** osTimerId osTimerCreate (const osTimerDef_t *timer_def, os_timer_type type, void *argument)
 358:Middlewares/Third_Party/FreeRTOS/Source/CMSIS_RTOS/cmsis_os.c **** {
 567              		.loc 1 358 1 is_stmt 1 view -0
 568              		.cfi_startproc
 569              		@ args = 0, pretend = 0, frame = 0
 570              		@ frame_needed = 0, uses_anonymous_args = 0
 571              		@ link register save eliminated.
 359:Middlewares/Third_Party/FreeRTOS/Source/CMSIS_RTOS/cmsis_os.c **** #if (configUSE_TIMERS == 1)
 360:Middlewares/Third_Party/FreeRTOS/Source/CMSIS_RTOS/cmsis_os.c **** 
 361:Middlewares/Third_Party/FreeRTOS/Source/CMSIS_RTOS/cmsis_os.c **** #if( ( configSUPPORT_STATIC_ALLOCATION == 1 ) && ( configSUPPORT_DYNAMIC_ALLOCATION == 1 ) ) 
 362:Middlewares/Third_Party/FreeRTOS/Source/CMSIS_RTOS/cmsis_os.c ****   if(timer_def->controlblock != NULL) {
 363:Middlewares/Third_Party/FreeRTOS/Source/CMSIS_RTOS/cmsis_os.c ****     return xTimerCreateStatic((const char *)"",
 364:Middlewares/Third_Party/FreeRTOS/Source/CMSIS_RTOS/cmsis_os.c ****                       1, // period should be filled when starting the Timer using osTimerStart
 365:Middlewares/Third_Party/FreeRTOS/Source/CMSIS_RTOS/cmsis_os.c ****                       (type == osTimerPeriodic) ? pdTRUE : pdFALSE,
 366:Middlewares/Third_Party/FreeRTOS/Source/CMSIS_RTOS/cmsis_os.c ****                       (void *) argument,
 367:Middlewares/Third_Party/FreeRTOS/Source/CMSIS_RTOS/cmsis_os.c ****                       (TaskFunction_t)timer_def->ptimer,
 368:Middlewares/Third_Party/FreeRTOS/Source/CMSIS_RTOS/cmsis_os.c ****                       (StaticTimer_t *)timer_def->controlblock);
 369:Middlewares/Third_Party/FreeRTOS/Source/CMSIS_RTOS/cmsis_os.c ****   }
 370:Middlewares/Third_Party/FreeRTOS/Source/CMSIS_RTOS/cmsis_os.c ****   else {
 371:Middlewares/Third_Party/FreeRTOS/Source/CMSIS_RTOS/cmsis_os.c ****     return xTimerCreate((const char *)"",
 372:Middlewares/Third_Party/FreeRTOS/Source/CMSIS_RTOS/cmsis_os.c ****                       1, // period should be filled when starting the Timer using osTimerStart
 373:Middlewares/Third_Party/FreeRTOS/Source/CMSIS_RTOS/cmsis_os.c ****                       (type == osTimerPeriodic) ? pdTRUE : pdFALSE,
 374:Middlewares/Third_Party/FreeRTOS/Source/CMSIS_RTOS/cmsis_os.c ****                       (void *) argument,
 375:Middlewares/Third_Party/FreeRTOS/Source/CMSIS_RTOS/cmsis_os.c ****                       (TaskFunction_t)timer_def->ptimer);
 376:Middlewares/Third_Party/FreeRTOS/Source/CMSIS_RTOS/cmsis_os.c ****  }
 377:Middlewares/Third_Party/FreeRTOS/Source/CMSIS_RTOS/cmsis_os.c **** #elif( configSUPPORT_STATIC_ALLOCATION == 1 )
 378:Middlewares/Third_Party/FreeRTOS/Source/CMSIS_RTOS/cmsis_os.c ****   return xTimerCreateStatic((const char *)"",
 379:Middlewares/Third_Party/FreeRTOS/Source/CMSIS_RTOS/cmsis_os.c ****                       1, // period should be filled when starting the Timer using osTimerStart
 380:Middlewares/Third_Party/FreeRTOS/Source/CMSIS_RTOS/cmsis_os.c ****                       (type == osTimerPeriodic) ? pdTRUE : pdFALSE,
 381:Middlewares/Third_Party/FreeRTOS/Source/CMSIS_RTOS/cmsis_os.c ****                       (void *) argument,
ARM GAS  /tmp/cc6GYW95.s 			page 22


 382:Middlewares/Third_Party/FreeRTOS/Source/CMSIS_RTOS/cmsis_os.c ****                       (TaskFunction_t)timer_def->ptimer,
 383:Middlewares/Third_Party/FreeRTOS/Source/CMSIS_RTOS/cmsis_os.c ****                       (StaticTimer_t *)timer_def->controlblock);  
 384:Middlewares/Third_Party/FreeRTOS/Source/CMSIS_RTOS/cmsis_os.c **** #else
 385:Middlewares/Third_Party/FreeRTOS/Source/CMSIS_RTOS/cmsis_os.c ****   return xTimerCreate((const char *)"",
 386:Middlewares/Third_Party/FreeRTOS/Source/CMSIS_RTOS/cmsis_os.c ****                       1, // period should be filled when starting the Timer using osTimerStart
 387:Middlewares/Third_Party/FreeRTOS/Source/CMSIS_RTOS/cmsis_os.c ****                       (type == osTimerPeriodic) ? pdTRUE : pdFALSE,
 388:Middlewares/Third_Party/FreeRTOS/Source/CMSIS_RTOS/cmsis_os.c ****                       (void *) argument,
 389:Middlewares/Third_Party/FreeRTOS/Source/CMSIS_RTOS/cmsis_os.c ****                       (TaskFunction_t)timer_def->ptimer);
 390:Middlewares/Third_Party/FreeRTOS/Source/CMSIS_RTOS/cmsis_os.c **** #endif
 391:Middlewares/Third_Party/FreeRTOS/Source/CMSIS_RTOS/cmsis_os.c **** 
 392:Middlewares/Third_Party/FreeRTOS/Source/CMSIS_RTOS/cmsis_os.c **** #else 
 393:Middlewares/Third_Party/FreeRTOS/Source/CMSIS_RTOS/cmsis_os.c **** 	return NULL;
 572              		.loc 1 393 2 view .LVU126
 394:Middlewares/Third_Party/FreeRTOS/Source/CMSIS_RTOS/cmsis_os.c **** #endif
 395:Middlewares/Third_Party/FreeRTOS/Source/CMSIS_RTOS/cmsis_os.c **** }
 573              		.loc 1 395 1 is_stmt 0 view .LVU127
 574 0000 0020     		movs	r0, #0
 575              	.LVL33:
 576              		.loc 1 395 1 view .LVU128
 577              		@ sp needed
 578 0002 7047     		bx	lr
 579              		.cfi_endproc
 580              	.LFE38:
 582              		.section	.text.osTimerStart,"ax",%progbits
 583              		.align	1
 584              		.global	osTimerStart
 585              		.syntax unified
 586              		.code	16
 587              		.thumb_func
 588              		.fpu softvfp
 590              	osTimerStart:
 591              	.LVL34:
 592              	.LFB39:
 396:Middlewares/Third_Party/FreeRTOS/Source/CMSIS_RTOS/cmsis_os.c **** 
 397:Middlewares/Third_Party/FreeRTOS/Source/CMSIS_RTOS/cmsis_os.c **** /**
 398:Middlewares/Third_Party/FreeRTOS/Source/CMSIS_RTOS/cmsis_os.c **** * @brief  Start or restart a timer.
 399:Middlewares/Third_Party/FreeRTOS/Source/CMSIS_RTOS/cmsis_os.c **** * @param  timer_id      timer ID obtained by \ref osTimerCreate.
 400:Middlewares/Third_Party/FreeRTOS/Source/CMSIS_RTOS/cmsis_os.c **** * @param  millisec      time delay value of the timer.
 401:Middlewares/Third_Party/FreeRTOS/Source/CMSIS_RTOS/cmsis_os.c **** * @retval  status code that indicates the execution status of the function
 402:Middlewares/Third_Party/FreeRTOS/Source/CMSIS_RTOS/cmsis_os.c **** * @note   MUST REMAIN UNCHANGED: \b osTimerStart shall be consistent in every CMSIS-RTOS.
 403:Middlewares/Third_Party/FreeRTOS/Source/CMSIS_RTOS/cmsis_os.c **** */
 404:Middlewares/Third_Party/FreeRTOS/Source/CMSIS_RTOS/cmsis_os.c **** osStatus osTimerStart (osTimerId timer_id, uint32_t millisec)
 405:Middlewares/Third_Party/FreeRTOS/Source/CMSIS_RTOS/cmsis_os.c **** {
 593              		.loc 1 405 1 is_stmt 1 view -0
 594              		.cfi_startproc
 595              		@ args = 0, pretend = 0, frame = 0
 596              		@ frame_needed = 0, uses_anonymous_args = 0
 597              		@ link register save eliminated.
 406:Middlewares/Third_Party/FreeRTOS/Source/CMSIS_RTOS/cmsis_os.c ****   osStatus result = osOK;
 598              		.loc 1 406 3 view .LVU130
 407:Middlewares/Third_Party/FreeRTOS/Source/CMSIS_RTOS/cmsis_os.c **** #if (configUSE_TIMERS == 1)  
 408:Middlewares/Third_Party/FreeRTOS/Source/CMSIS_RTOS/cmsis_os.c ****   portBASE_TYPE taskWoken = pdFALSE;
 409:Middlewares/Third_Party/FreeRTOS/Source/CMSIS_RTOS/cmsis_os.c ****   TickType_t ticks = millisec / portTICK_PERIOD_MS;
 410:Middlewares/Third_Party/FreeRTOS/Source/CMSIS_RTOS/cmsis_os.c **** 
 411:Middlewares/Third_Party/FreeRTOS/Source/CMSIS_RTOS/cmsis_os.c ****   if (ticks == 0)
 412:Middlewares/Third_Party/FreeRTOS/Source/CMSIS_RTOS/cmsis_os.c ****     ticks = 1;
 413:Middlewares/Third_Party/FreeRTOS/Source/CMSIS_RTOS/cmsis_os.c ****     
ARM GAS  /tmp/cc6GYW95.s 			page 23


 414:Middlewares/Third_Party/FreeRTOS/Source/CMSIS_RTOS/cmsis_os.c ****   if (inHandlerMode()) 
 415:Middlewares/Third_Party/FreeRTOS/Source/CMSIS_RTOS/cmsis_os.c ****   {
 416:Middlewares/Third_Party/FreeRTOS/Source/CMSIS_RTOS/cmsis_os.c ****     if (xTimerChangePeriodFromISR(timer_id, ticks, &taskWoken) != pdPASS)
 417:Middlewares/Third_Party/FreeRTOS/Source/CMSIS_RTOS/cmsis_os.c ****     {
 418:Middlewares/Third_Party/FreeRTOS/Source/CMSIS_RTOS/cmsis_os.c ****       result = osErrorOS;
 419:Middlewares/Third_Party/FreeRTOS/Source/CMSIS_RTOS/cmsis_os.c ****     }
 420:Middlewares/Third_Party/FreeRTOS/Source/CMSIS_RTOS/cmsis_os.c ****     else
 421:Middlewares/Third_Party/FreeRTOS/Source/CMSIS_RTOS/cmsis_os.c ****     {
 422:Middlewares/Third_Party/FreeRTOS/Source/CMSIS_RTOS/cmsis_os.c ****       portEND_SWITCHING_ISR(taskWoken);     
 423:Middlewares/Third_Party/FreeRTOS/Source/CMSIS_RTOS/cmsis_os.c ****     }
 424:Middlewares/Third_Party/FreeRTOS/Source/CMSIS_RTOS/cmsis_os.c ****   }
 425:Middlewares/Third_Party/FreeRTOS/Source/CMSIS_RTOS/cmsis_os.c ****   else 
 426:Middlewares/Third_Party/FreeRTOS/Source/CMSIS_RTOS/cmsis_os.c ****   {
 427:Middlewares/Third_Party/FreeRTOS/Source/CMSIS_RTOS/cmsis_os.c ****     if (xTimerChangePeriod(timer_id, ticks, 0) != pdPASS)
 428:Middlewares/Third_Party/FreeRTOS/Source/CMSIS_RTOS/cmsis_os.c ****       result = osErrorOS;
 429:Middlewares/Third_Party/FreeRTOS/Source/CMSIS_RTOS/cmsis_os.c ****   }
 430:Middlewares/Third_Party/FreeRTOS/Source/CMSIS_RTOS/cmsis_os.c **** 
 431:Middlewares/Third_Party/FreeRTOS/Source/CMSIS_RTOS/cmsis_os.c **** #else 
 432:Middlewares/Third_Party/FreeRTOS/Source/CMSIS_RTOS/cmsis_os.c ****   result = osErrorOS;
 599              		.loc 1 432 3 view .LVU131
 433:Middlewares/Third_Party/FreeRTOS/Source/CMSIS_RTOS/cmsis_os.c **** #endif
 434:Middlewares/Third_Party/FreeRTOS/Source/CMSIS_RTOS/cmsis_os.c ****   return result;
 600              		.loc 1 434 3 view .LVU132
 435:Middlewares/Third_Party/FreeRTOS/Source/CMSIS_RTOS/cmsis_os.c **** }
 601              		.loc 1 435 1 is_stmt 0 view .LVU133
 602 0000 FF20     		movs	r0, #255
 603              	.LVL35:
 604              		.loc 1 435 1 view .LVU134
 605              		@ sp needed
 606 0002 7047     		bx	lr
 607              		.cfi_endproc
 608              	.LFE39:
 610              		.section	.text.osTimerStop,"ax",%progbits
 611              		.align	1
 612              		.global	osTimerStop
 613              		.syntax unified
 614              		.code	16
 615              		.thumb_func
 616              		.fpu softvfp
 618              	osTimerStop:
 619              	.LVL36:
 620              	.LFB40:
 436:Middlewares/Third_Party/FreeRTOS/Source/CMSIS_RTOS/cmsis_os.c **** 
 437:Middlewares/Third_Party/FreeRTOS/Source/CMSIS_RTOS/cmsis_os.c **** /**
 438:Middlewares/Third_Party/FreeRTOS/Source/CMSIS_RTOS/cmsis_os.c **** * @brief  Stop a timer.
 439:Middlewares/Third_Party/FreeRTOS/Source/CMSIS_RTOS/cmsis_os.c **** * @param  timer_id      timer ID obtained by \ref osTimerCreate
 440:Middlewares/Third_Party/FreeRTOS/Source/CMSIS_RTOS/cmsis_os.c **** * @retval  status code that indicates the execution status of the function.
 441:Middlewares/Third_Party/FreeRTOS/Source/CMSIS_RTOS/cmsis_os.c **** * @note   MUST REMAIN UNCHANGED: \b osTimerStop shall be consistent in every CMSIS-RTOS.
 442:Middlewares/Third_Party/FreeRTOS/Source/CMSIS_RTOS/cmsis_os.c **** */
 443:Middlewares/Third_Party/FreeRTOS/Source/CMSIS_RTOS/cmsis_os.c **** osStatus osTimerStop (osTimerId timer_id)
 444:Middlewares/Third_Party/FreeRTOS/Source/CMSIS_RTOS/cmsis_os.c **** {
 621              		.loc 1 444 1 is_stmt 1 view -0
 622              		.cfi_startproc
 623              		@ args = 0, pretend = 0, frame = 0
 624              		@ frame_needed = 0, uses_anonymous_args = 0
 625              		@ link register save eliminated.
 445:Middlewares/Third_Party/FreeRTOS/Source/CMSIS_RTOS/cmsis_os.c ****   osStatus result = osOK;
ARM GAS  /tmp/cc6GYW95.s 			page 24


 626              		.loc 1 445 3 view .LVU136
 446:Middlewares/Third_Party/FreeRTOS/Source/CMSIS_RTOS/cmsis_os.c **** #if (configUSE_TIMERS == 1)  
 447:Middlewares/Third_Party/FreeRTOS/Source/CMSIS_RTOS/cmsis_os.c ****   portBASE_TYPE taskWoken = pdFALSE;
 448:Middlewares/Third_Party/FreeRTOS/Source/CMSIS_RTOS/cmsis_os.c **** 
 449:Middlewares/Third_Party/FreeRTOS/Source/CMSIS_RTOS/cmsis_os.c ****   if (inHandlerMode()) {
 450:Middlewares/Third_Party/FreeRTOS/Source/CMSIS_RTOS/cmsis_os.c ****     if (xTimerStopFromISR(timer_id, &taskWoken) != pdPASS) {
 451:Middlewares/Third_Party/FreeRTOS/Source/CMSIS_RTOS/cmsis_os.c ****       return osErrorOS;
 452:Middlewares/Third_Party/FreeRTOS/Source/CMSIS_RTOS/cmsis_os.c ****     }
 453:Middlewares/Third_Party/FreeRTOS/Source/CMSIS_RTOS/cmsis_os.c ****     portEND_SWITCHING_ISR(taskWoken);
 454:Middlewares/Third_Party/FreeRTOS/Source/CMSIS_RTOS/cmsis_os.c ****   }
 455:Middlewares/Third_Party/FreeRTOS/Source/CMSIS_RTOS/cmsis_os.c ****   else {
 456:Middlewares/Third_Party/FreeRTOS/Source/CMSIS_RTOS/cmsis_os.c ****     if (xTimerStop(timer_id, 0) != pdPASS) {
 457:Middlewares/Third_Party/FreeRTOS/Source/CMSIS_RTOS/cmsis_os.c ****       result = osErrorOS;
 458:Middlewares/Third_Party/FreeRTOS/Source/CMSIS_RTOS/cmsis_os.c ****     }
 459:Middlewares/Third_Party/FreeRTOS/Source/CMSIS_RTOS/cmsis_os.c ****   }
 460:Middlewares/Third_Party/FreeRTOS/Source/CMSIS_RTOS/cmsis_os.c **** #else 
 461:Middlewares/Third_Party/FreeRTOS/Source/CMSIS_RTOS/cmsis_os.c ****   result = osErrorOS;
 627              		.loc 1 461 3 view .LVU137
 462:Middlewares/Third_Party/FreeRTOS/Source/CMSIS_RTOS/cmsis_os.c **** #endif 
 463:Middlewares/Third_Party/FreeRTOS/Source/CMSIS_RTOS/cmsis_os.c ****   return result;
 628              		.loc 1 463 3 view .LVU138
 464:Middlewares/Third_Party/FreeRTOS/Source/CMSIS_RTOS/cmsis_os.c **** }
 629              		.loc 1 464 1 is_stmt 0 view .LVU139
 630 0000 FF20     		movs	r0, #255
 631              	.LVL37:
 632              		.loc 1 464 1 view .LVU140
 633              		@ sp needed
 634 0002 7047     		bx	lr
 635              		.cfi_endproc
 636              	.LFE40:
 638              		.section	.text.osTimerDelete,"ax",%progbits
 639              		.align	1
 640              		.global	osTimerDelete
 641              		.syntax unified
 642              		.code	16
 643              		.thumb_func
 644              		.fpu softvfp
 646              	osTimerDelete:
 647              	.LFB82:
 648              		.cfi_startproc
 649              		@ args = 0, pretend = 0, frame = 0
 650              		@ frame_needed = 0, uses_anonymous_args = 0
 651              		@ link register save eliminated.
 652 0000 FF20     		movs	r0, #255
 653              		@ sp needed
 654 0002 7047     		bx	lr
 655              		.cfi_endproc
 656              	.LFE82:
 658              		.section	.text.osSignalSet,"ax",%progbits
 659              		.align	1
 660              		.global	osSignalSet
 661              		.syntax unified
 662              		.code	16
 663              		.thumb_func
 664              		.fpu softvfp
 666              	osSignalSet:
 667              	.LVL38:
ARM GAS  /tmp/cc6GYW95.s 			page 25


 668              	.LFB42:
 465:Middlewares/Third_Party/FreeRTOS/Source/CMSIS_RTOS/cmsis_os.c **** 
 466:Middlewares/Third_Party/FreeRTOS/Source/CMSIS_RTOS/cmsis_os.c **** /**
 467:Middlewares/Third_Party/FreeRTOS/Source/CMSIS_RTOS/cmsis_os.c **** * @brief  Delete a timer.
 468:Middlewares/Third_Party/FreeRTOS/Source/CMSIS_RTOS/cmsis_os.c **** * @param  timer_id      timer ID obtained by \ref osTimerCreate
 469:Middlewares/Third_Party/FreeRTOS/Source/CMSIS_RTOS/cmsis_os.c **** * @retval  status code that indicates the execution status of the function.
 470:Middlewares/Third_Party/FreeRTOS/Source/CMSIS_RTOS/cmsis_os.c **** * @note   MUST REMAIN UNCHANGED: \b osTimerDelete shall be consistent in every CMSIS-RTOS.
 471:Middlewares/Third_Party/FreeRTOS/Source/CMSIS_RTOS/cmsis_os.c **** */
 472:Middlewares/Third_Party/FreeRTOS/Source/CMSIS_RTOS/cmsis_os.c **** osStatus osTimerDelete (osTimerId timer_id)
 473:Middlewares/Third_Party/FreeRTOS/Source/CMSIS_RTOS/cmsis_os.c **** {
 474:Middlewares/Third_Party/FreeRTOS/Source/CMSIS_RTOS/cmsis_os.c **** osStatus result = osOK;
 475:Middlewares/Third_Party/FreeRTOS/Source/CMSIS_RTOS/cmsis_os.c **** 
 476:Middlewares/Third_Party/FreeRTOS/Source/CMSIS_RTOS/cmsis_os.c **** #if (configUSE_TIMERS == 1)
 477:Middlewares/Third_Party/FreeRTOS/Source/CMSIS_RTOS/cmsis_os.c **** 
 478:Middlewares/Third_Party/FreeRTOS/Source/CMSIS_RTOS/cmsis_os.c ****    if (inHandlerMode()) {
 479:Middlewares/Third_Party/FreeRTOS/Source/CMSIS_RTOS/cmsis_os.c ****      return osErrorISR;
 480:Middlewares/Third_Party/FreeRTOS/Source/CMSIS_RTOS/cmsis_os.c ****   }
 481:Middlewares/Third_Party/FreeRTOS/Source/CMSIS_RTOS/cmsis_os.c ****   else { 
 482:Middlewares/Third_Party/FreeRTOS/Source/CMSIS_RTOS/cmsis_os.c ****     if ((xTimerDelete(timer_id, osWaitForever )) != pdPASS) {
 483:Middlewares/Third_Party/FreeRTOS/Source/CMSIS_RTOS/cmsis_os.c ****       result = osErrorOS;
 484:Middlewares/Third_Party/FreeRTOS/Source/CMSIS_RTOS/cmsis_os.c ****     }
 485:Middlewares/Third_Party/FreeRTOS/Source/CMSIS_RTOS/cmsis_os.c ****   } 
 486:Middlewares/Third_Party/FreeRTOS/Source/CMSIS_RTOS/cmsis_os.c ****     
 487:Middlewares/Third_Party/FreeRTOS/Source/CMSIS_RTOS/cmsis_os.c **** #else 
 488:Middlewares/Third_Party/FreeRTOS/Source/CMSIS_RTOS/cmsis_os.c ****   result = osErrorOS;
 489:Middlewares/Third_Party/FreeRTOS/Source/CMSIS_RTOS/cmsis_os.c **** #endif 
 490:Middlewares/Third_Party/FreeRTOS/Source/CMSIS_RTOS/cmsis_os.c ****  
 491:Middlewares/Third_Party/FreeRTOS/Source/CMSIS_RTOS/cmsis_os.c ****   return result;
 492:Middlewares/Third_Party/FreeRTOS/Source/CMSIS_RTOS/cmsis_os.c **** }
 493:Middlewares/Third_Party/FreeRTOS/Source/CMSIS_RTOS/cmsis_os.c **** 
 494:Middlewares/Third_Party/FreeRTOS/Source/CMSIS_RTOS/cmsis_os.c **** /***************************  Signal Management ********************************/
 495:Middlewares/Third_Party/FreeRTOS/Source/CMSIS_RTOS/cmsis_os.c **** /**
 496:Middlewares/Third_Party/FreeRTOS/Source/CMSIS_RTOS/cmsis_os.c **** * @brief  Set the specified Signal Flags of an active thread.
 497:Middlewares/Third_Party/FreeRTOS/Source/CMSIS_RTOS/cmsis_os.c **** * @param  thread_id     thread ID obtained by \ref osThreadCreate or \ref osThreadGetId.
 498:Middlewares/Third_Party/FreeRTOS/Source/CMSIS_RTOS/cmsis_os.c **** * @param  signals       specifies the signal flags of the thread that should be set.
 499:Middlewares/Third_Party/FreeRTOS/Source/CMSIS_RTOS/cmsis_os.c **** * @retval previous signal flags of the specified thread or 0x80000000 in case of incorrect paramete
 500:Middlewares/Third_Party/FreeRTOS/Source/CMSIS_RTOS/cmsis_os.c **** * @note   MUST REMAIN UNCHANGED: \b osSignalSet shall be consistent in every CMSIS-RTOS.
 501:Middlewares/Third_Party/FreeRTOS/Source/CMSIS_RTOS/cmsis_os.c **** */
 502:Middlewares/Third_Party/FreeRTOS/Source/CMSIS_RTOS/cmsis_os.c **** int32_t osSignalSet (osThreadId thread_id, int32_t signal)
 503:Middlewares/Third_Party/FreeRTOS/Source/CMSIS_RTOS/cmsis_os.c **** {
 669              		.loc 1 503 1 is_stmt 1 view -0
 670              		.cfi_startproc
 671              		@ args = 0, pretend = 0, frame = 8
 672              		@ frame_needed = 0, uses_anonymous_args = 0
 504:Middlewares/Third_Party/FreeRTOS/Source/CMSIS_RTOS/cmsis_os.c **** #if( configUSE_TASK_NOTIFICATIONS == 1 )	
 505:Middlewares/Third_Party/FreeRTOS/Source/CMSIS_RTOS/cmsis_os.c ****   BaseType_t xHigherPriorityTaskWoken = pdFALSE;
 673              		.loc 1 505 3 view .LVU142
 503:Middlewares/Third_Party/FreeRTOS/Source/CMSIS_RTOS/cmsis_os.c **** #if( configUSE_TASK_NOTIFICATIONS == 1 )	
 674              		.loc 1 503 1 is_stmt 0 view .LVU143
 675 0000 1FB5     		push	{r0, r1, r2, r3, r4, lr}
 676              	.LCFI11:
 677              		.cfi_def_cfa_offset 24
 678              		.cfi_offset 0, -24
 679              		.cfi_offset 1, -20
 680              		.cfi_offset 2, -16
 681              		.cfi_offset 3, -12
 682              		.cfi_offset 4, -8
ARM GAS  /tmp/cc6GYW95.s 			page 26


 683              		.cfi_offset 14, -4
 684              		.loc 1 505 14 view .LVU144
 685 0002 0023     		movs	r3, #0
 686 0004 0293     		str	r3, [sp, #8]
 506:Middlewares/Third_Party/FreeRTOS/Source/CMSIS_RTOS/cmsis_os.c ****   uint32_t ulPreviousNotificationValue = 0;
 687              		.loc 1 506 3 is_stmt 1 view .LVU145
 688              		.loc 1 506 12 is_stmt 0 view .LVU146
 689 0006 0393     		str	r3, [sp, #12]
 507:Middlewares/Third_Party/FreeRTOS/Source/CMSIS_RTOS/cmsis_os.c ****   
 508:Middlewares/Third_Party/FreeRTOS/Source/CMSIS_RTOS/cmsis_os.c ****   if (inHandlerMode())
 690              		.loc 1 508 3 is_stmt 1 view .LVU147
 691              	.LBB116:
 692              	.LBI116:
 130:Middlewares/Third_Party/FreeRTOS/Source/CMSIS_RTOS/cmsis_os.c **** {
 693              		.loc 1 130 12 view .LVU148
 694              	.LBE116:
 132:Middlewares/Third_Party/FreeRTOS/Source/CMSIS_RTOS/cmsis_os.c **** }
 695              		.loc 1 132 3 view .LVU149
 696              	.LBB119:
 697              	.LBB117:
 698              	.LBI117:
 205:Drivers/CMSIS/Include/cmsis_gcc.h **** {
 699              		.loc 2 205 31 view .LVU150
 700              	.LBB118:
 207:Drivers/CMSIS/Include/cmsis_gcc.h **** 
 701              		.loc 2 207 3 view .LVU151
 209:Drivers/CMSIS/Include/cmsis_gcc.h ****   return(result);
 702              		.loc 2 209 3 view .LVU152
 703              		.syntax divided
 704              	@ 209 "Drivers/CMSIS/Include/cmsis_gcc.h" 1
 705 0008 EFF30583 		MRS r3, ipsr
 706              	@ 0 "" 2
 707              	.LVL39:
 708              		.loc 2 210 3 view .LVU153
 709              		.loc 2 210 3 is_stmt 0 view .LVU154
 710              		.thumb
 711              		.syntax unified
 712              	.LBE118:
 713              	.LBE117:
 714              	.LBE119:
 715              		.loc 1 508 6 view .LVU155
 716 000c 002B     		cmp	r3, #0
 717 000e 14D0     		beq	.L31
 509:Middlewares/Third_Party/FreeRTOS/Source/CMSIS_RTOS/cmsis_os.c ****   {
 510:Middlewares/Third_Party/FreeRTOS/Source/CMSIS_RTOS/cmsis_os.c ****     if(xTaskGenericNotifyFromISR( thread_id , (uint32_t)signal, eSetBits, &ulPreviousNotificationVa
 718              		.loc 1 510 5 is_stmt 1 view .LVU156
 719              		.loc 1 510 8 is_stmt 0 view .LVU157
 720 0010 02AB     		add	r3, sp, #8
 721 0012 0093     		str	r3, [sp]
 722 0014 0122     		movs	r2, #1
 723 0016 03AB     		add	r3, sp, #12
 724 0018 FFF7FEFF 		bl	xTaskGenericNotifyFromISR
 725              	.LVL40:
 726              		.loc 1 510 7 view .LVU158
 727 001c 0128     		cmp	r0, #1
 728 001e 03D0     		beq	.L32
 729              	.L36:
ARM GAS  /tmp/cc6GYW95.s 			page 27


 511:Middlewares/Third_Party/FreeRTOS/Source/CMSIS_RTOS/cmsis_os.c ****       return 0x80000000;
 730              		.loc 1 511 14 view .LVU159
 731 0020 8020     		movs	r0, #128
 732 0022 0006     		lsls	r0, r0, #24
 733              	.L30:
 512:Middlewares/Third_Party/FreeRTOS/Source/CMSIS_RTOS/cmsis_os.c ****     
 513:Middlewares/Third_Party/FreeRTOS/Source/CMSIS_RTOS/cmsis_os.c ****     portYIELD_FROM_ISR( xHigherPriorityTaskWoken );
 514:Middlewares/Third_Party/FreeRTOS/Source/CMSIS_RTOS/cmsis_os.c ****   }  
 515:Middlewares/Third_Party/FreeRTOS/Source/CMSIS_RTOS/cmsis_os.c ****   else if(xTaskGenericNotify( thread_id , (uint32_t)signal, eSetBits, &ulPreviousNotificationValue)
 516:Middlewares/Third_Party/FreeRTOS/Source/CMSIS_RTOS/cmsis_os.c ****     return 0x80000000;
 517:Middlewares/Third_Party/FreeRTOS/Source/CMSIS_RTOS/cmsis_os.c ****   
 518:Middlewares/Third_Party/FreeRTOS/Source/CMSIS_RTOS/cmsis_os.c ****   return ulPreviousNotificationValue;
 519:Middlewares/Third_Party/FreeRTOS/Source/CMSIS_RTOS/cmsis_os.c **** #else
 520:Middlewares/Third_Party/FreeRTOS/Source/CMSIS_RTOS/cmsis_os.c ****   (void) thread_id;
 521:Middlewares/Third_Party/FreeRTOS/Source/CMSIS_RTOS/cmsis_os.c ****   (void) signal;
 522:Middlewares/Third_Party/FreeRTOS/Source/CMSIS_RTOS/cmsis_os.c **** 
 523:Middlewares/Third_Party/FreeRTOS/Source/CMSIS_RTOS/cmsis_os.c ****   return 0x80000000; /* Task Notification not supported */ 	
 524:Middlewares/Third_Party/FreeRTOS/Source/CMSIS_RTOS/cmsis_os.c **** #endif
 525:Middlewares/Third_Party/FreeRTOS/Source/CMSIS_RTOS/cmsis_os.c **** }
 734              		.loc 1 525 1 view .LVU160
 735 0024 05B0     		add	sp, sp, #20
 736              		@ sp needed
 737 0026 00BD     		pop	{pc}
 738              	.L32:
 513:Middlewares/Third_Party/FreeRTOS/Source/CMSIS_RTOS/cmsis_os.c ****   }  
 739              		.loc 1 513 5 is_stmt 1 view .LVU161
 740 0028 029B     		ldr	r3, [sp, #8]
 741 002a 002B     		cmp	r3, #0
 742 002c 03D0     		beq	.L35
 513:Middlewares/Third_Party/FreeRTOS/Source/CMSIS_RTOS/cmsis_os.c ****   }  
 743              		.loc 1 513 5 discriminator 1 view .LVU162
 744 002e 8022     		movs	r2, #128
 745 0030 054B     		ldr	r3, .L38
 746 0032 5205     		lsls	r2, r2, #21
 747 0034 1A60     		str	r2, [r3]
 748              	.L35:
 518:Middlewares/Third_Party/FreeRTOS/Source/CMSIS_RTOS/cmsis_os.c **** #else
 749              		.loc 1 518 3 view .LVU163
 518:Middlewares/Third_Party/FreeRTOS/Source/CMSIS_RTOS/cmsis_os.c **** #else
 750              		.loc 1 518 10 is_stmt 0 view .LVU164
 751 0036 0398     		ldr	r0, [sp, #12]
 752 0038 F4E7     		b	.L30
 753              	.LVL41:
 754              	.L31:
 515:Middlewares/Third_Party/FreeRTOS/Source/CMSIS_RTOS/cmsis_os.c ****     return 0x80000000;
 755              		.loc 1 515 8 is_stmt 1 view .LVU165
 515:Middlewares/Third_Party/FreeRTOS/Source/CMSIS_RTOS/cmsis_os.c ****     return 0x80000000;
 756              		.loc 1 515 11 is_stmt 0 view .LVU166
 757 003a 0122     		movs	r2, #1
 758 003c 03AB     		add	r3, sp, #12
 759 003e FFF7FEFF 		bl	xTaskGenericNotify
 760              	.LVL42:
 515:Middlewares/Third_Party/FreeRTOS/Source/CMSIS_RTOS/cmsis_os.c ****     return 0x80000000;
 761              		.loc 1 515 10 view .LVU167
 762 0042 0128     		cmp	r0, #1
 763 0044 F7D0     		beq	.L35
 764 0046 EBE7     		b	.L36
ARM GAS  /tmp/cc6GYW95.s 			page 28


 765              	.L39:
 766              		.align	2
 767              	.L38:
 768 0048 04ED00E0 		.word	-536810236
 769              		.cfi_endproc
 770              	.LFE42:
 772              		.section	.text.osSignalWait,"ax",%progbits
 773              		.align	1
 774              		.global	osSignalWait
 775              		.syntax unified
 776              		.code	16
 777              		.thumb_func
 778              		.fpu softvfp
 780              	osSignalWait:
 781              	.LVL43:
 782              	.LFB43:
 526:Middlewares/Third_Party/FreeRTOS/Source/CMSIS_RTOS/cmsis_os.c **** 
 527:Middlewares/Third_Party/FreeRTOS/Source/CMSIS_RTOS/cmsis_os.c **** /**
 528:Middlewares/Third_Party/FreeRTOS/Source/CMSIS_RTOS/cmsis_os.c **** * @brief  Clear the specified Signal Flags of an active thread.
 529:Middlewares/Third_Party/FreeRTOS/Source/CMSIS_RTOS/cmsis_os.c **** * @param  thread_id  thread ID obtained by \ref osThreadCreate or \ref osThreadGetId.
 530:Middlewares/Third_Party/FreeRTOS/Source/CMSIS_RTOS/cmsis_os.c **** * @param  signals    specifies the signal flags of the thread that shall be cleared.
 531:Middlewares/Third_Party/FreeRTOS/Source/CMSIS_RTOS/cmsis_os.c **** * @retval  previous signal flags of the specified thread or 0x80000000 in case of incorrect paramet
 532:Middlewares/Third_Party/FreeRTOS/Source/CMSIS_RTOS/cmsis_os.c **** * @note   MUST REMAIN UNCHANGED: \b osSignalClear shall be consistent in every CMSIS-RTOS.
 533:Middlewares/Third_Party/FreeRTOS/Source/CMSIS_RTOS/cmsis_os.c **** */
 534:Middlewares/Third_Party/FreeRTOS/Source/CMSIS_RTOS/cmsis_os.c **** int32_t osSignalClear (osThreadId thread_id, int32_t signal);
 535:Middlewares/Third_Party/FreeRTOS/Source/CMSIS_RTOS/cmsis_os.c **** 
 536:Middlewares/Third_Party/FreeRTOS/Source/CMSIS_RTOS/cmsis_os.c **** /**
 537:Middlewares/Third_Party/FreeRTOS/Source/CMSIS_RTOS/cmsis_os.c **** * @brief  Wait for one or more Signal Flags to become signaled for the current \b RUNNING thread.
 538:Middlewares/Third_Party/FreeRTOS/Source/CMSIS_RTOS/cmsis_os.c **** * @param  signals   wait until all specified signal flags set or 0 for any single signal flag.
 539:Middlewares/Third_Party/FreeRTOS/Source/CMSIS_RTOS/cmsis_os.c **** * @param  millisec  timeout value or 0 in case of no time-out.
 540:Middlewares/Third_Party/FreeRTOS/Source/CMSIS_RTOS/cmsis_os.c **** * @retval  event flag information or error code.
 541:Middlewares/Third_Party/FreeRTOS/Source/CMSIS_RTOS/cmsis_os.c **** * @note   MUST REMAIN UNCHANGED: \b osSignalWait shall be consistent in every CMSIS-RTOS.
 542:Middlewares/Third_Party/FreeRTOS/Source/CMSIS_RTOS/cmsis_os.c **** */
 543:Middlewares/Third_Party/FreeRTOS/Source/CMSIS_RTOS/cmsis_os.c **** osEvent osSignalWait (int32_t signals, uint32_t millisec)
 544:Middlewares/Third_Party/FreeRTOS/Source/CMSIS_RTOS/cmsis_os.c **** {
 783              		.loc 1 544 1 is_stmt 1 view -0
 784              		.cfi_startproc
 785              		@ args = 0, pretend = 0, frame = 16
 786              		@ frame_needed = 0, uses_anonymous_args = 0
 545:Middlewares/Third_Party/FreeRTOS/Source/CMSIS_RTOS/cmsis_os.c ****   osEvent ret;
 787              		.loc 1 545 3 view .LVU169
 546:Middlewares/Third_Party/FreeRTOS/Source/CMSIS_RTOS/cmsis_os.c **** 
 547:Middlewares/Third_Party/FreeRTOS/Source/CMSIS_RTOS/cmsis_os.c **** #if( configUSE_TASK_NOTIFICATIONS == 1 )
 548:Middlewares/Third_Party/FreeRTOS/Source/CMSIS_RTOS/cmsis_os.c **** 	
 549:Middlewares/Third_Party/FreeRTOS/Source/CMSIS_RTOS/cmsis_os.c ****   TickType_t ticks;
 788              		.loc 1 549 3 view .LVU170
 550:Middlewares/Third_Party/FreeRTOS/Source/CMSIS_RTOS/cmsis_os.c **** 
 551:Middlewares/Third_Party/FreeRTOS/Source/CMSIS_RTOS/cmsis_os.c ****   ret.value.signals = 0;  
 789              		.loc 1 551 3 view .LVU171
 544:Middlewares/Third_Party/FreeRTOS/Source/CMSIS_RTOS/cmsis_os.c ****   osEvent ret;
 790              		.loc 1 544 1 is_stmt 0 view .LVU172
 791 0000 7FB5     		push	{r0, r1, r2, r3, r4, r5, r6, lr}
 792              	.LCFI12:
 793              		.cfi_def_cfa_offset 32
 794              		.cfi_offset 0, -32
 795              		.cfi_offset 1, -28
 796              		.cfi_offset 2, -24
ARM GAS  /tmp/cc6GYW95.s 			page 29


 797              		.cfi_offset 3, -20
 798              		.cfi_offset 4, -16
 799              		.cfi_offset 5, -12
 800              		.cfi_offset 6, -8
 801              		.cfi_offset 14, -4
 802              		.loc 1 551 21 view .LVU173
 803 0002 0023     		movs	r3, #0
 804 0004 01AC     		add	r4, sp, #4
 544:Middlewares/Third_Party/FreeRTOS/Source/CMSIS_RTOS/cmsis_os.c ****   osEvent ret;
 805              		.loc 1 544 1 view .LVU174
 806 0006 0500     		movs	r5, r0
 807 0008 1600     		movs	r6, r2
 808              		.loc 1 551 21 view .LVU175
 809 000a 6360     		str	r3, [r4, #4]
 552:Middlewares/Third_Party/FreeRTOS/Source/CMSIS_RTOS/cmsis_os.c ****   ticks = 0;
 810              		.loc 1 552 3 is_stmt 1 view .LVU176
 811              	.LVL44:
 553:Middlewares/Third_Party/FreeRTOS/Source/CMSIS_RTOS/cmsis_os.c ****   if (millisec == osWaitForever) {
 812              		.loc 1 553 3 view .LVU177
 554:Middlewares/Third_Party/FreeRTOS/Source/CMSIS_RTOS/cmsis_os.c ****     ticks = portMAX_DELAY;
 555:Middlewares/Third_Party/FreeRTOS/Source/CMSIS_RTOS/cmsis_os.c ****   }
 556:Middlewares/Third_Party/FreeRTOS/Source/CMSIS_RTOS/cmsis_os.c ****   else if (millisec != 0) {
 557:Middlewares/Third_Party/FreeRTOS/Source/CMSIS_RTOS/cmsis_os.c ****     ticks = millisec / portTICK_PERIOD_MS;
 558:Middlewares/Third_Party/FreeRTOS/Source/CMSIS_RTOS/cmsis_os.c ****     if (ticks == 0) {
 559:Middlewares/Third_Party/FreeRTOS/Source/CMSIS_RTOS/cmsis_os.c ****       ticks = 1;
 560:Middlewares/Third_Party/FreeRTOS/Source/CMSIS_RTOS/cmsis_os.c ****     }
 561:Middlewares/Third_Party/FreeRTOS/Source/CMSIS_RTOS/cmsis_os.c ****   }  
 562:Middlewares/Third_Party/FreeRTOS/Source/CMSIS_RTOS/cmsis_os.c ****   
 563:Middlewares/Third_Party/FreeRTOS/Source/CMSIS_RTOS/cmsis_os.c ****   if (inHandlerMode())
 813              		.loc 1 563 3 view .LVU178
 814              	.LBB120:
 815              	.LBI120:
 130:Middlewares/Third_Party/FreeRTOS/Source/CMSIS_RTOS/cmsis_os.c **** {
 816              		.loc 1 130 12 view .LVU179
 817              	.LBE120:
 132:Middlewares/Third_Party/FreeRTOS/Source/CMSIS_RTOS/cmsis_os.c **** }
 818              		.loc 1 132 3 view .LVU180
 819              	.LBB123:
 820              	.LBB121:
 821              	.LBI121:
 205:Drivers/CMSIS/Include/cmsis_gcc.h **** {
 822              		.loc 2 205 31 view .LVU181
 823              	.LBB122:
 207:Drivers/CMSIS/Include/cmsis_gcc.h **** 
 824              		.loc 2 207 3 view .LVU182
 209:Drivers/CMSIS/Include/cmsis_gcc.h ****   return(result);
 825              		.loc 2 209 3 view .LVU183
 826              		.syntax divided
 827              	@ 209 "Drivers/CMSIS/Include/cmsis_gcc.h" 1
 828 000c EFF30580 		MRS r0, ipsr
 829              	@ 0 "" 2
 830              	.LVL45:
 831              		.loc 2 210 3 view .LVU184
 832              		.loc 2 210 3 is_stmt 0 view .LVU185
 833              		.thumb
 834              		.syntax unified
 835              	.LBE122:
ARM GAS  /tmp/cc6GYW95.s 			page 30


 836              	.LBE121:
 837              	.LBE123:
 838              		.loc 1 563 6 view .LVU186
 839 0010 9842     		cmp	r0, r3
 840 0012 07D0     		beq	.L41
 564:Middlewares/Third_Party/FreeRTOS/Source/CMSIS_RTOS/cmsis_os.c ****   {
 565:Middlewares/Third_Party/FreeRTOS/Source/CMSIS_RTOS/cmsis_os.c ****     ret.status = osErrorISR;  /*Not allowed in ISR*/
 841              		.loc 1 565 5 is_stmt 1 view .LVU187
 842              		.loc 1 565 16 is_stmt 0 view .LVU188
 843 0014 8233     		adds	r3, r3, #130
 844 0016 0193     		str	r3, [sp, #4]
 845              	.LVL46:
 846              	.L42:
 566:Middlewares/Third_Party/FreeRTOS/Source/CMSIS_RTOS/cmsis_os.c ****   }
 567:Middlewares/Third_Party/FreeRTOS/Source/CMSIS_RTOS/cmsis_os.c ****   else
 568:Middlewares/Third_Party/FreeRTOS/Source/CMSIS_RTOS/cmsis_os.c ****   {
 569:Middlewares/Third_Party/FreeRTOS/Source/CMSIS_RTOS/cmsis_os.c ****     if(xTaskNotifyWait( 0,(uint32_t) signals, (uint32_t *)&ret.value.signals, ticks) != pdTRUE)
 570:Middlewares/Third_Party/FreeRTOS/Source/CMSIS_RTOS/cmsis_os.c ****     {
 571:Middlewares/Third_Party/FreeRTOS/Source/CMSIS_RTOS/cmsis_os.c ****       if(ticks == 0)  ret.status = osOK;
 572:Middlewares/Third_Party/FreeRTOS/Source/CMSIS_RTOS/cmsis_os.c ****       else  ret.status = osEventTimeout;
 573:Middlewares/Third_Party/FreeRTOS/Source/CMSIS_RTOS/cmsis_os.c ****     }
 574:Middlewares/Third_Party/FreeRTOS/Source/CMSIS_RTOS/cmsis_os.c ****     else if(ret.value.signals < 0)
 575:Middlewares/Third_Party/FreeRTOS/Source/CMSIS_RTOS/cmsis_os.c ****     {
 576:Middlewares/Third_Party/FreeRTOS/Source/CMSIS_RTOS/cmsis_os.c ****       ret.status =  osErrorValue;     
 577:Middlewares/Third_Party/FreeRTOS/Source/CMSIS_RTOS/cmsis_os.c ****     }
 578:Middlewares/Third_Party/FreeRTOS/Source/CMSIS_RTOS/cmsis_os.c ****     else  ret.status =  osEventSignal;
 579:Middlewares/Third_Party/FreeRTOS/Source/CMSIS_RTOS/cmsis_os.c ****   }
 580:Middlewares/Third_Party/FreeRTOS/Source/CMSIS_RTOS/cmsis_os.c **** #else
 581:Middlewares/Third_Party/FreeRTOS/Source/CMSIS_RTOS/cmsis_os.c ****   (void) signals;
 582:Middlewares/Third_Party/FreeRTOS/Source/CMSIS_RTOS/cmsis_os.c ****   (void) millisec;
 583:Middlewares/Third_Party/FreeRTOS/Source/CMSIS_RTOS/cmsis_os.c **** 	
 584:Middlewares/Third_Party/FreeRTOS/Source/CMSIS_RTOS/cmsis_os.c ****   ret.status =  osErrorOS;	/* Task Notification not supported */
 585:Middlewares/Third_Party/FreeRTOS/Source/CMSIS_RTOS/cmsis_os.c **** #endif
 586:Middlewares/Third_Party/FreeRTOS/Source/CMSIS_RTOS/cmsis_os.c ****   
 587:Middlewares/Third_Party/FreeRTOS/Source/CMSIS_RTOS/cmsis_os.c ****   return ret;
 847              		.loc 1 587 3 is_stmt 1 view .LVU189
 848              		.loc 1 587 10 is_stmt 0 view .LVU190
 849 0018 2B00     		movs	r3, r5
 850 001a 07CC     		ldmia	r4!, {r0, r1, r2}
 851 001c 07C3     		stmia	r3!, {r0, r1, r2}
 588:Middlewares/Third_Party/FreeRTOS/Source/CMSIS_RTOS/cmsis_os.c **** }
 852              		.loc 1 588 1 view .LVU191
 853 001e 2800     		movs	r0, r5
 854 0020 04B0     		add	sp, sp, #16
 855              		@ sp needed
 856              	.LVL47:
 857              	.LVL48:
 858              		.loc 1 588 1 view .LVU192
 859 0022 70BD     		pop	{r4, r5, r6, pc}
 860              	.LVL49:
 861              	.L41:
 569:Middlewares/Third_Party/FreeRTOS/Source/CMSIS_RTOS/cmsis_os.c ****     {
 862              		.loc 1 569 5 is_stmt 1 view .LVU193
 569:Middlewares/Third_Party/FreeRTOS/Source/CMSIS_RTOS/cmsis_os.c ****     {
 863              		.loc 1 569 8 is_stmt 0 view .LVU194
 864 0024 1300     		movs	r3, r2
 865 0026 02AA     		add	r2, sp, #8
ARM GAS  /tmp/cc6GYW95.s 			page 31


 866              	.LVL50:
 569:Middlewares/Third_Party/FreeRTOS/Source/CMSIS_RTOS/cmsis_os.c ****     {
 867              		.loc 1 569 8 view .LVU195
 868 0028 FFF7FEFF 		bl	xTaskNotifyWait
 869              	.LVL51:
 569:Middlewares/Third_Party/FreeRTOS/Source/CMSIS_RTOS/cmsis_os.c ****     {
 870              		.loc 1 569 7 view .LVU196
 871 002c 0128     		cmp	r0, #1
 872 002e 06D0     		beq	.L43
 571:Middlewares/Third_Party/FreeRTOS/Source/CMSIS_RTOS/cmsis_os.c ****       else  ret.status = osEventTimeout;
 873              		.loc 1 571 7 is_stmt 1 view .LVU197
 571:Middlewares/Third_Party/FreeRTOS/Source/CMSIS_RTOS/cmsis_os.c ****       else  ret.status = osEventTimeout;
 874              		.loc 1 571 9 is_stmt 0 view .LVU198
 875 0030 002E     		cmp	r6, #0
 876 0032 01D1     		bne	.L44
 571:Middlewares/Third_Party/FreeRTOS/Source/CMSIS_RTOS/cmsis_os.c ****       else  ret.status = osEventTimeout;
 877              		.loc 1 571 23 is_stmt 1 discriminator 1 view .LVU199
 571:Middlewares/Third_Party/FreeRTOS/Source/CMSIS_RTOS/cmsis_os.c ****       else  ret.status = osEventTimeout;
 878              		.loc 1 571 34 is_stmt 0 discriminator 1 view .LVU200
 879 0034 2660     		str	r6, [r4]
 880 0036 EFE7     		b	.L42
 881              	.L44:
 572:Middlewares/Third_Party/FreeRTOS/Source/CMSIS_RTOS/cmsis_os.c ****     }
 882              		.loc 1 572 13 is_stmt 1 view .LVU201
 572:Middlewares/Third_Party/FreeRTOS/Source/CMSIS_RTOS/cmsis_os.c ****     }
 883              		.loc 1 572 24 is_stmt 0 view .LVU202
 884 0038 4023     		movs	r3, #64
 885              	.L46:
 578:Middlewares/Third_Party/FreeRTOS/Source/CMSIS_RTOS/cmsis_os.c ****   }
 886              		.loc 1 578 22 view .LVU203
 887 003a 2360     		str	r3, [r4]
 888 003c ECE7     		b	.L42
 889              	.L43:
 574:Middlewares/Third_Party/FreeRTOS/Source/CMSIS_RTOS/cmsis_os.c ****     {
 890              		.loc 1 574 10 is_stmt 1 view .LVU204
 574:Middlewares/Third_Party/FreeRTOS/Source/CMSIS_RTOS/cmsis_os.c ****     {
 891              		.loc 1 574 12 is_stmt 0 view .LVU205
 892 003e 6368     		ldr	r3, [r4, #4]
 893 0040 002B     		cmp	r3, #0
 894 0042 01DA     		bge	.L45
 576:Middlewares/Third_Party/FreeRTOS/Source/CMSIS_RTOS/cmsis_os.c ****     }
 895              		.loc 1 576 7 is_stmt 1 view .LVU206
 576:Middlewares/Third_Party/FreeRTOS/Source/CMSIS_RTOS/cmsis_os.c ****     }
 896              		.loc 1 576 18 is_stmt 0 view .LVU207
 897 0044 8623     		movs	r3, #134
 898 0046 F8E7     		b	.L46
 899              	.L45:
 578:Middlewares/Third_Party/FreeRTOS/Source/CMSIS_RTOS/cmsis_os.c ****   }
 900              		.loc 1 578 11 is_stmt 1 view .LVU208
 578:Middlewares/Third_Party/FreeRTOS/Source/CMSIS_RTOS/cmsis_os.c ****   }
 901              		.loc 1 578 22 is_stmt 0 view .LVU209
 902 0048 0823     		movs	r3, #8
 903 004a F6E7     		b	.L46
 904              		.cfi_endproc
 905              	.LFE43:
 907              		.section	.text.osMutexCreate,"ax",%progbits
 908              		.align	1
ARM GAS  /tmp/cc6GYW95.s 			page 32


 909              		.global	osMutexCreate
 910              		.syntax unified
 911              		.code	16
 912              		.thumb_func
 913              		.fpu softvfp
 915              	osMutexCreate:
 916              	.LVL52:
 917              	.LFB44:
 589:Middlewares/Third_Party/FreeRTOS/Source/CMSIS_RTOS/cmsis_os.c **** 
 590:Middlewares/Third_Party/FreeRTOS/Source/CMSIS_RTOS/cmsis_os.c **** /****************************  Mutex Management ********************************/
 591:Middlewares/Third_Party/FreeRTOS/Source/CMSIS_RTOS/cmsis_os.c **** /**
 592:Middlewares/Third_Party/FreeRTOS/Source/CMSIS_RTOS/cmsis_os.c **** * @brief  Create and Initialize a Mutex object
 593:Middlewares/Third_Party/FreeRTOS/Source/CMSIS_RTOS/cmsis_os.c **** * @param  mutex_def     mutex definition referenced with \ref osMutex.
 594:Middlewares/Third_Party/FreeRTOS/Source/CMSIS_RTOS/cmsis_os.c **** * @retval  mutex ID for reference by other functions or NULL in case of error.
 595:Middlewares/Third_Party/FreeRTOS/Source/CMSIS_RTOS/cmsis_os.c **** * @note   MUST REMAIN UNCHANGED: \b osMutexCreate shall be consistent in every CMSIS-RTOS.
 596:Middlewares/Third_Party/FreeRTOS/Source/CMSIS_RTOS/cmsis_os.c **** */
 597:Middlewares/Third_Party/FreeRTOS/Source/CMSIS_RTOS/cmsis_os.c **** osMutexId osMutexCreate (const osMutexDef_t *mutex_def)
 598:Middlewares/Third_Party/FreeRTOS/Source/CMSIS_RTOS/cmsis_os.c **** {
 918              		.loc 1 598 1 is_stmt 1 view -0
 919              		.cfi_startproc
 920              		@ args = 0, pretend = 0, frame = 0
 921              		@ frame_needed = 0, uses_anonymous_args = 0
 599:Middlewares/Third_Party/FreeRTOS/Source/CMSIS_RTOS/cmsis_os.c **** #if ( configUSE_MUTEXES == 1)
 600:Middlewares/Third_Party/FreeRTOS/Source/CMSIS_RTOS/cmsis_os.c **** 
 601:Middlewares/Third_Party/FreeRTOS/Source/CMSIS_RTOS/cmsis_os.c **** #if( configSUPPORT_STATIC_ALLOCATION == 1 ) && ( configSUPPORT_DYNAMIC_ALLOCATION == 1 )
 602:Middlewares/Third_Party/FreeRTOS/Source/CMSIS_RTOS/cmsis_os.c **** 
 603:Middlewares/Third_Party/FreeRTOS/Source/CMSIS_RTOS/cmsis_os.c ****   if (mutex_def->controlblock != NULL) {
 604:Middlewares/Third_Party/FreeRTOS/Source/CMSIS_RTOS/cmsis_os.c ****     return xSemaphoreCreateMutexStatic( mutex_def->controlblock );
 605:Middlewares/Third_Party/FreeRTOS/Source/CMSIS_RTOS/cmsis_os.c ****      }
 606:Middlewares/Third_Party/FreeRTOS/Source/CMSIS_RTOS/cmsis_os.c ****   else {
 607:Middlewares/Third_Party/FreeRTOS/Source/CMSIS_RTOS/cmsis_os.c ****     return xSemaphoreCreateMutex(); 
 608:Middlewares/Third_Party/FreeRTOS/Source/CMSIS_RTOS/cmsis_os.c ****   }
 609:Middlewares/Third_Party/FreeRTOS/Source/CMSIS_RTOS/cmsis_os.c **** #elif ( configSUPPORT_STATIC_ALLOCATION == 1 )
 610:Middlewares/Third_Party/FreeRTOS/Source/CMSIS_RTOS/cmsis_os.c ****   return xSemaphoreCreateMutexStatic( mutex_def->controlblock );
 611:Middlewares/Third_Party/FreeRTOS/Source/CMSIS_RTOS/cmsis_os.c **** #else  
 612:Middlewares/Third_Party/FreeRTOS/Source/CMSIS_RTOS/cmsis_os.c ****     return xSemaphoreCreateMutex(); 
 922              		.loc 1 612 5 view .LVU211
 598:Middlewares/Third_Party/FreeRTOS/Source/CMSIS_RTOS/cmsis_os.c **** #if ( configUSE_MUTEXES == 1)
 923              		.loc 1 598 1 is_stmt 0 view .LVU212
 924 0000 10B5     		push	{r4, lr}
 925              	.LCFI13:
 926              		.cfi_def_cfa_offset 8
 927              		.cfi_offset 4, -8
 928              		.cfi_offset 14, -4
 929              		.loc 1 612 12 view .LVU213
 930 0002 0120     		movs	r0, #1
 931              	.LVL53:
 932              		.loc 1 612 12 view .LVU214
 933 0004 FFF7FEFF 		bl	xQueueCreateMutex
 934              	.LVL54:
 613:Middlewares/Third_Party/FreeRTOS/Source/CMSIS_RTOS/cmsis_os.c **** #endif
 614:Middlewares/Third_Party/FreeRTOS/Source/CMSIS_RTOS/cmsis_os.c **** #else
 615:Middlewares/Third_Party/FreeRTOS/Source/CMSIS_RTOS/cmsis_os.c ****   return NULL;
 616:Middlewares/Third_Party/FreeRTOS/Source/CMSIS_RTOS/cmsis_os.c **** #endif
 617:Middlewares/Third_Party/FreeRTOS/Source/CMSIS_RTOS/cmsis_os.c **** }
 935              		.loc 1 617 1 view .LVU215
 936              		@ sp needed
ARM GAS  /tmp/cc6GYW95.s 			page 33


 937 0008 10BD     		pop	{r4, pc}
 938              		.cfi_endproc
 939              	.LFE44:
 941              		.section	.text.osMutexWait,"ax",%progbits
 942              		.align	1
 943              		.global	osMutexWait
 944              		.syntax unified
 945              		.code	16
 946              		.thumb_func
 947              		.fpu softvfp
 949              	osMutexWait:
 950              	.LVL55:
 951              	.LFB45:
 618:Middlewares/Third_Party/FreeRTOS/Source/CMSIS_RTOS/cmsis_os.c **** 
 619:Middlewares/Third_Party/FreeRTOS/Source/CMSIS_RTOS/cmsis_os.c **** /**
 620:Middlewares/Third_Party/FreeRTOS/Source/CMSIS_RTOS/cmsis_os.c **** * @brief Wait until a Mutex becomes available
 621:Middlewares/Third_Party/FreeRTOS/Source/CMSIS_RTOS/cmsis_os.c **** * @param mutex_id      mutex ID obtained by \ref osMutexCreate.
 622:Middlewares/Third_Party/FreeRTOS/Source/CMSIS_RTOS/cmsis_os.c **** * @param millisec      timeout value or 0 in case of no time-out.
 623:Middlewares/Third_Party/FreeRTOS/Source/CMSIS_RTOS/cmsis_os.c **** * @retval  status code that indicates the execution status of the function.
 624:Middlewares/Third_Party/FreeRTOS/Source/CMSIS_RTOS/cmsis_os.c **** * @note   MUST REMAIN UNCHANGED: \b osMutexWait shall be consistent in every CMSIS-RTOS.
 625:Middlewares/Third_Party/FreeRTOS/Source/CMSIS_RTOS/cmsis_os.c **** */
 626:Middlewares/Third_Party/FreeRTOS/Source/CMSIS_RTOS/cmsis_os.c **** osStatus osMutexWait (osMutexId mutex_id, uint32_t millisec)
 627:Middlewares/Third_Party/FreeRTOS/Source/CMSIS_RTOS/cmsis_os.c **** {
 952              		.loc 1 627 1 is_stmt 1 view -0
 953              		.cfi_startproc
 954              		@ args = 0, pretend = 0, frame = 8
 955              		@ frame_needed = 0, uses_anonymous_args = 0
 628:Middlewares/Third_Party/FreeRTOS/Source/CMSIS_RTOS/cmsis_os.c ****   TickType_t ticks;
 956              		.loc 1 628 3 view .LVU217
 629:Middlewares/Third_Party/FreeRTOS/Source/CMSIS_RTOS/cmsis_os.c ****   portBASE_TYPE taskWoken = pdFALSE;  
 957              		.loc 1 629 3 view .LVU218
 627:Middlewares/Third_Party/FreeRTOS/Source/CMSIS_RTOS/cmsis_os.c ****   TickType_t ticks;
 958              		.loc 1 627 1 is_stmt 0 view .LVU219
 959 0000 13B5     		push	{r0, r1, r4, lr}
 960              	.LCFI14:
 961              		.cfi_def_cfa_offset 16
 962              		.cfi_offset 0, -16
 963              		.cfi_offset 1, -12
 964              		.cfi_offset 4, -8
 965              		.cfi_offset 14, -4
 966              		.loc 1 629 17 view .LVU220
 967 0002 0024     		movs	r4, #0
 630:Middlewares/Third_Party/FreeRTOS/Source/CMSIS_RTOS/cmsis_os.c ****   
 631:Middlewares/Third_Party/FreeRTOS/Source/CMSIS_RTOS/cmsis_os.c ****   
 632:Middlewares/Third_Party/FreeRTOS/Source/CMSIS_RTOS/cmsis_os.c ****   if (mutex_id == NULL) {
 633:Middlewares/Third_Party/FreeRTOS/Source/CMSIS_RTOS/cmsis_os.c ****     return osErrorParameter;
 968              		.loc 1 633 12 view .LVU221
 969 0004 8023     		movs	r3, #128
 629:Middlewares/Third_Party/FreeRTOS/Source/CMSIS_RTOS/cmsis_os.c ****   
 970              		.loc 1 629 17 view .LVU222
 971 0006 0194     		str	r4, [sp, #4]
 632:Middlewares/Third_Party/FreeRTOS/Source/CMSIS_RTOS/cmsis_os.c ****     return osErrorParameter;
 972              		.loc 1 632 3 is_stmt 1 view .LVU223
 632:Middlewares/Third_Party/FreeRTOS/Source/CMSIS_RTOS/cmsis_os.c ****     return osErrorParameter;
 973              		.loc 1 632 6 is_stmt 0 view .LVU224
 974 0008 A042     		cmp	r0, r4
 975 000a 0DD0     		beq	.L48
ARM GAS  /tmp/cc6GYW95.s 			page 34


 634:Middlewares/Third_Party/FreeRTOS/Source/CMSIS_RTOS/cmsis_os.c ****   }
 635:Middlewares/Third_Party/FreeRTOS/Source/CMSIS_RTOS/cmsis_os.c ****   
 636:Middlewares/Third_Party/FreeRTOS/Source/CMSIS_RTOS/cmsis_os.c ****   ticks = 0;
 976              		.loc 1 636 3 is_stmt 1 view .LVU225
 977              	.LVL56:
 637:Middlewares/Third_Party/FreeRTOS/Source/CMSIS_RTOS/cmsis_os.c ****   if (millisec == osWaitForever) {
 978              		.loc 1 637 3 view .LVU226
 638:Middlewares/Third_Party/FreeRTOS/Source/CMSIS_RTOS/cmsis_os.c ****     ticks = portMAX_DELAY;
 639:Middlewares/Third_Party/FreeRTOS/Source/CMSIS_RTOS/cmsis_os.c ****   }
 640:Middlewares/Third_Party/FreeRTOS/Source/CMSIS_RTOS/cmsis_os.c ****   else if (millisec != 0) {
 641:Middlewares/Third_Party/FreeRTOS/Source/CMSIS_RTOS/cmsis_os.c ****     ticks = millisec / portTICK_PERIOD_MS;
 642:Middlewares/Third_Party/FreeRTOS/Source/CMSIS_RTOS/cmsis_os.c ****     if (ticks == 0) {
 643:Middlewares/Third_Party/FreeRTOS/Source/CMSIS_RTOS/cmsis_os.c ****       ticks = 1;
 644:Middlewares/Third_Party/FreeRTOS/Source/CMSIS_RTOS/cmsis_os.c ****     }
 645:Middlewares/Third_Party/FreeRTOS/Source/CMSIS_RTOS/cmsis_os.c ****   }
 646:Middlewares/Third_Party/FreeRTOS/Source/CMSIS_RTOS/cmsis_os.c ****   
 647:Middlewares/Third_Party/FreeRTOS/Source/CMSIS_RTOS/cmsis_os.c ****   if (inHandlerMode()) {
 979              		.loc 1 647 3 view .LVU227
 980              	.LBB124:
 981              	.LBI124:
 130:Middlewares/Third_Party/FreeRTOS/Source/CMSIS_RTOS/cmsis_os.c **** {
 982              		.loc 1 130 12 view .LVU228
 983              	.LBE124:
 132:Middlewares/Third_Party/FreeRTOS/Source/CMSIS_RTOS/cmsis_os.c **** }
 984              		.loc 1 132 3 view .LVU229
 985              	.LBB127:
 986              	.LBB125:
 987              	.LBI125:
 205:Drivers/CMSIS/Include/cmsis_gcc.h **** {
 988              		.loc 2 205 31 view .LVU230
 989              	.LBB126:
 207:Drivers/CMSIS/Include/cmsis_gcc.h **** 
 990              		.loc 2 207 3 view .LVU231
 209:Drivers/CMSIS/Include/cmsis_gcc.h ****   return(result);
 991              		.loc 2 209 3 view .LVU232
 992              		.syntax divided
 993              	@ 209 "Drivers/CMSIS/Include/cmsis_gcc.h" 1
 994 000c EFF30583 		MRS r3, ipsr
 995              	@ 0 "" 2
 996              	.LVL57:
 997              		.loc 2 210 3 view .LVU233
 998              		.loc 2 210 3 is_stmt 0 view .LVU234
 999              		.thumb
 1000              		.syntax unified
 1001              	.LBE126:
 1002              	.LBE125:
 1003              	.LBE127:
 1004              		.loc 1 647 6 view .LVU235
 1005 0010 A342     		cmp	r3, r4
 1006 0012 10D0     		beq	.L50
 648:Middlewares/Third_Party/FreeRTOS/Source/CMSIS_RTOS/cmsis_os.c ****     if (xSemaphoreTakeFromISR(mutex_id, &taskWoken) != pdTRUE) {
 1007              		.loc 1 648 5 is_stmt 1 view .LVU236
 1008              		.loc 1 648 9 is_stmt 0 view .LVU237
 1009 0014 2100     		movs	r1, r4
 1010              	.LVL58:
 1011              		.loc 1 648 9 view .LVU238
 1012 0016 01AA     		add	r2, sp, #4
ARM GAS  /tmp/cc6GYW95.s 			page 35


 1013 0018 FFF7FEFF 		bl	xQueueReceiveFromISR
 1014              	.LVL59:
 1015              		.loc 1 648 8 view .LVU239
 1016 001c 0128     		cmp	r0, #1
 1017 001e 0ED1     		bne	.L51
 649:Middlewares/Third_Party/FreeRTOS/Source/CMSIS_RTOS/cmsis_os.c ****       return osErrorOS;
 650:Middlewares/Third_Party/FreeRTOS/Source/CMSIS_RTOS/cmsis_os.c ****     }
 651:Middlewares/Third_Party/FreeRTOS/Source/CMSIS_RTOS/cmsis_os.c **** 	portEND_SWITCHING_ISR(taskWoken);
 1018              		.loc 1 651 2 is_stmt 1 view .LVU240
 1019 0020 019B     		ldr	r3, [sp, #4]
 1020 0022 A342     		cmp	r3, r4
 1021 0024 02D1     		bne	.L52
 1022              	.L53:
 652:Middlewares/Third_Party/FreeRTOS/Source/CMSIS_RTOS/cmsis_os.c ****   } 
 653:Middlewares/Third_Party/FreeRTOS/Source/CMSIS_RTOS/cmsis_os.c ****   else if (xSemaphoreTake(mutex_id, ticks) != pdTRUE) {
 654:Middlewares/Third_Party/FreeRTOS/Source/CMSIS_RTOS/cmsis_os.c ****     return osErrorOS;
 655:Middlewares/Third_Party/FreeRTOS/Source/CMSIS_RTOS/cmsis_os.c ****   }
 656:Middlewares/Third_Party/FreeRTOS/Source/CMSIS_RTOS/cmsis_os.c ****   
 657:Middlewares/Third_Party/FreeRTOS/Source/CMSIS_RTOS/cmsis_os.c ****   return osOK;
 1023              		.loc 1 657 10 is_stmt 0 view .LVU241
 1024 0026 0023     		movs	r3, #0
 1025              	.LVL60:
 1026              	.L48:
 658:Middlewares/Third_Party/FreeRTOS/Source/CMSIS_RTOS/cmsis_os.c **** }
 1027              		.loc 1 658 1 view .LVU242
 1028 0028 1800     		movs	r0, r3
 1029              		@ sp needed
 1030 002a 16BD     		pop	{r1, r2, r4, pc}
 1031              	.LVL61:
 1032              	.L52:
 651:Middlewares/Third_Party/FreeRTOS/Source/CMSIS_RTOS/cmsis_os.c ****   } 
 1033              		.loc 1 651 2 is_stmt 1 discriminator 1 view .LVU243
 1034 002c 8022     		movs	r2, #128
 1035 002e 054B     		ldr	r3, .L58
 1036 0030 5205     		lsls	r2, r2, #21
 1037 0032 1A60     		str	r2, [r3]
 1038 0034 F7E7     		b	.L53
 1039              	.LVL62:
 1040              	.L50:
 653:Middlewares/Third_Party/FreeRTOS/Source/CMSIS_RTOS/cmsis_os.c ****     return osErrorOS;
 1041              		.loc 1 653 8 view .LVU244
 653:Middlewares/Third_Party/FreeRTOS/Source/CMSIS_RTOS/cmsis_os.c ****     return osErrorOS;
 1042              		.loc 1 653 12 is_stmt 0 view .LVU245
 1043 0036 FFF7FEFF 		bl	xQueueSemaphoreTake
 1044              	.LVL63:
 653:Middlewares/Third_Party/FreeRTOS/Source/CMSIS_RTOS/cmsis_os.c ****     return osErrorOS;
 1045              		.loc 1 653 11 view .LVU246
 1046 003a 0128     		cmp	r0, #1
 1047 003c F3D0     		beq	.L53
 1048              	.L51:
 654:Middlewares/Third_Party/FreeRTOS/Source/CMSIS_RTOS/cmsis_os.c ****   }
 1049              		.loc 1 654 5 is_stmt 1 view .LVU247
 654:Middlewares/Third_Party/FreeRTOS/Source/CMSIS_RTOS/cmsis_os.c ****   }
 1050              		.loc 1 654 12 is_stmt 0 view .LVU248
 1051 003e FF23     		movs	r3, #255
 1052 0040 F2E7     		b	.L48
 1053              	.L59:
ARM GAS  /tmp/cc6GYW95.s 			page 36


 1054 0042 C046     		.align	2
 1055              	.L58:
 1056 0044 04ED00E0 		.word	-536810236
 1057              		.cfi_endproc
 1058              	.LFE45:
 1060              		.section	.text.osMutexRelease,"ax",%progbits
 1061              		.align	1
 1062              		.global	osMutexRelease
 1063              		.syntax unified
 1064              		.code	16
 1065              		.thumb_func
 1066              		.fpu softvfp
 1068              	osMutexRelease:
 1069              	.LVL64:
 1070              	.LFB46:
 659:Middlewares/Third_Party/FreeRTOS/Source/CMSIS_RTOS/cmsis_os.c **** 
 660:Middlewares/Third_Party/FreeRTOS/Source/CMSIS_RTOS/cmsis_os.c **** /**
 661:Middlewares/Third_Party/FreeRTOS/Source/CMSIS_RTOS/cmsis_os.c **** * @brief Release a Mutex that was obtained by \ref osMutexWait
 662:Middlewares/Third_Party/FreeRTOS/Source/CMSIS_RTOS/cmsis_os.c **** * @param mutex_id      mutex ID obtained by \ref osMutexCreate.
 663:Middlewares/Third_Party/FreeRTOS/Source/CMSIS_RTOS/cmsis_os.c **** * @retval  status code that indicates the execution status of the function.
 664:Middlewares/Third_Party/FreeRTOS/Source/CMSIS_RTOS/cmsis_os.c **** * @note   MUST REMAIN UNCHANGED: \b osMutexRelease shall be consistent in every CMSIS-RTOS.
 665:Middlewares/Third_Party/FreeRTOS/Source/CMSIS_RTOS/cmsis_os.c **** */
 666:Middlewares/Third_Party/FreeRTOS/Source/CMSIS_RTOS/cmsis_os.c **** osStatus osMutexRelease (osMutexId mutex_id)
 667:Middlewares/Third_Party/FreeRTOS/Source/CMSIS_RTOS/cmsis_os.c **** {
 1071              		.loc 1 667 1 is_stmt 1 view -0
 1072              		.cfi_startproc
 1073              		@ args = 0, pretend = 0, frame = 8
 1074              		@ frame_needed = 0, uses_anonymous_args = 0
 668:Middlewares/Third_Party/FreeRTOS/Source/CMSIS_RTOS/cmsis_os.c ****   osStatus result = osOK;
 1075              		.loc 1 668 3 view .LVU250
 669:Middlewares/Third_Party/FreeRTOS/Source/CMSIS_RTOS/cmsis_os.c ****   portBASE_TYPE taskWoken = pdFALSE;
 1076              		.loc 1 669 3 view .LVU251
 667:Middlewares/Third_Party/FreeRTOS/Source/CMSIS_RTOS/cmsis_os.c ****   osStatus result = osOK;
 1077              		.loc 1 667 1 is_stmt 0 view .LVU252
 1078 0000 13B5     		push	{r0, r1, r4, lr}
 1079              	.LCFI15:
 1080              		.cfi_def_cfa_offset 16
 1081              		.cfi_offset 0, -16
 1082              		.cfi_offset 1, -12
 1083              		.cfi_offset 4, -8
 1084              		.cfi_offset 14, -4
 1085              		.loc 1 669 17 view .LVU253
 1086 0002 0024     		movs	r4, #0
 1087 0004 0194     		str	r4, [sp, #4]
 670:Middlewares/Third_Party/FreeRTOS/Source/CMSIS_RTOS/cmsis_os.c ****   
 671:Middlewares/Third_Party/FreeRTOS/Source/CMSIS_RTOS/cmsis_os.c ****   if (inHandlerMode()) {
 1088              		.loc 1 671 3 is_stmt 1 view .LVU254
 1089              	.LBB128:
 1090              	.LBI128:
 130:Middlewares/Third_Party/FreeRTOS/Source/CMSIS_RTOS/cmsis_os.c **** {
 1091              		.loc 1 130 12 view .LVU255
 1092              	.LBE128:
 132:Middlewares/Third_Party/FreeRTOS/Source/CMSIS_RTOS/cmsis_os.c **** }
 1093              		.loc 1 132 3 view .LVU256
 1094              	.LBB131:
 1095              	.LBB129:
 1096              	.LBI129:
ARM GAS  /tmp/cc6GYW95.s 			page 37


 205:Drivers/CMSIS/Include/cmsis_gcc.h **** {
 1097              		.loc 2 205 31 view .LVU257
 1098              	.LBB130:
 207:Drivers/CMSIS/Include/cmsis_gcc.h **** 
 1099              		.loc 2 207 3 view .LVU258
 209:Drivers/CMSIS/Include/cmsis_gcc.h ****   return(result);
 1100              		.loc 2 209 3 view .LVU259
 1101              		.syntax divided
 1102              	@ 209 "Drivers/CMSIS/Include/cmsis_gcc.h" 1
 1103 0006 EFF30581 		MRS r1, ipsr
 1104              	@ 0 "" 2
 1105              	.LVL65:
 1106              		.loc 2 210 3 view .LVU260
 1107              		.loc 2 210 3 is_stmt 0 view .LVU261
 1108              		.thumb
 1109              		.syntax unified
 1110              	.LBE130:
 1111              	.LBE129:
 1112              	.LBE131:
 1113              		.loc 1 671 6 view .LVU262
 1114 000a A142     		cmp	r1, r4
 1115 000c 0ED0     		beq	.L61
 672:Middlewares/Third_Party/FreeRTOS/Source/CMSIS_RTOS/cmsis_os.c ****     if (xSemaphoreGiveFromISR(mutex_id, &taskWoken) != pdTRUE) {
 1116              		.loc 1 672 5 is_stmt 1 view .LVU263
 1117              		.loc 1 672 9 is_stmt 0 view .LVU264
 1118 000e 01A9     		add	r1, sp, #4
 1119 0010 FFF7FEFF 		bl	xQueueGiveFromISR
 1120              	.LVL66:
 1121              		.loc 1 672 8 view .LVU265
 1122 0014 0128     		cmp	r0, #1
 1123 0016 0FD1     		bne	.L62
 673:Middlewares/Third_Party/FreeRTOS/Source/CMSIS_RTOS/cmsis_os.c ****       return osErrorOS;
 674:Middlewares/Third_Party/FreeRTOS/Source/CMSIS_RTOS/cmsis_os.c ****     }
 675:Middlewares/Third_Party/FreeRTOS/Source/CMSIS_RTOS/cmsis_os.c ****     portEND_SWITCHING_ISR(taskWoken);
 1124              		.loc 1 675 5 is_stmt 1 view .LVU266
 1125 0018 019B     		ldr	r3, [sp, #4]
 1126 001a A342     		cmp	r3, r4
 1127 001c 01D1     		bne	.L63
 1128              	.L65:
 668:Middlewares/Third_Party/FreeRTOS/Source/CMSIS_RTOS/cmsis_os.c ****   portBASE_TYPE taskWoken = pdFALSE;
 1129              		.loc 1 668 12 is_stmt 0 view .LVU267
 1130 001e 0020     		movs	r0, #0
 1131              	.LVL67:
 1132              	.L60:
 676:Middlewares/Third_Party/FreeRTOS/Source/CMSIS_RTOS/cmsis_os.c ****   }
 677:Middlewares/Third_Party/FreeRTOS/Source/CMSIS_RTOS/cmsis_os.c ****   else if (xSemaphoreGive(mutex_id) != pdTRUE) 
 678:Middlewares/Third_Party/FreeRTOS/Source/CMSIS_RTOS/cmsis_os.c ****   {
 679:Middlewares/Third_Party/FreeRTOS/Source/CMSIS_RTOS/cmsis_os.c ****     result = osErrorOS;
 680:Middlewares/Third_Party/FreeRTOS/Source/CMSIS_RTOS/cmsis_os.c ****   }
 681:Middlewares/Third_Party/FreeRTOS/Source/CMSIS_RTOS/cmsis_os.c ****   return result;
 682:Middlewares/Third_Party/FreeRTOS/Source/CMSIS_RTOS/cmsis_os.c **** }
 1133              		.loc 1 682 1 view .LVU268
 1134              		@ sp needed
 1135 0020 16BD     		pop	{r1, r2, r4, pc}
 1136              	.LVL68:
 1137              	.L63:
 675:Middlewares/Third_Party/FreeRTOS/Source/CMSIS_RTOS/cmsis_os.c ****   }
ARM GAS  /tmp/cc6GYW95.s 			page 38


 1138              		.loc 1 675 5 is_stmt 1 discriminator 1 view .LVU269
 1139 0022 8022     		movs	r2, #128
 1140 0024 054B     		ldr	r3, .L69
 1141 0026 5205     		lsls	r2, r2, #21
 1142 0028 1A60     		str	r2, [r3]
 1143 002a F8E7     		b	.L65
 1144              	.LVL69:
 1145              	.L61:
 677:Middlewares/Third_Party/FreeRTOS/Source/CMSIS_RTOS/cmsis_os.c ****   {
 1146              		.loc 1 677 8 view .LVU270
 677:Middlewares/Third_Party/FreeRTOS/Source/CMSIS_RTOS/cmsis_os.c ****   {
 1147              		.loc 1 677 12 is_stmt 0 view .LVU271
 1148 002c 0B00     		movs	r3, r1
 1149 002e 0A00     		movs	r2, r1
 1150 0030 FFF7FEFF 		bl	xQueueGenericSend
 1151              	.LVL70:
 677:Middlewares/Third_Party/FreeRTOS/Source/CMSIS_RTOS/cmsis_os.c ****   {
 1152              		.loc 1 677 11 view .LVU272
 1153 0034 0128     		cmp	r0, #1
 1154 0036 F2D0     		beq	.L65
 1155              	.L62:
 679:Middlewares/Third_Party/FreeRTOS/Source/CMSIS_RTOS/cmsis_os.c ****   }
 1156              		.loc 1 679 5 is_stmt 1 view .LVU273
 1157              	.LVL71:
 679:Middlewares/Third_Party/FreeRTOS/Source/CMSIS_RTOS/cmsis_os.c ****   }
 1158              		.loc 1 679 12 is_stmt 0 view .LVU274
 1159 0038 FF20     		movs	r0, #255
 1160              	.LVL72:
 679:Middlewares/Third_Party/FreeRTOS/Source/CMSIS_RTOS/cmsis_os.c ****   }
 1161              		.loc 1 679 12 view .LVU275
 1162 003a F1E7     		b	.L60
 1163              	.L70:
 1164              		.align	2
 1165              	.L69:
 1166 003c 04ED00E0 		.word	-536810236
 1167              		.cfi_endproc
 1168              	.LFE46:
 1170              		.section	.text.osMutexDelete,"ax",%progbits
 1171              		.align	1
 1172              		.global	osMutexDelete
 1173              		.syntax unified
 1174              		.code	16
 1175              		.thumb_func
 1176              		.fpu softvfp
 1178              	osMutexDelete:
 1179              	.LVL73:
 1180              	.LFB47:
 683:Middlewares/Third_Party/FreeRTOS/Source/CMSIS_RTOS/cmsis_os.c **** 
 684:Middlewares/Third_Party/FreeRTOS/Source/CMSIS_RTOS/cmsis_os.c **** /**
 685:Middlewares/Third_Party/FreeRTOS/Source/CMSIS_RTOS/cmsis_os.c **** * @brief Delete a Mutex
 686:Middlewares/Third_Party/FreeRTOS/Source/CMSIS_RTOS/cmsis_os.c **** * @param mutex_id  mutex ID obtained by \ref osMutexCreate.
 687:Middlewares/Third_Party/FreeRTOS/Source/CMSIS_RTOS/cmsis_os.c **** * @retval  status code that indicates the execution status of the function.
 688:Middlewares/Third_Party/FreeRTOS/Source/CMSIS_RTOS/cmsis_os.c **** * @note   MUST REMAIN UNCHANGED: \b osMutexDelete shall be consistent in every CMSIS-RTOS.
 689:Middlewares/Third_Party/FreeRTOS/Source/CMSIS_RTOS/cmsis_os.c **** */
 690:Middlewares/Third_Party/FreeRTOS/Source/CMSIS_RTOS/cmsis_os.c **** osStatus osMutexDelete (osMutexId mutex_id)
 691:Middlewares/Third_Party/FreeRTOS/Source/CMSIS_RTOS/cmsis_os.c **** {
 1181              		.loc 1 691 1 is_stmt 1 view -0
ARM GAS  /tmp/cc6GYW95.s 			page 39


 1182              		.cfi_startproc
 1183              		@ args = 0, pretend = 0, frame = 0
 1184              		@ frame_needed = 0, uses_anonymous_args = 0
 692:Middlewares/Third_Party/FreeRTOS/Source/CMSIS_RTOS/cmsis_os.c ****   if (inHandlerMode()) {
 1185              		.loc 1 692 3 view .LVU277
 1186              	.LBB132:
 1187              	.LBI132:
 130:Middlewares/Third_Party/FreeRTOS/Source/CMSIS_RTOS/cmsis_os.c **** {
 1188              		.loc 1 130 12 view .LVU278
 1189              	.LBE132:
 132:Middlewares/Third_Party/FreeRTOS/Source/CMSIS_RTOS/cmsis_os.c **** }
 1190              		.loc 1 132 3 view .LVU279
 1191              	.LBB137:
 1192              	.LBB133:
 1193              	.LBI133:
 205:Drivers/CMSIS/Include/cmsis_gcc.h **** {
 1194              		.loc 2 205 31 view .LVU280
 1195              	.LBB134:
 207:Drivers/CMSIS/Include/cmsis_gcc.h **** 
 1196              		.loc 2 207 3 view .LVU281
 209:Drivers/CMSIS/Include/cmsis_gcc.h ****   return(result);
 1197              		.loc 2 209 3 view .LVU282
 1198              	.LBE134:
 1199              	.LBE133:
 1200              	.LBE137:
 691:Middlewares/Third_Party/FreeRTOS/Source/CMSIS_RTOS/cmsis_os.c ****   if (inHandlerMode()) {
 1201              		.loc 1 691 1 is_stmt 0 view .LVU283
 1202 0000 10B5     		push	{r4, lr}
 1203              	.LCFI16:
 1204              		.cfi_def_cfa_offset 8
 1205              		.cfi_offset 4, -8
 1206              		.cfi_offset 14, -4
 1207              	.LBB138:
 1208              	.LBB136:
 1209              	.LBB135:
 209:Drivers/CMSIS/Include/cmsis_gcc.h ****   return(result);
 1210              		.loc 2 209 3 view .LVU284
 1211              		.syntax divided
 1212              	@ 209 "Drivers/CMSIS/Include/cmsis_gcc.h" 1
 1213 0002 EFF30584 		MRS r4, ipsr
 1214              	@ 0 "" 2
 1215              	.LVL74:
 1216              		.loc 2 210 3 is_stmt 1 view .LVU285
 1217              		.loc 2 210 3 is_stmt 0 view .LVU286
 1218              		.thumb
 1219              		.syntax unified
 1220              	.LBE135:
 1221              	.LBE136:
 1222              	.LBE138:
 1223              		.loc 1 692 6 view .LVU287
 1224 0006 002C     		cmp	r4, #0
 1225 0008 03D1     		bne	.L73
 693:Middlewares/Third_Party/FreeRTOS/Source/CMSIS_RTOS/cmsis_os.c ****     return osErrorISR;
 694:Middlewares/Third_Party/FreeRTOS/Source/CMSIS_RTOS/cmsis_os.c ****   }
 695:Middlewares/Third_Party/FreeRTOS/Source/CMSIS_RTOS/cmsis_os.c **** 
 696:Middlewares/Third_Party/FreeRTOS/Source/CMSIS_RTOS/cmsis_os.c ****   vQueueDelete(mutex_id);
 1226              		.loc 1 696 3 is_stmt 1 view .LVU288
ARM GAS  /tmp/cc6GYW95.s 			page 40


 1227 000a FFF7FEFF 		bl	vQueueDelete
 1228              	.LVL75:
 697:Middlewares/Third_Party/FreeRTOS/Source/CMSIS_RTOS/cmsis_os.c **** 
 698:Middlewares/Third_Party/FreeRTOS/Source/CMSIS_RTOS/cmsis_os.c ****   return osOK;
 1229              		.loc 1 698 3 view .LVU289
 1230              	.L71:
 699:Middlewares/Third_Party/FreeRTOS/Source/CMSIS_RTOS/cmsis_os.c **** }
 1231              		.loc 1 699 1 is_stmt 0 view .LVU290
 1232 000e 2000     		movs	r0, r4
 1233              		@ sp needed
 1234 0010 10BD     		pop	{r4, pc}
 1235              	.LVL76:
 1236              	.L73:
 693:Middlewares/Third_Party/FreeRTOS/Source/CMSIS_RTOS/cmsis_os.c ****     return osErrorISR;
 1237              		.loc 1 693 12 view .LVU291
 1238 0012 8224     		movs	r4, #130
 1239 0014 FBE7     		b	.L71
 1240              		.cfi_endproc
 1241              	.LFE47:
 1243              		.section	.text.osSemaphoreCreate,"ax",%progbits
 1244              		.align	1
 1245              		.global	osSemaphoreCreate
 1246              		.syntax unified
 1247              		.code	16
 1248              		.thumb_func
 1249              		.fpu softvfp
 1251              	osSemaphoreCreate:
 1252              	.LVL77:
 1253              	.LFB48:
 700:Middlewares/Third_Party/FreeRTOS/Source/CMSIS_RTOS/cmsis_os.c **** 
 701:Middlewares/Third_Party/FreeRTOS/Source/CMSIS_RTOS/cmsis_os.c **** /********************  Semaphore Management Functions **************************/
 702:Middlewares/Third_Party/FreeRTOS/Source/CMSIS_RTOS/cmsis_os.c **** 
 703:Middlewares/Third_Party/FreeRTOS/Source/CMSIS_RTOS/cmsis_os.c **** #if (defined (osFeature_Semaphore)  &&  (osFeature_Semaphore != 0))
 704:Middlewares/Third_Party/FreeRTOS/Source/CMSIS_RTOS/cmsis_os.c **** 
 705:Middlewares/Third_Party/FreeRTOS/Source/CMSIS_RTOS/cmsis_os.c **** /**
 706:Middlewares/Third_Party/FreeRTOS/Source/CMSIS_RTOS/cmsis_os.c **** * @brief Create and Initialize a Semaphore object used for managing resources
 707:Middlewares/Third_Party/FreeRTOS/Source/CMSIS_RTOS/cmsis_os.c **** * @param semaphore_def semaphore definition referenced with \ref osSemaphore.
 708:Middlewares/Third_Party/FreeRTOS/Source/CMSIS_RTOS/cmsis_os.c **** * @param count         number of available resources.
 709:Middlewares/Third_Party/FreeRTOS/Source/CMSIS_RTOS/cmsis_os.c **** * @retval  semaphore ID for reference by other functions or NULL in case of error.
 710:Middlewares/Third_Party/FreeRTOS/Source/CMSIS_RTOS/cmsis_os.c **** * @note   MUST REMAIN UNCHANGED: \b osSemaphoreCreate shall be consistent in every CMSIS-RTOS.
 711:Middlewares/Third_Party/FreeRTOS/Source/CMSIS_RTOS/cmsis_os.c **** */
 712:Middlewares/Third_Party/FreeRTOS/Source/CMSIS_RTOS/cmsis_os.c **** osSemaphoreId osSemaphoreCreate (const osSemaphoreDef_t *semaphore_def, int32_t count)
 713:Middlewares/Third_Party/FreeRTOS/Source/CMSIS_RTOS/cmsis_os.c **** { 
 1254              		.loc 1 713 1 is_stmt 1 view -0
 1255              		.cfi_startproc
 1256              		@ args = 0, pretend = 0, frame = 0
 1257              		@ frame_needed = 0, uses_anonymous_args = 0
 714:Middlewares/Third_Party/FreeRTOS/Source/CMSIS_RTOS/cmsis_os.c **** #if( configSUPPORT_STATIC_ALLOCATION == 1 ) && ( configSUPPORT_DYNAMIC_ALLOCATION == 1 )
 715:Middlewares/Third_Party/FreeRTOS/Source/CMSIS_RTOS/cmsis_os.c **** 
 716:Middlewares/Third_Party/FreeRTOS/Source/CMSIS_RTOS/cmsis_os.c ****   osSemaphoreId sema;
 717:Middlewares/Third_Party/FreeRTOS/Source/CMSIS_RTOS/cmsis_os.c ****   
 718:Middlewares/Third_Party/FreeRTOS/Source/CMSIS_RTOS/cmsis_os.c ****   if (semaphore_def->controlblock != NULL){
 719:Middlewares/Third_Party/FreeRTOS/Source/CMSIS_RTOS/cmsis_os.c ****     if (count == 1) {
 720:Middlewares/Third_Party/FreeRTOS/Source/CMSIS_RTOS/cmsis_os.c ****       return xSemaphoreCreateBinaryStatic( semaphore_def->controlblock );
 721:Middlewares/Third_Party/FreeRTOS/Source/CMSIS_RTOS/cmsis_os.c ****     }
 722:Middlewares/Third_Party/FreeRTOS/Source/CMSIS_RTOS/cmsis_os.c ****     else {
 723:Middlewares/Third_Party/FreeRTOS/Source/CMSIS_RTOS/cmsis_os.c **** #if (configUSE_COUNTING_SEMAPHORES == 1 )
ARM GAS  /tmp/cc6GYW95.s 			page 41


 724:Middlewares/Third_Party/FreeRTOS/Source/CMSIS_RTOS/cmsis_os.c ****       return xSemaphoreCreateCountingStatic( count, count, semaphore_def->controlblock );
 725:Middlewares/Third_Party/FreeRTOS/Source/CMSIS_RTOS/cmsis_os.c **** #else
 726:Middlewares/Third_Party/FreeRTOS/Source/CMSIS_RTOS/cmsis_os.c ****       return NULL;
 727:Middlewares/Third_Party/FreeRTOS/Source/CMSIS_RTOS/cmsis_os.c **** #endif
 728:Middlewares/Third_Party/FreeRTOS/Source/CMSIS_RTOS/cmsis_os.c ****     }
 729:Middlewares/Third_Party/FreeRTOS/Source/CMSIS_RTOS/cmsis_os.c ****   }
 730:Middlewares/Third_Party/FreeRTOS/Source/CMSIS_RTOS/cmsis_os.c ****   else {
 731:Middlewares/Third_Party/FreeRTOS/Source/CMSIS_RTOS/cmsis_os.c ****     if (count == 1) {
 732:Middlewares/Third_Party/FreeRTOS/Source/CMSIS_RTOS/cmsis_os.c ****       vSemaphoreCreateBinary(sema);
 733:Middlewares/Third_Party/FreeRTOS/Source/CMSIS_RTOS/cmsis_os.c ****       return sema;
 734:Middlewares/Third_Party/FreeRTOS/Source/CMSIS_RTOS/cmsis_os.c ****     }
 735:Middlewares/Third_Party/FreeRTOS/Source/CMSIS_RTOS/cmsis_os.c ****     else {
 736:Middlewares/Third_Party/FreeRTOS/Source/CMSIS_RTOS/cmsis_os.c **** #if (configUSE_COUNTING_SEMAPHORES == 1 )	
 737:Middlewares/Third_Party/FreeRTOS/Source/CMSIS_RTOS/cmsis_os.c ****       return xSemaphoreCreateCounting(count, count);
 738:Middlewares/Third_Party/FreeRTOS/Source/CMSIS_RTOS/cmsis_os.c **** #else
 739:Middlewares/Third_Party/FreeRTOS/Source/CMSIS_RTOS/cmsis_os.c ****       return NULL;
 740:Middlewares/Third_Party/FreeRTOS/Source/CMSIS_RTOS/cmsis_os.c **** #endif    
 741:Middlewares/Third_Party/FreeRTOS/Source/CMSIS_RTOS/cmsis_os.c ****     }
 742:Middlewares/Third_Party/FreeRTOS/Source/CMSIS_RTOS/cmsis_os.c ****   }
 743:Middlewares/Third_Party/FreeRTOS/Source/CMSIS_RTOS/cmsis_os.c **** #elif ( configSUPPORT_STATIC_ALLOCATION == 1 ) // configSUPPORT_DYNAMIC_ALLOCATION == 0
 744:Middlewares/Third_Party/FreeRTOS/Source/CMSIS_RTOS/cmsis_os.c ****   if(count == 1) {
 745:Middlewares/Third_Party/FreeRTOS/Source/CMSIS_RTOS/cmsis_os.c ****     return xSemaphoreCreateBinaryStatic( semaphore_def->controlblock );
 746:Middlewares/Third_Party/FreeRTOS/Source/CMSIS_RTOS/cmsis_os.c ****   }
 747:Middlewares/Third_Party/FreeRTOS/Source/CMSIS_RTOS/cmsis_os.c ****   else
 748:Middlewares/Third_Party/FreeRTOS/Source/CMSIS_RTOS/cmsis_os.c ****   {
 749:Middlewares/Third_Party/FreeRTOS/Source/CMSIS_RTOS/cmsis_os.c **** #if (configUSE_COUNTING_SEMAPHORES == 1 )
 750:Middlewares/Third_Party/FreeRTOS/Source/CMSIS_RTOS/cmsis_os.c ****       return xSemaphoreCreateCountingStatic( count, count, semaphore_def->controlblock );
 751:Middlewares/Third_Party/FreeRTOS/Source/CMSIS_RTOS/cmsis_os.c **** #else
 752:Middlewares/Third_Party/FreeRTOS/Source/CMSIS_RTOS/cmsis_os.c ****       return NULL;
 753:Middlewares/Third_Party/FreeRTOS/Source/CMSIS_RTOS/cmsis_os.c **** #endif    
 754:Middlewares/Third_Party/FreeRTOS/Source/CMSIS_RTOS/cmsis_os.c ****   }
 755:Middlewares/Third_Party/FreeRTOS/Source/CMSIS_RTOS/cmsis_os.c **** #else  // configSUPPORT_STATIC_ALLOCATION == 0  && configSUPPORT_DYNAMIC_ALLOCATION == 1
 756:Middlewares/Third_Party/FreeRTOS/Source/CMSIS_RTOS/cmsis_os.c ****   osSemaphoreId sema;
 1258              		.loc 1 756 3 view .LVU293
 757:Middlewares/Third_Party/FreeRTOS/Source/CMSIS_RTOS/cmsis_os.c ****  
 758:Middlewares/Third_Party/FreeRTOS/Source/CMSIS_RTOS/cmsis_os.c ****   if (count == 1) {
 1259              		.loc 1 758 3 view .LVU294
 713:Middlewares/Third_Party/FreeRTOS/Source/CMSIS_RTOS/cmsis_os.c **** #if( configSUPPORT_STATIC_ALLOCATION == 1 ) && ( configSUPPORT_DYNAMIC_ALLOCATION == 1 )
 1260              		.loc 1 713 1 is_stmt 0 view .LVU295
 1261 0000 10B5     		push	{r4, lr}
 1262              	.LCFI17:
 1263              		.cfi_def_cfa_offset 8
 1264              		.cfi_offset 4, -8
 1265              		.cfi_offset 14, -4
 713:Middlewares/Third_Party/FreeRTOS/Source/CMSIS_RTOS/cmsis_os.c **** #if( configSUPPORT_STATIC_ALLOCATION == 1 ) && ( configSUPPORT_DYNAMIC_ALLOCATION == 1 )
 1266              		.loc 1 713 1 view .LVU296
 1267 0002 0800     		movs	r0, r1
 1268              	.LVL78:
 759:Middlewares/Third_Party/FreeRTOS/Source/CMSIS_RTOS/cmsis_os.c ****     vSemaphoreCreateBinary(sema);
 760:Middlewares/Third_Party/FreeRTOS/Source/CMSIS_RTOS/cmsis_os.c ****     return sema;
 761:Middlewares/Third_Party/FreeRTOS/Source/CMSIS_RTOS/cmsis_os.c ****   }
 762:Middlewares/Third_Party/FreeRTOS/Source/CMSIS_RTOS/cmsis_os.c ****   else {
 763:Middlewares/Third_Party/FreeRTOS/Source/CMSIS_RTOS/cmsis_os.c **** #if (configUSE_COUNTING_SEMAPHORES == 1 )	
 764:Middlewares/Third_Party/FreeRTOS/Source/CMSIS_RTOS/cmsis_os.c ****     return xSemaphoreCreateCounting(count, count);
 765:Middlewares/Third_Party/FreeRTOS/Source/CMSIS_RTOS/cmsis_os.c **** #else
 766:Middlewares/Third_Party/FreeRTOS/Source/CMSIS_RTOS/cmsis_os.c ****     return NULL;
 1269              		.loc 1 766 12 view .LVU297
ARM GAS  /tmp/cc6GYW95.s 			page 42


 1270 0004 0024     		movs	r4, #0
 758:Middlewares/Third_Party/FreeRTOS/Source/CMSIS_RTOS/cmsis_os.c ****     vSemaphoreCreateBinary(sema);
 1271              		.loc 1 758 6 view .LVU298
 1272 0006 0129     		cmp	r1, #1
 1273 0008 0AD1     		bne	.L74
 759:Middlewares/Third_Party/FreeRTOS/Source/CMSIS_RTOS/cmsis_os.c ****     vSemaphoreCreateBinary(sema);
 1274              		.loc 1 759 5 is_stmt 1 view .LVU299
 1275 000a 2100     		movs	r1, r4
 1276              	.LVL79:
 759:Middlewares/Third_Party/FreeRTOS/Source/CMSIS_RTOS/cmsis_os.c ****     vSemaphoreCreateBinary(sema);
 1277              		.loc 1 759 5 is_stmt 0 view .LVU300
 1278 000c 0322     		movs	r2, #3
 1279 000e FFF7FEFF 		bl	xQueueGenericCreate
 1280              	.LVL80:
 759:Middlewares/Third_Party/FreeRTOS/Source/CMSIS_RTOS/cmsis_os.c ****     vSemaphoreCreateBinary(sema);
 1281              		.loc 1 759 5 view .LVU301
 1282 0012 041E     		subs	r4, r0, #0
 1283              	.LVL81:
 759:Middlewares/Third_Party/FreeRTOS/Source/CMSIS_RTOS/cmsis_os.c ****     vSemaphoreCreateBinary(sema);
 1284              		.loc 1 759 5 is_stmt 1 view .LVU302
 1285 0014 04D0     		beq	.L74
 759:Middlewares/Third_Party/FreeRTOS/Source/CMSIS_RTOS/cmsis_os.c ****     vSemaphoreCreateBinary(sema);
 1286              		.loc 1 759 5 discriminator 1 view .LVU303
 1287 0016 0023     		movs	r3, #0
 1288 0018 1A00     		movs	r2, r3
 1289 001a 1900     		movs	r1, r3
 1290 001c FFF7FEFF 		bl	xQueueGenericSend
 1291              	.LVL82:
 1292              	.L74:
 767:Middlewares/Third_Party/FreeRTOS/Source/CMSIS_RTOS/cmsis_os.c **** #endif
 768:Middlewares/Third_Party/FreeRTOS/Source/CMSIS_RTOS/cmsis_os.c ****   }
 769:Middlewares/Third_Party/FreeRTOS/Source/CMSIS_RTOS/cmsis_os.c **** #endif
 770:Middlewares/Third_Party/FreeRTOS/Source/CMSIS_RTOS/cmsis_os.c **** }
 1293              		.loc 1 770 1 is_stmt 0 view .LVU304
 1294 0020 2000     		movs	r0, r4
 1295              		@ sp needed
 1296 0022 10BD     		pop	{r4, pc}
 1297              		.cfi_endproc
 1298              	.LFE48:
 1300              		.section	.text.osSemaphoreWait,"ax",%progbits
 1301              		.align	1
 1302              		.global	osSemaphoreWait
 1303              		.syntax unified
 1304              		.code	16
 1305              		.thumb_func
 1306              		.fpu softvfp
 1308              	osSemaphoreWait:
 1309              	.LVL83:
 1310              	.LFB49:
 771:Middlewares/Third_Party/FreeRTOS/Source/CMSIS_RTOS/cmsis_os.c **** 
 772:Middlewares/Third_Party/FreeRTOS/Source/CMSIS_RTOS/cmsis_os.c **** /**
 773:Middlewares/Third_Party/FreeRTOS/Source/CMSIS_RTOS/cmsis_os.c **** * @brief Wait until a Semaphore token becomes available
 774:Middlewares/Third_Party/FreeRTOS/Source/CMSIS_RTOS/cmsis_os.c **** * @param  semaphore_id  semaphore object referenced with \ref osSemaphore.
 775:Middlewares/Third_Party/FreeRTOS/Source/CMSIS_RTOS/cmsis_os.c **** * @param  millisec      timeout value or 0 in case of no time-out.
 776:Middlewares/Third_Party/FreeRTOS/Source/CMSIS_RTOS/cmsis_os.c **** * @retval  number of available tokens, or -1 in case of incorrect parameters.
 777:Middlewares/Third_Party/FreeRTOS/Source/CMSIS_RTOS/cmsis_os.c **** * @note   MUST REMAIN UNCHANGED: \b osSemaphoreWait shall be consistent in every CMSIS-RTOS.
 778:Middlewares/Third_Party/FreeRTOS/Source/CMSIS_RTOS/cmsis_os.c **** */
ARM GAS  /tmp/cc6GYW95.s 			page 43


 779:Middlewares/Third_Party/FreeRTOS/Source/CMSIS_RTOS/cmsis_os.c **** int32_t osSemaphoreWait (osSemaphoreId semaphore_id, uint32_t millisec)
 780:Middlewares/Third_Party/FreeRTOS/Source/CMSIS_RTOS/cmsis_os.c **** {
 1311              		.loc 1 780 1 is_stmt 1 view -0
 1312              		.cfi_startproc
 1313              		@ args = 0, pretend = 0, frame = 8
 1314              		@ frame_needed = 0, uses_anonymous_args = 0
 781:Middlewares/Third_Party/FreeRTOS/Source/CMSIS_RTOS/cmsis_os.c ****   TickType_t ticks;
 1315              		.loc 1 781 3 view .LVU306
 782:Middlewares/Third_Party/FreeRTOS/Source/CMSIS_RTOS/cmsis_os.c ****   portBASE_TYPE taskWoken = pdFALSE;  
 1316              		.loc 1 782 3 view .LVU307
 780:Middlewares/Third_Party/FreeRTOS/Source/CMSIS_RTOS/cmsis_os.c ****   TickType_t ticks;
 1317              		.loc 1 780 1 is_stmt 0 view .LVU308
 1318 0000 13B5     		push	{r0, r1, r4, lr}
 1319              	.LCFI18:
 1320              		.cfi_def_cfa_offset 16
 1321              		.cfi_offset 0, -16
 1322              		.cfi_offset 1, -12
 1323              		.cfi_offset 4, -8
 1324              		.cfi_offset 14, -4
 1325              		.loc 1 782 17 view .LVU309
 1326 0002 0024     		movs	r4, #0
 783:Middlewares/Third_Party/FreeRTOS/Source/CMSIS_RTOS/cmsis_os.c ****   
 784:Middlewares/Third_Party/FreeRTOS/Source/CMSIS_RTOS/cmsis_os.c ****   
 785:Middlewares/Third_Party/FreeRTOS/Source/CMSIS_RTOS/cmsis_os.c ****   if (semaphore_id == NULL) {
 786:Middlewares/Third_Party/FreeRTOS/Source/CMSIS_RTOS/cmsis_os.c ****     return osErrorParameter;
 1327              		.loc 1 786 12 view .LVU310
 1328 0004 8023     		movs	r3, #128
 782:Middlewares/Third_Party/FreeRTOS/Source/CMSIS_RTOS/cmsis_os.c ****   
 1329              		.loc 1 782 17 view .LVU311
 1330 0006 0194     		str	r4, [sp, #4]
 785:Middlewares/Third_Party/FreeRTOS/Source/CMSIS_RTOS/cmsis_os.c ****     return osErrorParameter;
 1331              		.loc 1 785 3 is_stmt 1 view .LVU312
 785:Middlewares/Third_Party/FreeRTOS/Source/CMSIS_RTOS/cmsis_os.c ****     return osErrorParameter;
 1332              		.loc 1 785 6 is_stmt 0 view .LVU313
 1333 0008 A042     		cmp	r0, r4
 1334 000a 0DD0     		beq	.L80
 787:Middlewares/Third_Party/FreeRTOS/Source/CMSIS_RTOS/cmsis_os.c ****   }
 788:Middlewares/Third_Party/FreeRTOS/Source/CMSIS_RTOS/cmsis_os.c ****   
 789:Middlewares/Third_Party/FreeRTOS/Source/CMSIS_RTOS/cmsis_os.c ****   ticks = 0;
 1335              		.loc 1 789 3 is_stmt 1 view .LVU314
 1336              	.LVL84:
 790:Middlewares/Third_Party/FreeRTOS/Source/CMSIS_RTOS/cmsis_os.c ****   if (millisec == osWaitForever) {
 1337              		.loc 1 790 3 view .LVU315
 791:Middlewares/Third_Party/FreeRTOS/Source/CMSIS_RTOS/cmsis_os.c ****     ticks = portMAX_DELAY;
 792:Middlewares/Third_Party/FreeRTOS/Source/CMSIS_RTOS/cmsis_os.c ****   }
 793:Middlewares/Third_Party/FreeRTOS/Source/CMSIS_RTOS/cmsis_os.c ****   else if (millisec != 0) {
 794:Middlewares/Third_Party/FreeRTOS/Source/CMSIS_RTOS/cmsis_os.c ****     ticks = millisec / portTICK_PERIOD_MS;
 795:Middlewares/Third_Party/FreeRTOS/Source/CMSIS_RTOS/cmsis_os.c ****     if (ticks == 0) {
 796:Middlewares/Third_Party/FreeRTOS/Source/CMSIS_RTOS/cmsis_os.c ****       ticks = 1;
 797:Middlewares/Third_Party/FreeRTOS/Source/CMSIS_RTOS/cmsis_os.c ****     }
 798:Middlewares/Third_Party/FreeRTOS/Source/CMSIS_RTOS/cmsis_os.c ****   }
 799:Middlewares/Third_Party/FreeRTOS/Source/CMSIS_RTOS/cmsis_os.c ****   
 800:Middlewares/Third_Party/FreeRTOS/Source/CMSIS_RTOS/cmsis_os.c ****   if (inHandlerMode()) {
 1338              		.loc 1 800 3 view .LVU316
 1339              	.LBB139:
 1340              	.LBI139:
 130:Middlewares/Third_Party/FreeRTOS/Source/CMSIS_RTOS/cmsis_os.c **** {
ARM GAS  /tmp/cc6GYW95.s 			page 44


 1341              		.loc 1 130 12 view .LVU317
 1342              	.LBE139:
 132:Middlewares/Third_Party/FreeRTOS/Source/CMSIS_RTOS/cmsis_os.c **** }
 1343              		.loc 1 132 3 view .LVU318
 1344              	.LBB142:
 1345              	.LBB140:
 1346              	.LBI140:
 205:Drivers/CMSIS/Include/cmsis_gcc.h **** {
 1347              		.loc 2 205 31 view .LVU319
 1348              	.LBB141:
 207:Drivers/CMSIS/Include/cmsis_gcc.h **** 
 1349              		.loc 2 207 3 view .LVU320
 209:Drivers/CMSIS/Include/cmsis_gcc.h ****   return(result);
 1350              		.loc 2 209 3 view .LVU321
 1351              		.syntax divided
 1352              	@ 209 "Drivers/CMSIS/Include/cmsis_gcc.h" 1
 1353 000c EFF30583 		MRS r3, ipsr
 1354              	@ 0 "" 2
 1355              	.LVL85:
 1356              		.loc 2 210 3 view .LVU322
 1357              		.loc 2 210 3 is_stmt 0 view .LVU323
 1358              		.thumb
 1359              		.syntax unified
 1360              	.LBE141:
 1361              	.LBE140:
 1362              	.LBE142:
 1363              		.loc 1 800 6 view .LVU324
 1364 0010 A342     		cmp	r3, r4
 1365 0012 10D0     		beq	.L82
 801:Middlewares/Third_Party/FreeRTOS/Source/CMSIS_RTOS/cmsis_os.c ****     if (xSemaphoreTakeFromISR(semaphore_id, &taskWoken) != pdTRUE) {
 1366              		.loc 1 801 5 is_stmt 1 view .LVU325
 1367              		.loc 1 801 9 is_stmt 0 view .LVU326
 1368 0014 2100     		movs	r1, r4
 1369              	.LVL86:
 1370              		.loc 1 801 9 view .LVU327
 1371 0016 01AA     		add	r2, sp, #4
 1372 0018 FFF7FEFF 		bl	xQueueReceiveFromISR
 1373              	.LVL87:
 1374              		.loc 1 801 8 view .LVU328
 1375 001c 0128     		cmp	r0, #1
 1376 001e 0ED1     		bne	.L83
 802:Middlewares/Third_Party/FreeRTOS/Source/CMSIS_RTOS/cmsis_os.c ****       return osErrorOS;
 803:Middlewares/Third_Party/FreeRTOS/Source/CMSIS_RTOS/cmsis_os.c ****     }
 804:Middlewares/Third_Party/FreeRTOS/Source/CMSIS_RTOS/cmsis_os.c **** 	portEND_SWITCHING_ISR(taskWoken);
 1377              		.loc 1 804 2 is_stmt 1 view .LVU329
 1378 0020 019B     		ldr	r3, [sp, #4]
 1379 0022 A342     		cmp	r3, r4
 1380 0024 02D1     		bne	.L84
 1381              	.L85:
 805:Middlewares/Third_Party/FreeRTOS/Source/CMSIS_RTOS/cmsis_os.c ****   }  
 806:Middlewares/Third_Party/FreeRTOS/Source/CMSIS_RTOS/cmsis_os.c ****   else if (xSemaphoreTake(semaphore_id, ticks) != pdTRUE) {
 807:Middlewares/Third_Party/FreeRTOS/Source/CMSIS_RTOS/cmsis_os.c ****     return osErrorOS;
 808:Middlewares/Third_Party/FreeRTOS/Source/CMSIS_RTOS/cmsis_os.c ****   }
 809:Middlewares/Third_Party/FreeRTOS/Source/CMSIS_RTOS/cmsis_os.c ****   
 810:Middlewares/Third_Party/FreeRTOS/Source/CMSIS_RTOS/cmsis_os.c ****   return osOK;
 1382              		.loc 1 810 10 is_stmt 0 view .LVU330
 1383 0026 0023     		movs	r3, #0
ARM GAS  /tmp/cc6GYW95.s 			page 45


 1384              	.LVL88:
 1385              	.L80:
 811:Middlewares/Third_Party/FreeRTOS/Source/CMSIS_RTOS/cmsis_os.c **** }
 1386              		.loc 1 811 1 view .LVU331
 1387 0028 1800     		movs	r0, r3
 1388              		@ sp needed
 1389 002a 16BD     		pop	{r1, r2, r4, pc}
 1390              	.LVL89:
 1391              	.L84:
 804:Middlewares/Third_Party/FreeRTOS/Source/CMSIS_RTOS/cmsis_os.c ****   }  
 1392              		.loc 1 804 2 is_stmt 1 discriminator 1 view .LVU332
 1393 002c 8022     		movs	r2, #128
 1394 002e 054B     		ldr	r3, .L90
 1395 0030 5205     		lsls	r2, r2, #21
 1396 0032 1A60     		str	r2, [r3]
 1397 0034 F7E7     		b	.L85
 1398              	.LVL90:
 1399              	.L82:
 806:Middlewares/Third_Party/FreeRTOS/Source/CMSIS_RTOS/cmsis_os.c ****     return osErrorOS;
 1400              		.loc 1 806 8 view .LVU333
 806:Middlewares/Third_Party/FreeRTOS/Source/CMSIS_RTOS/cmsis_os.c ****     return osErrorOS;
 1401              		.loc 1 806 12 is_stmt 0 view .LVU334
 1402 0036 FFF7FEFF 		bl	xQueueSemaphoreTake
 1403              	.LVL91:
 806:Middlewares/Third_Party/FreeRTOS/Source/CMSIS_RTOS/cmsis_os.c ****     return osErrorOS;
 1404              		.loc 1 806 11 view .LVU335
 1405 003a 0128     		cmp	r0, #1
 1406 003c F3D0     		beq	.L85
 1407              	.L83:
 807:Middlewares/Third_Party/FreeRTOS/Source/CMSIS_RTOS/cmsis_os.c ****   }
 1408              		.loc 1 807 5 is_stmt 1 view .LVU336
 807:Middlewares/Third_Party/FreeRTOS/Source/CMSIS_RTOS/cmsis_os.c ****   }
 1409              		.loc 1 807 12 is_stmt 0 view .LVU337
 1410 003e FF23     		movs	r3, #255
 1411 0040 F2E7     		b	.L80
 1412              	.L91:
 1413 0042 C046     		.align	2
 1414              	.L90:
 1415 0044 04ED00E0 		.word	-536810236
 1416              		.cfi_endproc
 1417              	.LFE49:
 1419              		.section	.text.osSemaphoreRelease,"ax",%progbits
 1420              		.align	1
 1421              		.global	osSemaphoreRelease
 1422              		.syntax unified
 1423              		.code	16
 1424              		.thumb_func
 1425              		.fpu softvfp
 1427              	osSemaphoreRelease:
 1428              	.LFB84:
 1429              		.cfi_startproc
 1430              		@ args = 0, pretend = 0, frame = 0
 1431              		@ frame_needed = 0, uses_anonymous_args = 0
 1432 0000 10B5     		push	{r4, lr}
 1433              	.LCFI19:
 1434              		.cfi_def_cfa_offset 8
 1435              		.cfi_offset 4, -8
ARM GAS  /tmp/cc6GYW95.s 			page 46


 1436              		.cfi_offset 14, -4
 1437 0002 FFF7FEFF 		bl	osMutexRelease
 1438              		@ sp needed
 1439 0006 10BD     		pop	{r4, pc}
 1440              		.cfi_endproc
 1441              	.LFE84:
 1443              		.section	.text.osSemaphoreDelete,"ax",%progbits
 1444              		.align	1
 1445              		.global	osSemaphoreDelete
 1446              		.syntax unified
 1447              		.code	16
 1448              		.thumb_func
 1449              		.fpu softvfp
 1451              	osSemaphoreDelete:
 1452              	.LFB86:
 1453              		.cfi_startproc
 1454              		@ args = 0, pretend = 0, frame = 0
 1455              		@ frame_needed = 0, uses_anonymous_args = 0
 1456 0000 10B5     		push	{r4, lr}
 1457              	.LCFI20:
 1458              		.cfi_def_cfa_offset 8
 1459              		.cfi_offset 4, -8
 1460              		.cfi_offset 14, -4
 1461 0002 FFF7FEFF 		bl	osMutexDelete
 1462              		@ sp needed
 1463 0006 10BD     		pop	{r4, pc}
 1464              		.cfi_endproc
 1465              	.LFE86:
 1467              		.section	.text.osPoolCreate,"ax",%progbits
 1468              		.align	1
 1469              		.global	osPoolCreate
 1470              		.syntax unified
 1471              		.code	16
 1472              		.thumb_func
 1473              		.fpu softvfp
 1475              	osPoolCreate:
 1476              	.LVL92:
 1477              	.LFB52:
 812:Middlewares/Third_Party/FreeRTOS/Source/CMSIS_RTOS/cmsis_os.c **** 
 813:Middlewares/Third_Party/FreeRTOS/Source/CMSIS_RTOS/cmsis_os.c **** /**
 814:Middlewares/Third_Party/FreeRTOS/Source/CMSIS_RTOS/cmsis_os.c **** * @brief Release a Semaphore token
 815:Middlewares/Third_Party/FreeRTOS/Source/CMSIS_RTOS/cmsis_os.c **** * @param  semaphore_id  semaphore object referenced with \ref osSemaphore.
 816:Middlewares/Third_Party/FreeRTOS/Source/CMSIS_RTOS/cmsis_os.c **** * @retval  status code that indicates the execution status of the function.
 817:Middlewares/Third_Party/FreeRTOS/Source/CMSIS_RTOS/cmsis_os.c **** * @note   MUST REMAIN UNCHANGED: \b osSemaphoreRelease shall be consistent in every CMSIS-RTOS.
 818:Middlewares/Third_Party/FreeRTOS/Source/CMSIS_RTOS/cmsis_os.c **** */
 819:Middlewares/Third_Party/FreeRTOS/Source/CMSIS_RTOS/cmsis_os.c **** osStatus osSemaphoreRelease (osSemaphoreId semaphore_id)
 820:Middlewares/Third_Party/FreeRTOS/Source/CMSIS_RTOS/cmsis_os.c **** {
 821:Middlewares/Third_Party/FreeRTOS/Source/CMSIS_RTOS/cmsis_os.c ****   osStatus result = osOK;
 822:Middlewares/Third_Party/FreeRTOS/Source/CMSIS_RTOS/cmsis_os.c ****   portBASE_TYPE taskWoken = pdFALSE;
 823:Middlewares/Third_Party/FreeRTOS/Source/CMSIS_RTOS/cmsis_os.c ****   
 824:Middlewares/Third_Party/FreeRTOS/Source/CMSIS_RTOS/cmsis_os.c ****   
 825:Middlewares/Third_Party/FreeRTOS/Source/CMSIS_RTOS/cmsis_os.c ****   if (inHandlerMode()) {
 826:Middlewares/Third_Party/FreeRTOS/Source/CMSIS_RTOS/cmsis_os.c ****     if (xSemaphoreGiveFromISR(semaphore_id, &taskWoken) != pdTRUE) {
 827:Middlewares/Third_Party/FreeRTOS/Source/CMSIS_RTOS/cmsis_os.c ****       return osErrorOS;
 828:Middlewares/Third_Party/FreeRTOS/Source/CMSIS_RTOS/cmsis_os.c ****     }
 829:Middlewares/Third_Party/FreeRTOS/Source/CMSIS_RTOS/cmsis_os.c ****     portEND_SWITCHING_ISR(taskWoken);
 830:Middlewares/Third_Party/FreeRTOS/Source/CMSIS_RTOS/cmsis_os.c ****   }
ARM GAS  /tmp/cc6GYW95.s 			page 47


 831:Middlewares/Third_Party/FreeRTOS/Source/CMSIS_RTOS/cmsis_os.c ****   else {
 832:Middlewares/Third_Party/FreeRTOS/Source/CMSIS_RTOS/cmsis_os.c ****     if (xSemaphoreGive(semaphore_id) != pdTRUE) {
 833:Middlewares/Third_Party/FreeRTOS/Source/CMSIS_RTOS/cmsis_os.c ****       result = osErrorOS;
 834:Middlewares/Third_Party/FreeRTOS/Source/CMSIS_RTOS/cmsis_os.c ****     }
 835:Middlewares/Third_Party/FreeRTOS/Source/CMSIS_RTOS/cmsis_os.c ****   }
 836:Middlewares/Third_Party/FreeRTOS/Source/CMSIS_RTOS/cmsis_os.c ****   
 837:Middlewares/Third_Party/FreeRTOS/Source/CMSIS_RTOS/cmsis_os.c ****   return result;
 838:Middlewares/Third_Party/FreeRTOS/Source/CMSIS_RTOS/cmsis_os.c **** }
 839:Middlewares/Third_Party/FreeRTOS/Source/CMSIS_RTOS/cmsis_os.c **** 
 840:Middlewares/Third_Party/FreeRTOS/Source/CMSIS_RTOS/cmsis_os.c **** /**
 841:Middlewares/Third_Party/FreeRTOS/Source/CMSIS_RTOS/cmsis_os.c **** * @brief Delete a Semaphore
 842:Middlewares/Third_Party/FreeRTOS/Source/CMSIS_RTOS/cmsis_os.c **** * @param  semaphore_id  semaphore object referenced with \ref osSemaphore.
 843:Middlewares/Third_Party/FreeRTOS/Source/CMSIS_RTOS/cmsis_os.c **** * @retval  status code that indicates the execution status of the function.
 844:Middlewares/Third_Party/FreeRTOS/Source/CMSIS_RTOS/cmsis_os.c **** * @note   MUST REMAIN UNCHANGED: \b osSemaphoreDelete shall be consistent in every CMSIS-RTOS.
 845:Middlewares/Third_Party/FreeRTOS/Source/CMSIS_RTOS/cmsis_os.c **** */
 846:Middlewares/Third_Party/FreeRTOS/Source/CMSIS_RTOS/cmsis_os.c **** osStatus osSemaphoreDelete (osSemaphoreId semaphore_id)
 847:Middlewares/Third_Party/FreeRTOS/Source/CMSIS_RTOS/cmsis_os.c **** {
 848:Middlewares/Third_Party/FreeRTOS/Source/CMSIS_RTOS/cmsis_os.c ****   if (inHandlerMode()) {
 849:Middlewares/Third_Party/FreeRTOS/Source/CMSIS_RTOS/cmsis_os.c ****     return osErrorISR;
 850:Middlewares/Third_Party/FreeRTOS/Source/CMSIS_RTOS/cmsis_os.c ****   }
 851:Middlewares/Third_Party/FreeRTOS/Source/CMSIS_RTOS/cmsis_os.c **** 
 852:Middlewares/Third_Party/FreeRTOS/Source/CMSIS_RTOS/cmsis_os.c ****   vSemaphoreDelete(semaphore_id);
 853:Middlewares/Third_Party/FreeRTOS/Source/CMSIS_RTOS/cmsis_os.c **** 
 854:Middlewares/Third_Party/FreeRTOS/Source/CMSIS_RTOS/cmsis_os.c ****   return osOK; 
 855:Middlewares/Third_Party/FreeRTOS/Source/CMSIS_RTOS/cmsis_os.c **** }
 856:Middlewares/Third_Party/FreeRTOS/Source/CMSIS_RTOS/cmsis_os.c **** 
 857:Middlewares/Third_Party/FreeRTOS/Source/CMSIS_RTOS/cmsis_os.c **** #endif    /* Use Semaphores */
 858:Middlewares/Third_Party/FreeRTOS/Source/CMSIS_RTOS/cmsis_os.c **** 
 859:Middlewares/Third_Party/FreeRTOS/Source/CMSIS_RTOS/cmsis_os.c **** /*******************   Memory Pool Management Functions  ***********************/
 860:Middlewares/Third_Party/FreeRTOS/Source/CMSIS_RTOS/cmsis_os.c **** 
 861:Middlewares/Third_Party/FreeRTOS/Source/CMSIS_RTOS/cmsis_os.c **** #if (defined (osFeature_Pool)  &&  (osFeature_Pool != 0)) 
 862:Middlewares/Third_Party/FreeRTOS/Source/CMSIS_RTOS/cmsis_os.c **** 
 863:Middlewares/Third_Party/FreeRTOS/Source/CMSIS_RTOS/cmsis_os.c **** //TODO
 864:Middlewares/Third_Party/FreeRTOS/Source/CMSIS_RTOS/cmsis_os.c **** //This is a primitive and inefficient wrapper around the existing FreeRTOS memory management.
 865:Middlewares/Third_Party/FreeRTOS/Source/CMSIS_RTOS/cmsis_os.c **** //A better implementation will have to modify heap_x.c!
 866:Middlewares/Third_Party/FreeRTOS/Source/CMSIS_RTOS/cmsis_os.c **** 
 867:Middlewares/Third_Party/FreeRTOS/Source/CMSIS_RTOS/cmsis_os.c **** 
 868:Middlewares/Third_Party/FreeRTOS/Source/CMSIS_RTOS/cmsis_os.c **** typedef struct os_pool_cb {
 869:Middlewares/Third_Party/FreeRTOS/Source/CMSIS_RTOS/cmsis_os.c ****   void *pool;
 870:Middlewares/Third_Party/FreeRTOS/Source/CMSIS_RTOS/cmsis_os.c ****   uint8_t *markers;
 871:Middlewares/Third_Party/FreeRTOS/Source/CMSIS_RTOS/cmsis_os.c ****   uint32_t pool_sz;
 872:Middlewares/Third_Party/FreeRTOS/Source/CMSIS_RTOS/cmsis_os.c ****   uint32_t item_sz;
 873:Middlewares/Third_Party/FreeRTOS/Source/CMSIS_RTOS/cmsis_os.c ****   uint32_t currentIndex;
 874:Middlewares/Third_Party/FreeRTOS/Source/CMSIS_RTOS/cmsis_os.c **** } os_pool_cb_t;
 875:Middlewares/Third_Party/FreeRTOS/Source/CMSIS_RTOS/cmsis_os.c **** 
 876:Middlewares/Third_Party/FreeRTOS/Source/CMSIS_RTOS/cmsis_os.c **** 
 877:Middlewares/Third_Party/FreeRTOS/Source/CMSIS_RTOS/cmsis_os.c **** /**
 878:Middlewares/Third_Party/FreeRTOS/Source/CMSIS_RTOS/cmsis_os.c **** * @brief Create and Initialize a memory pool
 879:Middlewares/Third_Party/FreeRTOS/Source/CMSIS_RTOS/cmsis_os.c **** * @param  pool_def      memory pool definition referenced with \ref osPool.
 880:Middlewares/Third_Party/FreeRTOS/Source/CMSIS_RTOS/cmsis_os.c **** * @retval  memory pool ID for reference by other functions or NULL in case of error.
 881:Middlewares/Third_Party/FreeRTOS/Source/CMSIS_RTOS/cmsis_os.c **** * @note   MUST REMAIN UNCHANGED: \b osPoolCreate shall be consistent in every CMSIS-RTOS.
 882:Middlewares/Third_Party/FreeRTOS/Source/CMSIS_RTOS/cmsis_os.c **** */
 883:Middlewares/Third_Party/FreeRTOS/Source/CMSIS_RTOS/cmsis_os.c **** osPoolId osPoolCreate (const osPoolDef_t *pool_def)
 884:Middlewares/Third_Party/FreeRTOS/Source/CMSIS_RTOS/cmsis_os.c **** {
 1478              		.loc 1 884 1 is_stmt 1 view -0
 1479              		.cfi_startproc
 1480              		@ args = 0, pretend = 0, frame = 0
ARM GAS  /tmp/cc6GYW95.s 			page 48


 1481              		@ frame_needed = 0, uses_anonymous_args = 0
 885:Middlewares/Third_Party/FreeRTOS/Source/CMSIS_RTOS/cmsis_os.c **** #if (configSUPPORT_DYNAMIC_ALLOCATION == 1)
 886:Middlewares/Third_Party/FreeRTOS/Source/CMSIS_RTOS/cmsis_os.c ****   osPoolId thePool;
 1482              		.loc 1 886 3 view .LVU339
 887:Middlewares/Third_Party/FreeRTOS/Source/CMSIS_RTOS/cmsis_os.c ****   int itemSize = 4 * ((pool_def->item_sz + 3) / 4);
 1483              		.loc 1 887 3 view .LVU340
 884:Middlewares/Third_Party/FreeRTOS/Source/CMSIS_RTOS/cmsis_os.c **** #if (configSUPPORT_DYNAMIC_ALLOCATION == 1)
 1484              		.loc 1 884 1 is_stmt 0 view .LVU341
 1485 0000 F8B5     		push	{r3, r4, r5, r6, r7, lr}
 1486              	.LCFI21:
 1487              		.cfi_def_cfa_offset 24
 1488              		.cfi_offset 3, -24
 1489              		.cfi_offset 4, -20
 1490              		.cfi_offset 5, -16
 1491              		.cfi_offset 6, -12
 1492              		.cfi_offset 7, -8
 1493              		.cfi_offset 14, -4
 1494              		.loc 1 887 32 view .LVU342
 1495 0002 4668     		ldr	r6, [r0, #4]
 1496              	.LVL93:
 888:Middlewares/Third_Party/FreeRTOS/Source/CMSIS_RTOS/cmsis_os.c ****   uint32_t i;
 1497              		.loc 1 888 3 is_stmt 1 view .LVU343
 889:Middlewares/Third_Party/FreeRTOS/Source/CMSIS_RTOS/cmsis_os.c ****   
 890:Middlewares/Third_Party/FreeRTOS/Source/CMSIS_RTOS/cmsis_os.c ****   /* First have to allocate memory for the pool control block. */
 891:Middlewares/Third_Party/FreeRTOS/Source/CMSIS_RTOS/cmsis_os.c ****  thePool = pvPortMalloc(sizeof(os_pool_cb_t));
 1498              		.loc 1 891 2 view .LVU344
 884:Middlewares/Third_Party/FreeRTOS/Source/CMSIS_RTOS/cmsis_os.c **** #if (configSUPPORT_DYNAMIC_ALLOCATION == 1)
 1499              		.loc 1 884 1 is_stmt 0 view .LVU345
 1500 0004 0500     		movs	r5, r0
 1501              		.loc 1 891 12 view .LVU346
 1502 0006 1420     		movs	r0, #20
 1503              	.LVL94:
 1504              		.loc 1 891 12 view .LVU347
 1505 0008 FFF7FEFF 		bl	pvPortMalloc
 1506              	.LVL95:
 1507 000c 041E     		subs	r4, r0, #0
 1508              	.LVL96:
 892:Middlewares/Third_Party/FreeRTOS/Source/CMSIS_RTOS/cmsis_os.c **** 
 893:Middlewares/Third_Party/FreeRTOS/Source/CMSIS_RTOS/cmsis_os.c ****   
 894:Middlewares/Third_Party/FreeRTOS/Source/CMSIS_RTOS/cmsis_os.c ****   if (thePool) {
 1509              		.loc 1 894 3 is_stmt 1 view .LVU348
 1510              		.loc 1 894 6 is_stmt 0 view .LVU349
 1511 000e 24D0     		beq	.L94
 895:Middlewares/Third_Party/FreeRTOS/Source/CMSIS_RTOS/cmsis_os.c ****     thePool->pool_sz = pool_def->pool_sz;
 1512              		.loc 1 895 5 is_stmt 1 view .LVU350
 887:Middlewares/Third_Party/FreeRTOS/Source/CMSIS_RTOS/cmsis_os.c ****   uint32_t i;
 1513              		.loc 1 887 7 is_stmt 0 view .LVU351
 1514 0010 0323     		movs	r3, #3
 887:Middlewares/Third_Party/FreeRTOS/Source/CMSIS_RTOS/cmsis_os.c ****   uint32_t i;
 1515              		.loc 1 887 42 view .LVU352
 1516 0012 0336     		adds	r6, r6, #3
 1517              	.LVL97:
 887:Middlewares/Third_Party/FreeRTOS/Source/CMSIS_RTOS/cmsis_os.c ****   uint32_t i;
 1518              		.loc 1 887 7 view .LVU353
 1519 0014 9E43     		bics	r6, r3
 1520              	.LVL98:
 896:Middlewares/Third_Party/FreeRTOS/Source/CMSIS_RTOS/cmsis_os.c ****     thePool->item_sz = itemSize;
ARM GAS  /tmp/cc6GYW95.s 			page 49


 897:Middlewares/Third_Party/FreeRTOS/Source/CMSIS_RTOS/cmsis_os.c ****     thePool->currentIndex = 0;
 1521              		.loc 1 897 27 view .LVU354
 1522 0016 0023     		movs	r3, #0
 895:Middlewares/Third_Party/FreeRTOS/Source/CMSIS_RTOS/cmsis_os.c ****     thePool->item_sz = itemSize;
 1523              		.loc 1 895 32 view .LVU355
 1524 0018 2868     		ldr	r0, [r5]
 1525              	.LVL99:
 896:Middlewares/Third_Party/FreeRTOS/Source/CMSIS_RTOS/cmsis_os.c ****     thePool->item_sz = itemSize;
 1526              		.loc 1 896 22 view .LVU356
 1527 001a E660     		str	r6, [r4, #12]
 895:Middlewares/Third_Party/FreeRTOS/Source/CMSIS_RTOS/cmsis_os.c ****     thePool->item_sz = itemSize;
 1528              		.loc 1 895 22 view .LVU357
 1529 001c A060     		str	r0, [r4, #8]
 896:Middlewares/Third_Party/FreeRTOS/Source/CMSIS_RTOS/cmsis_os.c ****     thePool->item_sz = itemSize;
 1530              		.loc 1 896 5 is_stmt 1 view .LVU358
 1531              		.loc 1 897 5 view .LVU359
 1532              		.loc 1 897 27 is_stmt 0 view .LVU360
 1533 001e 2361     		str	r3, [r4, #16]
 898:Middlewares/Third_Party/FreeRTOS/Source/CMSIS_RTOS/cmsis_os.c ****     
 899:Middlewares/Third_Party/FreeRTOS/Source/CMSIS_RTOS/cmsis_os.c ****     /* Memory for markers */
 900:Middlewares/Third_Party/FreeRTOS/Source/CMSIS_RTOS/cmsis_os.c ****     thePool->markers = pvPortMalloc(pool_def->pool_sz);
 1534              		.loc 1 900 5 is_stmt 1 view .LVU361
 1535              		.loc 1 900 24 is_stmt 0 view .LVU362
 1536 0020 FFF7FEFF 		bl	pvPortMalloc
 1537              	.LVL100:
 1538 0024 071E     		subs	r7, r0, #0
 1539              		.loc 1 900 22 view .LVU363
 1540 0026 6060     		str	r0, [r4, #4]
 901:Middlewares/Third_Party/FreeRTOS/Source/CMSIS_RTOS/cmsis_os.c ****    
 902:Middlewares/Third_Party/FreeRTOS/Source/CMSIS_RTOS/cmsis_os.c ****     if (thePool->markers) {
 1541              		.loc 1 902 5 is_stmt 1 view .LVU364
 1542              		.loc 1 902 8 is_stmt 0 view .LVU365
 1543 0028 19D0     		beq	.L96
 903:Middlewares/Third_Party/FreeRTOS/Source/CMSIS_RTOS/cmsis_os.c ****       /* Now allocate the pool itself. */
 904:Middlewares/Third_Party/FreeRTOS/Source/CMSIS_RTOS/cmsis_os.c ****      thePool->pool = pvPortMalloc(pool_def->pool_sz * itemSize);
 1544              		.loc 1 904 6 is_stmt 1 view .LVU366
 1545              		.loc 1 904 53 is_stmt 0 view .LVU367
 1546 002a 2868     		ldr	r0, [r5]
 1547 002c 7043     		muls	r0, r6
 1548              		.loc 1 904 22 view .LVU368
 1549 002e FFF7FEFF 		bl	pvPortMalloc
 1550              	.LVL101:
 905:Middlewares/Third_Party/FreeRTOS/Source/CMSIS_RTOS/cmsis_os.c ****       
 906:Middlewares/Third_Party/FreeRTOS/Source/CMSIS_RTOS/cmsis_os.c ****       if (thePool->pool) {
 907:Middlewares/Third_Party/FreeRTOS/Source/CMSIS_RTOS/cmsis_os.c ****         for (i = 0; i < pool_def->pool_sz; i++) {
 1551              		.loc 1 907 16 view .LVU369
 1552 0032 0023     		movs	r3, #0
 904:Middlewares/Third_Party/FreeRTOS/Source/CMSIS_RTOS/cmsis_os.c ****       
 1553              		.loc 1 904 22 view .LVU370
 1554 0034 0600     		movs	r6, r0
 908:Middlewares/Third_Party/FreeRTOS/Source/CMSIS_RTOS/cmsis_os.c ****           thePool->markers[i] = 0;
 1555              		.loc 1 908 31 view .LVU371
 1556 0036 1A00     		movs	r2, r3
 904:Middlewares/Third_Party/FreeRTOS/Source/CMSIS_RTOS/cmsis_os.c ****       
 1557              		.loc 1 904 20 view .LVU372
 1558 0038 2060     		str	r0, [r4]
 906:Middlewares/Third_Party/FreeRTOS/Source/CMSIS_RTOS/cmsis_os.c ****         for (i = 0; i < pool_def->pool_sz; i++) {
ARM GAS  /tmp/cc6GYW95.s 			page 50


 1559              		.loc 1 906 7 is_stmt 1 view .LVU373
 906:Middlewares/Third_Party/FreeRTOS/Source/CMSIS_RTOS/cmsis_os.c ****         for (i = 0; i < pool_def->pool_sz; i++) {
 1560              		.loc 1 906 10 is_stmt 0 view .LVU374
 1561 003a 9842     		cmp	r0, r3
 1562 003c 0AD1     		bne	.L97
 909:Middlewares/Third_Party/FreeRTOS/Source/CMSIS_RTOS/cmsis_os.c ****         }
 910:Middlewares/Third_Party/FreeRTOS/Source/CMSIS_RTOS/cmsis_os.c ****       }
 911:Middlewares/Third_Party/FreeRTOS/Source/CMSIS_RTOS/cmsis_os.c ****       else {
 912:Middlewares/Third_Party/FreeRTOS/Source/CMSIS_RTOS/cmsis_os.c ****         vPortFree(thePool->markers);
 1563              		.loc 1 912 9 is_stmt 1 view .LVU375
 1564 003e 6068     		ldr	r0, [r4, #4]
 1565 0040 FFF7FEFF 		bl	vPortFree
 1566              	.LVL102:
 913:Middlewares/Third_Party/FreeRTOS/Source/CMSIS_RTOS/cmsis_os.c ****         vPortFree(thePool);
 1567              		.loc 1 913 9 view .LVU376
 1568 0044 2000     		movs	r0, r4
 1569 0046 FFF7FEFF 		bl	vPortFree
 1570              	.LVL103:
 914:Middlewares/Third_Party/FreeRTOS/Source/CMSIS_RTOS/cmsis_os.c ****         thePool = NULL;
 1571              		.loc 1 914 9 view .LVU377
 1572              		.loc 1 914 17 is_stmt 0 view .LVU378
 1573 004a 3400     		movs	r4, r6
 1574 004c 05E0     		b	.L94
 1575              	.LVL104:
 1576              	.L99:
 908:Middlewares/Third_Party/FreeRTOS/Source/CMSIS_RTOS/cmsis_os.c ****         }
 1577              		.loc 1 908 11 is_stmt 1 discriminator 3 view .LVU379
 908:Middlewares/Third_Party/FreeRTOS/Source/CMSIS_RTOS/cmsis_os.c ****         }
 1578              		.loc 1 908 31 is_stmt 0 discriminator 3 view .LVU380
 1579 004e 6168     		ldr	r1, [r4, #4]
 1580 0050 CA54     		strb	r2, [r1, r3]
 907:Middlewares/Third_Party/FreeRTOS/Source/CMSIS_RTOS/cmsis_os.c ****           thePool->markers[i] = 0;
 1581              		.loc 1 907 44 is_stmt 1 discriminator 3 view .LVU381
 907:Middlewares/Third_Party/FreeRTOS/Source/CMSIS_RTOS/cmsis_os.c ****           thePool->markers[i] = 0;
 1582              		.loc 1 907 45 is_stmt 0 discriminator 3 view .LVU382
 1583 0052 0133     		adds	r3, r3, #1
 1584              	.LVL105:
 1585              	.L97:
 907:Middlewares/Third_Party/FreeRTOS/Source/CMSIS_RTOS/cmsis_os.c ****           thePool->markers[i] = 0;
 1586              		.loc 1 907 21 is_stmt 1 discriminator 1 view .LVU383
 907:Middlewares/Third_Party/FreeRTOS/Source/CMSIS_RTOS/cmsis_os.c ****           thePool->markers[i] = 0;
 1587              		.loc 1 907 9 is_stmt 0 discriminator 1 view .LVU384
 1588 0054 2968     		ldr	r1, [r5]
 1589 0056 9942     		cmp	r1, r3
 1590 0058 F9D8     		bhi	.L99
 1591              	.LVL106:
 1592              	.L94:
 915:Middlewares/Third_Party/FreeRTOS/Source/CMSIS_RTOS/cmsis_os.c ****       }
 916:Middlewares/Third_Party/FreeRTOS/Source/CMSIS_RTOS/cmsis_os.c ****     }
 917:Middlewares/Third_Party/FreeRTOS/Source/CMSIS_RTOS/cmsis_os.c ****     else {
 918:Middlewares/Third_Party/FreeRTOS/Source/CMSIS_RTOS/cmsis_os.c ****       vPortFree(thePool);
 919:Middlewares/Third_Party/FreeRTOS/Source/CMSIS_RTOS/cmsis_os.c ****       thePool = NULL;
 920:Middlewares/Third_Party/FreeRTOS/Source/CMSIS_RTOS/cmsis_os.c ****     }
 921:Middlewares/Third_Party/FreeRTOS/Source/CMSIS_RTOS/cmsis_os.c ****   }
 922:Middlewares/Third_Party/FreeRTOS/Source/CMSIS_RTOS/cmsis_os.c **** 
 923:Middlewares/Third_Party/FreeRTOS/Source/CMSIS_RTOS/cmsis_os.c ****   return thePool;
 924:Middlewares/Third_Party/FreeRTOS/Source/CMSIS_RTOS/cmsis_os.c ****  
ARM GAS  /tmp/cc6GYW95.s 			page 51


 925:Middlewares/Third_Party/FreeRTOS/Source/CMSIS_RTOS/cmsis_os.c **** #else
 926:Middlewares/Third_Party/FreeRTOS/Source/CMSIS_RTOS/cmsis_os.c ****   return NULL;
 927:Middlewares/Third_Party/FreeRTOS/Source/CMSIS_RTOS/cmsis_os.c **** #endif
 928:Middlewares/Third_Party/FreeRTOS/Source/CMSIS_RTOS/cmsis_os.c **** }
 1593              		.loc 1 928 1 view .LVU385
 1594 005a 2000     		movs	r0, r4
 1595              		@ sp needed
 1596              	.LVL107:
 1597              		.loc 1 928 1 view .LVU386
 1598 005c F8BD     		pop	{r3, r4, r5, r6, r7, pc}
 1599              	.LVL108:
 1600              	.L96:
 918:Middlewares/Third_Party/FreeRTOS/Source/CMSIS_RTOS/cmsis_os.c ****       thePool = NULL;
 1601              		.loc 1 918 7 is_stmt 1 view .LVU387
 1602 005e 2000     		movs	r0, r4
 1603 0060 FFF7FEFF 		bl	vPortFree
 1604              	.LVL109:
 919:Middlewares/Third_Party/FreeRTOS/Source/CMSIS_RTOS/cmsis_os.c ****     }
 1605              		.loc 1 919 7 view .LVU388
 919:Middlewares/Third_Party/FreeRTOS/Source/CMSIS_RTOS/cmsis_os.c ****     }
 1606              		.loc 1 919 15 is_stmt 0 view .LVU389
 1607 0064 3C00     		movs	r4, r7
 1608              	.LVL110:
 923:Middlewares/Third_Party/FreeRTOS/Source/CMSIS_RTOS/cmsis_os.c ****  
 1609              		.loc 1 923 3 is_stmt 1 view .LVU390
 923:Middlewares/Third_Party/FreeRTOS/Source/CMSIS_RTOS/cmsis_os.c ****  
 1610              		.loc 1 923 10 is_stmt 0 view .LVU391
 1611 0066 F8E7     		b	.L94
 1612              		.cfi_endproc
 1613              	.LFE52:
 1615              		.global	__aeabi_uidivmod
 1616              		.section	.text.osPoolAlloc,"ax",%progbits
 1617              		.align	1
 1618              		.global	osPoolAlloc
 1619              		.syntax unified
 1620              		.code	16
 1621              		.thumb_func
 1622              		.fpu softvfp
 1624              	osPoolAlloc:
 1625              	.LVL111:
 1626              	.LFB53:
 929:Middlewares/Third_Party/FreeRTOS/Source/CMSIS_RTOS/cmsis_os.c **** 
 930:Middlewares/Third_Party/FreeRTOS/Source/CMSIS_RTOS/cmsis_os.c **** /**
 931:Middlewares/Third_Party/FreeRTOS/Source/CMSIS_RTOS/cmsis_os.c **** * @brief Allocate a memory block from a memory pool
 932:Middlewares/Third_Party/FreeRTOS/Source/CMSIS_RTOS/cmsis_os.c **** * @param pool_id       memory pool ID obtain referenced with \ref osPoolCreate.
 933:Middlewares/Third_Party/FreeRTOS/Source/CMSIS_RTOS/cmsis_os.c **** * @retval  address of the allocated memory block or NULL in case of no memory available.
 934:Middlewares/Third_Party/FreeRTOS/Source/CMSIS_RTOS/cmsis_os.c **** * @note   MUST REMAIN UNCHANGED: \b osPoolAlloc shall be consistent in every CMSIS-RTOS.
 935:Middlewares/Third_Party/FreeRTOS/Source/CMSIS_RTOS/cmsis_os.c **** */
 936:Middlewares/Third_Party/FreeRTOS/Source/CMSIS_RTOS/cmsis_os.c **** void *osPoolAlloc (osPoolId pool_id)
 937:Middlewares/Third_Party/FreeRTOS/Source/CMSIS_RTOS/cmsis_os.c **** {
 1627              		.loc 1 937 1 is_stmt 1 view -0
 1628              		.cfi_startproc
 1629              		@ args = 0, pretend = 0, frame = 0
 1630              		@ frame_needed = 0, uses_anonymous_args = 0
 938:Middlewares/Third_Party/FreeRTOS/Source/CMSIS_RTOS/cmsis_os.c ****   int dummy = 0;
 1631              		.loc 1 938 3 view .LVU393
 939:Middlewares/Third_Party/FreeRTOS/Source/CMSIS_RTOS/cmsis_os.c ****   void *p = NULL;
ARM GAS  /tmp/cc6GYW95.s 			page 52


 1632              		.loc 1 939 3 view .LVU394
 940:Middlewares/Third_Party/FreeRTOS/Source/CMSIS_RTOS/cmsis_os.c ****   uint32_t i;
 1633              		.loc 1 940 3 view .LVU395
 941:Middlewares/Third_Party/FreeRTOS/Source/CMSIS_RTOS/cmsis_os.c ****   uint32_t index;
 1634              		.loc 1 941 3 view .LVU396
 942:Middlewares/Third_Party/FreeRTOS/Source/CMSIS_RTOS/cmsis_os.c ****   
 943:Middlewares/Third_Party/FreeRTOS/Source/CMSIS_RTOS/cmsis_os.c ****   if (inHandlerMode()) {
 1635              		.loc 1 943 3 view .LVU397
 1636              	.LBB143:
 1637              	.LBI143:
 130:Middlewares/Third_Party/FreeRTOS/Source/CMSIS_RTOS/cmsis_os.c **** {
 1638              		.loc 1 130 12 view .LVU398
 1639              	.LBE143:
 132:Middlewares/Third_Party/FreeRTOS/Source/CMSIS_RTOS/cmsis_os.c **** }
 1640              		.loc 1 132 3 view .LVU399
 1641              	.LBB148:
 1642              	.LBB144:
 1643              	.LBI144:
 205:Drivers/CMSIS/Include/cmsis_gcc.h **** {
 1644              		.loc 2 205 31 view .LVU400
 1645              	.LBB145:
 207:Drivers/CMSIS/Include/cmsis_gcc.h **** 
 1646              		.loc 2 207 3 view .LVU401
 209:Drivers/CMSIS/Include/cmsis_gcc.h ****   return(result);
 1647              		.loc 2 209 3 view .LVU402
 1648              	.LBE145:
 1649              	.LBE144:
 1650              	.LBE148:
 937:Middlewares/Third_Party/FreeRTOS/Source/CMSIS_RTOS/cmsis_os.c ****   int dummy = 0;
 1651              		.loc 1 937 1 is_stmt 0 view .LVU403
 1652 0000 F8B5     		push	{r3, r4, r5, r6, r7, lr}
 1653              	.LCFI22:
 1654              		.cfi_def_cfa_offset 24
 1655              		.cfi_offset 3, -24
 1656              		.cfi_offset 4, -20
 1657              		.cfi_offset 5, -16
 1658              		.cfi_offset 6, -12
 1659              		.cfi_offset 7, -8
 1660              		.cfi_offset 14, -4
 937:Middlewares/Third_Party/FreeRTOS/Source/CMSIS_RTOS/cmsis_os.c ****   int dummy = 0;
 1661              		.loc 1 937 1 view .LVU404
 1662 0002 0400     		movs	r4, r0
 1663              	.LBB149:
 1664              	.LBB147:
 1665              	.LBB146:
 209:Drivers/CMSIS/Include/cmsis_gcc.h ****   return(result);
 1666              		.loc 2 209 3 view .LVU405
 1667              		.syntax divided
 1668              	@ 209 "Drivers/CMSIS/Include/cmsis_gcc.h" 1
 1669 0004 EFF30585 		MRS r5, ipsr
 1670              	@ 0 "" 2
 1671              	.LVL112:
 1672              		.loc 2 210 3 is_stmt 1 view .LVU406
 1673              		.loc 2 210 3 is_stmt 0 view .LVU407
 1674              		.thumb
 1675              		.syntax unified
 1676              	.LBE146:
ARM GAS  /tmp/cc6GYW95.s 			page 53


 1677              	.LBE147:
 1678              	.LBE149:
 1679              		.loc 1 943 6 view .LVU408
 1680 0008 002D     		cmp	r5, #0
 1681 000a 08D0     		beq	.L107
 944:Middlewares/Third_Party/FreeRTOS/Source/CMSIS_RTOS/cmsis_os.c ****     dummy = portSET_INTERRUPT_MASK_FROM_ISR();
 1682              		.loc 1 944 5 is_stmt 1 view .LVU409
 1683              		.loc 1 944 13 is_stmt 0 view .LVU410
 1684 000c FFF7FEFF 		bl	ulSetInterruptMaskFromISR
 1685              	.LVL113:
 1686              		.loc 1 944 13 view .LVU411
 1687 0010 0500     		movs	r5, r0
 1688              	.LVL114:
 1689              	.L108:
 945:Middlewares/Third_Party/FreeRTOS/Source/CMSIS_RTOS/cmsis_os.c ****   }
 946:Middlewares/Third_Party/FreeRTOS/Source/CMSIS_RTOS/cmsis_os.c ****   else {
 947:Middlewares/Third_Party/FreeRTOS/Source/CMSIS_RTOS/cmsis_os.c ****     vPortEnterCritical();
 948:Middlewares/Third_Party/FreeRTOS/Source/CMSIS_RTOS/cmsis_os.c ****   }
 949:Middlewares/Third_Party/FreeRTOS/Source/CMSIS_RTOS/cmsis_os.c ****   
 950:Middlewares/Third_Party/FreeRTOS/Source/CMSIS_RTOS/cmsis_os.c ****   for (i = 0; i < pool_id->pool_sz; i++) {
 1690              		.loc 1 950 3 is_stmt 1 view .LVU412
 1691              		.loc 1 950 10 is_stmt 0 view .LVU413
 1692 0012 0026     		movs	r6, #0
 1693              		.loc 1 950 26 view .LVU414
 1694 0014 A768     		ldr	r7, [r4, #8]
 1695              	.LVL115:
 1696              	.L109:
 1697              		.loc 1 950 15 is_stmt 1 discriminator 1 view .LVU415
 1698              		.loc 1 950 3 is_stmt 0 discriminator 1 view .LVU416
 1699 0016 B742     		cmp	r7, r6
 1700 0018 04D1     		bne	.L112
 939:Middlewares/Third_Party/FreeRTOS/Source/CMSIS_RTOS/cmsis_os.c ****   uint32_t i;
 1701              		.loc 1 939 9 view .LVU417
 1702 001a 0026     		movs	r6, #0
 1703              	.LVL116:
 939:Middlewares/Third_Party/FreeRTOS/Source/CMSIS_RTOS/cmsis_os.c ****   uint32_t i;
 1704              		.loc 1 939 9 view .LVU418
 1705 001c 13E0     		b	.L111
 1706              	.LVL117:
 1707              	.L107:
 947:Middlewares/Third_Party/FreeRTOS/Source/CMSIS_RTOS/cmsis_os.c ****   }
 1708              		.loc 1 947 5 is_stmt 1 view .LVU419
 1709 001e FFF7FEFF 		bl	vPortEnterCritical
 1710              	.LVL118:
 947:Middlewares/Third_Party/FreeRTOS/Source/CMSIS_RTOS/cmsis_os.c ****   }
 1711              		.loc 1 947 5 is_stmt 0 view .LVU420
 1712 0022 F6E7     		b	.L108
 1713              	.LVL119:
 1714              	.L112:
 951:Middlewares/Third_Party/FreeRTOS/Source/CMSIS_RTOS/cmsis_os.c ****     index = (pool_id->currentIndex + i) % pool_id->pool_sz;
 1715              		.loc 1 951 5 is_stmt 1 view .LVU421
 1716              		.loc 1 951 36 is_stmt 0 view .LVU422
 1717 0024 2369     		ldr	r3, [r4, #16]
 1718              		.loc 1 951 11 view .LVU423
 1719 0026 3900     		movs	r1, r7
 1720              		.loc 1 951 36 view .LVU424
 1721 0028 F018     		adds	r0, r6, r3
ARM GAS  /tmp/cc6GYW95.s 			page 54


 1722              		.loc 1 951 11 view .LVU425
 1723 002a FFF7FEFF 		bl	__aeabi_uidivmod
 1724              	.LVL120:
 952:Middlewares/Third_Party/FreeRTOS/Source/CMSIS_RTOS/cmsis_os.c ****     
 953:Middlewares/Third_Party/FreeRTOS/Source/CMSIS_RTOS/cmsis_os.c ****     if (pool_id->markers[index] == 0) {
 1725              		.loc 1 953 5 is_stmt 1 view .LVU426
 1726              		.loc 1 953 25 is_stmt 0 view .LVU427
 1727 002e 6368     		ldr	r3, [r4, #4]
 1728 0030 5A18     		adds	r2, r3, r1
 1729              		.loc 1 953 8 view .LVU428
 1730 0032 5B5C     		ldrb	r3, [r3, r1]
 1731 0034 002B     		cmp	r3, #0
 1732 0036 0FD1     		bne	.L110
 954:Middlewares/Third_Party/FreeRTOS/Source/CMSIS_RTOS/cmsis_os.c ****       pool_id->markers[index] = 1;
 1733              		.loc 1 954 7 is_stmt 1 view .LVU429
 1734              		.loc 1 954 31 is_stmt 0 view .LVU430
 1735 0038 0133     		adds	r3, r3, #1
 1736 003a 1370     		strb	r3, [r2]
 955:Middlewares/Third_Party/FreeRTOS/Source/CMSIS_RTOS/cmsis_os.c ****       p = (void *)((uint32_t)(pool_id->pool) + (index * pool_id->item_sz));
 1737              		.loc 1 955 7 is_stmt 1 view .LVU431
 1738              		.loc 1 955 55 is_stmt 0 view .LVU432
 1739 003c E668     		ldr	r6, [r4, #12]
 1740              	.LVL121:
 1741              		.loc 1 955 46 view .LVU433
 1742 003e 2368     		ldr	r3, [r4]
 1743              		.loc 1 955 55 view .LVU434
 1744 0040 4E43     		muls	r6, r1
 956:Middlewares/Third_Party/FreeRTOS/Source/CMSIS_RTOS/cmsis_os.c ****       pool_id->currentIndex = index;
 1745              		.loc 1 956 29 view .LVU435
 1746 0042 2161     		str	r1, [r4, #16]
 955:Middlewares/Third_Party/FreeRTOS/Source/CMSIS_RTOS/cmsis_os.c ****       p = (void *)((uint32_t)(pool_id->pool) + (index * pool_id->item_sz));
 1747              		.loc 1 955 46 view .LVU436
 1748 0044 9E19     		adds	r6, r3, r6
 1749              	.LVL122:
 1750              		.loc 1 956 7 is_stmt 1 view .LVU437
 957:Middlewares/Third_Party/FreeRTOS/Source/CMSIS_RTOS/cmsis_os.c ****       break;
 1751              		.loc 1 957 7 view .LVU438
 1752              	.L111:
 958:Middlewares/Third_Party/FreeRTOS/Source/CMSIS_RTOS/cmsis_os.c ****     }
 959:Middlewares/Third_Party/FreeRTOS/Source/CMSIS_RTOS/cmsis_os.c ****   }
 960:Middlewares/Third_Party/FreeRTOS/Source/CMSIS_RTOS/cmsis_os.c ****   
 961:Middlewares/Third_Party/FreeRTOS/Source/CMSIS_RTOS/cmsis_os.c ****   if (inHandlerMode()) {
 1753              		.loc 1 961 3 view .LVU439
 1754              	.LBB150:
 1755              	.LBI150:
 130:Middlewares/Third_Party/FreeRTOS/Source/CMSIS_RTOS/cmsis_os.c **** {
 1756              		.loc 1 130 12 view .LVU440
 1757              	.LBE150:
 132:Middlewares/Third_Party/FreeRTOS/Source/CMSIS_RTOS/cmsis_os.c **** }
 1758              		.loc 1 132 3 view .LVU441
 1759              	.LBB153:
 1760              	.LBB151:
 1761              	.LBI151:
 205:Drivers/CMSIS/Include/cmsis_gcc.h **** {
 1762              		.loc 2 205 31 view .LVU442
 1763              	.LBB152:
 207:Drivers/CMSIS/Include/cmsis_gcc.h **** 
ARM GAS  /tmp/cc6GYW95.s 			page 55


 1764              		.loc 2 207 3 view .LVU443
 209:Drivers/CMSIS/Include/cmsis_gcc.h ****   return(result);
 1765              		.loc 2 209 3 view .LVU444
 1766              		.syntax divided
 1767              	@ 209 "Drivers/CMSIS/Include/cmsis_gcc.h" 1
 1768 0046 EFF30583 		MRS r3, ipsr
 1769              	@ 0 "" 2
 1770              	.LVL123:
 1771              		.loc 2 210 3 view .LVU445
 1772              		.loc 2 210 3 is_stmt 0 view .LVU446
 1773              		.thumb
 1774              		.syntax unified
 1775              	.LBE152:
 1776              	.LBE151:
 1777              	.LBE153:
 1778              		.loc 1 961 6 view .LVU447
 1779 004a 002B     		cmp	r3, #0
 1780 004c 06D0     		beq	.L113
 962:Middlewares/Third_Party/FreeRTOS/Source/CMSIS_RTOS/cmsis_os.c ****     portCLEAR_INTERRUPT_MASK_FROM_ISR(dummy);
 1781              		.loc 1 962 5 is_stmt 1 view .LVU448
 1782 004e 2800     		movs	r0, r5
 1783 0050 FFF7FEFF 		bl	vClearInterruptMaskFromISR
 1784              	.LVL124:
 1785              	.L106:
 963:Middlewares/Third_Party/FreeRTOS/Source/CMSIS_RTOS/cmsis_os.c ****   }
 964:Middlewares/Third_Party/FreeRTOS/Source/CMSIS_RTOS/cmsis_os.c ****   else {
 965:Middlewares/Third_Party/FreeRTOS/Source/CMSIS_RTOS/cmsis_os.c ****     vPortExitCritical();
 966:Middlewares/Third_Party/FreeRTOS/Source/CMSIS_RTOS/cmsis_os.c ****   }
 967:Middlewares/Third_Party/FreeRTOS/Source/CMSIS_RTOS/cmsis_os.c ****   
 968:Middlewares/Third_Party/FreeRTOS/Source/CMSIS_RTOS/cmsis_os.c ****   return p;
 969:Middlewares/Third_Party/FreeRTOS/Source/CMSIS_RTOS/cmsis_os.c **** }
 1786              		.loc 1 969 1 is_stmt 0 view .LVU449
 1787 0054 3000     		movs	r0, r6
 1788              		@ sp needed
 1789              	.LVL125:
 1790              	.LVL126:
 1791              	.LVL127:
 1792              		.loc 1 969 1 view .LVU450
 1793 0056 F8BD     		pop	{r3, r4, r5, r6, r7, pc}
 1794              	.LVL128:
 1795              	.L110:
 950:Middlewares/Third_Party/FreeRTOS/Source/CMSIS_RTOS/cmsis_os.c ****     index = (pool_id->currentIndex + i) % pool_id->pool_sz;
 1796              		.loc 1 950 37 is_stmt 1 discriminator 2 view .LVU451
 950:Middlewares/Third_Party/FreeRTOS/Source/CMSIS_RTOS/cmsis_os.c ****     index = (pool_id->currentIndex + i) % pool_id->pool_sz;
 1797              		.loc 1 950 38 is_stmt 0 discriminator 2 view .LVU452
 1798 0058 0136     		adds	r6, r6, #1
 1799              	.LVL129:
 950:Middlewares/Third_Party/FreeRTOS/Source/CMSIS_RTOS/cmsis_os.c ****     index = (pool_id->currentIndex + i) % pool_id->pool_sz;
 1800              		.loc 1 950 38 discriminator 2 view .LVU453
 1801 005a DCE7     		b	.L109
 1802              	.LVL130:
 1803              	.L113:
 965:Middlewares/Third_Party/FreeRTOS/Source/CMSIS_RTOS/cmsis_os.c ****   }
 1804              		.loc 1 965 5 is_stmt 1 view .LVU454
 1805 005c FFF7FEFF 		bl	vPortExitCritical
 1806              	.LVL131:
 968:Middlewares/Third_Party/FreeRTOS/Source/CMSIS_RTOS/cmsis_os.c **** }
ARM GAS  /tmp/cc6GYW95.s 			page 56


 1807              		.loc 1 968 3 view .LVU455
 968:Middlewares/Third_Party/FreeRTOS/Source/CMSIS_RTOS/cmsis_os.c **** }
 1808              		.loc 1 968 10 is_stmt 0 view .LVU456
 1809 0060 F8E7     		b	.L106
 1810              		.cfi_endproc
 1811              	.LFE53:
 1813              		.section	.text.osPoolCAlloc,"ax",%progbits
 1814              		.align	1
 1815              		.global	osPoolCAlloc
 1816              		.syntax unified
 1817              		.code	16
 1818              		.thumb_func
 1819              		.fpu softvfp
 1821              	osPoolCAlloc:
 1822              	.LVL132:
 1823              	.LFB54:
 970:Middlewares/Third_Party/FreeRTOS/Source/CMSIS_RTOS/cmsis_os.c **** 
 971:Middlewares/Third_Party/FreeRTOS/Source/CMSIS_RTOS/cmsis_os.c **** /**
 972:Middlewares/Third_Party/FreeRTOS/Source/CMSIS_RTOS/cmsis_os.c **** * @brief Allocate a memory block from a memory pool and set memory block to zero
 973:Middlewares/Third_Party/FreeRTOS/Source/CMSIS_RTOS/cmsis_os.c **** * @param  pool_id       memory pool ID obtain referenced with \ref osPoolCreate.
 974:Middlewares/Third_Party/FreeRTOS/Source/CMSIS_RTOS/cmsis_os.c **** * @retval  address of the allocated memory block or NULL in case of no memory available.
 975:Middlewares/Third_Party/FreeRTOS/Source/CMSIS_RTOS/cmsis_os.c **** * @note   MUST REMAIN UNCHANGED: \b osPoolCAlloc shall be consistent in every CMSIS-RTOS.
 976:Middlewares/Third_Party/FreeRTOS/Source/CMSIS_RTOS/cmsis_os.c **** */
 977:Middlewares/Third_Party/FreeRTOS/Source/CMSIS_RTOS/cmsis_os.c **** void *osPoolCAlloc (osPoolId pool_id)
 978:Middlewares/Third_Party/FreeRTOS/Source/CMSIS_RTOS/cmsis_os.c **** {
 1824              		.loc 1 978 1 is_stmt 1 view -0
 1825              		.cfi_startproc
 1826              		@ args = 0, pretend = 0, frame = 0
 1827              		@ frame_needed = 0, uses_anonymous_args = 0
 979:Middlewares/Third_Party/FreeRTOS/Source/CMSIS_RTOS/cmsis_os.c ****   void *p = osPoolAlloc(pool_id);
 1828              		.loc 1 979 3 view .LVU458
 978:Middlewares/Third_Party/FreeRTOS/Source/CMSIS_RTOS/cmsis_os.c ****   void *p = osPoolAlloc(pool_id);
 1829              		.loc 1 978 1 is_stmt 0 view .LVU459
 1830 0000 10B5     		push	{r4, lr}
 1831              	.LCFI23:
 1832              		.cfi_def_cfa_offset 8
 1833              		.cfi_offset 4, -8
 1834              		.cfi_offset 14, -4
 1835              		.loc 1 979 13 view .LVU460
 1836 0002 FFF7FEFF 		bl	osPoolAlloc
 1837              	.LVL133:
 1838              		.loc 1 979 13 view .LVU461
 1839 0006 041E     		subs	r4, r0, #0
 1840              	.LVL134:
 980:Middlewares/Third_Party/FreeRTOS/Source/CMSIS_RTOS/cmsis_os.c ****   
 981:Middlewares/Third_Party/FreeRTOS/Source/CMSIS_RTOS/cmsis_os.c ****   if (p != NULL)
 1841              		.loc 1 981 3 is_stmt 1 view .LVU462
 1842              		.loc 1 981 6 is_stmt 0 view .LVU463
 1843 0008 03D0     		beq	.L115
 982:Middlewares/Third_Party/FreeRTOS/Source/CMSIS_RTOS/cmsis_os.c ****   {
 983:Middlewares/Third_Party/FreeRTOS/Source/CMSIS_RTOS/cmsis_os.c ****     memset(p, 0, sizeof(pool_id->pool_sz));
 1844              		.loc 1 983 5 is_stmt 1 view .LVU464
 1845 000a 0422     		movs	r2, #4
 1846 000c 0021     		movs	r1, #0
 1847 000e FFF7FEFF 		bl	memset
 1848              	.LVL135:
 984:Middlewares/Third_Party/FreeRTOS/Source/CMSIS_RTOS/cmsis_os.c ****   }
ARM GAS  /tmp/cc6GYW95.s 			page 57


 985:Middlewares/Third_Party/FreeRTOS/Source/CMSIS_RTOS/cmsis_os.c ****   
 986:Middlewares/Third_Party/FreeRTOS/Source/CMSIS_RTOS/cmsis_os.c ****   return p;
 1849              		.loc 1 986 3 view .LVU465
 1850              	.L115:
 987:Middlewares/Third_Party/FreeRTOS/Source/CMSIS_RTOS/cmsis_os.c **** }
 1851              		.loc 1 987 1 is_stmt 0 view .LVU466
 1852 0012 2000     		movs	r0, r4
 1853              		@ sp needed
 1854              	.LVL136:
 1855              		.loc 1 987 1 view .LVU467
 1856 0014 10BD     		pop	{r4, pc}
 1857              		.cfi_endproc
 1858              	.LFE54:
 1860              		.section	.text.osPoolFree,"ax",%progbits
 1861              		.align	1
 1862              		.global	osPoolFree
 1863              		.syntax unified
 1864              		.code	16
 1865              		.thumb_func
 1866              		.fpu softvfp
 1868              	osPoolFree:
 1869              	.LVL137:
 1870              	.LFB55:
 988:Middlewares/Third_Party/FreeRTOS/Source/CMSIS_RTOS/cmsis_os.c **** 
 989:Middlewares/Third_Party/FreeRTOS/Source/CMSIS_RTOS/cmsis_os.c **** /**
 990:Middlewares/Third_Party/FreeRTOS/Source/CMSIS_RTOS/cmsis_os.c **** * @brief Return an allocated memory block back to a specific memory pool
 991:Middlewares/Third_Party/FreeRTOS/Source/CMSIS_RTOS/cmsis_os.c **** * @param  pool_id       memory pool ID obtain referenced with \ref osPoolCreate.
 992:Middlewares/Third_Party/FreeRTOS/Source/CMSIS_RTOS/cmsis_os.c **** * @param  block         address of the allocated memory block that is returned to the memory pool.
 993:Middlewares/Third_Party/FreeRTOS/Source/CMSIS_RTOS/cmsis_os.c **** * @retval  status code that indicates the execution status of the function.
 994:Middlewares/Third_Party/FreeRTOS/Source/CMSIS_RTOS/cmsis_os.c **** * @note   MUST REMAIN UNCHANGED: \b osPoolFree shall be consistent in every CMSIS-RTOS.
 995:Middlewares/Third_Party/FreeRTOS/Source/CMSIS_RTOS/cmsis_os.c **** */
 996:Middlewares/Third_Party/FreeRTOS/Source/CMSIS_RTOS/cmsis_os.c **** osStatus osPoolFree (osPoolId pool_id, void *block)
 997:Middlewares/Third_Party/FreeRTOS/Source/CMSIS_RTOS/cmsis_os.c **** {
 1871              		.loc 1 997 1 is_stmt 1 view -0
 1872              		.cfi_startproc
 1873              		@ args = 0, pretend = 0, frame = 0
 1874              		@ frame_needed = 0, uses_anonymous_args = 0
 998:Middlewares/Third_Party/FreeRTOS/Source/CMSIS_RTOS/cmsis_os.c ****   uint32_t index;
 1875              		.loc 1 998 3 view .LVU469
 999:Middlewares/Third_Party/FreeRTOS/Source/CMSIS_RTOS/cmsis_os.c ****   
1000:Middlewares/Third_Party/FreeRTOS/Source/CMSIS_RTOS/cmsis_os.c ****   if (pool_id == NULL) {
 1876              		.loc 1 1000 3 view .LVU470
 997:Middlewares/Third_Party/FreeRTOS/Source/CMSIS_RTOS/cmsis_os.c ****   uint32_t index;
 1877              		.loc 1 997 1 is_stmt 0 view .LVU471
 1878 0000 10B5     		push	{r4, lr}
 1879              	.LCFI24:
 1880              		.cfi_def_cfa_offset 8
 1881              		.cfi_offset 4, -8
 1882              		.cfi_offset 14, -4
 997:Middlewares/Third_Party/FreeRTOS/Source/CMSIS_RTOS/cmsis_os.c ****   uint32_t index;
 1883              		.loc 1 997 1 view .LVU472
 1884 0002 0400     		movs	r4, r0
1001:Middlewares/Third_Party/FreeRTOS/Source/CMSIS_RTOS/cmsis_os.c ****     return osErrorParameter;
 1885              		.loc 1 1001 12 view .LVU473
 1886 0004 8020     		movs	r0, #128
 1887              	.LVL138:
1000:Middlewares/Third_Party/FreeRTOS/Source/CMSIS_RTOS/cmsis_os.c ****     return osErrorParameter;
ARM GAS  /tmp/cc6GYW95.s 			page 58


 1888              		.loc 1 1000 6 view .LVU474
 1889 0006 002C     		cmp	r4, #0
 1890 0008 10D0     		beq	.L120
1002:Middlewares/Third_Party/FreeRTOS/Source/CMSIS_RTOS/cmsis_os.c ****   }
1003:Middlewares/Third_Party/FreeRTOS/Source/CMSIS_RTOS/cmsis_os.c ****   
1004:Middlewares/Third_Party/FreeRTOS/Source/CMSIS_RTOS/cmsis_os.c ****   if (block == NULL) {
 1891              		.loc 1 1004 3 is_stmt 1 view .LVU475
 1892              		.loc 1 1004 6 is_stmt 0 view .LVU476
 1893 000a 0029     		cmp	r1, #0
 1894 000c 0ED0     		beq	.L120
1005:Middlewares/Third_Party/FreeRTOS/Source/CMSIS_RTOS/cmsis_os.c ****     return osErrorParameter;
1006:Middlewares/Third_Party/FreeRTOS/Source/CMSIS_RTOS/cmsis_os.c ****   }
1007:Middlewares/Third_Party/FreeRTOS/Source/CMSIS_RTOS/cmsis_os.c ****   
1008:Middlewares/Third_Party/FreeRTOS/Source/CMSIS_RTOS/cmsis_os.c ****   if (block < pool_id->pool) {
 1895              		.loc 1 1008 3 is_stmt 1 view .LVU477
 1896              		.loc 1 1008 22 is_stmt 0 view .LVU478
 1897 000e 2368     		ldr	r3, [r4]
 1898              		.loc 1 1008 6 view .LVU479
 1899 0010 8B42     		cmp	r3, r1
 1900 0012 0BD8     		bhi	.L120
1009:Middlewares/Third_Party/FreeRTOS/Source/CMSIS_RTOS/cmsis_os.c ****     return osErrorParameter;
1010:Middlewares/Third_Party/FreeRTOS/Source/CMSIS_RTOS/cmsis_os.c ****   }
1011:Middlewares/Third_Party/FreeRTOS/Source/CMSIS_RTOS/cmsis_os.c ****   
1012:Middlewares/Third_Party/FreeRTOS/Source/CMSIS_RTOS/cmsis_os.c ****   index = (uint32_t)block - (uint32_t)(pool_id->pool);
 1901              		.loc 1 1012 3 is_stmt 1 view .LVU480
 1902              	.LVL139:
1013:Middlewares/Third_Party/FreeRTOS/Source/CMSIS_RTOS/cmsis_os.c ****   if (index % pool_id->item_sz) {
 1903              		.loc 1 1013 3 view .LVU481
1012:Middlewares/Third_Party/FreeRTOS/Source/CMSIS_RTOS/cmsis_os.c ****   if (index % pool_id->item_sz) {
 1904              		.loc 1 1012 9 is_stmt 0 view .LVU482
 1905 0014 C81A     		subs	r0, r1, r3
 1906              	.LVL140:
1012:Middlewares/Third_Party/FreeRTOS/Source/CMSIS_RTOS/cmsis_os.c ****   if (index % pool_id->item_sz) {
 1907              		.loc 1 1012 9 view .LVU483
 1908 0016 E168     		ldr	r1, [r4, #12]
 1909              	.LVL141:
1012:Middlewares/Third_Party/FreeRTOS/Source/CMSIS_RTOS/cmsis_os.c ****   if (index % pool_id->item_sz) {
 1910              		.loc 1 1012 9 view .LVU484
 1911 0018 FFF7FEFF 		bl	__aeabi_uidivmod
 1912              	.LVL142:
1012:Middlewares/Third_Party/FreeRTOS/Source/CMSIS_RTOS/cmsis_os.c ****   if (index % pool_id->item_sz) {
 1913              		.loc 1 1012 9 view .LVU485
 1914 001c 0300     		movs	r3, r0
 1915 001e 081E     		subs	r0, r1, #0
 1916              		.loc 1 1013 6 view .LVU486
 1917 0020 05D1     		bne	.L126
1014:Middlewares/Third_Party/FreeRTOS/Source/CMSIS_RTOS/cmsis_os.c ****     return osErrorParameter;
1015:Middlewares/Third_Party/FreeRTOS/Source/CMSIS_RTOS/cmsis_os.c ****   }
1016:Middlewares/Third_Party/FreeRTOS/Source/CMSIS_RTOS/cmsis_os.c ****   index = index / pool_id->item_sz;
 1918              		.loc 1 1016 3 is_stmt 1 view .LVU487
 1919              	.LVL143:
1017:Middlewares/Third_Party/FreeRTOS/Source/CMSIS_RTOS/cmsis_os.c ****   if (index >= pool_id->pool_sz) {
 1920              		.loc 1 1017 3 view .LVU488
 1921              		.loc 1 1017 6 is_stmt 0 view .LVU489
 1922 0022 A268     		ldr	r2, [r4, #8]
 1923 0024 9A42     		cmp	r2, r3
 1924 0026 02D9     		bls	.L126
ARM GAS  /tmp/cc6GYW95.s 			page 59


1018:Middlewares/Third_Party/FreeRTOS/Source/CMSIS_RTOS/cmsis_os.c ****     return osErrorParameter;
1019:Middlewares/Third_Party/FreeRTOS/Source/CMSIS_RTOS/cmsis_os.c ****   }
1020:Middlewares/Third_Party/FreeRTOS/Source/CMSIS_RTOS/cmsis_os.c ****   
1021:Middlewares/Third_Party/FreeRTOS/Source/CMSIS_RTOS/cmsis_os.c ****   pool_id->markers[index] = 0;
 1925              		.loc 1 1021 3 is_stmt 1 view .LVU490
 1926              		.loc 1 1021 27 is_stmt 0 view .LVU491
 1927 0028 6268     		ldr	r2, [r4, #4]
 1928 002a D154     		strb	r1, [r2, r3]
1022:Middlewares/Third_Party/FreeRTOS/Source/CMSIS_RTOS/cmsis_os.c ****   
1023:Middlewares/Third_Party/FreeRTOS/Source/CMSIS_RTOS/cmsis_os.c ****   return osOK;
 1929              		.loc 1 1023 3 is_stmt 1 view .LVU492
 1930              	.LVL144:
 1931              	.L120:
1024:Middlewares/Third_Party/FreeRTOS/Source/CMSIS_RTOS/cmsis_os.c **** }
 1932              		.loc 1 1024 1 is_stmt 0 view .LVU493
 1933              		@ sp needed
 1934              	.LVL145:
 1935              		.loc 1 1024 1 view .LVU494
 1936 002c 10BD     		pop	{r4, pc}
 1937              	.LVL146:
 1938              	.L126:
1001:Middlewares/Third_Party/FreeRTOS/Source/CMSIS_RTOS/cmsis_os.c ****   }
 1939              		.loc 1 1001 12 view .LVU495
 1940 002e 8020     		movs	r0, #128
 1941 0030 FCE7     		b	.L120
 1942              		.cfi_endproc
 1943              	.LFE55:
 1945              		.section	.text.osMessageCreate,"ax",%progbits
 1946              		.align	1
 1947              		.global	osMessageCreate
 1948              		.syntax unified
 1949              		.code	16
 1950              		.thumb_func
 1951              		.fpu softvfp
 1953              	osMessageCreate:
 1954              	.LVL147:
 1955              	.LFB56:
1025:Middlewares/Third_Party/FreeRTOS/Source/CMSIS_RTOS/cmsis_os.c **** 
1026:Middlewares/Third_Party/FreeRTOS/Source/CMSIS_RTOS/cmsis_os.c **** 
1027:Middlewares/Third_Party/FreeRTOS/Source/CMSIS_RTOS/cmsis_os.c **** #endif   /* Use Memory Pool Management */
1028:Middlewares/Third_Party/FreeRTOS/Source/CMSIS_RTOS/cmsis_os.c **** 
1029:Middlewares/Third_Party/FreeRTOS/Source/CMSIS_RTOS/cmsis_os.c **** /*******************   Message Queue Management Functions  *********************/
1030:Middlewares/Third_Party/FreeRTOS/Source/CMSIS_RTOS/cmsis_os.c **** 
1031:Middlewares/Third_Party/FreeRTOS/Source/CMSIS_RTOS/cmsis_os.c **** #if (defined (osFeature_MessageQ)  &&  (osFeature_MessageQ != 0)) /* Use Message Queues */
1032:Middlewares/Third_Party/FreeRTOS/Source/CMSIS_RTOS/cmsis_os.c **** 
1033:Middlewares/Third_Party/FreeRTOS/Source/CMSIS_RTOS/cmsis_os.c **** /**
1034:Middlewares/Third_Party/FreeRTOS/Source/CMSIS_RTOS/cmsis_os.c **** * @brief Create and Initialize a Message Queue
1035:Middlewares/Third_Party/FreeRTOS/Source/CMSIS_RTOS/cmsis_os.c **** * @param queue_def     queue definition referenced with \ref osMessageQ.
1036:Middlewares/Third_Party/FreeRTOS/Source/CMSIS_RTOS/cmsis_os.c **** * @param  thread_id     thread ID (obtained by \ref osThreadCreate or \ref osThreadGetId) or NULL.
1037:Middlewares/Third_Party/FreeRTOS/Source/CMSIS_RTOS/cmsis_os.c **** * @retval  message queue ID for reference by other functions or NULL in case of error.
1038:Middlewares/Third_Party/FreeRTOS/Source/CMSIS_RTOS/cmsis_os.c **** * @note   MUST REMAIN UNCHANGED: \b osMessageCreate shall be consistent in every CMSIS-RTOS.
1039:Middlewares/Third_Party/FreeRTOS/Source/CMSIS_RTOS/cmsis_os.c **** */
1040:Middlewares/Third_Party/FreeRTOS/Source/CMSIS_RTOS/cmsis_os.c **** osMessageQId osMessageCreate (const osMessageQDef_t *queue_def, osThreadId thread_id)
1041:Middlewares/Third_Party/FreeRTOS/Source/CMSIS_RTOS/cmsis_os.c **** {
 1956              		.loc 1 1041 1 is_stmt 1 view -0
 1957              		.cfi_startproc
 1958              		@ args = 0, pretend = 0, frame = 0
ARM GAS  /tmp/cc6GYW95.s 			page 60


 1959              		@ frame_needed = 0, uses_anonymous_args = 0
1042:Middlewares/Third_Party/FreeRTOS/Source/CMSIS_RTOS/cmsis_os.c ****   (void) thread_id;
 1960              		.loc 1 1042 3 view .LVU497
1043:Middlewares/Third_Party/FreeRTOS/Source/CMSIS_RTOS/cmsis_os.c ****   
1044:Middlewares/Third_Party/FreeRTOS/Source/CMSIS_RTOS/cmsis_os.c **** #if( configSUPPORT_STATIC_ALLOCATION == 1 ) && ( configSUPPORT_DYNAMIC_ALLOCATION == 1 )
1045:Middlewares/Third_Party/FreeRTOS/Source/CMSIS_RTOS/cmsis_os.c **** 
1046:Middlewares/Third_Party/FreeRTOS/Source/CMSIS_RTOS/cmsis_os.c ****   if ((queue_def->buffer != NULL) && (queue_def->controlblock != NULL)) {
1047:Middlewares/Third_Party/FreeRTOS/Source/CMSIS_RTOS/cmsis_os.c ****     return xQueueCreateStatic(queue_def->queue_sz, queue_def->item_sz, queue_def->buffer, queue_def
1048:Middlewares/Third_Party/FreeRTOS/Source/CMSIS_RTOS/cmsis_os.c ****   }
1049:Middlewares/Third_Party/FreeRTOS/Source/CMSIS_RTOS/cmsis_os.c ****   else {
1050:Middlewares/Third_Party/FreeRTOS/Source/CMSIS_RTOS/cmsis_os.c ****     return xQueueCreate(queue_def->queue_sz, queue_def->item_sz);
1051:Middlewares/Third_Party/FreeRTOS/Source/CMSIS_RTOS/cmsis_os.c ****   }
1052:Middlewares/Third_Party/FreeRTOS/Source/CMSIS_RTOS/cmsis_os.c **** #elif ( configSUPPORT_STATIC_ALLOCATION == 1 )
1053:Middlewares/Third_Party/FreeRTOS/Source/CMSIS_RTOS/cmsis_os.c ****   return xQueueCreateStatic(queue_def->queue_sz, queue_def->item_sz, queue_def->buffer, queue_def->
1054:Middlewares/Third_Party/FreeRTOS/Source/CMSIS_RTOS/cmsis_os.c **** #else  
1055:Middlewares/Third_Party/FreeRTOS/Source/CMSIS_RTOS/cmsis_os.c ****   return xQueueCreate(queue_def->queue_sz, queue_def->item_sz);
 1961              		.loc 1 1055 3 view .LVU498
1041:Middlewares/Third_Party/FreeRTOS/Source/CMSIS_RTOS/cmsis_os.c ****   (void) thread_id;
 1962              		.loc 1 1041 1 is_stmt 0 view .LVU499
 1963 0000 10B5     		push	{r4, lr}
 1964              	.LCFI25:
 1965              		.cfi_def_cfa_offset 8
 1966              		.cfi_offset 4, -8
 1967              		.cfi_offset 14, -4
 1968              		.loc 1 1055 10 view .LVU500
 1969 0002 03C8     		ldmia	r0, {r0, r1}
 1970              	.LVL148:
 1971              		.loc 1 1055 10 view .LVU501
 1972 0004 0022     		movs	r2, #0
 1973 0006 FFF7FEFF 		bl	xQueueGenericCreate
 1974              	.LVL149:
1056:Middlewares/Third_Party/FreeRTOS/Source/CMSIS_RTOS/cmsis_os.c **** #endif
1057:Middlewares/Third_Party/FreeRTOS/Source/CMSIS_RTOS/cmsis_os.c **** }
 1975              		.loc 1 1057 1 view .LVU502
 1976              		@ sp needed
 1977 000a 10BD     		pop	{r4, pc}
 1978              		.cfi_endproc
 1979              	.LFE56:
 1981              		.section	.text.osMessagePut,"ax",%progbits
 1982              		.align	1
 1983              		.global	osMessagePut
 1984              		.syntax unified
 1985              		.code	16
 1986              		.thumb_func
 1987              		.fpu softvfp
 1989              	osMessagePut:
 1990              	.LVL150:
 1991              	.LFB57:
1058:Middlewares/Third_Party/FreeRTOS/Source/CMSIS_RTOS/cmsis_os.c **** 
1059:Middlewares/Third_Party/FreeRTOS/Source/CMSIS_RTOS/cmsis_os.c **** /**
1060:Middlewares/Third_Party/FreeRTOS/Source/CMSIS_RTOS/cmsis_os.c **** * @brief Put a Message to a Queue.
1061:Middlewares/Third_Party/FreeRTOS/Source/CMSIS_RTOS/cmsis_os.c **** * @param  queue_id  message queue ID obtained with \ref osMessageCreate.
1062:Middlewares/Third_Party/FreeRTOS/Source/CMSIS_RTOS/cmsis_os.c **** * @param  info      message information.
1063:Middlewares/Third_Party/FreeRTOS/Source/CMSIS_RTOS/cmsis_os.c **** * @param  millisec  timeout value or 0 in case of no time-out.
1064:Middlewares/Third_Party/FreeRTOS/Source/CMSIS_RTOS/cmsis_os.c **** * @retval status code that indicates the execution status of the function.
1065:Middlewares/Third_Party/FreeRTOS/Source/CMSIS_RTOS/cmsis_os.c **** * @note   MUST REMAIN UNCHANGED: \b osMessagePut shall be consistent in every CMSIS-RTOS.
1066:Middlewares/Third_Party/FreeRTOS/Source/CMSIS_RTOS/cmsis_os.c **** */
ARM GAS  /tmp/cc6GYW95.s 			page 61


1067:Middlewares/Third_Party/FreeRTOS/Source/CMSIS_RTOS/cmsis_os.c **** osStatus osMessagePut (osMessageQId queue_id, uint32_t info, uint32_t millisec)
1068:Middlewares/Third_Party/FreeRTOS/Source/CMSIS_RTOS/cmsis_os.c **** {
 1992              		.loc 1 1068 1 is_stmt 1 view -0
 1993              		.cfi_startproc
 1994              		@ args = 0, pretend = 0, frame = 16
 1995              		@ frame_needed = 0, uses_anonymous_args = 0
1069:Middlewares/Third_Party/FreeRTOS/Source/CMSIS_RTOS/cmsis_os.c ****   portBASE_TYPE taskWoken = pdFALSE;
 1996              		.loc 1 1069 3 view .LVU504
1068:Middlewares/Third_Party/FreeRTOS/Source/CMSIS_RTOS/cmsis_os.c ****   portBASE_TYPE taskWoken = pdFALSE;
 1997              		.loc 1 1068 1 is_stmt 0 view .LVU505
 1998 0000 1FB5     		push	{r0, r1, r2, r3, r4, lr}
 1999              	.LCFI26:
 2000              		.cfi_def_cfa_offset 24
 2001              		.cfi_offset 0, -24
 2002              		.cfi_offset 1, -20
 2003              		.cfi_offset 2, -16
 2004              		.cfi_offset 3, -12
 2005              		.cfi_offset 4, -8
 2006              		.cfi_offset 14, -4
 2007              		.loc 1 1069 17 view .LVU506
 2008 0002 0024     		movs	r4, #0
1068:Middlewares/Third_Party/FreeRTOS/Source/CMSIS_RTOS/cmsis_os.c ****   portBASE_TYPE taskWoken = pdFALSE;
 2009              		.loc 1 1068 1 view .LVU507
 2010 0004 0191     		str	r1, [sp, #4]
 2011              		.loc 1 1069 17 view .LVU508
 2012 0006 0394     		str	r4, [sp, #12]
1070:Middlewares/Third_Party/FreeRTOS/Source/CMSIS_RTOS/cmsis_os.c ****   TickType_t ticks;
 2013              		.loc 1 1070 3 is_stmt 1 view .LVU509
1071:Middlewares/Third_Party/FreeRTOS/Source/CMSIS_RTOS/cmsis_os.c ****   
1072:Middlewares/Third_Party/FreeRTOS/Source/CMSIS_RTOS/cmsis_os.c ****   ticks = millisec / portTICK_PERIOD_MS;
 2014              		.loc 1 1072 3 view .LVU510
 2015              	.LVL151:
1073:Middlewares/Third_Party/FreeRTOS/Source/CMSIS_RTOS/cmsis_os.c ****   if (ticks == 0) {
 2016              		.loc 1 1073 3 view .LVU511
1074:Middlewares/Third_Party/FreeRTOS/Source/CMSIS_RTOS/cmsis_os.c ****     ticks = 1;
1075:Middlewares/Third_Party/FreeRTOS/Source/CMSIS_RTOS/cmsis_os.c ****   }
1076:Middlewares/Third_Party/FreeRTOS/Source/CMSIS_RTOS/cmsis_os.c ****   
1077:Middlewares/Third_Party/FreeRTOS/Source/CMSIS_RTOS/cmsis_os.c ****   if (inHandlerMode()) {
 2017              		.loc 1 1077 3 view .LVU512
 2018              	.LBB154:
 2019              	.LBI154:
 130:Middlewares/Third_Party/FreeRTOS/Source/CMSIS_RTOS/cmsis_os.c **** {
 2020              		.loc 1 130 12 view .LVU513
 2021              	.LBE154:
 132:Middlewares/Third_Party/FreeRTOS/Source/CMSIS_RTOS/cmsis_os.c **** }
 2022              		.loc 1 132 3 view .LVU514
 2023              	.LBB157:
 2024              	.LBB155:
 2025              	.LBI155:
 205:Drivers/CMSIS/Include/cmsis_gcc.h **** {
 2026              		.loc 2 205 31 view .LVU515
 2027              	.LBB156:
 207:Drivers/CMSIS/Include/cmsis_gcc.h **** 
 2028              		.loc 2 207 3 view .LVU516
 209:Drivers/CMSIS/Include/cmsis_gcc.h ****   return(result);
 2029              		.loc 2 209 3 view .LVU517
 2030              		.syntax divided
ARM GAS  /tmp/cc6GYW95.s 			page 62


 2031              	@ 209 "Drivers/CMSIS/Include/cmsis_gcc.h" 1
 2032 0008 EFF30583 		MRS r3, ipsr
 2033              	@ 0 "" 2
 2034              	.LVL152:
 2035              		.loc 2 210 3 view .LVU518
 2036              		.loc 2 210 3 is_stmt 0 view .LVU519
 2037              		.thumb
 2038              		.syntax unified
 2039              	.LBE156:
 2040              	.LBE155:
 2041              	.LBE157:
 2042              		.loc 1 1077 6 view .LVU520
 2043 000c A342     		cmp	r3, r4
 2044 000e 11D0     		beq	.L129
1078:Middlewares/Third_Party/FreeRTOS/Source/CMSIS_RTOS/cmsis_os.c ****     if (xQueueSendFromISR(queue_id, &info, &taskWoken) != pdTRUE) {
 2045              		.loc 1 1078 5 is_stmt 1 view .LVU521
 2046              		.loc 1 1078 9 is_stmt 0 view .LVU522
 2047 0010 2300     		movs	r3, r4
 2048 0012 03AA     		add	r2, sp, #12
 2049              	.LVL153:
 2050              		.loc 1 1078 9 view .LVU523
 2051 0014 01A9     		add	r1, sp, #4
 2052              	.LVL154:
 2053              		.loc 1 1078 9 view .LVU524
 2054 0016 FFF7FEFF 		bl	xQueueGenericSendFromISR
 2055              	.LVL155:
 2056              		.loc 1 1078 8 view .LVU525
 2057 001a 0128     		cmp	r0, #1
 2058 001c 13D1     		bne	.L130
1079:Middlewares/Third_Party/FreeRTOS/Source/CMSIS_RTOS/cmsis_os.c ****       return osErrorOS;
1080:Middlewares/Third_Party/FreeRTOS/Source/CMSIS_RTOS/cmsis_os.c ****     }
1081:Middlewares/Third_Party/FreeRTOS/Source/CMSIS_RTOS/cmsis_os.c ****     portEND_SWITCHING_ISR(taskWoken);
 2059              		.loc 1 1081 5 is_stmt 1 view .LVU526
 2060 001e 039B     		ldr	r3, [sp, #12]
 2061 0020 A342     		cmp	r3, r4
 2062 0022 02D1     		bne	.L131
 2063              	.L134:
1082:Middlewares/Third_Party/FreeRTOS/Source/CMSIS_RTOS/cmsis_os.c ****   }
1083:Middlewares/Third_Party/FreeRTOS/Source/CMSIS_RTOS/cmsis_os.c ****   else {
1084:Middlewares/Third_Party/FreeRTOS/Source/CMSIS_RTOS/cmsis_os.c ****     if (xQueueSend(queue_id, &info, ticks) != pdTRUE) {
1085:Middlewares/Third_Party/FreeRTOS/Source/CMSIS_RTOS/cmsis_os.c ****       return osErrorOS;
1086:Middlewares/Third_Party/FreeRTOS/Source/CMSIS_RTOS/cmsis_os.c ****     }
1087:Middlewares/Third_Party/FreeRTOS/Source/CMSIS_RTOS/cmsis_os.c ****   }
1088:Middlewares/Third_Party/FreeRTOS/Source/CMSIS_RTOS/cmsis_os.c ****   
1089:Middlewares/Third_Party/FreeRTOS/Source/CMSIS_RTOS/cmsis_os.c ****   return osOK;
 2064              		.loc 1 1089 10 is_stmt 0 view .LVU527
 2065 0024 0020     		movs	r0, #0
 2066              	.L128:
1090:Middlewares/Third_Party/FreeRTOS/Source/CMSIS_RTOS/cmsis_os.c **** }
 2067              		.loc 1 1090 1 view .LVU528
 2068 0026 04B0     		add	sp, sp, #16
 2069              		@ sp needed
 2070 0028 10BD     		pop	{r4, pc}
 2071              	.L131:
1081:Middlewares/Third_Party/FreeRTOS/Source/CMSIS_RTOS/cmsis_os.c ****   }
 2072              		.loc 1 1081 5 is_stmt 1 discriminator 1 view .LVU529
 2073 002a 8022     		movs	r2, #128
ARM GAS  /tmp/cc6GYW95.s 			page 63


 2074 002c 074B     		ldr	r3, .L138
 2075 002e 5205     		lsls	r2, r2, #21
 2076 0030 1A60     		str	r2, [r3]
 2077 0032 F7E7     		b	.L134
 2078              	.LVL156:
 2079              	.L129:
1084:Middlewares/Third_Party/FreeRTOS/Source/CMSIS_RTOS/cmsis_os.c ****       return osErrorOS;
 2080              		.loc 1 1084 5 view .LVU530
1084:Middlewares/Third_Party/FreeRTOS/Source/CMSIS_RTOS/cmsis_os.c ****       return osErrorOS;
 2081              		.loc 1 1084 9 is_stmt 0 view .LVU531
 2082 0034 002A     		cmp	r2, #0
 2083 0036 00D1     		bne	.L133
 2084 0038 0132     		adds	r2, r2, #1
 2085              	.LVL157:
 2086              	.L133:
1084:Middlewares/Third_Party/FreeRTOS/Source/CMSIS_RTOS/cmsis_os.c ****       return osErrorOS;
 2087              		.loc 1 1084 9 view .LVU532
 2088 003a 0023     		movs	r3, #0
 2089 003c 01A9     		add	r1, sp, #4
 2090              	.LVL158:
1084:Middlewares/Third_Party/FreeRTOS/Source/CMSIS_RTOS/cmsis_os.c ****       return osErrorOS;
 2091              		.loc 1 1084 9 view .LVU533
 2092 003e FFF7FEFF 		bl	xQueueGenericSend
 2093              	.LVL159:
1084:Middlewares/Third_Party/FreeRTOS/Source/CMSIS_RTOS/cmsis_os.c ****       return osErrorOS;
 2094              		.loc 1 1084 8 view .LVU534
 2095 0042 0128     		cmp	r0, #1
 2096 0044 EED0     		beq	.L134
 2097              	.L130:
1085:Middlewares/Third_Party/FreeRTOS/Source/CMSIS_RTOS/cmsis_os.c ****     }
 2098              		.loc 1 1085 7 is_stmt 1 view .LVU535
1085:Middlewares/Third_Party/FreeRTOS/Source/CMSIS_RTOS/cmsis_os.c ****     }
 2099              		.loc 1 1085 14 is_stmt 0 view .LVU536
 2100 0046 FF20     		movs	r0, #255
 2101 0048 EDE7     		b	.L128
 2102              	.L139:
 2103 004a C046     		.align	2
 2104              	.L138:
 2105 004c 04ED00E0 		.word	-536810236
 2106              		.cfi_endproc
 2107              	.LFE57:
 2109              		.section	.text.osMessageGet,"ax",%progbits
 2110              		.align	1
 2111              		.global	osMessageGet
 2112              		.syntax unified
 2113              		.code	16
 2114              		.thumb_func
 2115              		.fpu softvfp
 2117              	osMessageGet:
 2118              	.LVL160:
 2119              	.LFB58:
1091:Middlewares/Third_Party/FreeRTOS/Source/CMSIS_RTOS/cmsis_os.c **** 
1092:Middlewares/Third_Party/FreeRTOS/Source/CMSIS_RTOS/cmsis_os.c **** /**
1093:Middlewares/Third_Party/FreeRTOS/Source/CMSIS_RTOS/cmsis_os.c **** * @brief Get a Message or Wait for a Message from a Queue.
1094:Middlewares/Third_Party/FreeRTOS/Source/CMSIS_RTOS/cmsis_os.c **** * @param  queue_id  message queue ID obtained with \ref osMessageCreate.
1095:Middlewares/Third_Party/FreeRTOS/Source/CMSIS_RTOS/cmsis_os.c **** * @param  millisec  timeout value or 0 in case of no time-out.
1096:Middlewares/Third_Party/FreeRTOS/Source/CMSIS_RTOS/cmsis_os.c **** * @retval event information that includes status code.
ARM GAS  /tmp/cc6GYW95.s 			page 64


1097:Middlewares/Third_Party/FreeRTOS/Source/CMSIS_RTOS/cmsis_os.c **** * @note   MUST REMAIN UNCHANGED: \b osMessageGet shall be consistent in every CMSIS-RTOS.
1098:Middlewares/Third_Party/FreeRTOS/Source/CMSIS_RTOS/cmsis_os.c **** */
1099:Middlewares/Third_Party/FreeRTOS/Source/CMSIS_RTOS/cmsis_os.c **** osEvent osMessageGet (osMessageQId queue_id, uint32_t millisec)
1100:Middlewares/Third_Party/FreeRTOS/Source/CMSIS_RTOS/cmsis_os.c **** {
 2120              		.loc 1 1100 1 is_stmt 1 view -0
 2121              		.cfi_startproc
 2122              		@ args = 0, pretend = 0, frame = 16
 2123              		@ frame_needed = 0, uses_anonymous_args = 0
1101:Middlewares/Third_Party/FreeRTOS/Source/CMSIS_RTOS/cmsis_os.c ****   portBASE_TYPE taskWoken;
 2124              		.loc 1 1101 3 view .LVU538
1102:Middlewares/Third_Party/FreeRTOS/Source/CMSIS_RTOS/cmsis_os.c ****   TickType_t ticks;
 2125              		.loc 1 1102 3 view .LVU539
1103:Middlewares/Third_Party/FreeRTOS/Source/CMSIS_RTOS/cmsis_os.c ****   osEvent event;
 2126              		.loc 1 1103 3 view .LVU540
1104:Middlewares/Third_Party/FreeRTOS/Source/CMSIS_RTOS/cmsis_os.c ****   
1105:Middlewares/Third_Party/FreeRTOS/Source/CMSIS_RTOS/cmsis_os.c ****   event.def.message_id = queue_id;
 2127              		.loc 1 1105 3 view .LVU541
1100:Middlewares/Third_Party/FreeRTOS/Source/CMSIS_RTOS/cmsis_os.c ****   portBASE_TYPE taskWoken;
 2128              		.loc 1 1100 1 is_stmt 0 view .LVU542
 2129 0000 7FB5     		push	{r0, r1, r2, r3, r4, r5, r6, lr}
 2130              	.LCFI27:
 2131              		.cfi_def_cfa_offset 32
 2132              		.cfi_offset 0, -32
 2133              		.cfi_offset 1, -28
 2134              		.cfi_offset 2, -24
 2135              		.cfi_offset 3, -20
 2136              		.cfi_offset 4, -16
 2137              		.cfi_offset 5, -12
 2138              		.cfi_offset 6, -8
 2139              		.cfi_offset 14, -4
1106:Middlewares/Third_Party/FreeRTOS/Source/CMSIS_RTOS/cmsis_os.c ****   event.value.v = 0;
 2140              		.loc 1 1106 17 view .LVU543
 2141 0002 0023     		movs	r3, #0
1105:Middlewares/Third_Party/FreeRTOS/Source/CMSIS_RTOS/cmsis_os.c ****   event.value.v = 0;
 2142              		.loc 1 1105 24 view .LVU544
 2143 0004 01AC     		add	r4, sp, #4
1100:Middlewares/Third_Party/FreeRTOS/Source/CMSIS_RTOS/cmsis_os.c ****   portBASE_TYPE taskWoken;
 2144              		.loc 1 1100 1 view .LVU545
 2145 0006 0500     		movs	r5, r0
 2146 0008 1600     		movs	r6, r2
 2147 000a 0800     		movs	r0, r1
 2148              	.LVL161:
1105:Middlewares/Third_Party/FreeRTOS/Source/CMSIS_RTOS/cmsis_os.c ****   event.value.v = 0;
 2149              		.loc 1 1105 24 view .LVU546
 2150 000c A160     		str	r1, [r4, #8]
 2151              		.loc 1 1106 3 is_stmt 1 view .LVU547
 2152              		.loc 1 1106 17 is_stmt 0 view .LVU548
 2153 000e 6360     		str	r3, [r4, #4]
1107:Middlewares/Third_Party/FreeRTOS/Source/CMSIS_RTOS/cmsis_os.c ****   
1108:Middlewares/Third_Party/FreeRTOS/Source/CMSIS_RTOS/cmsis_os.c ****   if (queue_id == NULL) {
 2154              		.loc 1 1108 3 is_stmt 1 view .LVU549
 2155              		.loc 1 1108 6 is_stmt 0 view .LVU550
 2156 0010 9942     		cmp	r1, r3
 2157 0012 07D1     		bne	.L141
1109:Middlewares/Third_Party/FreeRTOS/Source/CMSIS_RTOS/cmsis_os.c ****     event.status = osErrorParameter;
 2158              		.loc 1 1109 5 is_stmt 1 view .LVU551
 2159              		.loc 1 1109 18 is_stmt 0 view .LVU552
ARM GAS  /tmp/cc6GYW95.s 			page 65


 2160 0014 8033     		adds	r3, r3, #128
 2161 0016 0193     		str	r3, [sp, #4]
1110:Middlewares/Third_Party/FreeRTOS/Source/CMSIS_RTOS/cmsis_os.c ****     return event;
 2162              		.loc 1 1110 5 is_stmt 1 view .LVU553
 2163              	.LVL162:
 2164              	.L145:
1111:Middlewares/Third_Party/FreeRTOS/Source/CMSIS_RTOS/cmsis_os.c ****   }
1112:Middlewares/Third_Party/FreeRTOS/Source/CMSIS_RTOS/cmsis_os.c ****   
1113:Middlewares/Third_Party/FreeRTOS/Source/CMSIS_RTOS/cmsis_os.c ****   taskWoken = pdFALSE;
1114:Middlewares/Third_Party/FreeRTOS/Source/CMSIS_RTOS/cmsis_os.c ****   
1115:Middlewares/Third_Party/FreeRTOS/Source/CMSIS_RTOS/cmsis_os.c ****   ticks = 0;
1116:Middlewares/Third_Party/FreeRTOS/Source/CMSIS_RTOS/cmsis_os.c ****   if (millisec == osWaitForever) {
1117:Middlewares/Third_Party/FreeRTOS/Source/CMSIS_RTOS/cmsis_os.c ****     ticks = portMAX_DELAY;
1118:Middlewares/Third_Party/FreeRTOS/Source/CMSIS_RTOS/cmsis_os.c ****   }
1119:Middlewares/Third_Party/FreeRTOS/Source/CMSIS_RTOS/cmsis_os.c ****   else if (millisec != 0) {
1120:Middlewares/Third_Party/FreeRTOS/Source/CMSIS_RTOS/cmsis_os.c ****     ticks = millisec / portTICK_PERIOD_MS;
1121:Middlewares/Third_Party/FreeRTOS/Source/CMSIS_RTOS/cmsis_os.c ****     if (ticks == 0) {
1122:Middlewares/Third_Party/FreeRTOS/Source/CMSIS_RTOS/cmsis_os.c ****       ticks = 1;
1123:Middlewares/Third_Party/FreeRTOS/Source/CMSIS_RTOS/cmsis_os.c ****     }
1124:Middlewares/Third_Party/FreeRTOS/Source/CMSIS_RTOS/cmsis_os.c ****   }
1125:Middlewares/Third_Party/FreeRTOS/Source/CMSIS_RTOS/cmsis_os.c ****   
1126:Middlewares/Third_Party/FreeRTOS/Source/CMSIS_RTOS/cmsis_os.c ****   if (inHandlerMode()) {
1127:Middlewares/Third_Party/FreeRTOS/Source/CMSIS_RTOS/cmsis_os.c ****     if (xQueueReceiveFromISR(queue_id, &event.value.v, &taskWoken) == pdTRUE) {
1128:Middlewares/Third_Party/FreeRTOS/Source/CMSIS_RTOS/cmsis_os.c ****       /* We have mail */
1129:Middlewares/Third_Party/FreeRTOS/Source/CMSIS_RTOS/cmsis_os.c ****       event.status = osEventMessage;
1130:Middlewares/Third_Party/FreeRTOS/Source/CMSIS_RTOS/cmsis_os.c ****     }
1131:Middlewares/Third_Party/FreeRTOS/Source/CMSIS_RTOS/cmsis_os.c ****     else {
1132:Middlewares/Third_Party/FreeRTOS/Source/CMSIS_RTOS/cmsis_os.c ****       event.status = osOK;
1133:Middlewares/Third_Party/FreeRTOS/Source/CMSIS_RTOS/cmsis_os.c ****     }
1134:Middlewares/Third_Party/FreeRTOS/Source/CMSIS_RTOS/cmsis_os.c ****     portEND_SWITCHING_ISR(taskWoken);
1135:Middlewares/Third_Party/FreeRTOS/Source/CMSIS_RTOS/cmsis_os.c ****   }
1136:Middlewares/Third_Party/FreeRTOS/Source/CMSIS_RTOS/cmsis_os.c ****   else {
1137:Middlewares/Third_Party/FreeRTOS/Source/CMSIS_RTOS/cmsis_os.c ****     if (xQueueReceive(queue_id, &event.value.v, ticks) == pdTRUE) {
1138:Middlewares/Third_Party/FreeRTOS/Source/CMSIS_RTOS/cmsis_os.c ****       /* We have mail */
1139:Middlewares/Third_Party/FreeRTOS/Source/CMSIS_RTOS/cmsis_os.c ****       event.status = osEventMessage;
1140:Middlewares/Third_Party/FreeRTOS/Source/CMSIS_RTOS/cmsis_os.c ****     }
1141:Middlewares/Third_Party/FreeRTOS/Source/CMSIS_RTOS/cmsis_os.c ****     else {
1142:Middlewares/Third_Party/FreeRTOS/Source/CMSIS_RTOS/cmsis_os.c ****       event.status = (ticks == 0) ? osOK : osEventTimeout;
1143:Middlewares/Third_Party/FreeRTOS/Source/CMSIS_RTOS/cmsis_os.c ****     }
1144:Middlewares/Third_Party/FreeRTOS/Source/CMSIS_RTOS/cmsis_os.c ****   }
1145:Middlewares/Third_Party/FreeRTOS/Source/CMSIS_RTOS/cmsis_os.c ****   
1146:Middlewares/Third_Party/FreeRTOS/Source/CMSIS_RTOS/cmsis_os.c ****   return event;
 2165              		.loc 1 1146 3 view .LVU554
 2166              		.loc 1 1146 10 is_stmt 0 view .LVU555
 2167 0018 2B00     		movs	r3, r5
 2168 001a 07CC     		ldmia	r4!, {r0, r1, r2}
 2169 001c 07C3     		stmia	r3!, {r0, r1, r2}
1147:Middlewares/Third_Party/FreeRTOS/Source/CMSIS_RTOS/cmsis_os.c **** }
 2170              		.loc 1 1147 1 view .LVU556
 2171 001e 2800     		movs	r0, r5
 2172 0020 04B0     		add	sp, sp, #16
 2173              		@ sp needed
 2174              	.LVL163:
 2175              		.loc 1 1147 1 view .LVU557
 2176 0022 70BD     		pop	{r4, r5, r6, pc}
 2177              	.LVL164:
 2178              	.L141:
ARM GAS  /tmp/cc6GYW95.s 			page 66


1113:Middlewares/Third_Party/FreeRTOS/Source/CMSIS_RTOS/cmsis_os.c ****   
 2179              		.loc 1 1113 3 is_stmt 1 view .LVU558
1113:Middlewares/Third_Party/FreeRTOS/Source/CMSIS_RTOS/cmsis_os.c ****   
 2180              		.loc 1 1113 13 is_stmt 0 view .LVU559
 2181 0024 0093     		str	r3, [sp]
1115:Middlewares/Third_Party/FreeRTOS/Source/CMSIS_RTOS/cmsis_os.c ****   if (millisec == osWaitForever) {
 2182              		.loc 1 1115 3 is_stmt 1 view .LVU560
 2183              	.LVL165:
1116:Middlewares/Third_Party/FreeRTOS/Source/CMSIS_RTOS/cmsis_os.c ****     ticks = portMAX_DELAY;
 2184              		.loc 1 1116 3 view .LVU561
1126:Middlewares/Third_Party/FreeRTOS/Source/CMSIS_RTOS/cmsis_os.c ****     if (xQueueReceiveFromISR(queue_id, &event.value.v, &taskWoken) == pdTRUE) {
 2185              		.loc 1 1126 3 view .LVU562
 2186              	.LBB158:
 2187              	.LBI158:
 130:Middlewares/Third_Party/FreeRTOS/Source/CMSIS_RTOS/cmsis_os.c **** {
 2188              		.loc 1 130 12 view .LVU563
 2189              	.LBE158:
 132:Middlewares/Third_Party/FreeRTOS/Source/CMSIS_RTOS/cmsis_os.c **** }
 2190              		.loc 1 132 3 view .LVU564
 2191              	.LBB161:
 2192              	.LBB159:
 2193              	.LBI159:
 205:Drivers/CMSIS/Include/cmsis_gcc.h **** {
 2194              		.loc 2 205 31 view .LVU565
 2195              	.LBB160:
 207:Drivers/CMSIS/Include/cmsis_gcc.h **** 
 2196              		.loc 2 207 3 view .LVU566
 209:Drivers/CMSIS/Include/cmsis_gcc.h ****   return(result);
 2197              		.loc 2 209 3 view .LVU567
 2198              		.syntax divided
 2199              	@ 209 "Drivers/CMSIS/Include/cmsis_gcc.h" 1
 2200 0026 EFF30583 		MRS r3, ipsr
 2201              	@ 0 "" 2
 2202              	.LVL166:
 2203              		.loc 2 210 3 view .LVU568
 2204              		.loc 2 210 3 is_stmt 0 view .LVU569
 2205              		.thumb
 2206              		.syntax unified
 2207              	.LBE160:
 2208              	.LBE159:
 2209              	.LBE161:
1126:Middlewares/Third_Party/FreeRTOS/Source/CMSIS_RTOS/cmsis_os.c ****     if (xQueueReceiveFromISR(queue_id, &event.value.v, &taskWoken) == pdTRUE) {
 2210              		.loc 1 1126 6 view .LVU570
 2211 002a 002B     		cmp	r3, #0
 2212 002c 10D0     		beq	.L143
1127:Middlewares/Third_Party/FreeRTOS/Source/CMSIS_RTOS/cmsis_os.c ****       /* We have mail */
 2213              		.loc 1 1127 5 is_stmt 1 view .LVU571
1127:Middlewares/Third_Party/FreeRTOS/Source/CMSIS_RTOS/cmsis_os.c ****       /* We have mail */
 2214              		.loc 1 1127 9 is_stmt 0 view .LVU572
 2215 002e 6A46     		mov	r2, sp
 2216              	.LVL167:
1127:Middlewares/Third_Party/FreeRTOS/Source/CMSIS_RTOS/cmsis_os.c ****       /* We have mail */
 2217              		.loc 1 1127 9 view .LVU573
 2218 0030 02A9     		add	r1, sp, #8
 2219 0032 FFF7FEFF 		bl	xQueueReceiveFromISR
 2220              	.LVL168:
1132:Middlewares/Third_Party/FreeRTOS/Source/CMSIS_RTOS/cmsis_os.c ****     }
ARM GAS  /tmp/cc6GYW95.s 			page 67


 2221              		.loc 1 1132 20 view .LVU574
 2222 0036 0138     		subs	r0, r0, #1
 2223 0038 4342     		rsbs	r3, r0, #0
 2224 003a 5841     		adcs	r0, r0, r3
1134:Middlewares/Third_Party/FreeRTOS/Source/CMSIS_RTOS/cmsis_os.c ****   }
 2225              		.loc 1 1134 5 view .LVU575
 2226 003c 009B     		ldr	r3, [sp]
1132:Middlewares/Third_Party/FreeRTOS/Source/CMSIS_RTOS/cmsis_os.c ****     }
 2227              		.loc 1 1132 20 view .LVU576
 2228 003e 0001     		lsls	r0, r0, #4
 2229 0040 0190     		str	r0, [sp, #4]
1134:Middlewares/Third_Party/FreeRTOS/Source/CMSIS_RTOS/cmsis_os.c ****   }
 2230              		.loc 1 1134 5 is_stmt 1 view .LVU577
 2231 0042 002B     		cmp	r3, #0
 2232 0044 E8D0     		beq	.L145
1134:Middlewares/Third_Party/FreeRTOS/Source/CMSIS_RTOS/cmsis_os.c ****   }
 2233              		.loc 1 1134 5 discriminator 1 view .LVU578
 2234 0046 8022     		movs	r2, #128
 2235 0048 084B     		ldr	r3, .L155
 2236 004a 5205     		lsls	r2, r2, #21
 2237 004c 1A60     		str	r2, [r3]
 2238 004e E3E7     		b	.L145
 2239              	.LVL169:
 2240              	.L143:
1137:Middlewares/Third_Party/FreeRTOS/Source/CMSIS_RTOS/cmsis_os.c ****       /* We have mail */
 2241              		.loc 1 1137 5 view .LVU579
1137:Middlewares/Third_Party/FreeRTOS/Source/CMSIS_RTOS/cmsis_os.c ****       /* We have mail */
 2242              		.loc 1 1137 9 is_stmt 0 view .LVU580
 2243 0050 02A9     		add	r1, sp, #8
 2244 0052 FFF7FEFF 		bl	xQueueReceive
 2245              	.LVL170:
1137:Middlewares/Third_Party/FreeRTOS/Source/CMSIS_RTOS/cmsis_os.c ****       /* We have mail */
 2246              		.loc 1 1137 8 view .LVU581
 2247 0056 0128     		cmp	r0, #1
 2248 0058 02D1     		bne	.L146
1139:Middlewares/Third_Party/FreeRTOS/Source/CMSIS_RTOS/cmsis_os.c ****     }
 2249              		.loc 1 1139 7 is_stmt 1 view .LVU582
1139:Middlewares/Third_Party/FreeRTOS/Source/CMSIS_RTOS/cmsis_os.c ****     }
 2250              		.loc 1 1139 20 is_stmt 0 view .LVU583
 2251 005a 1023     		movs	r3, #16
 2252 005c 2360     		str	r3, [r4]
 2253 005e DBE7     		b	.L145
 2254              	.L146:
1142:Middlewares/Third_Party/FreeRTOS/Source/CMSIS_RTOS/cmsis_os.c ****     }
 2255              		.loc 1 1142 7 is_stmt 1 view .LVU584
1142:Middlewares/Third_Party/FreeRTOS/Source/CMSIS_RTOS/cmsis_os.c ****     }
 2256              		.loc 1 1142 42 is_stmt 0 view .LVU585
 2257 0060 002E     		cmp	r6, #0
 2258 0062 00D0     		beq	.L147
 2259 0064 4026     		movs	r6, #64
 2260              	.LVL171:
 2261              	.L147:
1142:Middlewares/Third_Party/FreeRTOS/Source/CMSIS_RTOS/cmsis_os.c ****     }
 2262              		.loc 1 1142 20 discriminator 4 view .LVU586
 2263 0066 0196     		str	r6, [sp, #4]
 2264 0068 D6E7     		b	.L145
 2265              	.L156:
ARM GAS  /tmp/cc6GYW95.s 			page 68


 2266 006a C046     		.align	2
 2267              	.L155:
 2268 006c 04ED00E0 		.word	-536810236
 2269              		.cfi_endproc
 2270              	.LFE58:
 2272              		.section	.text.osMailCreate,"ax",%progbits
 2273              		.align	1
 2274              		.global	osMailCreate
 2275              		.syntax unified
 2276              		.code	16
 2277              		.thumb_func
 2278              		.fpu softvfp
 2280              	osMailCreate:
 2281              	.LVL172:
 2282              	.LFB59:
1148:Middlewares/Third_Party/FreeRTOS/Source/CMSIS_RTOS/cmsis_os.c **** 
1149:Middlewares/Third_Party/FreeRTOS/Source/CMSIS_RTOS/cmsis_os.c **** #endif     /* Use Message Queues */
1150:Middlewares/Third_Party/FreeRTOS/Source/CMSIS_RTOS/cmsis_os.c **** 
1151:Middlewares/Third_Party/FreeRTOS/Source/CMSIS_RTOS/cmsis_os.c **** /********************   Mail Queue Management Functions  ***********************/
1152:Middlewares/Third_Party/FreeRTOS/Source/CMSIS_RTOS/cmsis_os.c **** #if (defined (osFeature_MailQ)  &&  (osFeature_MailQ != 0))  /* Use Mail Queues */
1153:Middlewares/Third_Party/FreeRTOS/Source/CMSIS_RTOS/cmsis_os.c **** 
1154:Middlewares/Third_Party/FreeRTOS/Source/CMSIS_RTOS/cmsis_os.c **** 
1155:Middlewares/Third_Party/FreeRTOS/Source/CMSIS_RTOS/cmsis_os.c **** typedef struct os_mailQ_cb {
1156:Middlewares/Third_Party/FreeRTOS/Source/CMSIS_RTOS/cmsis_os.c ****   const osMailQDef_t *queue_def;
1157:Middlewares/Third_Party/FreeRTOS/Source/CMSIS_RTOS/cmsis_os.c ****   QueueHandle_t handle;
1158:Middlewares/Third_Party/FreeRTOS/Source/CMSIS_RTOS/cmsis_os.c ****   osPoolId pool;
1159:Middlewares/Third_Party/FreeRTOS/Source/CMSIS_RTOS/cmsis_os.c **** } os_mailQ_cb_t;
1160:Middlewares/Third_Party/FreeRTOS/Source/CMSIS_RTOS/cmsis_os.c **** 
1161:Middlewares/Third_Party/FreeRTOS/Source/CMSIS_RTOS/cmsis_os.c **** /**
1162:Middlewares/Third_Party/FreeRTOS/Source/CMSIS_RTOS/cmsis_os.c **** * @brief Create and Initialize mail queue
1163:Middlewares/Third_Party/FreeRTOS/Source/CMSIS_RTOS/cmsis_os.c **** * @param  queue_def     reference to the mail queue definition obtain with \ref osMailQ
1164:Middlewares/Third_Party/FreeRTOS/Source/CMSIS_RTOS/cmsis_os.c **** * @param   thread_id     thread ID (obtained by \ref osThreadCreate or \ref osThreadGetId) or NULL.
1165:Middlewares/Third_Party/FreeRTOS/Source/CMSIS_RTOS/cmsis_os.c **** * @retval mail queue ID for reference by other functions or NULL in case of error.
1166:Middlewares/Third_Party/FreeRTOS/Source/CMSIS_RTOS/cmsis_os.c **** * @note   MUST REMAIN UNCHANGED: \b osMailCreate shall be consistent in every CMSIS-RTOS.
1167:Middlewares/Third_Party/FreeRTOS/Source/CMSIS_RTOS/cmsis_os.c **** */
1168:Middlewares/Third_Party/FreeRTOS/Source/CMSIS_RTOS/cmsis_os.c **** osMailQId osMailCreate (const osMailQDef_t *queue_def, osThreadId thread_id)
1169:Middlewares/Third_Party/FreeRTOS/Source/CMSIS_RTOS/cmsis_os.c **** {
 2283              		.loc 1 1169 1 is_stmt 1 view -0
 2284              		.cfi_startproc
 2285              		@ args = 0, pretend = 0, frame = 16
 2286              		@ frame_needed = 0, uses_anonymous_args = 0
1170:Middlewares/Third_Party/FreeRTOS/Source/CMSIS_RTOS/cmsis_os.c **** #if (configSUPPORT_DYNAMIC_ALLOCATION == 1)
1171:Middlewares/Third_Party/FreeRTOS/Source/CMSIS_RTOS/cmsis_os.c ****   (void) thread_id;
 2287              		.loc 1 1171 3 view .LVU588
1172:Middlewares/Third_Party/FreeRTOS/Source/CMSIS_RTOS/cmsis_os.c ****   
1173:Middlewares/Third_Party/FreeRTOS/Source/CMSIS_RTOS/cmsis_os.c ****   osPoolDef_t pool_def = {queue_def->queue_sz, queue_def->item_sz, NULL};
 2288              		.loc 1 1173 3 view .LVU589
1169:Middlewares/Third_Party/FreeRTOS/Source/CMSIS_RTOS/cmsis_os.c **** #if (configSUPPORT_DYNAMIC_ALLOCATION == 1)
 2289              		.loc 1 1169 1 is_stmt 0 view .LVU590
 2290 0000 7FB5     		push	{r0, r1, r2, r3, r4, r5, r6, lr}
 2291              	.LCFI28:
 2292              		.cfi_def_cfa_offset 32
 2293              		.cfi_offset 0, -32
 2294              		.cfi_offset 1, -28
 2295              		.cfi_offset 2, -24
 2296              		.cfi_offset 3, -20
 2297              		.cfi_offset 4, -16
ARM GAS  /tmp/cc6GYW95.s 			page 69


 2298              		.cfi_offset 5, -12
 2299              		.cfi_offset 6, -8
 2300              		.cfi_offset 14, -4
 2301              		.loc 1 1173 15 view .LVU591
 2302 0002 0026     		movs	r6, #0
 2303 0004 0368     		ldr	r3, [r0]
1174:Middlewares/Third_Party/FreeRTOS/Source/CMSIS_RTOS/cmsis_os.c ****   
1175:Middlewares/Third_Party/FreeRTOS/Source/CMSIS_RTOS/cmsis_os.c ****   /* Create a mail queue control block */
1176:Middlewares/Third_Party/FreeRTOS/Source/CMSIS_RTOS/cmsis_os.c **** 
1177:Middlewares/Third_Party/FreeRTOS/Source/CMSIS_RTOS/cmsis_os.c ****   *(queue_def->cb) = pvPortMalloc(sizeof(struct os_mailQ_cb));
 2304              		.loc 1 1177 14 view .LVU592
 2305 0006 8468     		ldr	r4, [r0, #8]
1173:Middlewares/Third_Party/FreeRTOS/Source/CMSIS_RTOS/cmsis_os.c ****   
 2306              		.loc 1 1173 15 view .LVU593
 2307 0008 0193     		str	r3, [sp, #4]
 2308 000a 4368     		ldr	r3, [r0, #4]
1169:Middlewares/Third_Party/FreeRTOS/Source/CMSIS_RTOS/cmsis_os.c **** #if (configSUPPORT_DYNAMIC_ALLOCATION == 1)
 2309              		.loc 1 1169 1 view .LVU594
 2310 000c 0500     		movs	r5, r0
 2311              		.loc 1 1177 22 view .LVU595
 2312 000e 0C20     		movs	r0, #12
 2313              	.LVL173:
1173:Middlewares/Third_Party/FreeRTOS/Source/CMSIS_RTOS/cmsis_os.c ****   
 2314              		.loc 1 1173 15 view .LVU596
 2315 0010 0293     		str	r3, [sp, #8]
 2316 0012 0396     		str	r6, [sp, #12]
 2317              		.loc 1 1177 3 is_stmt 1 view .LVU597
 2318              		.loc 1 1177 22 is_stmt 0 view .LVU598
 2319 0014 FFF7FEFF 		bl	pvPortMalloc
 2320              	.LVL174:
1178:Middlewares/Third_Party/FreeRTOS/Source/CMSIS_RTOS/cmsis_os.c **** 
1179:Middlewares/Third_Party/FreeRTOS/Source/CMSIS_RTOS/cmsis_os.c ****   if (*(queue_def->cb) == NULL) {
 2321              		.loc 1 1179 7 view .LVU599
 2322 0018 AB68     		ldr	r3, [r5, #8]
1177:Middlewares/Third_Party/FreeRTOS/Source/CMSIS_RTOS/cmsis_os.c **** 
 2323              		.loc 1 1177 20 view .LVU600
 2324 001a 2060     		str	r0, [r4]
 2325              		.loc 1 1179 3 is_stmt 1 view .LVU601
 2326              		.loc 1 1179 7 is_stmt 0 view .LVU602
 2327 001c 1C68     		ldr	r4, [r3]
 2328              		.loc 1 1179 6 view .LVU603
 2329 001e B442     		cmp	r4, r6
 2330 0020 0ED0     		beq	.L157
1180:Middlewares/Third_Party/FreeRTOS/Source/CMSIS_RTOS/cmsis_os.c ****     return NULL;
1181:Middlewares/Third_Party/FreeRTOS/Source/CMSIS_RTOS/cmsis_os.c ****   }
1182:Middlewares/Third_Party/FreeRTOS/Source/CMSIS_RTOS/cmsis_os.c ****   (*(queue_def->cb))->queue_def = queue_def;
 2331              		.loc 1 1182 3 is_stmt 1 view .LVU604
1183:Middlewares/Third_Party/FreeRTOS/Source/CMSIS_RTOS/cmsis_os.c ****   
1184:Middlewares/Third_Party/FreeRTOS/Source/CMSIS_RTOS/cmsis_os.c ****   /* Create a queue in FreeRTOS */
1185:Middlewares/Third_Party/FreeRTOS/Source/CMSIS_RTOS/cmsis_os.c ****   (*(queue_def->cb))->handle = xQueueCreate(queue_def->queue_sz, sizeof(void *));
 2332              		.loc 1 1185 32 is_stmt 0 view .LVU605
 2333 0022 3200     		movs	r2, r6
1182:Middlewares/Third_Party/FreeRTOS/Source/CMSIS_RTOS/cmsis_os.c ****   
 2334              		.loc 1 1182 33 view .LVU606
 2335 0024 2560     		str	r5, [r4]
 2336              		.loc 1 1185 3 is_stmt 1 view .LVU607
 2337              		.loc 1 1185 32 is_stmt 0 view .LVU608
ARM GAS  /tmp/cc6GYW95.s 			page 70


 2338 0026 0421     		movs	r1, #4
 2339 0028 2868     		ldr	r0, [r5]
 2340 002a FFF7FEFF 		bl	xQueueGenericCreate
 2341              	.LVL175:
1186:Middlewares/Third_Party/FreeRTOS/Source/CMSIS_RTOS/cmsis_os.c **** 
1187:Middlewares/Third_Party/FreeRTOS/Source/CMSIS_RTOS/cmsis_os.c **** 
1188:Middlewares/Third_Party/FreeRTOS/Source/CMSIS_RTOS/cmsis_os.c ****   if ((*(queue_def->cb))->handle == NULL) {
 2342              		.loc 1 1188 8 view .LVU609
 2343 002e AB68     		ldr	r3, [r5, #8]
1185:Middlewares/Third_Party/FreeRTOS/Source/CMSIS_RTOS/cmsis_os.c **** 
 2344              		.loc 1 1185 30 view .LVU610
 2345 0030 6060     		str	r0, [r4, #4]
 2346              		.loc 1 1188 3 is_stmt 1 view .LVU611
 2347              		.loc 1 1188 8 is_stmt 0 view .LVU612
 2348 0032 1E68     		ldr	r6, [r3]
 2349              		.loc 1 1188 25 view .LVU613
 2350 0034 7468     		ldr	r4, [r6, #4]
 2351              		.loc 1 1188 6 view .LVU614
 2352 0036 002C     		cmp	r4, #0
 2353 0038 05D1     		bne	.L159
1189:Middlewares/Third_Party/FreeRTOS/Source/CMSIS_RTOS/cmsis_os.c ****     vPortFree(*(queue_def->cb));
 2354              		.loc 1 1189 5 is_stmt 1 view .LVU615
 2355 003a 3000     		movs	r0, r6
 2356 003c FFF7FEFF 		bl	vPortFree
 2357              	.LVL176:
1190:Middlewares/Third_Party/FreeRTOS/Source/CMSIS_RTOS/cmsis_os.c ****     return NULL;
 2358              		.loc 1 1190 5 view .LVU616
 2359              	.L157:
1191:Middlewares/Third_Party/FreeRTOS/Source/CMSIS_RTOS/cmsis_os.c ****   }
1192:Middlewares/Third_Party/FreeRTOS/Source/CMSIS_RTOS/cmsis_os.c ****   
1193:Middlewares/Third_Party/FreeRTOS/Source/CMSIS_RTOS/cmsis_os.c ****   /* Create a mail pool */
1194:Middlewares/Third_Party/FreeRTOS/Source/CMSIS_RTOS/cmsis_os.c ****   (*(queue_def->cb))->pool = osPoolCreate(&pool_def);
1195:Middlewares/Third_Party/FreeRTOS/Source/CMSIS_RTOS/cmsis_os.c ****   if ((*(queue_def->cb))->pool == NULL) {
1196:Middlewares/Third_Party/FreeRTOS/Source/CMSIS_RTOS/cmsis_os.c ****     //TODO: Delete queue. How to do it in FreeRTOS?
1197:Middlewares/Third_Party/FreeRTOS/Source/CMSIS_RTOS/cmsis_os.c ****     vPortFree(*(queue_def->cb));
1198:Middlewares/Third_Party/FreeRTOS/Source/CMSIS_RTOS/cmsis_os.c ****     return NULL;
1199:Middlewares/Third_Party/FreeRTOS/Source/CMSIS_RTOS/cmsis_os.c ****   }
1200:Middlewares/Third_Party/FreeRTOS/Source/CMSIS_RTOS/cmsis_os.c ****   
1201:Middlewares/Third_Party/FreeRTOS/Source/CMSIS_RTOS/cmsis_os.c ****   return *(queue_def->cb);
1202:Middlewares/Third_Party/FreeRTOS/Source/CMSIS_RTOS/cmsis_os.c **** #else
1203:Middlewares/Third_Party/FreeRTOS/Source/CMSIS_RTOS/cmsis_os.c ****   return NULL;
1204:Middlewares/Third_Party/FreeRTOS/Source/CMSIS_RTOS/cmsis_os.c **** #endif
1205:Middlewares/Third_Party/FreeRTOS/Source/CMSIS_RTOS/cmsis_os.c **** }
 2360              		.loc 1 1205 1 is_stmt 0 view .LVU617
 2361 0040 2000     		movs	r0, r4
 2362 0042 04B0     		add	sp, sp, #16
 2363              		@ sp needed
 2364 0044 70BD     		pop	{r4, r5, r6, pc}
 2365              	.LVL177:
 2366              	.L159:
1194:Middlewares/Third_Party/FreeRTOS/Source/CMSIS_RTOS/cmsis_os.c ****   if ((*(queue_def->cb))->pool == NULL) {
 2367              		.loc 1 1194 3 is_stmt 1 view .LVU618
1194:Middlewares/Third_Party/FreeRTOS/Source/CMSIS_RTOS/cmsis_os.c ****   if ((*(queue_def->cb))->pool == NULL) {
 2368              		.loc 1 1194 30 is_stmt 0 view .LVU619
 2369 0046 01A8     		add	r0, sp, #4
 2370 0048 FFF7FEFF 		bl	osPoolCreate
 2371              	.LVL178:
ARM GAS  /tmp/cc6GYW95.s 			page 71


1195:Middlewares/Third_Party/FreeRTOS/Source/CMSIS_RTOS/cmsis_os.c ****     //TODO: Delete queue. How to do it in FreeRTOS?
 2372              		.loc 1 1195 8 view .LVU620
 2373 004c AB68     		ldr	r3, [r5, #8]
1194:Middlewares/Third_Party/FreeRTOS/Source/CMSIS_RTOS/cmsis_os.c ****   if ((*(queue_def->cb))->pool == NULL) {
 2374              		.loc 1 1194 28 view .LVU621
 2375 004e B060     		str	r0, [r6, #8]
1195:Middlewares/Third_Party/FreeRTOS/Source/CMSIS_RTOS/cmsis_os.c ****     //TODO: Delete queue. How to do it in FreeRTOS?
 2376              		.loc 1 1195 3 is_stmt 1 view .LVU622
1195:Middlewares/Third_Party/FreeRTOS/Source/CMSIS_RTOS/cmsis_os.c ****     //TODO: Delete queue. How to do it in FreeRTOS?
 2377              		.loc 1 1195 8 is_stmt 0 view .LVU623
 2378 0050 1C68     		ldr	r4, [r3]
1195:Middlewares/Third_Party/FreeRTOS/Source/CMSIS_RTOS/cmsis_os.c ****     //TODO: Delete queue. How to do it in FreeRTOS?
 2379              		.loc 1 1195 25 view .LVU624
 2380 0052 A568     		ldr	r5, [r4, #8]
 2381              	.LVL179:
1195:Middlewares/Third_Party/FreeRTOS/Source/CMSIS_RTOS/cmsis_os.c ****     //TODO: Delete queue. How to do it in FreeRTOS?
 2382              		.loc 1 1195 6 view .LVU625
 2383 0054 002D     		cmp	r5, #0
 2384 0056 F3D1     		bne	.L157
1197:Middlewares/Third_Party/FreeRTOS/Source/CMSIS_RTOS/cmsis_os.c ****     return NULL;
 2385              		.loc 1 1197 5 is_stmt 1 view .LVU626
 2386 0058 2000     		movs	r0, r4
 2387 005a FFF7FEFF 		bl	vPortFree
 2388              	.LVL180:
1198:Middlewares/Third_Party/FreeRTOS/Source/CMSIS_RTOS/cmsis_os.c ****   }
 2389              		.loc 1 1198 5 view .LVU627
1198:Middlewares/Third_Party/FreeRTOS/Source/CMSIS_RTOS/cmsis_os.c ****   }
 2390              		.loc 1 1198 12 is_stmt 0 view .LVU628
 2391 005e 2C00     		movs	r4, r5
 2392 0060 EEE7     		b	.L157
 2393              		.cfi_endproc
 2394              	.LFE59:
 2396              		.section	.text.osMailAlloc,"ax",%progbits
 2397              		.align	1
 2398              		.global	osMailAlloc
 2399              		.syntax unified
 2400              		.code	16
 2401              		.thumb_func
 2402              		.fpu softvfp
 2404              	osMailAlloc:
 2405              	.LVL181:
 2406              	.LFB60:
1206:Middlewares/Third_Party/FreeRTOS/Source/CMSIS_RTOS/cmsis_os.c **** 
1207:Middlewares/Third_Party/FreeRTOS/Source/CMSIS_RTOS/cmsis_os.c **** /**
1208:Middlewares/Third_Party/FreeRTOS/Source/CMSIS_RTOS/cmsis_os.c **** * @brief Allocate a memory block from a mail
1209:Middlewares/Third_Party/FreeRTOS/Source/CMSIS_RTOS/cmsis_os.c **** * @param  queue_id      mail queue ID obtained with \ref osMailCreate.
1210:Middlewares/Third_Party/FreeRTOS/Source/CMSIS_RTOS/cmsis_os.c **** * @param  millisec      timeout value or 0 in case of no time-out.
1211:Middlewares/Third_Party/FreeRTOS/Source/CMSIS_RTOS/cmsis_os.c **** * @retval pointer to memory block that can be filled with mail or NULL in case error.
1212:Middlewares/Third_Party/FreeRTOS/Source/CMSIS_RTOS/cmsis_os.c **** * @note   MUST REMAIN UNCHANGED: \b osMailAlloc shall be consistent in every CMSIS-RTOS.
1213:Middlewares/Third_Party/FreeRTOS/Source/CMSIS_RTOS/cmsis_os.c **** */
1214:Middlewares/Third_Party/FreeRTOS/Source/CMSIS_RTOS/cmsis_os.c **** void *osMailAlloc (osMailQId queue_id, uint32_t millisec)
1215:Middlewares/Third_Party/FreeRTOS/Source/CMSIS_RTOS/cmsis_os.c **** {
 2407              		.loc 1 1215 1 is_stmt 1 view -0
 2408              		.cfi_startproc
 2409              		@ args = 0, pretend = 0, frame = 0
 2410              		@ frame_needed = 0, uses_anonymous_args = 0
1216:Middlewares/Third_Party/FreeRTOS/Source/CMSIS_RTOS/cmsis_os.c ****   (void) millisec;
ARM GAS  /tmp/cc6GYW95.s 			page 72


 2411              		.loc 1 1216 3 view .LVU630
1217:Middlewares/Third_Party/FreeRTOS/Source/CMSIS_RTOS/cmsis_os.c ****   void *p;
 2412              		.loc 1 1217 3 view .LVU631
1218:Middlewares/Third_Party/FreeRTOS/Source/CMSIS_RTOS/cmsis_os.c ****   
1219:Middlewares/Third_Party/FreeRTOS/Source/CMSIS_RTOS/cmsis_os.c ****   
1220:Middlewares/Third_Party/FreeRTOS/Source/CMSIS_RTOS/cmsis_os.c ****   if (queue_id == NULL) {
 2413              		.loc 1 1220 3 view .LVU632
1215:Middlewares/Third_Party/FreeRTOS/Source/CMSIS_RTOS/cmsis_os.c ****   (void) millisec;
 2414              		.loc 1 1215 1 is_stmt 0 view .LVU633
 2415 0000 10B5     		push	{r4, lr}
 2416              	.LCFI29:
 2417              		.cfi_def_cfa_offset 8
 2418              		.cfi_offset 4, -8
 2419              		.cfi_offset 14, -4
 2420              		.loc 1 1220 6 view .LVU634
 2421 0002 0028     		cmp	r0, #0
 2422 0004 02D0     		beq	.L164
1221:Middlewares/Third_Party/FreeRTOS/Source/CMSIS_RTOS/cmsis_os.c ****     return NULL;
1222:Middlewares/Third_Party/FreeRTOS/Source/CMSIS_RTOS/cmsis_os.c ****   }
1223:Middlewares/Third_Party/FreeRTOS/Source/CMSIS_RTOS/cmsis_os.c ****   
1224:Middlewares/Third_Party/FreeRTOS/Source/CMSIS_RTOS/cmsis_os.c ****   p = osPoolAlloc(queue_id->pool);
 2423              		.loc 1 1224 3 is_stmt 1 view .LVU635
 2424              		.loc 1 1224 7 is_stmt 0 view .LVU636
 2425 0006 8068     		ldr	r0, [r0, #8]
 2426              	.LVL182:
 2427              		.loc 1 1224 7 view .LVU637
 2428 0008 FFF7FEFF 		bl	osPoolAlloc
 2429              	.LVL183:
1225:Middlewares/Third_Party/FreeRTOS/Source/CMSIS_RTOS/cmsis_os.c ****   
1226:Middlewares/Third_Party/FreeRTOS/Source/CMSIS_RTOS/cmsis_os.c ****   return p;
 2430              		.loc 1 1226 3 is_stmt 1 view .LVU638
 2431              	.L164:
1227:Middlewares/Third_Party/FreeRTOS/Source/CMSIS_RTOS/cmsis_os.c **** }
 2432              		.loc 1 1227 1 is_stmt 0 view .LVU639
 2433              		@ sp needed
 2434 000c 10BD     		pop	{r4, pc}
 2435              		.cfi_endproc
 2436              	.LFE60:
 2438              		.section	.text.osMailCAlloc,"ax",%progbits
 2439              		.align	1
 2440              		.global	osMailCAlloc
 2441              		.syntax unified
 2442              		.code	16
 2443              		.thumb_func
 2444              		.fpu softvfp
 2446              	osMailCAlloc:
 2447              	.LVL184:
 2448              	.LFB61:
1228:Middlewares/Third_Party/FreeRTOS/Source/CMSIS_RTOS/cmsis_os.c **** 
1229:Middlewares/Third_Party/FreeRTOS/Source/CMSIS_RTOS/cmsis_os.c **** /**
1230:Middlewares/Third_Party/FreeRTOS/Source/CMSIS_RTOS/cmsis_os.c **** * @brief Allocate a memory block from a mail and set memory block to zero
1231:Middlewares/Third_Party/FreeRTOS/Source/CMSIS_RTOS/cmsis_os.c **** * @param  queue_id      mail queue ID obtained with \ref osMailCreate.
1232:Middlewares/Third_Party/FreeRTOS/Source/CMSIS_RTOS/cmsis_os.c **** * @param  millisec      timeout value or 0 in case of no time-out.
1233:Middlewares/Third_Party/FreeRTOS/Source/CMSIS_RTOS/cmsis_os.c **** * @retval pointer to memory block that can be filled with mail or NULL in case error.
1234:Middlewares/Third_Party/FreeRTOS/Source/CMSIS_RTOS/cmsis_os.c **** * @note   MUST REMAIN UNCHANGED: \b osMailCAlloc shall be consistent in every CMSIS-RTOS.
1235:Middlewares/Third_Party/FreeRTOS/Source/CMSIS_RTOS/cmsis_os.c **** */
1236:Middlewares/Third_Party/FreeRTOS/Source/CMSIS_RTOS/cmsis_os.c **** void *osMailCAlloc (osMailQId queue_id, uint32_t millisec)
ARM GAS  /tmp/cc6GYW95.s 			page 73


1237:Middlewares/Third_Party/FreeRTOS/Source/CMSIS_RTOS/cmsis_os.c **** {
 2449              		.loc 1 1237 1 is_stmt 1 view -0
 2450              		.cfi_startproc
 2451              		@ args = 0, pretend = 0, frame = 0
 2452              		@ frame_needed = 0, uses_anonymous_args = 0
1238:Middlewares/Third_Party/FreeRTOS/Source/CMSIS_RTOS/cmsis_os.c ****   uint32_t i;
 2453              		.loc 1 1238 3 view .LVU641
1239:Middlewares/Third_Party/FreeRTOS/Source/CMSIS_RTOS/cmsis_os.c ****   void *p = osMailAlloc(queue_id, millisec);
 2454              		.loc 1 1239 3 view .LVU642
1237:Middlewares/Third_Party/FreeRTOS/Source/CMSIS_RTOS/cmsis_os.c ****   uint32_t i;
 2455              		.loc 1 1237 1 is_stmt 0 view .LVU643
 2456 0000 10B5     		push	{r4, lr}
 2457              	.LCFI30:
 2458              		.cfi_def_cfa_offset 8
 2459              		.cfi_offset 4, -8
 2460              		.cfi_offset 14, -4
1237:Middlewares/Third_Party/FreeRTOS/Source/CMSIS_RTOS/cmsis_os.c ****   uint32_t i;
 2461              		.loc 1 1237 1 view .LVU644
 2462 0002 0400     		movs	r4, r0
 2463              		.loc 1 1239 13 view .LVU645
 2464 0004 FFF7FEFF 		bl	osMailAlloc
 2465              	.LVL185:
1240:Middlewares/Third_Party/FreeRTOS/Source/CMSIS_RTOS/cmsis_os.c ****   
1241:Middlewares/Third_Party/FreeRTOS/Source/CMSIS_RTOS/cmsis_os.c ****   if (p) {
 2466              		.loc 1 1241 3 is_stmt 1 view .LVU646
1242:Middlewares/Third_Party/FreeRTOS/Source/CMSIS_RTOS/cmsis_os.c ****     for (i = 0; i < queue_id->queue_def->item_sz; i++) {
 2467              		.loc 1 1242 12 is_stmt 0 view .LVU647
 2468 0008 0023     		movs	r3, #0
1243:Middlewares/Third_Party/FreeRTOS/Source/CMSIS_RTOS/cmsis_os.c ****       ((uint8_t *)p)[i] = 0;
 2469              		.loc 1 1243 25 view .LVU648
 2470 000a 1900     		movs	r1, r3
1241:Middlewares/Third_Party/FreeRTOS/Source/CMSIS_RTOS/cmsis_os.c ****     for (i = 0; i < queue_id->queue_def->item_sz; i++) {
 2471              		.loc 1 1241 6 view .LVU649
 2472 000c 9842     		cmp	r0, r3
 2473 000e 02D1     		bne	.L169
 2474              	.L168:
1244:Middlewares/Third_Party/FreeRTOS/Source/CMSIS_RTOS/cmsis_os.c ****     }
1245:Middlewares/Third_Party/FreeRTOS/Source/CMSIS_RTOS/cmsis_os.c ****   }
1246:Middlewares/Third_Party/FreeRTOS/Source/CMSIS_RTOS/cmsis_os.c ****   
1247:Middlewares/Third_Party/FreeRTOS/Source/CMSIS_RTOS/cmsis_os.c ****   return p;
1248:Middlewares/Third_Party/FreeRTOS/Source/CMSIS_RTOS/cmsis_os.c **** }
 2475              		.loc 1 1248 1 view .LVU650
 2476              		@ sp needed
 2477              	.LVL186:
 2478              		.loc 1 1248 1 view .LVU651
 2479 0010 10BD     		pop	{r4, pc}
 2480              	.LVL187:
 2481              	.L170:
1243:Middlewares/Third_Party/FreeRTOS/Source/CMSIS_RTOS/cmsis_os.c ****     }
 2482              		.loc 1 1243 7 is_stmt 1 discriminator 3 view .LVU652
1243:Middlewares/Third_Party/FreeRTOS/Source/CMSIS_RTOS/cmsis_os.c ****     }
 2483              		.loc 1 1243 25 is_stmt 0 discriminator 3 view .LVU653
 2484 0012 C154     		strb	r1, [r0, r3]
1242:Middlewares/Third_Party/FreeRTOS/Source/CMSIS_RTOS/cmsis_os.c ****       ((uint8_t *)p)[i] = 0;
 2485              		.loc 1 1242 51 is_stmt 1 discriminator 3 view .LVU654
1242:Middlewares/Third_Party/FreeRTOS/Source/CMSIS_RTOS/cmsis_os.c ****       ((uint8_t *)p)[i] = 0;
 2486              		.loc 1 1242 52 is_stmt 0 discriminator 3 view .LVU655
ARM GAS  /tmp/cc6GYW95.s 			page 74


 2487 0014 0133     		adds	r3, r3, #1
 2488              	.LVL188:
 2489              	.L169:
1242:Middlewares/Third_Party/FreeRTOS/Source/CMSIS_RTOS/cmsis_os.c ****       ((uint8_t *)p)[i] = 0;
 2490              		.loc 1 1242 17 is_stmt 1 discriminator 1 view .LVU656
1242:Middlewares/Third_Party/FreeRTOS/Source/CMSIS_RTOS/cmsis_os.c ****       ((uint8_t *)p)[i] = 0;
 2491              		.loc 1 1242 40 is_stmt 0 discriminator 1 view .LVU657
 2492 0016 2268     		ldr	r2, [r4]
1242:Middlewares/Third_Party/FreeRTOS/Source/CMSIS_RTOS/cmsis_os.c ****       ((uint8_t *)p)[i] = 0;
 2493              		.loc 1 1242 5 discriminator 1 view .LVU658
 2494 0018 5268     		ldr	r2, [r2, #4]
 2495 001a 9A42     		cmp	r2, r3
 2496 001c F9D8     		bhi	.L170
 2497 001e F7E7     		b	.L168
 2498              		.cfi_endproc
 2499              	.LFE61:
 2501              		.section	.text.osMailPut,"ax",%progbits
 2502              		.align	1
 2503              		.global	osMailPut
 2504              		.syntax unified
 2505              		.code	16
 2506              		.thumb_func
 2507              		.fpu softvfp
 2509              	osMailPut:
 2510              	.LVL189:
 2511              	.LFB62:
1249:Middlewares/Third_Party/FreeRTOS/Source/CMSIS_RTOS/cmsis_os.c **** 
1250:Middlewares/Third_Party/FreeRTOS/Source/CMSIS_RTOS/cmsis_os.c **** /**
1251:Middlewares/Third_Party/FreeRTOS/Source/CMSIS_RTOS/cmsis_os.c **** * @brief Put a mail to a queue
1252:Middlewares/Third_Party/FreeRTOS/Source/CMSIS_RTOS/cmsis_os.c **** * @param  queue_id      mail queue ID obtained with \ref osMailCreate.
1253:Middlewares/Third_Party/FreeRTOS/Source/CMSIS_RTOS/cmsis_os.c **** * @param  mail          memory block previously allocated with \ref osMailAlloc or \ref osMailCAllo
1254:Middlewares/Third_Party/FreeRTOS/Source/CMSIS_RTOS/cmsis_os.c **** * @retval status code that indicates the execution status of the function.
1255:Middlewares/Third_Party/FreeRTOS/Source/CMSIS_RTOS/cmsis_os.c **** * @note   MUST REMAIN UNCHANGED: \b osMailPut shall be consistent in every CMSIS-RTOS.
1256:Middlewares/Third_Party/FreeRTOS/Source/CMSIS_RTOS/cmsis_os.c **** */
1257:Middlewares/Third_Party/FreeRTOS/Source/CMSIS_RTOS/cmsis_os.c **** osStatus osMailPut (osMailQId queue_id, void *mail)
1258:Middlewares/Third_Party/FreeRTOS/Source/CMSIS_RTOS/cmsis_os.c **** {
 2512              		.loc 1 1258 1 is_stmt 1 view -0
 2513              		.cfi_startproc
 2514              		@ args = 0, pretend = 0, frame = 16
 2515              		@ frame_needed = 0, uses_anonymous_args = 0
1259:Middlewares/Third_Party/FreeRTOS/Source/CMSIS_RTOS/cmsis_os.c ****   portBASE_TYPE taskWoken;
 2516              		.loc 1 1259 3 view .LVU660
1260:Middlewares/Third_Party/FreeRTOS/Source/CMSIS_RTOS/cmsis_os.c ****   
1261:Middlewares/Third_Party/FreeRTOS/Source/CMSIS_RTOS/cmsis_os.c ****   
1262:Middlewares/Third_Party/FreeRTOS/Source/CMSIS_RTOS/cmsis_os.c ****   if (queue_id == NULL) {
 2517              		.loc 1 1262 3 view .LVU661
1258:Middlewares/Third_Party/FreeRTOS/Source/CMSIS_RTOS/cmsis_os.c ****   portBASE_TYPE taskWoken;
 2518              		.loc 1 1258 1 is_stmt 0 view .LVU662
 2519 0000 30B5     		push	{r4, r5, lr}
 2520              	.LCFI31:
 2521              		.cfi_def_cfa_offset 12
 2522              		.cfi_offset 4, -12
 2523              		.cfi_offset 5, -8
 2524              		.cfi_offset 14, -4
 2525 0002 85B0     		sub	sp, sp, #20
 2526              	.LCFI32:
 2527              		.cfi_def_cfa_offset 32
ARM GAS  /tmp/cc6GYW95.s 			page 75


1258:Middlewares/Third_Party/FreeRTOS/Source/CMSIS_RTOS/cmsis_os.c ****   portBASE_TYPE taskWoken;
 2528              		.loc 1 1258 1 view .LVU663
 2529 0004 0500     		movs	r5, r0
 2530 0006 0191     		str	r1, [sp, #4]
1263:Middlewares/Third_Party/FreeRTOS/Source/CMSIS_RTOS/cmsis_os.c ****     return osErrorParameter;
 2531              		.loc 1 1263 12 view .LVU664
 2532 0008 8020     		movs	r0, #128
 2533              	.LVL190:
1262:Middlewares/Third_Party/FreeRTOS/Source/CMSIS_RTOS/cmsis_os.c ****     return osErrorParameter;
 2534              		.loc 1 1262 6 view .LVU665
 2535 000a 002D     		cmp	r5, #0
 2536 000c 0ED0     		beq	.L174
1264:Middlewares/Third_Party/FreeRTOS/Source/CMSIS_RTOS/cmsis_os.c ****   }
1265:Middlewares/Third_Party/FreeRTOS/Source/CMSIS_RTOS/cmsis_os.c ****   
1266:Middlewares/Third_Party/FreeRTOS/Source/CMSIS_RTOS/cmsis_os.c ****   taskWoken = pdFALSE;
 2537              		.loc 1 1266 3 is_stmt 1 view .LVU666
 2538              		.loc 1 1266 13 is_stmt 0 view .LVU667
 2539 000e 0024     		movs	r4, #0
 2540 0010 0394     		str	r4, [sp, #12]
1267:Middlewares/Third_Party/FreeRTOS/Source/CMSIS_RTOS/cmsis_os.c ****   
1268:Middlewares/Third_Party/FreeRTOS/Source/CMSIS_RTOS/cmsis_os.c ****   if (inHandlerMode()) {
 2541              		.loc 1 1268 3 is_stmt 1 view .LVU668
 2542              	.LBB162:
 2543              	.LBI162:
 130:Middlewares/Third_Party/FreeRTOS/Source/CMSIS_RTOS/cmsis_os.c **** {
 2544              		.loc 1 130 12 view .LVU669
 2545              	.LBE162:
 132:Middlewares/Third_Party/FreeRTOS/Source/CMSIS_RTOS/cmsis_os.c **** }
 2546              		.loc 1 132 3 view .LVU670
 2547              	.LBB165:
 2548              	.LBB163:
 2549              	.LBI163:
 205:Drivers/CMSIS/Include/cmsis_gcc.h **** {
 2550              		.loc 2 205 31 view .LVU671
 2551              	.LBB164:
 207:Drivers/CMSIS/Include/cmsis_gcc.h **** 
 2552              		.loc 2 207 3 view .LVU672
 209:Drivers/CMSIS/Include/cmsis_gcc.h ****   return(result);
 2553              		.loc 2 209 3 view .LVU673
 2554              		.syntax divided
 2555              	@ 209 "Drivers/CMSIS/Include/cmsis_gcc.h" 1
 2556 0012 EFF30582 		MRS r2, ipsr
 2557              	@ 0 "" 2
 2558              	.LVL191:
 2559              		.loc 2 210 3 view .LVU674
 2560              		.loc 2 210 3 is_stmt 0 view .LVU675
 2561              		.thumb
 2562              		.syntax unified
 2563 0016 6868     		ldr	r0, [r5, #4]
 2564              	.LBE164:
 2565              	.LBE163:
 2566              	.LBE165:
 2567              		.loc 1 1268 6 view .LVU676
 2568 0018 A242     		cmp	r2, r4
 2569 001a 12D0     		beq	.L176
1269:Middlewares/Third_Party/FreeRTOS/Source/CMSIS_RTOS/cmsis_os.c ****     if (xQueueSendFromISR(queue_id->handle, &mail, &taskWoken) != pdTRUE) {
 2570              		.loc 1 1269 5 is_stmt 1 view .LVU677
ARM GAS  /tmp/cc6GYW95.s 			page 76


 2571              		.loc 1 1269 9 is_stmt 0 view .LVU678
 2572 001c 2300     		movs	r3, r4
 2573 001e 03AA     		add	r2, sp, #12
 2574 0020 01A9     		add	r1, sp, #4
 2575              	.LVL192:
 2576              		.loc 1 1269 9 view .LVU679
 2577 0022 FFF7FEFF 		bl	xQueueGenericSendFromISR
 2578              	.LVL193:
 2579              		.loc 1 1269 8 view .LVU680
 2580 0026 0128     		cmp	r0, #1
 2581 0028 02D0     		beq	.L177
 2582              	.L179:
1270:Middlewares/Third_Party/FreeRTOS/Source/CMSIS_RTOS/cmsis_os.c ****       return osErrorOS;
 2583              		.loc 1 1270 14 view .LVU681
 2584 002a FF20     		movs	r0, #255
 2585              	.L174:
1271:Middlewares/Third_Party/FreeRTOS/Source/CMSIS_RTOS/cmsis_os.c ****     }
1272:Middlewares/Third_Party/FreeRTOS/Source/CMSIS_RTOS/cmsis_os.c ****     portEND_SWITCHING_ISR(taskWoken);
1273:Middlewares/Third_Party/FreeRTOS/Source/CMSIS_RTOS/cmsis_os.c ****   }
1274:Middlewares/Third_Party/FreeRTOS/Source/CMSIS_RTOS/cmsis_os.c ****   else {
1275:Middlewares/Third_Party/FreeRTOS/Source/CMSIS_RTOS/cmsis_os.c ****     if (xQueueSend(queue_id->handle, &mail, 0) != pdTRUE) { 
1276:Middlewares/Third_Party/FreeRTOS/Source/CMSIS_RTOS/cmsis_os.c ****       return osErrorOS;
1277:Middlewares/Third_Party/FreeRTOS/Source/CMSIS_RTOS/cmsis_os.c ****     }
1278:Middlewares/Third_Party/FreeRTOS/Source/CMSIS_RTOS/cmsis_os.c ****   }
1279:Middlewares/Third_Party/FreeRTOS/Source/CMSIS_RTOS/cmsis_os.c ****   
1280:Middlewares/Third_Party/FreeRTOS/Source/CMSIS_RTOS/cmsis_os.c ****   return osOK;
1281:Middlewares/Third_Party/FreeRTOS/Source/CMSIS_RTOS/cmsis_os.c **** }
 2586              		.loc 1 1281 1 view .LVU682
 2587 002c 05B0     		add	sp, sp, #20
 2588              		@ sp needed
 2589              	.LVL194:
 2590              		.loc 1 1281 1 view .LVU683
 2591 002e 30BD     		pop	{r4, r5, pc}
 2592              	.LVL195:
 2593              	.L177:
1272:Middlewares/Third_Party/FreeRTOS/Source/CMSIS_RTOS/cmsis_os.c ****   }
 2594              		.loc 1 1272 5 is_stmt 1 view .LVU684
 2595 0030 039B     		ldr	r3, [sp, #12]
 2596 0032 002B     		cmp	r3, #0
 2597 0034 03D0     		beq	.L178
1272:Middlewares/Third_Party/FreeRTOS/Source/CMSIS_RTOS/cmsis_os.c ****   }
 2598              		.loc 1 1272 5 discriminator 1 view .LVU685
 2599 0036 8022     		movs	r2, #128
 2600 0038 054B     		ldr	r3, .L184
 2601 003a 5205     		lsls	r2, r2, #21
 2602 003c 1A60     		str	r2, [r3]
 2603              	.L178:
1280:Middlewares/Third_Party/FreeRTOS/Source/CMSIS_RTOS/cmsis_os.c **** }
 2604              		.loc 1 1280 10 is_stmt 0 view .LVU686
 2605 003e 0020     		movs	r0, #0
 2606 0040 F4E7     		b	.L174
 2607              	.LVL196:
 2608              	.L176:
1275:Middlewares/Third_Party/FreeRTOS/Source/CMSIS_RTOS/cmsis_os.c ****       return osErrorOS;
 2609              		.loc 1 1275 5 is_stmt 1 view .LVU687
1275:Middlewares/Third_Party/FreeRTOS/Source/CMSIS_RTOS/cmsis_os.c ****       return osErrorOS;
 2610              		.loc 1 1275 9 is_stmt 0 view .LVU688
ARM GAS  /tmp/cc6GYW95.s 			page 77


 2611 0042 1300     		movs	r3, r2
 2612 0044 01A9     		add	r1, sp, #4
 2613              	.LVL197:
1275:Middlewares/Third_Party/FreeRTOS/Source/CMSIS_RTOS/cmsis_os.c ****       return osErrorOS;
 2614              		.loc 1 1275 9 view .LVU689
 2615 0046 FFF7FEFF 		bl	xQueueGenericSend
 2616              	.LVL198:
1275:Middlewares/Third_Party/FreeRTOS/Source/CMSIS_RTOS/cmsis_os.c ****       return osErrorOS;
 2617              		.loc 1 1275 8 view .LVU690
 2618 004a 0128     		cmp	r0, #1
 2619 004c F7D0     		beq	.L178
 2620 004e ECE7     		b	.L179
 2621              	.L185:
 2622              		.align	2
 2623              	.L184:
 2624 0050 04ED00E0 		.word	-536810236
 2625              		.cfi_endproc
 2626              	.LFE62:
 2628              		.section	.text.osMailGet,"ax",%progbits
 2629              		.align	1
 2630              		.global	osMailGet
 2631              		.syntax unified
 2632              		.code	16
 2633              		.thumb_func
 2634              		.fpu softvfp
 2636              	osMailGet:
 2637              	.LVL199:
 2638              	.LFB63:
1282:Middlewares/Third_Party/FreeRTOS/Source/CMSIS_RTOS/cmsis_os.c **** 
1283:Middlewares/Third_Party/FreeRTOS/Source/CMSIS_RTOS/cmsis_os.c **** /**
1284:Middlewares/Third_Party/FreeRTOS/Source/CMSIS_RTOS/cmsis_os.c **** * @brief Get a mail from a queue
1285:Middlewares/Third_Party/FreeRTOS/Source/CMSIS_RTOS/cmsis_os.c **** * @param  queue_id   mail queue ID obtained with \ref osMailCreate.
1286:Middlewares/Third_Party/FreeRTOS/Source/CMSIS_RTOS/cmsis_os.c **** * @param millisec    timeout value or 0 in case of no time-out
1287:Middlewares/Third_Party/FreeRTOS/Source/CMSIS_RTOS/cmsis_os.c **** * @retval event that contains mail information or error code.
1288:Middlewares/Third_Party/FreeRTOS/Source/CMSIS_RTOS/cmsis_os.c **** * @note   MUST REMAIN UNCHANGED: \b osMailGet shall be consistent in every CMSIS-RTOS.
1289:Middlewares/Third_Party/FreeRTOS/Source/CMSIS_RTOS/cmsis_os.c **** */
1290:Middlewares/Third_Party/FreeRTOS/Source/CMSIS_RTOS/cmsis_os.c **** osEvent osMailGet (osMailQId queue_id, uint32_t millisec)
1291:Middlewares/Third_Party/FreeRTOS/Source/CMSIS_RTOS/cmsis_os.c **** {
 2639              		.loc 1 1291 1 is_stmt 1 view -0
 2640              		.cfi_startproc
 2641              		@ args = 0, pretend = 0, frame = 16
 2642              		@ frame_needed = 0, uses_anonymous_args = 0
1292:Middlewares/Third_Party/FreeRTOS/Source/CMSIS_RTOS/cmsis_os.c ****   portBASE_TYPE taskWoken;
 2643              		.loc 1 1292 3 view .LVU692
1293:Middlewares/Third_Party/FreeRTOS/Source/CMSIS_RTOS/cmsis_os.c ****   TickType_t ticks;
 2644              		.loc 1 1293 3 view .LVU693
1294:Middlewares/Third_Party/FreeRTOS/Source/CMSIS_RTOS/cmsis_os.c ****   osEvent event;
 2645              		.loc 1 1294 3 view .LVU694
1295:Middlewares/Third_Party/FreeRTOS/Source/CMSIS_RTOS/cmsis_os.c ****   
1296:Middlewares/Third_Party/FreeRTOS/Source/CMSIS_RTOS/cmsis_os.c ****   event.def.mail_id = queue_id;
 2646              		.loc 1 1296 3 view .LVU695
1291:Middlewares/Third_Party/FreeRTOS/Source/CMSIS_RTOS/cmsis_os.c ****   portBASE_TYPE taskWoken;
 2647              		.loc 1 1291 1 is_stmt 0 view .LVU696
 2648 0000 7FB5     		push	{r0, r1, r2, r3, r4, r5, r6, lr}
 2649              	.LCFI33:
 2650              		.cfi_def_cfa_offset 32
 2651              		.cfi_offset 0, -32
ARM GAS  /tmp/cc6GYW95.s 			page 78


 2652              		.cfi_offset 1, -28
 2653              		.cfi_offset 2, -24
 2654              		.cfi_offset 3, -20
 2655              		.cfi_offset 4, -16
 2656              		.cfi_offset 5, -12
 2657              		.cfi_offset 6, -8
 2658              		.cfi_offset 14, -4
1291:Middlewares/Third_Party/FreeRTOS/Source/CMSIS_RTOS/cmsis_os.c ****   portBASE_TYPE taskWoken;
 2659              		.loc 1 1291 1 view .LVU697
 2660 0002 0500     		movs	r5, r0
 2661              		.loc 1 1296 21 view .LVU698
 2662 0004 01AC     		add	r4, sp, #4
1291:Middlewares/Third_Party/FreeRTOS/Source/CMSIS_RTOS/cmsis_os.c ****   portBASE_TYPE taskWoken;
 2663              		.loc 1 1291 1 view .LVU699
 2664 0006 1600     		movs	r6, r2
 2665              		.loc 1 1296 21 view .LVU700
 2666 0008 A160     		str	r1, [r4, #8]
1297:Middlewares/Third_Party/FreeRTOS/Source/CMSIS_RTOS/cmsis_os.c ****   
1298:Middlewares/Third_Party/FreeRTOS/Source/CMSIS_RTOS/cmsis_os.c ****   if (queue_id == NULL) {
 2667              		.loc 1 1298 3 is_stmt 1 view .LVU701
 2668              		.loc 1 1298 6 is_stmt 0 view .LVU702
 2669 000a 0029     		cmp	r1, #0
 2670 000c 07D1     		bne	.L187
1299:Middlewares/Third_Party/FreeRTOS/Source/CMSIS_RTOS/cmsis_os.c ****     event.status = osErrorParameter;
 2671              		.loc 1 1299 5 is_stmt 1 view .LVU703
 2672              		.loc 1 1299 18 is_stmt 0 view .LVU704
 2673 000e 8023     		movs	r3, #128
 2674 0010 0193     		str	r3, [sp, #4]
1300:Middlewares/Third_Party/FreeRTOS/Source/CMSIS_RTOS/cmsis_os.c ****     return event;
 2675              		.loc 1 1300 5 is_stmt 1 view .LVU705
 2676              	.LVL200:
 2677              	.L191:
1301:Middlewares/Third_Party/FreeRTOS/Source/CMSIS_RTOS/cmsis_os.c ****   }
1302:Middlewares/Third_Party/FreeRTOS/Source/CMSIS_RTOS/cmsis_os.c ****   
1303:Middlewares/Third_Party/FreeRTOS/Source/CMSIS_RTOS/cmsis_os.c ****   taskWoken = pdFALSE;
1304:Middlewares/Third_Party/FreeRTOS/Source/CMSIS_RTOS/cmsis_os.c ****   
1305:Middlewares/Third_Party/FreeRTOS/Source/CMSIS_RTOS/cmsis_os.c ****   ticks = 0;
1306:Middlewares/Third_Party/FreeRTOS/Source/CMSIS_RTOS/cmsis_os.c ****   if (millisec == osWaitForever) {
1307:Middlewares/Third_Party/FreeRTOS/Source/CMSIS_RTOS/cmsis_os.c ****     ticks = portMAX_DELAY;
1308:Middlewares/Third_Party/FreeRTOS/Source/CMSIS_RTOS/cmsis_os.c ****   }
1309:Middlewares/Third_Party/FreeRTOS/Source/CMSIS_RTOS/cmsis_os.c ****   else if (millisec != 0) {
1310:Middlewares/Third_Party/FreeRTOS/Source/CMSIS_RTOS/cmsis_os.c ****     ticks = millisec / portTICK_PERIOD_MS;
1311:Middlewares/Third_Party/FreeRTOS/Source/CMSIS_RTOS/cmsis_os.c ****     if (ticks == 0) {
1312:Middlewares/Third_Party/FreeRTOS/Source/CMSIS_RTOS/cmsis_os.c ****       ticks = 1;
1313:Middlewares/Third_Party/FreeRTOS/Source/CMSIS_RTOS/cmsis_os.c ****     }
1314:Middlewares/Third_Party/FreeRTOS/Source/CMSIS_RTOS/cmsis_os.c ****   }
1315:Middlewares/Third_Party/FreeRTOS/Source/CMSIS_RTOS/cmsis_os.c ****   
1316:Middlewares/Third_Party/FreeRTOS/Source/CMSIS_RTOS/cmsis_os.c ****   if (inHandlerMode()) {
1317:Middlewares/Third_Party/FreeRTOS/Source/CMSIS_RTOS/cmsis_os.c ****     if (xQueueReceiveFromISR(queue_id->handle, &event.value.p, &taskWoken) == pdTRUE) {
1318:Middlewares/Third_Party/FreeRTOS/Source/CMSIS_RTOS/cmsis_os.c ****       /* We have mail */
1319:Middlewares/Third_Party/FreeRTOS/Source/CMSIS_RTOS/cmsis_os.c ****       event.status = osEventMail;
1320:Middlewares/Third_Party/FreeRTOS/Source/CMSIS_RTOS/cmsis_os.c ****     }
1321:Middlewares/Third_Party/FreeRTOS/Source/CMSIS_RTOS/cmsis_os.c ****     else {
1322:Middlewares/Third_Party/FreeRTOS/Source/CMSIS_RTOS/cmsis_os.c ****       event.status = osOK;
1323:Middlewares/Third_Party/FreeRTOS/Source/CMSIS_RTOS/cmsis_os.c ****     }
1324:Middlewares/Third_Party/FreeRTOS/Source/CMSIS_RTOS/cmsis_os.c ****     portEND_SWITCHING_ISR(taskWoken);
1325:Middlewares/Third_Party/FreeRTOS/Source/CMSIS_RTOS/cmsis_os.c ****   }
ARM GAS  /tmp/cc6GYW95.s 			page 79


1326:Middlewares/Third_Party/FreeRTOS/Source/CMSIS_RTOS/cmsis_os.c ****   else {
1327:Middlewares/Third_Party/FreeRTOS/Source/CMSIS_RTOS/cmsis_os.c ****     if (xQueueReceive(queue_id->handle, &event.value.p, ticks) == pdTRUE) {
1328:Middlewares/Third_Party/FreeRTOS/Source/CMSIS_RTOS/cmsis_os.c ****       /* We have mail */
1329:Middlewares/Third_Party/FreeRTOS/Source/CMSIS_RTOS/cmsis_os.c ****       event.status = osEventMail;
1330:Middlewares/Third_Party/FreeRTOS/Source/CMSIS_RTOS/cmsis_os.c ****     }
1331:Middlewares/Third_Party/FreeRTOS/Source/CMSIS_RTOS/cmsis_os.c ****     else {
1332:Middlewares/Third_Party/FreeRTOS/Source/CMSIS_RTOS/cmsis_os.c ****       event.status = (ticks == 0) ? osOK : osEventTimeout;
1333:Middlewares/Third_Party/FreeRTOS/Source/CMSIS_RTOS/cmsis_os.c ****     }
1334:Middlewares/Third_Party/FreeRTOS/Source/CMSIS_RTOS/cmsis_os.c ****   }
1335:Middlewares/Third_Party/FreeRTOS/Source/CMSIS_RTOS/cmsis_os.c ****   
1336:Middlewares/Third_Party/FreeRTOS/Source/CMSIS_RTOS/cmsis_os.c ****   return event;
 2678              		.loc 1 1336 3 view .LVU706
 2679              		.loc 1 1336 10 is_stmt 0 view .LVU707
 2680 0012 2B00     		movs	r3, r5
 2681 0014 07CC     		ldmia	r4!, {r0, r1, r2}
 2682 0016 07C3     		stmia	r3!, {r0, r1, r2}
1337:Middlewares/Third_Party/FreeRTOS/Source/CMSIS_RTOS/cmsis_os.c **** }
 2683              		.loc 1 1337 1 view .LVU708
 2684 0018 2800     		movs	r0, r5
 2685 001a 04B0     		add	sp, sp, #16
 2686              		@ sp needed
 2687              	.LVL201:
 2688              		.loc 1 1337 1 view .LVU709
 2689 001c 70BD     		pop	{r4, r5, r6, pc}
 2690              	.LVL202:
 2691              	.L187:
1303:Middlewares/Third_Party/FreeRTOS/Source/CMSIS_RTOS/cmsis_os.c ****   
 2692              		.loc 1 1303 3 is_stmt 1 view .LVU710
1303:Middlewares/Third_Party/FreeRTOS/Source/CMSIS_RTOS/cmsis_os.c ****   
 2693              		.loc 1 1303 13 is_stmt 0 view .LVU711
 2694 001e 0023     		movs	r3, #0
 2695 0020 0093     		str	r3, [sp]
1305:Middlewares/Third_Party/FreeRTOS/Source/CMSIS_RTOS/cmsis_os.c ****   if (millisec == osWaitForever) {
 2696              		.loc 1 1305 3 is_stmt 1 view .LVU712
 2697              	.LVL203:
1306:Middlewares/Third_Party/FreeRTOS/Source/CMSIS_RTOS/cmsis_os.c ****     ticks = portMAX_DELAY;
 2698              		.loc 1 1306 3 view .LVU713
1316:Middlewares/Third_Party/FreeRTOS/Source/CMSIS_RTOS/cmsis_os.c ****     if (xQueueReceiveFromISR(queue_id->handle, &event.value.p, &taskWoken) == pdTRUE) {
 2699              		.loc 1 1316 3 view .LVU714
 2700              	.LBB166:
 2701              	.LBI166:
 130:Middlewares/Third_Party/FreeRTOS/Source/CMSIS_RTOS/cmsis_os.c **** {
 2702              		.loc 1 130 12 view .LVU715
 2703              	.LBE166:
 132:Middlewares/Third_Party/FreeRTOS/Source/CMSIS_RTOS/cmsis_os.c **** }
 2704              		.loc 1 132 3 view .LVU716
 2705              	.LBB169:
 2706              	.LBB167:
 2707              	.LBI167:
 205:Drivers/CMSIS/Include/cmsis_gcc.h **** {
 2708              		.loc 2 205 31 view .LVU717
 2709              	.LBB168:
 207:Drivers/CMSIS/Include/cmsis_gcc.h **** 
 2710              		.loc 2 207 3 view .LVU718
 209:Drivers/CMSIS/Include/cmsis_gcc.h ****   return(result);
 2711              		.loc 2 209 3 view .LVU719
 2712              		.syntax divided
ARM GAS  /tmp/cc6GYW95.s 			page 80


 2713              	@ 209 "Drivers/CMSIS/Include/cmsis_gcc.h" 1
 2714 0022 EFF30583 		MRS r3, ipsr
 2715              	@ 0 "" 2
 2716              	.LVL204:
 2717              		.loc 2 210 3 view .LVU720
 2718              		.loc 2 210 3 is_stmt 0 view .LVU721
 2719              		.thumb
 2720              		.syntax unified
 2721 0026 4868     		ldr	r0, [r1, #4]
 2722              	.LVL205:
 2723              		.loc 2 210 3 view .LVU722
 2724              	.LBE168:
 2725              	.LBE167:
 2726              	.LBE169:
1316:Middlewares/Third_Party/FreeRTOS/Source/CMSIS_RTOS/cmsis_os.c ****     if (xQueueReceiveFromISR(queue_id->handle, &event.value.p, &taskWoken) == pdTRUE) {
 2727              		.loc 1 1316 6 view .LVU723
 2728 0028 002B     		cmp	r3, #0
 2729 002a 10D0     		beq	.L189
1317:Middlewares/Third_Party/FreeRTOS/Source/CMSIS_RTOS/cmsis_os.c ****       /* We have mail */
 2730              		.loc 1 1317 5 is_stmt 1 view .LVU724
1317:Middlewares/Third_Party/FreeRTOS/Source/CMSIS_RTOS/cmsis_os.c ****       /* We have mail */
 2731              		.loc 1 1317 9 is_stmt 0 view .LVU725
 2732 002c 6A46     		mov	r2, sp
 2733              	.LVL206:
1317:Middlewares/Third_Party/FreeRTOS/Source/CMSIS_RTOS/cmsis_os.c ****       /* We have mail */
 2734              		.loc 1 1317 9 view .LVU726
 2735 002e 02A9     		add	r1, sp, #8
 2736              	.LVL207:
1317:Middlewares/Third_Party/FreeRTOS/Source/CMSIS_RTOS/cmsis_os.c ****       /* We have mail */
 2737              		.loc 1 1317 9 view .LVU727
 2738 0030 FFF7FEFF 		bl	xQueueReceiveFromISR
 2739              	.LVL208:
1322:Middlewares/Third_Party/FreeRTOS/Source/CMSIS_RTOS/cmsis_os.c ****     }
 2740              		.loc 1 1322 20 view .LVU728
 2741 0034 0138     		subs	r0, r0, #1
 2742 0036 4342     		rsbs	r3, r0, #0
 2743 0038 5841     		adcs	r0, r0, r3
1324:Middlewares/Third_Party/FreeRTOS/Source/CMSIS_RTOS/cmsis_os.c ****   }
 2744              		.loc 1 1324 5 view .LVU729
 2745 003a 009B     		ldr	r3, [sp]
1322:Middlewares/Third_Party/FreeRTOS/Source/CMSIS_RTOS/cmsis_os.c ****     }
 2746              		.loc 1 1322 20 view .LVU730
 2747 003c 4001     		lsls	r0, r0, #5
 2748 003e 0190     		str	r0, [sp, #4]
1324:Middlewares/Third_Party/FreeRTOS/Source/CMSIS_RTOS/cmsis_os.c ****   }
 2749              		.loc 1 1324 5 is_stmt 1 view .LVU731
 2750 0040 002B     		cmp	r3, #0
 2751 0042 E6D0     		beq	.L191
1324:Middlewares/Third_Party/FreeRTOS/Source/CMSIS_RTOS/cmsis_os.c ****   }
 2752              		.loc 1 1324 5 discriminator 1 view .LVU732
 2753 0044 8022     		movs	r2, #128
 2754 0046 084B     		ldr	r3, .L201
 2755 0048 5205     		lsls	r2, r2, #21
 2756 004a 1A60     		str	r2, [r3]
 2757 004c E1E7     		b	.L191
 2758              	.LVL209:
 2759              	.L189:
ARM GAS  /tmp/cc6GYW95.s 			page 81


1327:Middlewares/Third_Party/FreeRTOS/Source/CMSIS_RTOS/cmsis_os.c ****       /* We have mail */
 2760              		.loc 1 1327 5 view .LVU733
1327:Middlewares/Third_Party/FreeRTOS/Source/CMSIS_RTOS/cmsis_os.c ****       /* We have mail */
 2761              		.loc 1 1327 9 is_stmt 0 view .LVU734
 2762 004e 02A9     		add	r1, sp, #8
 2763              	.LVL210:
1327:Middlewares/Third_Party/FreeRTOS/Source/CMSIS_RTOS/cmsis_os.c ****       /* We have mail */
 2764              		.loc 1 1327 9 view .LVU735
 2765 0050 FFF7FEFF 		bl	xQueueReceive
 2766              	.LVL211:
1327:Middlewares/Third_Party/FreeRTOS/Source/CMSIS_RTOS/cmsis_os.c ****       /* We have mail */
 2767              		.loc 1 1327 8 view .LVU736
 2768 0054 0128     		cmp	r0, #1
 2769 0056 02D1     		bne	.L192
1329:Middlewares/Third_Party/FreeRTOS/Source/CMSIS_RTOS/cmsis_os.c ****     }
 2770              		.loc 1 1329 7 is_stmt 1 view .LVU737
1329:Middlewares/Third_Party/FreeRTOS/Source/CMSIS_RTOS/cmsis_os.c ****     }
 2771              		.loc 1 1329 20 is_stmt 0 view .LVU738
 2772 0058 2023     		movs	r3, #32
 2773 005a 2360     		str	r3, [r4]
 2774 005c D9E7     		b	.L191
 2775              	.L192:
1332:Middlewares/Third_Party/FreeRTOS/Source/CMSIS_RTOS/cmsis_os.c ****     }
 2776              		.loc 1 1332 7 is_stmt 1 view .LVU739
1332:Middlewares/Third_Party/FreeRTOS/Source/CMSIS_RTOS/cmsis_os.c ****     }
 2777              		.loc 1 1332 42 is_stmt 0 view .LVU740
 2778 005e 002E     		cmp	r6, #0
 2779 0060 00D0     		beq	.L193
 2780 0062 4026     		movs	r6, #64
 2781              	.LVL212:
 2782              	.L193:
1332:Middlewares/Third_Party/FreeRTOS/Source/CMSIS_RTOS/cmsis_os.c ****     }
 2783              		.loc 1 1332 20 discriminator 4 view .LVU741
 2784 0064 0196     		str	r6, [sp, #4]
 2785 0066 D4E7     		b	.L191
 2786              	.L202:
 2787              		.align	2
 2788              	.L201:
 2789 0068 04ED00E0 		.word	-536810236
 2790              		.cfi_endproc
 2791              	.LFE63:
 2793              		.section	.text.osMailFree,"ax",%progbits
 2794              		.align	1
 2795              		.global	osMailFree
 2796              		.syntax unified
 2797              		.code	16
 2798              		.thumb_func
 2799              		.fpu softvfp
 2801              	osMailFree:
 2802              	.LVL213:
 2803              	.LFB64:
1338:Middlewares/Third_Party/FreeRTOS/Source/CMSIS_RTOS/cmsis_os.c **** 
1339:Middlewares/Third_Party/FreeRTOS/Source/CMSIS_RTOS/cmsis_os.c **** /**
1340:Middlewares/Third_Party/FreeRTOS/Source/CMSIS_RTOS/cmsis_os.c **** * @brief Free a memory block from a mail
1341:Middlewares/Third_Party/FreeRTOS/Source/CMSIS_RTOS/cmsis_os.c **** * @param  queue_id mail queue ID obtained with \ref osMailCreate.
1342:Middlewares/Third_Party/FreeRTOS/Source/CMSIS_RTOS/cmsis_os.c **** * @param  mail     pointer to the memory block that was obtained with \ref osMailGet.
1343:Middlewares/Third_Party/FreeRTOS/Source/CMSIS_RTOS/cmsis_os.c **** * @retval status code that indicates the execution status of the function.
ARM GAS  /tmp/cc6GYW95.s 			page 82


1344:Middlewares/Third_Party/FreeRTOS/Source/CMSIS_RTOS/cmsis_os.c **** * @note   MUST REMAIN UNCHANGED: \b osMailFree shall be consistent in every CMSIS-RTOS.
1345:Middlewares/Third_Party/FreeRTOS/Source/CMSIS_RTOS/cmsis_os.c **** */
1346:Middlewares/Third_Party/FreeRTOS/Source/CMSIS_RTOS/cmsis_os.c **** osStatus osMailFree (osMailQId queue_id, void *mail)
1347:Middlewares/Third_Party/FreeRTOS/Source/CMSIS_RTOS/cmsis_os.c **** {
 2804              		.loc 1 1347 1 is_stmt 1 view -0
 2805              		.cfi_startproc
 2806              		@ args = 0, pretend = 0, frame = 0
 2807              		@ frame_needed = 0, uses_anonymous_args = 0
1348:Middlewares/Third_Party/FreeRTOS/Source/CMSIS_RTOS/cmsis_os.c ****   if (queue_id == NULL) {
 2808              		.loc 1 1348 3 view .LVU743
1347:Middlewares/Third_Party/FreeRTOS/Source/CMSIS_RTOS/cmsis_os.c ****   if (queue_id == NULL) {
 2809              		.loc 1 1347 1 is_stmt 0 view .LVU744
 2810 0000 0300     		movs	r3, r0
 2811 0002 10B5     		push	{r4, lr}
 2812              	.LCFI34:
 2813              		.cfi_def_cfa_offset 8
 2814              		.cfi_offset 4, -8
 2815              		.cfi_offset 14, -4
1349:Middlewares/Third_Party/FreeRTOS/Source/CMSIS_RTOS/cmsis_os.c ****     return osErrorParameter;
 2816              		.loc 1 1349 12 view .LVU745
 2817 0004 8020     		movs	r0, #128
 2818              	.LVL214:
1348:Middlewares/Third_Party/FreeRTOS/Source/CMSIS_RTOS/cmsis_os.c ****   if (queue_id == NULL) {
 2819              		.loc 1 1348 6 view .LVU746
 2820 0006 002B     		cmp	r3, #0
 2821 0008 02D0     		beq	.L203
1350:Middlewares/Third_Party/FreeRTOS/Source/CMSIS_RTOS/cmsis_os.c ****   }
1351:Middlewares/Third_Party/FreeRTOS/Source/CMSIS_RTOS/cmsis_os.c ****   
1352:Middlewares/Third_Party/FreeRTOS/Source/CMSIS_RTOS/cmsis_os.c ****   return osPoolFree(queue_id->pool, mail);
 2822              		.loc 1 1352 3 is_stmt 1 view .LVU747
 2823              		.loc 1 1352 10 is_stmt 0 view .LVU748
 2824 000a 9868     		ldr	r0, [r3, #8]
 2825 000c FFF7FEFF 		bl	osPoolFree
 2826              	.LVL215:
 2827              	.L203:
1353:Middlewares/Third_Party/FreeRTOS/Source/CMSIS_RTOS/cmsis_os.c **** }
 2828              		.loc 1 1353 1 view .LVU749
 2829              		@ sp needed
 2830 0010 10BD     		pop	{r4, pc}
 2831              		.cfi_endproc
 2832              	.LFE64:
 2834              		.section	.text.osSystickHandler,"ax",%progbits
 2835              		.align	1
 2836              		.global	osSystickHandler
 2837              		.syntax unified
 2838              		.code	16
 2839              		.thumb_func
 2840              		.fpu softvfp
 2842              	osSystickHandler:
 2843              	.LFB65:
1354:Middlewares/Third_Party/FreeRTOS/Source/CMSIS_RTOS/cmsis_os.c **** #endif  /* Use Mail Queues */
1355:Middlewares/Third_Party/FreeRTOS/Source/CMSIS_RTOS/cmsis_os.c **** 
1356:Middlewares/Third_Party/FreeRTOS/Source/CMSIS_RTOS/cmsis_os.c **** /*************************** Additional specific APIs to Free RTOS ************/
1357:Middlewares/Third_Party/FreeRTOS/Source/CMSIS_RTOS/cmsis_os.c **** /**
1358:Middlewares/Third_Party/FreeRTOS/Source/CMSIS_RTOS/cmsis_os.c **** * @brief  Handles the tick increment
1359:Middlewares/Third_Party/FreeRTOS/Source/CMSIS_RTOS/cmsis_os.c **** * @param  none.
1360:Middlewares/Third_Party/FreeRTOS/Source/CMSIS_RTOS/cmsis_os.c **** * @retval none.
ARM GAS  /tmp/cc6GYW95.s 			page 83


1361:Middlewares/Third_Party/FreeRTOS/Source/CMSIS_RTOS/cmsis_os.c **** */
1362:Middlewares/Third_Party/FreeRTOS/Source/CMSIS_RTOS/cmsis_os.c **** void osSystickHandler(void)
1363:Middlewares/Third_Party/FreeRTOS/Source/CMSIS_RTOS/cmsis_os.c **** {
 2844              		.loc 1 1363 1 is_stmt 1 view -0
 2845              		.cfi_startproc
 2846              		@ args = 0, pretend = 0, frame = 0
 2847              		@ frame_needed = 0, uses_anonymous_args = 0
1364:Middlewares/Third_Party/FreeRTOS/Source/CMSIS_RTOS/cmsis_os.c **** 
1365:Middlewares/Third_Party/FreeRTOS/Source/CMSIS_RTOS/cmsis_os.c **** #if (INCLUDE_xTaskGetSchedulerState  == 1 )
1366:Middlewares/Third_Party/FreeRTOS/Source/CMSIS_RTOS/cmsis_os.c ****   if (xTaskGetSchedulerState() != taskSCHEDULER_NOT_STARTED)
 2848              		.loc 1 1366 3 view .LVU751
1363:Middlewares/Third_Party/FreeRTOS/Source/CMSIS_RTOS/cmsis_os.c **** 
 2849              		.loc 1 1363 1 is_stmt 0 view .LVU752
 2850 0000 10B5     		push	{r4, lr}
 2851              	.LCFI35:
 2852              		.cfi_def_cfa_offset 8
 2853              		.cfi_offset 4, -8
 2854              		.cfi_offset 14, -4
 2855              		.loc 1 1366 7 view .LVU753
 2856 0002 FFF7FEFF 		bl	xTaskGetSchedulerState
 2857              	.LVL216:
 2858              		.loc 1 1366 6 view .LVU754
 2859 0006 0128     		cmp	r0, #1
 2860 0008 01D0     		beq	.L206
1367:Middlewares/Third_Party/FreeRTOS/Source/CMSIS_RTOS/cmsis_os.c ****   {
1368:Middlewares/Third_Party/FreeRTOS/Source/CMSIS_RTOS/cmsis_os.c **** #endif  /* INCLUDE_xTaskGetSchedulerState */  
1369:Middlewares/Third_Party/FreeRTOS/Source/CMSIS_RTOS/cmsis_os.c ****     xPortSysTickHandler();
 2861              		.loc 1 1369 5 is_stmt 1 view .LVU755
 2862 000a FFF7FEFF 		bl	xPortSysTickHandler
 2863              	.LVL217:
 2864              	.L206:
1370:Middlewares/Third_Party/FreeRTOS/Source/CMSIS_RTOS/cmsis_os.c **** #if (INCLUDE_xTaskGetSchedulerState  == 1 )
1371:Middlewares/Third_Party/FreeRTOS/Source/CMSIS_RTOS/cmsis_os.c ****   }
1372:Middlewares/Third_Party/FreeRTOS/Source/CMSIS_RTOS/cmsis_os.c **** #endif  /* INCLUDE_xTaskGetSchedulerState */  
1373:Middlewares/Third_Party/FreeRTOS/Source/CMSIS_RTOS/cmsis_os.c **** }
 2865              		.loc 1 1373 1 is_stmt 0 view .LVU756
 2866              		@ sp needed
 2867 000e 10BD     		pop	{r4, pc}
 2868              		.cfi_endproc
 2869              	.LFE65:
 2871              		.section	.text.osThreadSuspend,"ax",%progbits
 2872              		.align	1
 2873              		.global	osThreadSuspend
 2874              		.syntax unified
 2875              		.code	16
 2876              		.thumb_func
 2877              		.fpu softvfp
 2879              	osThreadSuspend:
 2880              	.LVL218:
 2881              	.LFB66:
1374:Middlewares/Third_Party/FreeRTOS/Source/CMSIS_RTOS/cmsis_os.c **** 
1375:Middlewares/Third_Party/FreeRTOS/Source/CMSIS_RTOS/cmsis_os.c **** #if ( INCLUDE_eTaskGetState == 1 )
1376:Middlewares/Third_Party/FreeRTOS/Source/CMSIS_RTOS/cmsis_os.c **** /**
1377:Middlewares/Third_Party/FreeRTOS/Source/CMSIS_RTOS/cmsis_os.c **** * @brief  Obtain the state of any thread.
1378:Middlewares/Third_Party/FreeRTOS/Source/CMSIS_RTOS/cmsis_os.c **** * @param   thread_id   thread ID obtained by \ref osThreadCreate or \ref osThreadGetId.
1379:Middlewares/Third_Party/FreeRTOS/Source/CMSIS_RTOS/cmsis_os.c **** * @retval  the stae of the thread, states are encoded by the osThreadState enumerated type.
1380:Middlewares/Third_Party/FreeRTOS/Source/CMSIS_RTOS/cmsis_os.c **** */
ARM GAS  /tmp/cc6GYW95.s 			page 84


1381:Middlewares/Third_Party/FreeRTOS/Source/CMSIS_RTOS/cmsis_os.c **** osThreadState osThreadGetState(osThreadId thread_id)
1382:Middlewares/Third_Party/FreeRTOS/Source/CMSIS_RTOS/cmsis_os.c **** {
1383:Middlewares/Third_Party/FreeRTOS/Source/CMSIS_RTOS/cmsis_os.c ****   eTaskState ThreadState;
1384:Middlewares/Third_Party/FreeRTOS/Source/CMSIS_RTOS/cmsis_os.c ****   osThreadState result;
1385:Middlewares/Third_Party/FreeRTOS/Source/CMSIS_RTOS/cmsis_os.c ****   
1386:Middlewares/Third_Party/FreeRTOS/Source/CMSIS_RTOS/cmsis_os.c ****   ThreadState = eTaskGetState(thread_id);
1387:Middlewares/Third_Party/FreeRTOS/Source/CMSIS_RTOS/cmsis_os.c ****   
1388:Middlewares/Third_Party/FreeRTOS/Source/CMSIS_RTOS/cmsis_os.c ****   switch (ThreadState)
1389:Middlewares/Third_Party/FreeRTOS/Source/CMSIS_RTOS/cmsis_os.c ****   {
1390:Middlewares/Third_Party/FreeRTOS/Source/CMSIS_RTOS/cmsis_os.c ****   case eRunning :
1391:Middlewares/Third_Party/FreeRTOS/Source/CMSIS_RTOS/cmsis_os.c ****     result = osThreadRunning;
1392:Middlewares/Third_Party/FreeRTOS/Source/CMSIS_RTOS/cmsis_os.c ****     break;
1393:Middlewares/Third_Party/FreeRTOS/Source/CMSIS_RTOS/cmsis_os.c ****   case eReady :
1394:Middlewares/Third_Party/FreeRTOS/Source/CMSIS_RTOS/cmsis_os.c ****     result = osThreadReady;
1395:Middlewares/Third_Party/FreeRTOS/Source/CMSIS_RTOS/cmsis_os.c ****     break;
1396:Middlewares/Third_Party/FreeRTOS/Source/CMSIS_RTOS/cmsis_os.c ****   case eBlocked :
1397:Middlewares/Third_Party/FreeRTOS/Source/CMSIS_RTOS/cmsis_os.c ****     result = osThreadBlocked;
1398:Middlewares/Third_Party/FreeRTOS/Source/CMSIS_RTOS/cmsis_os.c ****     break;
1399:Middlewares/Third_Party/FreeRTOS/Source/CMSIS_RTOS/cmsis_os.c ****   case eSuspended :
1400:Middlewares/Third_Party/FreeRTOS/Source/CMSIS_RTOS/cmsis_os.c ****     result = osThreadSuspended;
1401:Middlewares/Third_Party/FreeRTOS/Source/CMSIS_RTOS/cmsis_os.c ****     break;
1402:Middlewares/Third_Party/FreeRTOS/Source/CMSIS_RTOS/cmsis_os.c ****   case eDeleted :
1403:Middlewares/Third_Party/FreeRTOS/Source/CMSIS_RTOS/cmsis_os.c ****     result = osThreadDeleted;
1404:Middlewares/Third_Party/FreeRTOS/Source/CMSIS_RTOS/cmsis_os.c ****     break;
1405:Middlewares/Third_Party/FreeRTOS/Source/CMSIS_RTOS/cmsis_os.c ****   default:
1406:Middlewares/Third_Party/FreeRTOS/Source/CMSIS_RTOS/cmsis_os.c ****     result = osThreadError;
1407:Middlewares/Third_Party/FreeRTOS/Source/CMSIS_RTOS/cmsis_os.c ****   } 
1408:Middlewares/Third_Party/FreeRTOS/Source/CMSIS_RTOS/cmsis_os.c ****   
1409:Middlewares/Third_Party/FreeRTOS/Source/CMSIS_RTOS/cmsis_os.c ****   return result;
1410:Middlewares/Third_Party/FreeRTOS/Source/CMSIS_RTOS/cmsis_os.c **** }
1411:Middlewares/Third_Party/FreeRTOS/Source/CMSIS_RTOS/cmsis_os.c **** #endif /* INCLUDE_eTaskGetState */
1412:Middlewares/Third_Party/FreeRTOS/Source/CMSIS_RTOS/cmsis_os.c **** 
1413:Middlewares/Third_Party/FreeRTOS/Source/CMSIS_RTOS/cmsis_os.c **** #if (INCLUDE_eTaskGetState == 1)
1414:Middlewares/Third_Party/FreeRTOS/Source/CMSIS_RTOS/cmsis_os.c **** /**
1415:Middlewares/Third_Party/FreeRTOS/Source/CMSIS_RTOS/cmsis_os.c **** * @brief Check if a thread is already suspended or not.
1416:Middlewares/Third_Party/FreeRTOS/Source/CMSIS_RTOS/cmsis_os.c **** * @param thread_id thread ID obtained by \ref osThreadCreate or \ref osThreadGetId.
1417:Middlewares/Third_Party/FreeRTOS/Source/CMSIS_RTOS/cmsis_os.c **** * @retval status code that indicates the execution status of the function.
1418:Middlewares/Third_Party/FreeRTOS/Source/CMSIS_RTOS/cmsis_os.c **** */
1419:Middlewares/Third_Party/FreeRTOS/Source/CMSIS_RTOS/cmsis_os.c **** osStatus osThreadIsSuspended(osThreadId thread_id)
1420:Middlewares/Third_Party/FreeRTOS/Source/CMSIS_RTOS/cmsis_os.c **** {
1421:Middlewares/Third_Party/FreeRTOS/Source/CMSIS_RTOS/cmsis_os.c ****   if (eTaskGetState(thread_id) == eSuspended)
1422:Middlewares/Third_Party/FreeRTOS/Source/CMSIS_RTOS/cmsis_os.c ****     return osOK;
1423:Middlewares/Third_Party/FreeRTOS/Source/CMSIS_RTOS/cmsis_os.c ****   else
1424:Middlewares/Third_Party/FreeRTOS/Source/CMSIS_RTOS/cmsis_os.c ****     return osErrorOS;
1425:Middlewares/Third_Party/FreeRTOS/Source/CMSIS_RTOS/cmsis_os.c **** }
1426:Middlewares/Third_Party/FreeRTOS/Source/CMSIS_RTOS/cmsis_os.c **** #endif /* INCLUDE_eTaskGetState */
1427:Middlewares/Third_Party/FreeRTOS/Source/CMSIS_RTOS/cmsis_os.c **** /**
1428:Middlewares/Third_Party/FreeRTOS/Source/CMSIS_RTOS/cmsis_os.c **** * @brief  Suspend execution of a thread.
1429:Middlewares/Third_Party/FreeRTOS/Source/CMSIS_RTOS/cmsis_os.c **** * @param   thread_id   thread ID obtained by \ref osThreadCreate or \ref osThreadGetId.
1430:Middlewares/Third_Party/FreeRTOS/Source/CMSIS_RTOS/cmsis_os.c **** * @retval  status code that indicates the execution status of the function.
1431:Middlewares/Third_Party/FreeRTOS/Source/CMSIS_RTOS/cmsis_os.c **** */
1432:Middlewares/Third_Party/FreeRTOS/Source/CMSIS_RTOS/cmsis_os.c **** osStatus osThreadSuspend (osThreadId thread_id)
1433:Middlewares/Third_Party/FreeRTOS/Source/CMSIS_RTOS/cmsis_os.c **** {
 2882              		.loc 1 1433 1 is_stmt 1 view -0
 2883              		.cfi_startproc
 2884              		@ args = 0, pretend = 0, frame = 0
 2885              		@ frame_needed = 0, uses_anonymous_args = 0
ARM GAS  /tmp/cc6GYW95.s 			page 85


1434:Middlewares/Third_Party/FreeRTOS/Source/CMSIS_RTOS/cmsis_os.c **** #if (INCLUDE_vTaskSuspend == 1)
1435:Middlewares/Third_Party/FreeRTOS/Source/CMSIS_RTOS/cmsis_os.c ****     vTaskSuspend(thread_id);
 2886              		.loc 1 1435 5 view .LVU758
1433:Middlewares/Third_Party/FreeRTOS/Source/CMSIS_RTOS/cmsis_os.c **** #if (INCLUDE_vTaskSuspend == 1)
 2887              		.loc 1 1433 1 is_stmt 0 view .LVU759
 2888 0000 10B5     		push	{r4, lr}
 2889              	.LCFI36:
 2890              		.cfi_def_cfa_offset 8
 2891              		.cfi_offset 4, -8
 2892              		.cfi_offset 14, -4
 2893              		.loc 1 1435 5 view .LVU760
 2894 0002 FFF7FEFF 		bl	vTaskSuspend
 2895              	.LVL219:
1436:Middlewares/Third_Party/FreeRTOS/Source/CMSIS_RTOS/cmsis_os.c ****   
1437:Middlewares/Third_Party/FreeRTOS/Source/CMSIS_RTOS/cmsis_os.c ****   return osOK;
 2896              		.loc 1 1437 3 is_stmt 1 view .LVU761
1438:Middlewares/Third_Party/FreeRTOS/Source/CMSIS_RTOS/cmsis_os.c **** #else
1439:Middlewares/Third_Party/FreeRTOS/Source/CMSIS_RTOS/cmsis_os.c ****   return osErrorResource;
1440:Middlewares/Third_Party/FreeRTOS/Source/CMSIS_RTOS/cmsis_os.c **** #endif
1441:Middlewares/Third_Party/FreeRTOS/Source/CMSIS_RTOS/cmsis_os.c **** }
 2897              		.loc 1 1441 1 is_stmt 0 view .LVU762
 2898              		@ sp needed
 2899 0006 0020     		movs	r0, #0
 2900 0008 10BD     		pop	{r4, pc}
 2901              		.cfi_endproc
 2902              	.LFE66:
 2904              		.section	.text.osThreadResume,"ax",%progbits
 2905              		.align	1
 2906              		.global	osThreadResume
 2907              		.syntax unified
 2908              		.code	16
 2909              		.thumb_func
 2910              		.fpu softvfp
 2912              	osThreadResume:
 2913              	.LVL220:
 2914              	.LFB67:
1442:Middlewares/Third_Party/FreeRTOS/Source/CMSIS_RTOS/cmsis_os.c **** 
1443:Middlewares/Third_Party/FreeRTOS/Source/CMSIS_RTOS/cmsis_os.c **** /**
1444:Middlewares/Third_Party/FreeRTOS/Source/CMSIS_RTOS/cmsis_os.c **** * @brief  Resume execution of a suspended thread.
1445:Middlewares/Third_Party/FreeRTOS/Source/CMSIS_RTOS/cmsis_os.c **** * @param   thread_id   thread ID obtained by \ref osThreadCreate or \ref osThreadGetId.
1446:Middlewares/Third_Party/FreeRTOS/Source/CMSIS_RTOS/cmsis_os.c **** * @retval  status code that indicates the execution status of the function.
1447:Middlewares/Third_Party/FreeRTOS/Source/CMSIS_RTOS/cmsis_os.c **** */
1448:Middlewares/Third_Party/FreeRTOS/Source/CMSIS_RTOS/cmsis_os.c **** osStatus osThreadResume (osThreadId thread_id)
1449:Middlewares/Third_Party/FreeRTOS/Source/CMSIS_RTOS/cmsis_os.c **** {
 2915              		.loc 1 1449 1 is_stmt 1 view -0
 2916              		.cfi_startproc
 2917              		@ args = 0, pretend = 0, frame = 0
 2918              		@ frame_needed = 0, uses_anonymous_args = 0
1450:Middlewares/Third_Party/FreeRTOS/Source/CMSIS_RTOS/cmsis_os.c **** #if (INCLUDE_vTaskSuspend == 1)  
1451:Middlewares/Third_Party/FreeRTOS/Source/CMSIS_RTOS/cmsis_os.c ****   if(inHandlerMode())
 2919              		.loc 1 1451 3 view .LVU764
 2920              	.LBB170:
 2921              	.LBI170:
 130:Middlewares/Third_Party/FreeRTOS/Source/CMSIS_RTOS/cmsis_os.c **** {
 2922              		.loc 1 130 12 view .LVU765
 2923              	.LBE170:
 132:Middlewares/Third_Party/FreeRTOS/Source/CMSIS_RTOS/cmsis_os.c **** }
ARM GAS  /tmp/cc6GYW95.s 			page 86


 2924              		.loc 1 132 3 view .LVU766
 2925              	.LBB175:
 2926              	.LBB171:
 2927              	.LBI171:
 205:Drivers/CMSIS/Include/cmsis_gcc.h **** {
 2928              		.loc 2 205 31 view .LVU767
 2929              	.LBB172:
 207:Drivers/CMSIS/Include/cmsis_gcc.h **** 
 2930              		.loc 2 207 3 view .LVU768
 209:Drivers/CMSIS/Include/cmsis_gcc.h ****   return(result);
 2931              		.loc 2 209 3 view .LVU769
 2932              	.LBE172:
 2933              	.LBE171:
 2934              	.LBE175:
1449:Middlewares/Third_Party/FreeRTOS/Source/CMSIS_RTOS/cmsis_os.c **** #if (INCLUDE_vTaskSuspend == 1)  
 2935              		.loc 1 1449 1 is_stmt 0 view .LVU770
 2936 0000 10B5     		push	{r4, lr}
 2937              	.LCFI37:
 2938              		.cfi_def_cfa_offset 8
 2939              		.cfi_offset 4, -8
 2940              		.cfi_offset 14, -4
 2941              	.LBB176:
 2942              	.LBB174:
 2943              	.LBB173:
 209:Drivers/CMSIS/Include/cmsis_gcc.h ****   return(result);
 2944              		.loc 2 209 3 view .LVU771
 2945              		.syntax divided
 2946              	@ 209 "Drivers/CMSIS/Include/cmsis_gcc.h" 1
 2947 0002 EFF30583 		MRS r3, ipsr
 2948              	@ 0 "" 2
 2949              	.LVL221:
 2950              		.loc 2 210 3 is_stmt 1 view .LVU772
 2951              		.loc 2 210 3 is_stmt 0 view .LVU773
 2952              		.thumb
 2953              		.syntax unified
 2954              	.LBE173:
 2955              	.LBE174:
 2956              	.LBE176:
 2957              		.loc 1 1451 5 view .LVU774
 2958 0006 002B     		cmp	r3, #0
 2959 0008 09D0     		beq	.L213
1452:Middlewares/Third_Party/FreeRTOS/Source/CMSIS_RTOS/cmsis_os.c ****   {
1453:Middlewares/Third_Party/FreeRTOS/Source/CMSIS_RTOS/cmsis_os.c ****     if (xTaskResumeFromISR(thread_id) == pdTRUE)
 2960              		.loc 1 1453 5 is_stmt 1 view .LVU775
 2961              		.loc 1 1453 9 is_stmt 0 view .LVU776
 2962 000a FFF7FEFF 		bl	xTaskResumeFromISR
 2963              	.LVL222:
 2964              		.loc 1 1453 8 view .LVU777
 2965 000e 0128     		cmp	r0, #1
 2966 0010 03D1     		bne	.L214
1454:Middlewares/Third_Party/FreeRTOS/Source/CMSIS_RTOS/cmsis_os.c ****     {
1455:Middlewares/Third_Party/FreeRTOS/Source/CMSIS_RTOS/cmsis_os.c ****       portYIELD_FROM_ISR(pdTRUE);
 2967              		.loc 1 1455 7 is_stmt 1 discriminator 1 view .LVU778
 2968              		.loc 1 1455 7 discriminator 1 view .LVU779
 2969 0012 8022     		movs	r2, #128
 2970 0014 034B     		ldr	r3, .L215
 2971 0016 5205     		lsls	r2, r2, #21
ARM GAS  /tmp/cc6GYW95.s 			page 87


 2972 0018 1A60     		str	r2, [r3]
 2973              	.L214:
1456:Middlewares/Third_Party/FreeRTOS/Source/CMSIS_RTOS/cmsis_os.c ****     }
1457:Middlewares/Third_Party/FreeRTOS/Source/CMSIS_RTOS/cmsis_os.c ****   }
1458:Middlewares/Third_Party/FreeRTOS/Source/CMSIS_RTOS/cmsis_os.c ****   else
1459:Middlewares/Third_Party/FreeRTOS/Source/CMSIS_RTOS/cmsis_os.c ****   {
1460:Middlewares/Third_Party/FreeRTOS/Source/CMSIS_RTOS/cmsis_os.c ****     vTaskResume(thread_id);
1461:Middlewares/Third_Party/FreeRTOS/Source/CMSIS_RTOS/cmsis_os.c ****   }
1462:Middlewares/Third_Party/FreeRTOS/Source/CMSIS_RTOS/cmsis_os.c ****   return osOK;
 2974              		.loc 1 1462 3 view .LVU780
1463:Middlewares/Third_Party/FreeRTOS/Source/CMSIS_RTOS/cmsis_os.c **** #else
1464:Middlewares/Third_Party/FreeRTOS/Source/CMSIS_RTOS/cmsis_os.c ****   return osErrorResource;
1465:Middlewares/Third_Party/FreeRTOS/Source/CMSIS_RTOS/cmsis_os.c **** #endif
1466:Middlewares/Third_Party/FreeRTOS/Source/CMSIS_RTOS/cmsis_os.c **** }
 2975              		.loc 1 1466 1 is_stmt 0 view .LVU781
 2976 001a 0020     		movs	r0, #0
 2977              		@ sp needed
 2978 001c 10BD     		pop	{r4, pc}
 2979              	.LVL223:
 2980              	.L213:
1460:Middlewares/Third_Party/FreeRTOS/Source/CMSIS_RTOS/cmsis_os.c ****   }
 2981              		.loc 1 1460 5 is_stmt 1 view .LVU782
 2982 001e FFF7FEFF 		bl	vTaskResume
 2983              	.LVL224:
1460:Middlewares/Third_Party/FreeRTOS/Source/CMSIS_RTOS/cmsis_os.c ****   }
 2984              		.loc 1 1460 5 is_stmt 0 view .LVU783
 2985 0022 FAE7     		b	.L214
 2986              	.L216:
 2987              		.align	2
 2988              	.L215:
 2989 0024 04ED00E0 		.word	-536810236
 2990              		.cfi_endproc
 2991              	.LFE67:
 2993              		.section	.text.osThreadSuspendAll,"ax",%progbits
 2994              		.align	1
 2995              		.global	osThreadSuspendAll
 2996              		.syntax unified
 2997              		.code	16
 2998              		.thumb_func
 2999              		.fpu softvfp
 3001              	osThreadSuspendAll:
 3002              	.LFB68:
1467:Middlewares/Third_Party/FreeRTOS/Source/CMSIS_RTOS/cmsis_os.c **** 
1468:Middlewares/Third_Party/FreeRTOS/Source/CMSIS_RTOS/cmsis_os.c **** /**
1469:Middlewares/Third_Party/FreeRTOS/Source/CMSIS_RTOS/cmsis_os.c **** * @brief  Suspend execution of a all active threads.
1470:Middlewares/Third_Party/FreeRTOS/Source/CMSIS_RTOS/cmsis_os.c **** * @retval  status code that indicates the execution status of the function.
1471:Middlewares/Third_Party/FreeRTOS/Source/CMSIS_RTOS/cmsis_os.c **** */
1472:Middlewares/Third_Party/FreeRTOS/Source/CMSIS_RTOS/cmsis_os.c **** osStatus osThreadSuspendAll (void)
1473:Middlewares/Third_Party/FreeRTOS/Source/CMSIS_RTOS/cmsis_os.c **** {
 3003              		.loc 1 1473 1 is_stmt 1 view -0
 3004              		.cfi_startproc
 3005              		@ args = 0, pretend = 0, frame = 0
 3006              		@ frame_needed = 0, uses_anonymous_args = 0
1474:Middlewares/Third_Party/FreeRTOS/Source/CMSIS_RTOS/cmsis_os.c ****   vTaskSuspendAll();
 3007              		.loc 1 1474 3 view .LVU785
1473:Middlewares/Third_Party/FreeRTOS/Source/CMSIS_RTOS/cmsis_os.c ****   vTaskSuspendAll();
 3008              		.loc 1 1473 1 is_stmt 0 view .LVU786
ARM GAS  /tmp/cc6GYW95.s 			page 88


 3009 0000 10B5     		push	{r4, lr}
 3010              	.LCFI38:
 3011              		.cfi_def_cfa_offset 8
 3012              		.cfi_offset 4, -8
 3013              		.cfi_offset 14, -4
 3014              		.loc 1 1474 3 view .LVU787
 3015 0002 FFF7FEFF 		bl	vTaskSuspendAll
 3016              	.LVL225:
1475:Middlewares/Third_Party/FreeRTOS/Source/CMSIS_RTOS/cmsis_os.c ****   
1476:Middlewares/Third_Party/FreeRTOS/Source/CMSIS_RTOS/cmsis_os.c ****   return osOK;
 3017              		.loc 1 1476 3 is_stmt 1 view .LVU788
1477:Middlewares/Third_Party/FreeRTOS/Source/CMSIS_RTOS/cmsis_os.c **** }
 3018              		.loc 1 1477 1 is_stmt 0 view .LVU789
 3019              		@ sp needed
 3020 0006 0020     		movs	r0, #0
 3021 0008 10BD     		pop	{r4, pc}
 3022              		.cfi_endproc
 3023              	.LFE68:
 3025              		.section	.text.osThreadResumeAll,"ax",%progbits
 3026              		.align	1
 3027              		.global	osThreadResumeAll
 3028              		.syntax unified
 3029              		.code	16
 3030              		.thumb_func
 3031              		.fpu softvfp
 3033              	osThreadResumeAll:
 3034              	.LFB69:
1478:Middlewares/Third_Party/FreeRTOS/Source/CMSIS_RTOS/cmsis_os.c **** 
1479:Middlewares/Third_Party/FreeRTOS/Source/CMSIS_RTOS/cmsis_os.c **** /**
1480:Middlewares/Third_Party/FreeRTOS/Source/CMSIS_RTOS/cmsis_os.c **** * @brief  Resume execution of a all suspended threads.
1481:Middlewares/Third_Party/FreeRTOS/Source/CMSIS_RTOS/cmsis_os.c **** * @retval  status code that indicates the execution status of the function.
1482:Middlewares/Third_Party/FreeRTOS/Source/CMSIS_RTOS/cmsis_os.c **** */
1483:Middlewares/Third_Party/FreeRTOS/Source/CMSIS_RTOS/cmsis_os.c **** osStatus osThreadResumeAll (void)
1484:Middlewares/Third_Party/FreeRTOS/Source/CMSIS_RTOS/cmsis_os.c **** {
 3035              		.loc 1 1484 1 is_stmt 1 view -0
 3036              		.cfi_startproc
 3037              		@ args = 0, pretend = 0, frame = 0
 3038              		@ frame_needed = 0, uses_anonymous_args = 0
1485:Middlewares/Third_Party/FreeRTOS/Source/CMSIS_RTOS/cmsis_os.c ****   if (xTaskResumeAll() == pdTRUE)
 3039              		.loc 1 1485 3 view .LVU791
1484:Middlewares/Third_Party/FreeRTOS/Source/CMSIS_RTOS/cmsis_os.c ****   if (xTaskResumeAll() == pdTRUE)
 3040              		.loc 1 1484 1 is_stmt 0 view .LVU792
 3041 0000 10B5     		push	{r4, lr}
 3042              	.LCFI39:
 3043              		.cfi_def_cfa_offset 8
 3044              		.cfi_offset 4, -8
 3045              		.cfi_offset 14, -4
 3046              		.loc 1 1485 7 view .LVU793
 3047 0002 FFF7FEFF 		bl	xTaskResumeAll
 3048              	.LVL226:
1486:Middlewares/Third_Party/FreeRTOS/Source/CMSIS_RTOS/cmsis_os.c ****     return osOK;
 3049              		.loc 1 1486 12 view .LVU794
 3050 0006 0023     		movs	r3, #0
1485:Middlewares/Third_Party/FreeRTOS/Source/CMSIS_RTOS/cmsis_os.c ****   if (xTaskResumeAll() == pdTRUE)
 3051              		.loc 1 1485 6 view .LVU795
 3052 0008 0128     		cmp	r0, #1
 3053 000a 00D0     		beq	.L218
ARM GAS  /tmp/cc6GYW95.s 			page 89


1487:Middlewares/Third_Party/FreeRTOS/Source/CMSIS_RTOS/cmsis_os.c ****   else
1488:Middlewares/Third_Party/FreeRTOS/Source/CMSIS_RTOS/cmsis_os.c ****     return osErrorOS;
 3054              		.loc 1 1488 12 view .LVU796
 3055 000c FF33     		adds	r3, r3, #255
 3056              	.L218:
1489:Middlewares/Third_Party/FreeRTOS/Source/CMSIS_RTOS/cmsis_os.c ****   
1490:Middlewares/Third_Party/FreeRTOS/Source/CMSIS_RTOS/cmsis_os.c **** }
 3057              		.loc 1 1490 1 view .LVU797
 3058 000e 1800     		movs	r0, r3
 3059              		@ sp needed
 3060 0010 10BD     		pop	{r4, pc}
 3061              		.cfi_endproc
 3062              	.LFE69:
 3064              		.section	.text.osDelayUntil,"ax",%progbits
 3065              		.align	1
 3066              		.global	osDelayUntil
 3067              		.syntax unified
 3068              		.code	16
 3069              		.thumb_func
 3070              		.fpu softvfp
 3072              	osDelayUntil:
 3073              	.LVL227:
 3074              	.LFB70:
1491:Middlewares/Third_Party/FreeRTOS/Source/CMSIS_RTOS/cmsis_os.c **** 
1492:Middlewares/Third_Party/FreeRTOS/Source/CMSIS_RTOS/cmsis_os.c **** /**
1493:Middlewares/Third_Party/FreeRTOS/Source/CMSIS_RTOS/cmsis_os.c **** * @brief  Delay a task until a specified time
1494:Middlewares/Third_Party/FreeRTOS/Source/CMSIS_RTOS/cmsis_os.c **** * @param   PreviousWakeTime   Pointer to a variable that holds the time at which the 
1495:Middlewares/Third_Party/FreeRTOS/Source/CMSIS_RTOS/cmsis_os.c **** *          task was last unblocked. PreviousWakeTime must be initialised with the current time
1496:Middlewares/Third_Party/FreeRTOS/Source/CMSIS_RTOS/cmsis_os.c **** *          prior to its first use (PreviousWakeTime = osKernelSysTick() )
1497:Middlewares/Third_Party/FreeRTOS/Source/CMSIS_RTOS/cmsis_os.c **** * @param   millisec    time delay value
1498:Middlewares/Third_Party/FreeRTOS/Source/CMSIS_RTOS/cmsis_os.c **** * @retval  status code that indicates the execution status of the function.
1499:Middlewares/Third_Party/FreeRTOS/Source/CMSIS_RTOS/cmsis_os.c **** */
1500:Middlewares/Third_Party/FreeRTOS/Source/CMSIS_RTOS/cmsis_os.c **** osStatus osDelayUntil (uint32_t *PreviousWakeTime, uint32_t millisec)
1501:Middlewares/Third_Party/FreeRTOS/Source/CMSIS_RTOS/cmsis_os.c **** {
 3075              		.loc 1 1501 1 is_stmt 1 view -0
 3076              		.cfi_startproc
 3077              		@ args = 0, pretend = 0, frame = 0
 3078              		@ frame_needed = 0, uses_anonymous_args = 0
 3079              		@ link register save eliminated.
1502:Middlewares/Third_Party/FreeRTOS/Source/CMSIS_RTOS/cmsis_os.c **** #if INCLUDE_vTaskDelayUntil
1503:Middlewares/Third_Party/FreeRTOS/Source/CMSIS_RTOS/cmsis_os.c ****   TickType_t ticks = (millisec / portTICK_PERIOD_MS);
1504:Middlewares/Third_Party/FreeRTOS/Source/CMSIS_RTOS/cmsis_os.c ****   vTaskDelayUntil((TickType_t *) PreviousWakeTime, ticks ? ticks : 1);
1505:Middlewares/Third_Party/FreeRTOS/Source/CMSIS_RTOS/cmsis_os.c ****   
1506:Middlewares/Third_Party/FreeRTOS/Source/CMSIS_RTOS/cmsis_os.c ****   return osOK;
1507:Middlewares/Third_Party/FreeRTOS/Source/CMSIS_RTOS/cmsis_os.c **** #else
1508:Middlewares/Third_Party/FreeRTOS/Source/CMSIS_RTOS/cmsis_os.c ****   (void) millisec;
 3080              		.loc 1 1508 3 view .LVU799
1509:Middlewares/Third_Party/FreeRTOS/Source/CMSIS_RTOS/cmsis_os.c ****   (void) PreviousWakeTime;
 3081              		.loc 1 1509 3 view .LVU800
1510:Middlewares/Third_Party/FreeRTOS/Source/CMSIS_RTOS/cmsis_os.c ****   
1511:Middlewares/Third_Party/FreeRTOS/Source/CMSIS_RTOS/cmsis_os.c ****   return osErrorResource;
 3082              		.loc 1 1511 3 view .LVU801
1512:Middlewares/Third_Party/FreeRTOS/Source/CMSIS_RTOS/cmsis_os.c **** #endif
1513:Middlewares/Third_Party/FreeRTOS/Source/CMSIS_RTOS/cmsis_os.c **** }
 3083              		.loc 1 1513 1 is_stmt 0 view .LVU802
 3084 0000 8120     		movs	r0, #129
 3085              	.LVL228:
ARM GAS  /tmp/cc6GYW95.s 			page 90


 3086              		.loc 1 1513 1 view .LVU803
 3087              		@ sp needed
 3088 0002 7047     		bx	lr
 3089              		.cfi_endproc
 3090              	.LFE70:
 3092              		.section	.text.osAbortDelay,"ax",%progbits
 3093              		.align	1
 3094              		.global	osAbortDelay
 3095              		.syntax unified
 3096              		.code	16
 3097              		.thumb_func
 3098              		.fpu softvfp
 3100              	osAbortDelay:
 3101              	.LVL229:
 3102              	.LFB71:
1514:Middlewares/Third_Party/FreeRTOS/Source/CMSIS_RTOS/cmsis_os.c **** 
1515:Middlewares/Third_Party/FreeRTOS/Source/CMSIS_RTOS/cmsis_os.c **** /**
1516:Middlewares/Third_Party/FreeRTOS/Source/CMSIS_RTOS/cmsis_os.c **** * @brief   Abort the delay for a specific thread
1517:Middlewares/Third_Party/FreeRTOS/Source/CMSIS_RTOS/cmsis_os.c **** * @param   thread_id   thread ID obtained by \ref osThreadCreate or \ref osThreadGetId   
1518:Middlewares/Third_Party/FreeRTOS/Source/CMSIS_RTOS/cmsis_os.c **** * @retval  status code that indicates the execution status of the function.
1519:Middlewares/Third_Party/FreeRTOS/Source/CMSIS_RTOS/cmsis_os.c **** */
1520:Middlewares/Third_Party/FreeRTOS/Source/CMSIS_RTOS/cmsis_os.c **** osStatus osAbortDelay(osThreadId thread_id)
1521:Middlewares/Third_Party/FreeRTOS/Source/CMSIS_RTOS/cmsis_os.c **** {
 3103              		.loc 1 1521 1 is_stmt 1 view -0
 3104              		.cfi_startproc
 3105              		@ args = 0, pretend = 0, frame = 0
 3106              		@ frame_needed = 0, uses_anonymous_args = 0
 3107              		@ link register save eliminated.
1522:Middlewares/Third_Party/FreeRTOS/Source/CMSIS_RTOS/cmsis_os.c **** #if INCLUDE_xTaskAbortDelay
1523:Middlewares/Third_Party/FreeRTOS/Source/CMSIS_RTOS/cmsis_os.c ****   
1524:Middlewares/Third_Party/FreeRTOS/Source/CMSIS_RTOS/cmsis_os.c ****   xTaskAbortDelay(thread_id);
1525:Middlewares/Third_Party/FreeRTOS/Source/CMSIS_RTOS/cmsis_os.c ****   
1526:Middlewares/Third_Party/FreeRTOS/Source/CMSIS_RTOS/cmsis_os.c ****   return osOK;
1527:Middlewares/Third_Party/FreeRTOS/Source/CMSIS_RTOS/cmsis_os.c **** #else
1528:Middlewares/Third_Party/FreeRTOS/Source/CMSIS_RTOS/cmsis_os.c ****   (void) thread_id;
 3108              		.loc 1 1528 3 view .LVU805
1529:Middlewares/Third_Party/FreeRTOS/Source/CMSIS_RTOS/cmsis_os.c ****   
1530:Middlewares/Third_Party/FreeRTOS/Source/CMSIS_RTOS/cmsis_os.c ****   return osErrorResource;
 3109              		.loc 1 1530 3 view .LVU806
1531:Middlewares/Third_Party/FreeRTOS/Source/CMSIS_RTOS/cmsis_os.c **** #endif
1532:Middlewares/Third_Party/FreeRTOS/Source/CMSIS_RTOS/cmsis_os.c **** }
 3110              		.loc 1 1532 1 is_stmt 0 view .LVU807
 3111 0000 8120     		movs	r0, #129
 3112              	.LVL230:
 3113              		.loc 1 1532 1 view .LVU808
 3114              		@ sp needed
 3115 0002 7047     		bx	lr
 3116              		.cfi_endproc
 3117              	.LFE71:
 3119              		.section	.text.osThreadList,"ax",%progbits
 3120              		.align	1
 3121              		.global	osThreadList
 3122              		.syntax unified
 3123              		.code	16
 3124              		.thumb_func
 3125              		.fpu softvfp
 3127              	osThreadList:
ARM GAS  /tmp/cc6GYW95.s 			page 91


 3128              	.LVL231:
 3129              	.LFB72:
1533:Middlewares/Third_Party/FreeRTOS/Source/CMSIS_RTOS/cmsis_os.c **** 
1534:Middlewares/Third_Party/FreeRTOS/Source/CMSIS_RTOS/cmsis_os.c **** /**
1535:Middlewares/Third_Party/FreeRTOS/Source/CMSIS_RTOS/cmsis_os.c **** * @brief   Lists all the current threads, along with their current state 
1536:Middlewares/Third_Party/FreeRTOS/Source/CMSIS_RTOS/cmsis_os.c **** *          and stack usage high water mark.
1537:Middlewares/Third_Party/FreeRTOS/Source/CMSIS_RTOS/cmsis_os.c **** * @param   buffer   A buffer into which the above mentioned details
1538:Middlewares/Third_Party/FreeRTOS/Source/CMSIS_RTOS/cmsis_os.c **** *          will be written
1539:Middlewares/Third_Party/FreeRTOS/Source/CMSIS_RTOS/cmsis_os.c **** * @retval  status code that indicates the execution status of the function.
1540:Middlewares/Third_Party/FreeRTOS/Source/CMSIS_RTOS/cmsis_os.c **** */
1541:Middlewares/Third_Party/FreeRTOS/Source/CMSIS_RTOS/cmsis_os.c **** osStatus osThreadList (uint8_t *buffer)
1542:Middlewares/Third_Party/FreeRTOS/Source/CMSIS_RTOS/cmsis_os.c **** {
 3130              		.loc 1 1542 1 is_stmt 1 view -0
 3131              		.cfi_startproc
 3132              		@ args = 0, pretend = 0, frame = 0
 3133              		@ frame_needed = 0, uses_anonymous_args = 0
 3134              		@ link register save eliminated.
1543:Middlewares/Third_Party/FreeRTOS/Source/CMSIS_RTOS/cmsis_os.c **** #if ( ( configUSE_TRACE_FACILITY == 1 ) && ( configUSE_STATS_FORMATTING_FUNCTIONS == 1 ) )
1544:Middlewares/Third_Party/FreeRTOS/Source/CMSIS_RTOS/cmsis_os.c ****   vTaskList((char *)buffer);
1545:Middlewares/Third_Party/FreeRTOS/Source/CMSIS_RTOS/cmsis_os.c **** #endif
1546:Middlewares/Third_Party/FreeRTOS/Source/CMSIS_RTOS/cmsis_os.c ****   return osOK;
 3135              		.loc 1 1546 3 view .LVU810
1547:Middlewares/Third_Party/FreeRTOS/Source/CMSIS_RTOS/cmsis_os.c **** }
 3136              		.loc 1 1547 1 is_stmt 0 view .LVU811
 3137 0000 0020     		movs	r0, #0
 3138              	.LVL232:
 3139              		.loc 1 1547 1 view .LVU812
 3140              		@ sp needed
 3141 0002 7047     		bx	lr
 3142              		.cfi_endproc
 3143              	.LFE72:
 3145              		.section	.text.osMessagePeek,"ax",%progbits
 3146              		.align	1
 3147              		.global	osMessagePeek
 3148              		.syntax unified
 3149              		.code	16
 3150              		.thumb_func
 3151              		.fpu softvfp
 3153              	osMessagePeek:
 3154              	.LVL233:
 3155              	.LFB73:
1548:Middlewares/Third_Party/FreeRTOS/Source/CMSIS_RTOS/cmsis_os.c **** 
1549:Middlewares/Third_Party/FreeRTOS/Source/CMSIS_RTOS/cmsis_os.c **** /**
1550:Middlewares/Third_Party/FreeRTOS/Source/CMSIS_RTOS/cmsis_os.c **** * @brief  Receive an item from a queue without removing the item from the queue.
1551:Middlewares/Third_Party/FreeRTOS/Source/CMSIS_RTOS/cmsis_os.c **** * @param  queue_id  message queue ID obtained with \ref osMessageCreate.
1552:Middlewares/Third_Party/FreeRTOS/Source/CMSIS_RTOS/cmsis_os.c **** * @param  millisec  timeout value or 0 in case of no time-out.
1553:Middlewares/Third_Party/FreeRTOS/Source/CMSIS_RTOS/cmsis_os.c **** * @retval event information that includes status code.
1554:Middlewares/Third_Party/FreeRTOS/Source/CMSIS_RTOS/cmsis_os.c **** */
1555:Middlewares/Third_Party/FreeRTOS/Source/CMSIS_RTOS/cmsis_os.c **** osEvent osMessagePeek (osMessageQId queue_id, uint32_t millisec)
1556:Middlewares/Third_Party/FreeRTOS/Source/CMSIS_RTOS/cmsis_os.c **** {
 3156              		.loc 1 1556 1 is_stmt 1 view -0
 3157              		.cfi_startproc
 3158              		@ args = 0, pretend = 0, frame = 16
 3159              		@ frame_needed = 0, uses_anonymous_args = 0
1557:Middlewares/Third_Party/FreeRTOS/Source/CMSIS_RTOS/cmsis_os.c ****   TickType_t ticks;
 3160              		.loc 1 1557 3 view .LVU814
1558:Middlewares/Third_Party/FreeRTOS/Source/CMSIS_RTOS/cmsis_os.c ****   osEvent event;
ARM GAS  /tmp/cc6GYW95.s 			page 92


 3161              		.loc 1 1558 3 view .LVU815
1559:Middlewares/Third_Party/FreeRTOS/Source/CMSIS_RTOS/cmsis_os.c ****   
1560:Middlewares/Third_Party/FreeRTOS/Source/CMSIS_RTOS/cmsis_os.c ****   event.def.message_id = queue_id;
 3162              		.loc 1 1560 3 view .LVU816
1556:Middlewares/Third_Party/FreeRTOS/Source/CMSIS_RTOS/cmsis_os.c ****   TickType_t ticks;
 3163              		.loc 1 1556 1 is_stmt 0 view .LVU817
 3164 0000 7FB5     		push	{r0, r1, r2, r3, r4, r5, r6, lr}
 3165              	.LCFI40:
 3166              		.cfi_def_cfa_offset 32
 3167              		.cfi_offset 0, -32
 3168              		.cfi_offset 1, -28
 3169              		.cfi_offset 2, -24
 3170              		.cfi_offset 3, -20
 3171              		.cfi_offset 4, -16
 3172              		.cfi_offset 5, -12
 3173              		.cfi_offset 6, -8
 3174              		.cfi_offset 14, -4
1556:Middlewares/Third_Party/FreeRTOS/Source/CMSIS_RTOS/cmsis_os.c ****   TickType_t ticks;
 3175              		.loc 1 1556 1 view .LVU818
 3176 0002 0500     		movs	r5, r0
 3177              		.loc 1 1560 24 view .LVU819
 3178 0004 01AC     		add	r4, sp, #4
1556:Middlewares/Third_Party/FreeRTOS/Source/CMSIS_RTOS/cmsis_os.c ****   TickType_t ticks;
 3179              		.loc 1 1556 1 view .LVU820
 3180 0006 0800     		movs	r0, r1
 3181              	.LVL234:
1556:Middlewares/Third_Party/FreeRTOS/Source/CMSIS_RTOS/cmsis_os.c ****   TickType_t ticks;
 3182              		.loc 1 1556 1 view .LVU821
 3183 0008 1600     		movs	r6, r2
 3184              		.loc 1 1560 24 view .LVU822
 3185 000a A160     		str	r1, [r4, #8]
1561:Middlewares/Third_Party/FreeRTOS/Source/CMSIS_RTOS/cmsis_os.c ****   
1562:Middlewares/Third_Party/FreeRTOS/Source/CMSIS_RTOS/cmsis_os.c ****   if (queue_id == NULL) {
 3186              		.loc 1 1562 3 is_stmt 1 view .LVU823
 3187              		.loc 1 1562 6 is_stmt 0 view .LVU824
 3188 000c 0029     		cmp	r1, #0
 3189 000e 07D1     		bne	.L226
1563:Middlewares/Third_Party/FreeRTOS/Source/CMSIS_RTOS/cmsis_os.c ****     event.status = osErrorParameter;
 3190              		.loc 1 1563 5 is_stmt 1 view .LVU825
 3191              		.loc 1 1563 18 is_stmt 0 view .LVU826
 3192 0010 8023     		movs	r3, #128
 3193 0012 0193     		str	r3, [sp, #4]
1564:Middlewares/Third_Party/FreeRTOS/Source/CMSIS_RTOS/cmsis_os.c ****     return event;
 3194              		.loc 1 1564 5 is_stmt 1 view .LVU827
 3195              	.LVL235:
 3196              	.L229:
1565:Middlewares/Third_Party/FreeRTOS/Source/CMSIS_RTOS/cmsis_os.c ****   }
1566:Middlewares/Third_Party/FreeRTOS/Source/CMSIS_RTOS/cmsis_os.c ****   
1567:Middlewares/Third_Party/FreeRTOS/Source/CMSIS_RTOS/cmsis_os.c ****   ticks = 0;
1568:Middlewares/Third_Party/FreeRTOS/Source/CMSIS_RTOS/cmsis_os.c ****   if (millisec == osWaitForever) {
1569:Middlewares/Third_Party/FreeRTOS/Source/CMSIS_RTOS/cmsis_os.c ****     ticks = portMAX_DELAY;
1570:Middlewares/Third_Party/FreeRTOS/Source/CMSIS_RTOS/cmsis_os.c ****   }
1571:Middlewares/Third_Party/FreeRTOS/Source/CMSIS_RTOS/cmsis_os.c ****   else if (millisec != 0) {
1572:Middlewares/Third_Party/FreeRTOS/Source/CMSIS_RTOS/cmsis_os.c ****     ticks = millisec / portTICK_PERIOD_MS;
1573:Middlewares/Third_Party/FreeRTOS/Source/CMSIS_RTOS/cmsis_os.c ****     if (ticks == 0) {
1574:Middlewares/Third_Party/FreeRTOS/Source/CMSIS_RTOS/cmsis_os.c ****       ticks = 1;
1575:Middlewares/Third_Party/FreeRTOS/Source/CMSIS_RTOS/cmsis_os.c ****     }
ARM GAS  /tmp/cc6GYW95.s 			page 93


1576:Middlewares/Third_Party/FreeRTOS/Source/CMSIS_RTOS/cmsis_os.c ****   }
1577:Middlewares/Third_Party/FreeRTOS/Source/CMSIS_RTOS/cmsis_os.c ****   
1578:Middlewares/Third_Party/FreeRTOS/Source/CMSIS_RTOS/cmsis_os.c ****   if (xQueuePeek(queue_id, &event.value.v, ticks) == pdTRUE) 
1579:Middlewares/Third_Party/FreeRTOS/Source/CMSIS_RTOS/cmsis_os.c ****   {
1580:Middlewares/Third_Party/FreeRTOS/Source/CMSIS_RTOS/cmsis_os.c ****     /* We have mail */
1581:Middlewares/Third_Party/FreeRTOS/Source/CMSIS_RTOS/cmsis_os.c ****     event.status = osEventMessage;
1582:Middlewares/Third_Party/FreeRTOS/Source/CMSIS_RTOS/cmsis_os.c ****   }
1583:Middlewares/Third_Party/FreeRTOS/Source/CMSIS_RTOS/cmsis_os.c ****   else 
1584:Middlewares/Third_Party/FreeRTOS/Source/CMSIS_RTOS/cmsis_os.c ****   {
1585:Middlewares/Third_Party/FreeRTOS/Source/CMSIS_RTOS/cmsis_os.c ****     event.status = (ticks == 0) ? osOK : osEventTimeout;
1586:Middlewares/Third_Party/FreeRTOS/Source/CMSIS_RTOS/cmsis_os.c ****   }
1587:Middlewares/Third_Party/FreeRTOS/Source/CMSIS_RTOS/cmsis_os.c ****   
1588:Middlewares/Third_Party/FreeRTOS/Source/CMSIS_RTOS/cmsis_os.c ****   return event;
 3197              		.loc 1 1588 3 view .LVU828
 3198              		.loc 1 1588 10 is_stmt 0 view .LVU829
 3199 0014 2B00     		movs	r3, r5
 3200 0016 07CC     		ldmia	r4!, {r0, r1, r2}
 3201 0018 07C3     		stmia	r3!, {r0, r1, r2}
1589:Middlewares/Third_Party/FreeRTOS/Source/CMSIS_RTOS/cmsis_os.c **** }
 3202              		.loc 1 1589 1 view .LVU830
 3203 001a 2800     		movs	r0, r5
 3204 001c 04B0     		add	sp, sp, #16
 3205              		@ sp needed
 3206              	.LVL236:
 3207              		.loc 1 1589 1 view .LVU831
 3208 001e 70BD     		pop	{r4, r5, r6, pc}
 3209              	.LVL237:
 3210              	.L226:
1567:Middlewares/Third_Party/FreeRTOS/Source/CMSIS_RTOS/cmsis_os.c ****   if (millisec == osWaitForever) {
 3211              		.loc 1 1567 3 is_stmt 1 view .LVU832
1568:Middlewares/Third_Party/FreeRTOS/Source/CMSIS_RTOS/cmsis_os.c ****     ticks = portMAX_DELAY;
 3212              		.loc 1 1568 3 view .LVU833
1578:Middlewares/Third_Party/FreeRTOS/Source/CMSIS_RTOS/cmsis_os.c ****   {
 3213              		.loc 1 1578 3 view .LVU834
1578:Middlewares/Third_Party/FreeRTOS/Source/CMSIS_RTOS/cmsis_os.c ****   {
 3214              		.loc 1 1578 7 is_stmt 0 view .LVU835
 3215 0020 02A9     		add	r1, sp, #8
 3216 0022 FFF7FEFF 		bl	xQueuePeek
 3217              	.LVL238:
1578:Middlewares/Third_Party/FreeRTOS/Source/CMSIS_RTOS/cmsis_os.c ****   {
 3218              		.loc 1 1578 6 view .LVU836
 3219 0026 0128     		cmp	r0, #1
 3220 0028 02D1     		bne	.L228
1581:Middlewares/Third_Party/FreeRTOS/Source/CMSIS_RTOS/cmsis_os.c ****   }
 3221              		.loc 1 1581 5 is_stmt 1 view .LVU837
1581:Middlewares/Third_Party/FreeRTOS/Source/CMSIS_RTOS/cmsis_os.c ****   }
 3222              		.loc 1 1581 18 is_stmt 0 view .LVU838
 3223 002a 1023     		movs	r3, #16
 3224 002c 2360     		str	r3, [r4]
 3225 002e F1E7     		b	.L229
 3226              	.L228:
1585:Middlewares/Third_Party/FreeRTOS/Source/CMSIS_RTOS/cmsis_os.c ****   }
 3227              		.loc 1 1585 5 is_stmt 1 view .LVU839
1585:Middlewares/Third_Party/FreeRTOS/Source/CMSIS_RTOS/cmsis_os.c ****   }
 3228              		.loc 1 1585 40 is_stmt 0 view .LVU840
 3229 0030 002E     		cmp	r6, #0
 3230 0032 00D0     		beq	.L230
ARM GAS  /tmp/cc6GYW95.s 			page 94


 3231 0034 4026     		movs	r6, #64
 3232              	.LVL239:
 3233              	.L230:
1585:Middlewares/Third_Party/FreeRTOS/Source/CMSIS_RTOS/cmsis_os.c ****   }
 3234              		.loc 1 1585 18 discriminator 4 view .LVU841
 3235 0036 0196     		str	r6, [sp, #4]
 3236 0038 ECE7     		b	.L229
 3237              		.cfi_endproc
 3238              	.LFE73:
 3240              		.section	.text.osMessageWaiting,"ax",%progbits
 3241              		.align	1
 3242              		.global	osMessageWaiting
 3243              		.syntax unified
 3244              		.code	16
 3245              		.thumb_func
 3246              		.fpu softvfp
 3248              	osMessageWaiting:
 3249              	.LVL240:
 3250              	.LFB74:
1590:Middlewares/Third_Party/FreeRTOS/Source/CMSIS_RTOS/cmsis_os.c **** 
1591:Middlewares/Third_Party/FreeRTOS/Source/CMSIS_RTOS/cmsis_os.c **** /**
1592:Middlewares/Third_Party/FreeRTOS/Source/CMSIS_RTOS/cmsis_os.c **** * @brief  Get the number of messaged stored in a queue.
1593:Middlewares/Third_Party/FreeRTOS/Source/CMSIS_RTOS/cmsis_os.c **** * @param  queue_id  message queue ID obtained with \ref osMessageCreate.
1594:Middlewares/Third_Party/FreeRTOS/Source/CMSIS_RTOS/cmsis_os.c **** * @retval number of messages stored in a queue.
1595:Middlewares/Third_Party/FreeRTOS/Source/CMSIS_RTOS/cmsis_os.c **** */
1596:Middlewares/Third_Party/FreeRTOS/Source/CMSIS_RTOS/cmsis_os.c **** uint32_t osMessageWaiting(osMessageQId queue_id)
1597:Middlewares/Third_Party/FreeRTOS/Source/CMSIS_RTOS/cmsis_os.c **** {
 3251              		.loc 1 1597 1 is_stmt 1 view -0
 3252              		.cfi_startproc
 3253              		@ args = 0, pretend = 0, frame = 0
 3254              		@ frame_needed = 0, uses_anonymous_args = 0
1598:Middlewares/Third_Party/FreeRTOS/Source/CMSIS_RTOS/cmsis_os.c ****   if (inHandlerMode()) {
 3255              		.loc 1 1598 3 view .LVU843
 3256              	.LBB177:
 3257              	.LBI177:
 130:Middlewares/Third_Party/FreeRTOS/Source/CMSIS_RTOS/cmsis_os.c **** {
 3258              		.loc 1 130 12 view .LVU844
 3259              	.LBE177:
 132:Middlewares/Third_Party/FreeRTOS/Source/CMSIS_RTOS/cmsis_os.c **** }
 3260              		.loc 1 132 3 view .LVU845
 3261              	.LBB182:
 3262              	.LBB178:
 3263              	.LBI178:
 205:Drivers/CMSIS/Include/cmsis_gcc.h **** {
 3264              		.loc 2 205 31 view .LVU846
 3265              	.LBB179:
 207:Drivers/CMSIS/Include/cmsis_gcc.h **** 
 3266              		.loc 2 207 3 view .LVU847
 209:Drivers/CMSIS/Include/cmsis_gcc.h ****   return(result);
 3267              		.loc 2 209 3 view .LVU848
 3268              	.LBE179:
 3269              	.LBE178:
 3270              	.LBE182:
1597:Middlewares/Third_Party/FreeRTOS/Source/CMSIS_RTOS/cmsis_os.c ****   if (inHandlerMode()) {
 3271              		.loc 1 1597 1 is_stmt 0 view .LVU849
 3272 0000 10B5     		push	{r4, lr}
 3273              	.LCFI41:
ARM GAS  /tmp/cc6GYW95.s 			page 95


 3274              		.cfi_def_cfa_offset 8
 3275              		.cfi_offset 4, -8
 3276              		.cfi_offset 14, -4
 3277              	.LBB183:
 3278              	.LBB181:
 3279              	.LBB180:
 209:Drivers/CMSIS/Include/cmsis_gcc.h ****   return(result);
 3280              		.loc 2 209 3 view .LVU850
 3281              		.syntax divided
 3282              	@ 209 "Drivers/CMSIS/Include/cmsis_gcc.h" 1
 3283 0002 EFF30583 		MRS r3, ipsr
 3284              	@ 0 "" 2
 3285              	.LVL241:
 3286              		.loc 2 210 3 is_stmt 1 view .LVU851
 3287              		.loc 2 210 3 is_stmt 0 view .LVU852
 3288              		.thumb
 3289              		.syntax unified
 3290              	.LBE180:
 3291              	.LBE181:
 3292              	.LBE183:
 3293              		.loc 1 1598 6 view .LVU853
 3294 0006 002B     		cmp	r3, #0
 3295 0008 02D0     		beq	.L235
1599:Middlewares/Third_Party/FreeRTOS/Source/CMSIS_RTOS/cmsis_os.c ****     return uxQueueMessagesWaitingFromISR(queue_id);
 3296              		.loc 1 1599 5 is_stmt 1 view .LVU854
 3297              		.loc 1 1599 12 is_stmt 0 view .LVU855
 3298 000a FFF7FEFF 		bl	uxQueueMessagesWaitingFromISR
 3299              	.LVL242:
 3300              	.L234:
1600:Middlewares/Third_Party/FreeRTOS/Source/CMSIS_RTOS/cmsis_os.c ****   }
1601:Middlewares/Third_Party/FreeRTOS/Source/CMSIS_RTOS/cmsis_os.c ****   else
1602:Middlewares/Third_Party/FreeRTOS/Source/CMSIS_RTOS/cmsis_os.c ****   {
1603:Middlewares/Third_Party/FreeRTOS/Source/CMSIS_RTOS/cmsis_os.c ****     return uxQueueMessagesWaiting(queue_id);
1604:Middlewares/Third_Party/FreeRTOS/Source/CMSIS_RTOS/cmsis_os.c ****   }
1605:Middlewares/Third_Party/FreeRTOS/Source/CMSIS_RTOS/cmsis_os.c **** }
 3301              		.loc 1 1605 1 view .LVU856
 3302              		@ sp needed
 3303 000e 10BD     		pop	{r4, pc}
 3304              	.LVL243:
 3305              	.L235:
1603:Middlewares/Third_Party/FreeRTOS/Source/CMSIS_RTOS/cmsis_os.c ****   }
 3306              		.loc 1 1603 5 is_stmt 1 view .LVU857
1603:Middlewares/Third_Party/FreeRTOS/Source/CMSIS_RTOS/cmsis_os.c ****   }
 3307              		.loc 1 1603 12 is_stmt 0 view .LVU858
 3308 0010 FFF7FEFF 		bl	uxQueueMessagesWaiting
 3309              	.LVL244:
1603:Middlewares/Third_Party/FreeRTOS/Source/CMSIS_RTOS/cmsis_os.c ****   }
 3310              		.loc 1 1603 12 view .LVU859
 3311 0014 FBE7     		b	.L234
 3312              		.cfi_endproc
 3313              	.LFE74:
 3315              		.section	.text.osMessageAvailableSpace,"ax",%progbits
 3316              		.align	1
 3317              		.global	osMessageAvailableSpace
 3318              		.syntax unified
 3319              		.code	16
 3320              		.thumb_func
ARM GAS  /tmp/cc6GYW95.s 			page 96


 3321              		.fpu softvfp
 3323              	osMessageAvailableSpace:
 3324              	.LVL245:
 3325              	.LFB75:
1606:Middlewares/Third_Party/FreeRTOS/Source/CMSIS_RTOS/cmsis_os.c **** 
1607:Middlewares/Third_Party/FreeRTOS/Source/CMSIS_RTOS/cmsis_os.c **** /**
1608:Middlewares/Third_Party/FreeRTOS/Source/CMSIS_RTOS/cmsis_os.c **** * @brief  Get the available space in a message queue.
1609:Middlewares/Third_Party/FreeRTOS/Source/CMSIS_RTOS/cmsis_os.c **** * @param  queue_id  message queue ID obtained with \ref osMessageCreate.
1610:Middlewares/Third_Party/FreeRTOS/Source/CMSIS_RTOS/cmsis_os.c **** * @retval available space in a message queue.
1611:Middlewares/Third_Party/FreeRTOS/Source/CMSIS_RTOS/cmsis_os.c **** */
1612:Middlewares/Third_Party/FreeRTOS/Source/CMSIS_RTOS/cmsis_os.c **** uint32_t osMessageAvailableSpace(osMessageQId queue_id)  
1613:Middlewares/Third_Party/FreeRTOS/Source/CMSIS_RTOS/cmsis_os.c **** {
 3326              		.loc 1 1613 1 is_stmt 1 view -0
 3327              		.cfi_startproc
 3328              		@ args = 0, pretend = 0, frame = 0
 3329              		@ frame_needed = 0, uses_anonymous_args = 0
1614:Middlewares/Third_Party/FreeRTOS/Source/CMSIS_RTOS/cmsis_os.c ****   return uxQueueSpacesAvailable(queue_id);
 3330              		.loc 1 1614 3 view .LVU861
1613:Middlewares/Third_Party/FreeRTOS/Source/CMSIS_RTOS/cmsis_os.c ****   return uxQueueSpacesAvailable(queue_id);
 3331              		.loc 1 1613 1 is_stmt 0 view .LVU862
 3332 0000 10B5     		push	{r4, lr}
 3333              	.LCFI42:
 3334              		.cfi_def_cfa_offset 8
 3335              		.cfi_offset 4, -8
 3336              		.cfi_offset 14, -4
 3337              		.loc 1 1614 10 view .LVU863
 3338 0002 FFF7FEFF 		bl	uxQueueSpacesAvailable
 3339              	.LVL246:
1615:Middlewares/Third_Party/FreeRTOS/Source/CMSIS_RTOS/cmsis_os.c **** }
 3340              		.loc 1 1615 1 view .LVU864
 3341              		@ sp needed
 3342 0006 10BD     		pop	{r4, pc}
 3343              		.cfi_endproc
 3344              	.LFE75:
 3346              		.section	.text.osMessageDelete,"ax",%progbits
 3347              		.align	1
 3348              		.global	osMessageDelete
 3349              		.syntax unified
 3350              		.code	16
 3351              		.thumb_func
 3352              		.fpu softvfp
 3354              	osMessageDelete:
 3355              	.LFB88:
 3356              		.cfi_startproc
 3357              		@ args = 0, pretend = 0, frame = 0
 3358              		@ frame_needed = 0, uses_anonymous_args = 0
 3359 0000 10B5     		push	{r4, lr}
 3360              	.LCFI43:
 3361              		.cfi_def_cfa_offset 8
 3362              		.cfi_offset 4, -8
 3363              		.cfi_offset 14, -4
 3364 0002 FFF7FEFF 		bl	osMutexDelete
 3365              		@ sp needed
 3366 0006 10BD     		pop	{r4, pc}
 3367              		.cfi_endproc
 3368              	.LFE88:
 3370              		.section	.text.osRecursiveMutexCreate,"ax",%progbits
ARM GAS  /tmp/cc6GYW95.s 			page 97


 3371              		.align	1
 3372              		.global	osRecursiveMutexCreate
 3373              		.syntax unified
 3374              		.code	16
 3375              		.thumb_func
 3376              		.fpu softvfp
 3378              	osRecursiveMutexCreate:
 3379              	.LVL247:
 3380              	.LFB77:
1616:Middlewares/Third_Party/FreeRTOS/Source/CMSIS_RTOS/cmsis_os.c **** 
1617:Middlewares/Third_Party/FreeRTOS/Source/CMSIS_RTOS/cmsis_os.c **** /**
1618:Middlewares/Third_Party/FreeRTOS/Source/CMSIS_RTOS/cmsis_os.c **** * @brief Delete a Message Queue
1619:Middlewares/Third_Party/FreeRTOS/Source/CMSIS_RTOS/cmsis_os.c **** * @param  queue_id  message queue ID obtained with \ref osMessageCreate.
1620:Middlewares/Third_Party/FreeRTOS/Source/CMSIS_RTOS/cmsis_os.c **** * @retval  status code that indicates the execution status of the function.
1621:Middlewares/Third_Party/FreeRTOS/Source/CMSIS_RTOS/cmsis_os.c **** */
1622:Middlewares/Third_Party/FreeRTOS/Source/CMSIS_RTOS/cmsis_os.c **** osStatus osMessageDelete (osMessageQId queue_id)
1623:Middlewares/Third_Party/FreeRTOS/Source/CMSIS_RTOS/cmsis_os.c **** {
1624:Middlewares/Third_Party/FreeRTOS/Source/CMSIS_RTOS/cmsis_os.c ****   if (inHandlerMode()) {
1625:Middlewares/Third_Party/FreeRTOS/Source/CMSIS_RTOS/cmsis_os.c ****     return osErrorISR;
1626:Middlewares/Third_Party/FreeRTOS/Source/CMSIS_RTOS/cmsis_os.c ****   }
1627:Middlewares/Third_Party/FreeRTOS/Source/CMSIS_RTOS/cmsis_os.c **** 
1628:Middlewares/Third_Party/FreeRTOS/Source/CMSIS_RTOS/cmsis_os.c ****   vQueueDelete(queue_id);
1629:Middlewares/Third_Party/FreeRTOS/Source/CMSIS_RTOS/cmsis_os.c **** 
1630:Middlewares/Third_Party/FreeRTOS/Source/CMSIS_RTOS/cmsis_os.c ****   return osOK; 
1631:Middlewares/Third_Party/FreeRTOS/Source/CMSIS_RTOS/cmsis_os.c **** }
1632:Middlewares/Third_Party/FreeRTOS/Source/CMSIS_RTOS/cmsis_os.c **** 
1633:Middlewares/Third_Party/FreeRTOS/Source/CMSIS_RTOS/cmsis_os.c **** /**
1634:Middlewares/Third_Party/FreeRTOS/Source/CMSIS_RTOS/cmsis_os.c **** * @brief  Create and Initialize a Recursive Mutex
1635:Middlewares/Third_Party/FreeRTOS/Source/CMSIS_RTOS/cmsis_os.c **** * @param  mutex_def     mutex definition referenced with \ref osMutex.
1636:Middlewares/Third_Party/FreeRTOS/Source/CMSIS_RTOS/cmsis_os.c **** * @retval  mutex ID for reference by other functions or NULL in case of error..
1637:Middlewares/Third_Party/FreeRTOS/Source/CMSIS_RTOS/cmsis_os.c **** */
1638:Middlewares/Third_Party/FreeRTOS/Source/CMSIS_RTOS/cmsis_os.c **** osMutexId osRecursiveMutexCreate (const osMutexDef_t *mutex_def)
1639:Middlewares/Third_Party/FreeRTOS/Source/CMSIS_RTOS/cmsis_os.c **** {
 3381              		.loc 1 1639 1 is_stmt 1 view -0
 3382              		.cfi_startproc
 3383              		@ args = 0, pretend = 0, frame = 0
 3384              		@ frame_needed = 0, uses_anonymous_args = 0
 3385              		@ link register save eliminated.
1640:Middlewares/Third_Party/FreeRTOS/Source/CMSIS_RTOS/cmsis_os.c **** #if (configUSE_RECURSIVE_MUTEXES == 1)
1641:Middlewares/Third_Party/FreeRTOS/Source/CMSIS_RTOS/cmsis_os.c **** #if( configSUPPORT_STATIC_ALLOCATION == 1 ) && ( configSUPPORT_DYNAMIC_ALLOCATION == 1 )
1642:Middlewares/Third_Party/FreeRTOS/Source/CMSIS_RTOS/cmsis_os.c **** 
1643:Middlewares/Third_Party/FreeRTOS/Source/CMSIS_RTOS/cmsis_os.c ****   if (mutex_def->controlblock != NULL){
1644:Middlewares/Third_Party/FreeRTOS/Source/CMSIS_RTOS/cmsis_os.c ****     return xSemaphoreCreateRecursiveMutexStatic( mutex_def->controlblock );
1645:Middlewares/Third_Party/FreeRTOS/Source/CMSIS_RTOS/cmsis_os.c ****   }
1646:Middlewares/Third_Party/FreeRTOS/Source/CMSIS_RTOS/cmsis_os.c ****   else {
1647:Middlewares/Third_Party/FreeRTOS/Source/CMSIS_RTOS/cmsis_os.c ****     return xSemaphoreCreateRecursiveMutex();
1648:Middlewares/Third_Party/FreeRTOS/Source/CMSIS_RTOS/cmsis_os.c ****   }
1649:Middlewares/Third_Party/FreeRTOS/Source/CMSIS_RTOS/cmsis_os.c **** #elif ( configSUPPORT_STATIC_ALLOCATION == 1 )
1650:Middlewares/Third_Party/FreeRTOS/Source/CMSIS_RTOS/cmsis_os.c ****   return xSemaphoreCreateRecursiveMutexStatic( mutex_def->controlblock );
1651:Middlewares/Third_Party/FreeRTOS/Source/CMSIS_RTOS/cmsis_os.c **** #else 
1652:Middlewares/Third_Party/FreeRTOS/Source/CMSIS_RTOS/cmsis_os.c ****   return xSemaphoreCreateRecursiveMutex();
1653:Middlewares/Third_Party/FreeRTOS/Source/CMSIS_RTOS/cmsis_os.c **** #endif
1654:Middlewares/Third_Party/FreeRTOS/Source/CMSIS_RTOS/cmsis_os.c **** #else
1655:Middlewares/Third_Party/FreeRTOS/Source/CMSIS_RTOS/cmsis_os.c ****   return NULL;
 3386              		.loc 1 1655 3 view .LVU866
1656:Middlewares/Third_Party/FreeRTOS/Source/CMSIS_RTOS/cmsis_os.c **** #endif	
1657:Middlewares/Third_Party/FreeRTOS/Source/CMSIS_RTOS/cmsis_os.c **** }
ARM GAS  /tmp/cc6GYW95.s 			page 98


 3387              		.loc 1 1657 1 is_stmt 0 view .LVU867
 3388 0000 0020     		movs	r0, #0
 3389              	.LVL248:
 3390              		.loc 1 1657 1 view .LVU868
 3391              		@ sp needed
 3392 0002 7047     		bx	lr
 3393              		.cfi_endproc
 3394              	.LFE77:
 3396              		.section	.text.osRecursiveMutexRelease,"ax",%progbits
 3397              		.align	1
 3398              		.global	osRecursiveMutexRelease
 3399              		.syntax unified
 3400              		.code	16
 3401              		.thumb_func
 3402              		.fpu softvfp
 3404              	osRecursiveMutexRelease:
 3405              	.LFB92:
 3406              		.cfi_startproc
 3407              		@ args = 0, pretend = 0, frame = 0
 3408              		@ frame_needed = 0, uses_anonymous_args = 0
 3409              		@ link register save eliminated.
 3410 0000 8120     		movs	r0, #129
 3411              		@ sp needed
 3412 0002 7047     		bx	lr
 3413              		.cfi_endproc
 3414              	.LFE92:
 3416              		.section	.text.osRecursiveMutexWait,"ax",%progbits
 3417              		.align	1
 3418              		.global	osRecursiveMutexWait
 3419              		.syntax unified
 3420              		.code	16
 3421              		.thumb_func
 3422              		.fpu softvfp
 3424              	osRecursiveMutexWait:
 3425              	.LFB90:
 3426              		.cfi_startproc
 3427              		@ args = 0, pretend = 0, frame = 0
 3428              		@ frame_needed = 0, uses_anonymous_args = 0
 3429              		@ link register save eliminated.
 3430 0000 8120     		movs	r0, #129
 3431              		@ sp needed
 3432 0002 7047     		bx	lr
 3433              		.cfi_endproc
 3434              	.LFE90:
 3436              		.section	.text.osSemaphoreGetCount,"ax",%progbits
 3437              		.align	1
 3438              		.global	osSemaphoreGetCount
 3439              		.syntax unified
 3440              		.code	16
 3441              		.thumb_func
 3442              		.fpu softvfp
 3444              	osSemaphoreGetCount:
 3445              	.LVL249:
 3446              	.LFB80:
1658:Middlewares/Third_Party/FreeRTOS/Source/CMSIS_RTOS/cmsis_os.c **** 
1659:Middlewares/Third_Party/FreeRTOS/Source/CMSIS_RTOS/cmsis_os.c **** /**
1660:Middlewares/Third_Party/FreeRTOS/Source/CMSIS_RTOS/cmsis_os.c **** * @brief  Release a Recursive Mutex
ARM GAS  /tmp/cc6GYW95.s 			page 99


1661:Middlewares/Third_Party/FreeRTOS/Source/CMSIS_RTOS/cmsis_os.c **** * @param   mutex_id      mutex ID obtained by \ref osRecursiveMutexCreate.
1662:Middlewares/Third_Party/FreeRTOS/Source/CMSIS_RTOS/cmsis_os.c **** * @retval  status code that indicates the execution status of the function.
1663:Middlewares/Third_Party/FreeRTOS/Source/CMSIS_RTOS/cmsis_os.c **** */
1664:Middlewares/Third_Party/FreeRTOS/Source/CMSIS_RTOS/cmsis_os.c **** osStatus osRecursiveMutexRelease (osMutexId mutex_id)
1665:Middlewares/Third_Party/FreeRTOS/Source/CMSIS_RTOS/cmsis_os.c **** {
1666:Middlewares/Third_Party/FreeRTOS/Source/CMSIS_RTOS/cmsis_os.c **** #if (configUSE_RECURSIVE_MUTEXES == 1)
1667:Middlewares/Third_Party/FreeRTOS/Source/CMSIS_RTOS/cmsis_os.c ****   osStatus result = osOK;
1668:Middlewares/Third_Party/FreeRTOS/Source/CMSIS_RTOS/cmsis_os.c ****  
1669:Middlewares/Third_Party/FreeRTOS/Source/CMSIS_RTOS/cmsis_os.c ****   if (xSemaphoreGiveRecursive(mutex_id) != pdTRUE) 
1670:Middlewares/Third_Party/FreeRTOS/Source/CMSIS_RTOS/cmsis_os.c ****   {
1671:Middlewares/Third_Party/FreeRTOS/Source/CMSIS_RTOS/cmsis_os.c ****     result = osErrorOS;
1672:Middlewares/Third_Party/FreeRTOS/Source/CMSIS_RTOS/cmsis_os.c ****   }
1673:Middlewares/Third_Party/FreeRTOS/Source/CMSIS_RTOS/cmsis_os.c ****   return result;
1674:Middlewares/Third_Party/FreeRTOS/Source/CMSIS_RTOS/cmsis_os.c **** #else
1675:Middlewares/Third_Party/FreeRTOS/Source/CMSIS_RTOS/cmsis_os.c **** 	return osErrorResource;
1676:Middlewares/Third_Party/FreeRTOS/Source/CMSIS_RTOS/cmsis_os.c **** #endif
1677:Middlewares/Third_Party/FreeRTOS/Source/CMSIS_RTOS/cmsis_os.c **** }
1678:Middlewares/Third_Party/FreeRTOS/Source/CMSIS_RTOS/cmsis_os.c **** 
1679:Middlewares/Third_Party/FreeRTOS/Source/CMSIS_RTOS/cmsis_os.c **** /**
1680:Middlewares/Third_Party/FreeRTOS/Source/CMSIS_RTOS/cmsis_os.c **** * @brief  Release a Recursive Mutex
1681:Middlewares/Third_Party/FreeRTOS/Source/CMSIS_RTOS/cmsis_os.c **** * @param   mutex_id    mutex ID obtained by \ref osRecursiveMutexCreate.
1682:Middlewares/Third_Party/FreeRTOS/Source/CMSIS_RTOS/cmsis_os.c **** * @param millisec      timeout value or 0 in case of no time-out.
1683:Middlewares/Third_Party/FreeRTOS/Source/CMSIS_RTOS/cmsis_os.c **** * @retval  status code that indicates the execution status of the function.
1684:Middlewares/Third_Party/FreeRTOS/Source/CMSIS_RTOS/cmsis_os.c **** */
1685:Middlewares/Third_Party/FreeRTOS/Source/CMSIS_RTOS/cmsis_os.c **** osStatus osRecursiveMutexWait (osMutexId mutex_id, uint32_t millisec)
1686:Middlewares/Third_Party/FreeRTOS/Source/CMSIS_RTOS/cmsis_os.c **** {
1687:Middlewares/Third_Party/FreeRTOS/Source/CMSIS_RTOS/cmsis_os.c **** #if (configUSE_RECURSIVE_MUTEXES == 1)
1688:Middlewares/Third_Party/FreeRTOS/Source/CMSIS_RTOS/cmsis_os.c ****   TickType_t ticks;
1689:Middlewares/Third_Party/FreeRTOS/Source/CMSIS_RTOS/cmsis_os.c ****   
1690:Middlewares/Third_Party/FreeRTOS/Source/CMSIS_RTOS/cmsis_os.c ****   if (mutex_id == NULL)
1691:Middlewares/Third_Party/FreeRTOS/Source/CMSIS_RTOS/cmsis_os.c ****   {
1692:Middlewares/Third_Party/FreeRTOS/Source/CMSIS_RTOS/cmsis_os.c ****     return osErrorParameter;
1693:Middlewares/Third_Party/FreeRTOS/Source/CMSIS_RTOS/cmsis_os.c ****   }
1694:Middlewares/Third_Party/FreeRTOS/Source/CMSIS_RTOS/cmsis_os.c ****   
1695:Middlewares/Third_Party/FreeRTOS/Source/CMSIS_RTOS/cmsis_os.c ****   ticks = 0;
1696:Middlewares/Third_Party/FreeRTOS/Source/CMSIS_RTOS/cmsis_os.c ****   if (millisec == osWaitForever) 
1697:Middlewares/Third_Party/FreeRTOS/Source/CMSIS_RTOS/cmsis_os.c ****   {
1698:Middlewares/Third_Party/FreeRTOS/Source/CMSIS_RTOS/cmsis_os.c ****     ticks = portMAX_DELAY;
1699:Middlewares/Third_Party/FreeRTOS/Source/CMSIS_RTOS/cmsis_os.c ****   }
1700:Middlewares/Third_Party/FreeRTOS/Source/CMSIS_RTOS/cmsis_os.c ****   else if (millisec != 0) 
1701:Middlewares/Third_Party/FreeRTOS/Source/CMSIS_RTOS/cmsis_os.c ****   {
1702:Middlewares/Third_Party/FreeRTOS/Source/CMSIS_RTOS/cmsis_os.c ****     ticks = millisec / portTICK_PERIOD_MS;
1703:Middlewares/Third_Party/FreeRTOS/Source/CMSIS_RTOS/cmsis_os.c ****     if (ticks == 0) 
1704:Middlewares/Third_Party/FreeRTOS/Source/CMSIS_RTOS/cmsis_os.c ****     {
1705:Middlewares/Third_Party/FreeRTOS/Source/CMSIS_RTOS/cmsis_os.c ****       ticks = 1;
1706:Middlewares/Third_Party/FreeRTOS/Source/CMSIS_RTOS/cmsis_os.c ****     }
1707:Middlewares/Third_Party/FreeRTOS/Source/CMSIS_RTOS/cmsis_os.c ****   }
1708:Middlewares/Third_Party/FreeRTOS/Source/CMSIS_RTOS/cmsis_os.c ****   
1709:Middlewares/Third_Party/FreeRTOS/Source/CMSIS_RTOS/cmsis_os.c ****   if (xSemaphoreTakeRecursive(mutex_id, ticks) != pdTRUE) 
1710:Middlewares/Third_Party/FreeRTOS/Source/CMSIS_RTOS/cmsis_os.c ****   {
1711:Middlewares/Third_Party/FreeRTOS/Source/CMSIS_RTOS/cmsis_os.c ****     return osErrorOS;
1712:Middlewares/Third_Party/FreeRTOS/Source/CMSIS_RTOS/cmsis_os.c ****   }
1713:Middlewares/Third_Party/FreeRTOS/Source/CMSIS_RTOS/cmsis_os.c ****   return osOK;
1714:Middlewares/Third_Party/FreeRTOS/Source/CMSIS_RTOS/cmsis_os.c **** #else
1715:Middlewares/Third_Party/FreeRTOS/Source/CMSIS_RTOS/cmsis_os.c **** 	return osErrorResource;
1716:Middlewares/Third_Party/FreeRTOS/Source/CMSIS_RTOS/cmsis_os.c **** #endif
1717:Middlewares/Third_Party/FreeRTOS/Source/CMSIS_RTOS/cmsis_os.c **** }
ARM GAS  /tmp/cc6GYW95.s 			page 100


1718:Middlewares/Third_Party/FreeRTOS/Source/CMSIS_RTOS/cmsis_os.c **** 
1719:Middlewares/Third_Party/FreeRTOS/Source/CMSIS_RTOS/cmsis_os.c **** /**
1720:Middlewares/Third_Party/FreeRTOS/Source/CMSIS_RTOS/cmsis_os.c **** * @brief  Returns the current count value of a counting semaphore
1721:Middlewares/Third_Party/FreeRTOS/Source/CMSIS_RTOS/cmsis_os.c **** * @param  semaphore_id  semaphore_id ID obtained by \ref osSemaphoreCreate.
1722:Middlewares/Third_Party/FreeRTOS/Source/CMSIS_RTOS/cmsis_os.c **** * @retval  count value
1723:Middlewares/Third_Party/FreeRTOS/Source/CMSIS_RTOS/cmsis_os.c **** */
1724:Middlewares/Third_Party/FreeRTOS/Source/CMSIS_RTOS/cmsis_os.c **** uint32_t osSemaphoreGetCount(osSemaphoreId semaphore_id)
1725:Middlewares/Third_Party/FreeRTOS/Source/CMSIS_RTOS/cmsis_os.c **** {
 3447              		.loc 1 1725 1 is_stmt 1 view -0
 3448              		.cfi_startproc
 3449              		@ args = 0, pretend = 0, frame = 0
 3450              		@ frame_needed = 0, uses_anonymous_args = 0
1726:Middlewares/Third_Party/FreeRTOS/Source/CMSIS_RTOS/cmsis_os.c ****   return uxSemaphoreGetCount(semaphore_id);
 3451              		.loc 1 1726 3 view .LVU870
1725:Middlewares/Third_Party/FreeRTOS/Source/CMSIS_RTOS/cmsis_os.c ****   return uxSemaphoreGetCount(semaphore_id);
 3452              		.loc 1 1725 1 is_stmt 0 view .LVU871
 3453 0000 10B5     		push	{r4, lr}
 3454              	.LCFI44:
 3455              		.cfi_def_cfa_offset 8
 3456              		.cfi_offset 4, -8
 3457              		.cfi_offset 14, -4
 3458              		.loc 1 1726 10 view .LVU872
 3459 0002 FFF7FEFF 		bl	uxQueueMessagesWaiting
 3460              	.LVL250:
1727:Middlewares/Third_Party/FreeRTOS/Source/CMSIS_RTOS/cmsis_os.c **** }
 3461              		.loc 1 1727 1 view .LVU873
 3462              		@ sp needed
 3463 0006 10BD     		pop	{r4, pc}
 3464              		.cfi_endproc
 3465              	.LFE80:
 3467              		.text
 3468              	.Letext0:
 3469              		.file 3 "/usr/lib/gcc/arm-none-eabi/9.2.1/include/stddef.h"
 3470              		.file 4 "/usr/include/newlib/sys/_types.h"
 3471              		.file 5 "/usr/include/newlib/sys/reent.h"
 3472              		.file 6 "/usr/include/newlib/sys/lock.h"
 3473              		.file 7 "/usr/lib/gcc/arm-none-eabi/9.2.1/include/stdint.h"
 3474              		.file 8 "Inc/FreeRTOSConfig.h"
 3475              		.file 9 "Middlewares/Third_Party/FreeRTOS/Source/include/projdefs.h"
 3476              		.file 10 "Middlewares/Third_Party/FreeRTOS/Source/portable/GCC/ARM_CM0/portmacro.h"
 3477              		.file 11 "Middlewares/Third_Party/FreeRTOS/Source/include/task.h"
 3478              		.file 12 "Middlewares/Third_Party/FreeRTOS/Source/include/timers.h"
 3479              		.file 13 "Middlewares/Third_Party/FreeRTOS/Source/include/queue.h"
 3480              		.file 14 "Middlewares/Third_Party/FreeRTOS/Source/include/semphr.h"
 3481              		.file 15 "Middlewares/Third_Party/FreeRTOS/Source/CMSIS_RTOS/cmsis_os.h"
 3482              		.file 16 "Middlewares/Third_Party/FreeRTOS/Source/include/portable.h"
 3483              		.file 17 "<built-in>"
ARM GAS  /tmp/cc6GYW95.s 			page 101


DEFINED SYMBOLS
                            *ABS*:0000000000000000 cmsis_os.c
     /tmp/cc6GYW95.s:16     .text.osKernelStart:0000000000000000 $t
     /tmp/cc6GYW95.s:24     .text.osKernelStart:0000000000000000 osKernelStart
     /tmp/cc6GYW95.s:50     .text.osKernelRunning:0000000000000000 $t
     /tmp/cc6GYW95.s:57     .text.osKernelRunning:0000000000000000 osKernelRunning
     /tmp/cc6GYW95.s:84     .text.osKernelSysTick:0000000000000000 $t
     /tmp/cc6GYW95.s:91     .text.osKernelSysTick:0000000000000000 osKernelSysTick
     /tmp/cc6GYW95.s:157    .text.osThreadCreate:0000000000000000 $t
     /tmp/cc6GYW95.s:164    .text.osThreadCreate:0000000000000000 osThreadCreate
     /tmp/cc6GYW95.s:252    .text.osThreadGetId:0000000000000000 $t
     /tmp/cc6GYW95.s:259    .text.osThreadGetId:0000000000000000 osThreadGetId
     /tmp/cc6GYW95.s:282    .text.osThreadTerminate:0000000000000000 $t
     /tmp/cc6GYW95.s:289    .text.osThreadTerminate:0000000000000000 osThreadTerminate
     /tmp/cc6GYW95.s:315    .text.osThreadYield:0000000000000000 $t
     /tmp/cc6GYW95.s:322    .text.osThreadYield:0000000000000000 osThreadYield
     /tmp/cc6GYW95.s:347    .text.osThreadSetPriority:0000000000000000 $t
     /tmp/cc6GYW95.s:354    .text.osThreadSetPriority:0000000000000000 osThreadSetPriority
     /tmp/cc6GYW95.s:408    .text.osThreadGetPriority:0000000000000000 $t
     /tmp/cc6GYW95.s:415    .text.osThreadGetPriority:0000000000000000 osThreadGetPriority
     /tmp/cc6GYW95.s:517    .text.osDelay:0000000000000000 $t
     /tmp/cc6GYW95.s:524    .text.osDelay:0000000000000000 osDelay
     /tmp/cc6GYW95.s:557    .text.osTimerCreate:0000000000000000 $t
     /tmp/cc6GYW95.s:564    .text.osTimerCreate:0000000000000000 osTimerCreate
     /tmp/cc6GYW95.s:583    .text.osTimerStart:0000000000000000 $t
     /tmp/cc6GYW95.s:590    .text.osTimerStart:0000000000000000 osTimerStart
     /tmp/cc6GYW95.s:611    .text.osTimerStop:0000000000000000 $t
     /tmp/cc6GYW95.s:618    .text.osTimerStop:0000000000000000 osTimerStop
     /tmp/cc6GYW95.s:639    .text.osTimerDelete:0000000000000000 $t
     /tmp/cc6GYW95.s:646    .text.osTimerDelete:0000000000000000 osTimerDelete
     /tmp/cc6GYW95.s:659    .text.osSignalSet:0000000000000000 $t
     /tmp/cc6GYW95.s:666    .text.osSignalSet:0000000000000000 osSignalSet
     /tmp/cc6GYW95.s:768    .text.osSignalSet:0000000000000048 $d
     /tmp/cc6GYW95.s:773    .text.osSignalWait:0000000000000000 $t
     /tmp/cc6GYW95.s:780    .text.osSignalWait:0000000000000000 osSignalWait
     /tmp/cc6GYW95.s:908    .text.osMutexCreate:0000000000000000 $t
     /tmp/cc6GYW95.s:915    .text.osMutexCreate:0000000000000000 osMutexCreate
     /tmp/cc6GYW95.s:942    .text.osMutexWait:0000000000000000 $t
     /tmp/cc6GYW95.s:949    .text.osMutexWait:0000000000000000 osMutexWait
     /tmp/cc6GYW95.s:1056   .text.osMutexWait:0000000000000044 $d
     /tmp/cc6GYW95.s:1061   .text.osMutexRelease:0000000000000000 $t
     /tmp/cc6GYW95.s:1068   .text.osMutexRelease:0000000000000000 osMutexRelease
     /tmp/cc6GYW95.s:1166   .text.osMutexRelease:000000000000003c $d
     /tmp/cc6GYW95.s:1171   .text.osMutexDelete:0000000000000000 $t
     /tmp/cc6GYW95.s:1178   .text.osMutexDelete:0000000000000000 osMutexDelete
     /tmp/cc6GYW95.s:1244   .text.osSemaphoreCreate:0000000000000000 $t
     /tmp/cc6GYW95.s:1251   .text.osSemaphoreCreate:0000000000000000 osSemaphoreCreate
     /tmp/cc6GYW95.s:1301   .text.osSemaphoreWait:0000000000000000 $t
     /tmp/cc6GYW95.s:1308   .text.osSemaphoreWait:0000000000000000 osSemaphoreWait
     /tmp/cc6GYW95.s:1415   .text.osSemaphoreWait:0000000000000044 $d
     /tmp/cc6GYW95.s:1420   .text.osSemaphoreRelease:0000000000000000 $t
     /tmp/cc6GYW95.s:1427   .text.osSemaphoreRelease:0000000000000000 osSemaphoreRelease
     /tmp/cc6GYW95.s:1444   .text.osSemaphoreDelete:0000000000000000 $t
     /tmp/cc6GYW95.s:1451   .text.osSemaphoreDelete:0000000000000000 osSemaphoreDelete
     /tmp/cc6GYW95.s:1468   .text.osPoolCreate:0000000000000000 $t
     /tmp/cc6GYW95.s:1475   .text.osPoolCreate:0000000000000000 osPoolCreate
     /tmp/cc6GYW95.s:1617   .text.osPoolAlloc:0000000000000000 $t
ARM GAS  /tmp/cc6GYW95.s 			page 102


     /tmp/cc6GYW95.s:1624   .text.osPoolAlloc:0000000000000000 osPoolAlloc
     /tmp/cc6GYW95.s:1814   .text.osPoolCAlloc:0000000000000000 $t
     /tmp/cc6GYW95.s:1821   .text.osPoolCAlloc:0000000000000000 osPoolCAlloc
     /tmp/cc6GYW95.s:1861   .text.osPoolFree:0000000000000000 $t
     /tmp/cc6GYW95.s:1868   .text.osPoolFree:0000000000000000 osPoolFree
     /tmp/cc6GYW95.s:1946   .text.osMessageCreate:0000000000000000 $t
     /tmp/cc6GYW95.s:1953   .text.osMessageCreate:0000000000000000 osMessageCreate
     /tmp/cc6GYW95.s:1982   .text.osMessagePut:0000000000000000 $t
     /tmp/cc6GYW95.s:1989   .text.osMessagePut:0000000000000000 osMessagePut
     /tmp/cc6GYW95.s:2105   .text.osMessagePut:000000000000004c $d
     /tmp/cc6GYW95.s:2110   .text.osMessageGet:0000000000000000 $t
     /tmp/cc6GYW95.s:2117   .text.osMessageGet:0000000000000000 osMessageGet
     /tmp/cc6GYW95.s:2268   .text.osMessageGet:000000000000006c $d
     /tmp/cc6GYW95.s:2273   .text.osMailCreate:0000000000000000 $t
     /tmp/cc6GYW95.s:2280   .text.osMailCreate:0000000000000000 osMailCreate
     /tmp/cc6GYW95.s:2397   .text.osMailAlloc:0000000000000000 $t
     /tmp/cc6GYW95.s:2404   .text.osMailAlloc:0000000000000000 osMailAlloc
     /tmp/cc6GYW95.s:2439   .text.osMailCAlloc:0000000000000000 $t
     /tmp/cc6GYW95.s:2446   .text.osMailCAlloc:0000000000000000 osMailCAlloc
     /tmp/cc6GYW95.s:2502   .text.osMailPut:0000000000000000 $t
     /tmp/cc6GYW95.s:2509   .text.osMailPut:0000000000000000 osMailPut
     /tmp/cc6GYW95.s:2624   .text.osMailPut:0000000000000050 $d
     /tmp/cc6GYW95.s:2629   .text.osMailGet:0000000000000000 $t
     /tmp/cc6GYW95.s:2636   .text.osMailGet:0000000000000000 osMailGet
     /tmp/cc6GYW95.s:2789   .text.osMailGet:0000000000000068 $d
     /tmp/cc6GYW95.s:2794   .text.osMailFree:0000000000000000 $t
     /tmp/cc6GYW95.s:2801   .text.osMailFree:0000000000000000 osMailFree
     /tmp/cc6GYW95.s:2835   .text.osSystickHandler:0000000000000000 $t
     /tmp/cc6GYW95.s:2842   .text.osSystickHandler:0000000000000000 osSystickHandler
     /tmp/cc6GYW95.s:2872   .text.osThreadSuspend:0000000000000000 $t
     /tmp/cc6GYW95.s:2879   .text.osThreadSuspend:0000000000000000 osThreadSuspend
     /tmp/cc6GYW95.s:2905   .text.osThreadResume:0000000000000000 $t
     /tmp/cc6GYW95.s:2912   .text.osThreadResume:0000000000000000 osThreadResume
     /tmp/cc6GYW95.s:2989   .text.osThreadResume:0000000000000024 $d
     /tmp/cc6GYW95.s:2994   .text.osThreadSuspendAll:0000000000000000 $t
     /tmp/cc6GYW95.s:3001   .text.osThreadSuspendAll:0000000000000000 osThreadSuspendAll
     /tmp/cc6GYW95.s:3026   .text.osThreadResumeAll:0000000000000000 $t
     /tmp/cc6GYW95.s:3033   .text.osThreadResumeAll:0000000000000000 osThreadResumeAll
     /tmp/cc6GYW95.s:3065   .text.osDelayUntil:0000000000000000 $t
     /tmp/cc6GYW95.s:3072   .text.osDelayUntil:0000000000000000 osDelayUntil
     /tmp/cc6GYW95.s:3093   .text.osAbortDelay:0000000000000000 $t
     /tmp/cc6GYW95.s:3100   .text.osAbortDelay:0000000000000000 osAbortDelay
     /tmp/cc6GYW95.s:3120   .text.osThreadList:0000000000000000 $t
     /tmp/cc6GYW95.s:3127   .text.osThreadList:0000000000000000 osThreadList
     /tmp/cc6GYW95.s:3146   .text.osMessagePeek:0000000000000000 $t
     /tmp/cc6GYW95.s:3153   .text.osMessagePeek:0000000000000000 osMessagePeek
     /tmp/cc6GYW95.s:3241   .text.osMessageWaiting:0000000000000000 $t
     /tmp/cc6GYW95.s:3248   .text.osMessageWaiting:0000000000000000 osMessageWaiting
     /tmp/cc6GYW95.s:3316   .text.osMessageAvailableSpace:0000000000000000 $t
     /tmp/cc6GYW95.s:3323   .text.osMessageAvailableSpace:0000000000000000 osMessageAvailableSpace
     /tmp/cc6GYW95.s:3347   .text.osMessageDelete:0000000000000000 $t
     /tmp/cc6GYW95.s:3354   .text.osMessageDelete:0000000000000000 osMessageDelete
     /tmp/cc6GYW95.s:3371   .text.osRecursiveMutexCreate:0000000000000000 $t
     /tmp/cc6GYW95.s:3378   .text.osRecursiveMutexCreate:0000000000000000 osRecursiveMutexCreate
     /tmp/cc6GYW95.s:3397   .text.osRecursiveMutexRelease:0000000000000000 $t
     /tmp/cc6GYW95.s:3404   .text.osRecursiveMutexRelease:0000000000000000 osRecursiveMutexRelease
     /tmp/cc6GYW95.s:3417   .text.osRecursiveMutexWait:0000000000000000 $t
ARM GAS  /tmp/cc6GYW95.s 			page 103


     /tmp/cc6GYW95.s:3424   .text.osRecursiveMutexWait:0000000000000000 osRecursiveMutexWait
     /tmp/cc6GYW95.s:3437   .text.osSemaphoreGetCount:0000000000000000 $t
     /tmp/cc6GYW95.s:3444   .text.osSemaphoreGetCount:0000000000000000 osSemaphoreGetCount

UNDEFINED SYMBOLS
vTaskStartScheduler
xTaskGetSchedulerState
xTaskGetTickCountFromISR
xTaskGetTickCount
xTaskCreate
xTaskGetCurrentTaskHandle
vTaskDelete
vPortYield
vTaskPrioritySet
uxTaskPriorityGetFromISR
uxTaskPriorityGet
vTaskDelay
xTaskGenericNotifyFromISR
xTaskGenericNotify
xTaskNotifyWait
xQueueCreateMutex
xQueueReceiveFromISR
xQueueSemaphoreTake
xQueueGiveFromISR
xQueueGenericSend
vQueueDelete
xQueueGenericCreate
pvPortMalloc
vPortFree
__aeabi_uidivmod
ulSetInterruptMaskFromISR
vPortEnterCritical
vClearInterruptMaskFromISR
vPortExitCritical
memset
xQueueGenericSendFromISR
xQueueReceive
xPortSysTickHandler
vTaskSuspend
xTaskResumeFromISR
vTaskResume
vTaskSuspendAll
xTaskResumeAll
xQueuePeek
uxQueueMessagesWaitingFromISR
uxQueueMessagesWaiting
uxQueueSpacesAvailable
