ARM GAS  /tmp/ccbutQBb.s 			page 1


   1              		.cpu cortex-m0plus
   2              		.eabi_attribute 20, 1
   3              		.eabi_attribute 21, 1
   4              		.eabi_attribute 23, 3
   5              		.eabi_attribute 24, 1
   6              		.eabi_attribute 25, 1
   7              		.eabi_attribute 26, 1
   8              		.eabi_attribute 30, 4
   9              		.eabi_attribute 34, 0
  10              		.eabi_attribute 18, 4
  11              		.file	"stm32g0xx_hal_dma.c"
  12              		.text
  13              	.Ltext0:
  14              		.cfi_sections	.debug_frame
  15              		.section	.text.DMA_SetConfig,"ax",%progbits
  16              		.align	1
  17              		.arch armv6s-m
  18              		.syntax unified
  19              		.code	16
  20              		.thumb_func
  21              		.fpu softvfp
  23              	DMA_SetConfig:
  24              	.LVL0:
  25              	.LFB313:
  26              		.file 1 "Drivers/STM32G0xx_HAL_Driver/Src/stm32g0xx_hal_dma.c"
   1:Drivers/STM32G0xx_HAL_Driver/Src/stm32g0xx_hal_dma.c **** /**
   2:Drivers/STM32G0xx_HAL_Driver/Src/stm32g0xx_hal_dma.c ****   ******************************************************************************
   3:Drivers/STM32G0xx_HAL_Driver/Src/stm32g0xx_hal_dma.c ****   * @file    stm32g0xx_hal_dma.c
   4:Drivers/STM32G0xx_HAL_Driver/Src/stm32g0xx_hal_dma.c ****   * @author  MCD Application Team
   5:Drivers/STM32G0xx_HAL_Driver/Src/stm32g0xx_hal_dma.c ****   * @brief   DMA HAL module driver.
   6:Drivers/STM32G0xx_HAL_Driver/Src/stm32g0xx_hal_dma.c ****   *         This file provides firmware functions to manage the following
   7:Drivers/STM32G0xx_HAL_Driver/Src/stm32g0xx_hal_dma.c ****   *         functionalities of the Direct Memory Access (DMA) peripheral:
   8:Drivers/STM32G0xx_HAL_Driver/Src/stm32g0xx_hal_dma.c ****   *           + Initialization and de-initialization functions
   9:Drivers/STM32G0xx_HAL_Driver/Src/stm32g0xx_hal_dma.c ****   *           + IO operation functions
  10:Drivers/STM32G0xx_HAL_Driver/Src/stm32g0xx_hal_dma.c ****   *           + Peripheral State and errors functions
  11:Drivers/STM32G0xx_HAL_Driver/Src/stm32g0xx_hal_dma.c ****   @verbatim
  12:Drivers/STM32G0xx_HAL_Driver/Src/stm32g0xx_hal_dma.c ****   ==============================================================================
  13:Drivers/STM32G0xx_HAL_Driver/Src/stm32g0xx_hal_dma.c ****                         ##### How to use this driver #####
  14:Drivers/STM32G0xx_HAL_Driver/Src/stm32g0xx_hal_dma.c ****   ==============================================================================
  15:Drivers/STM32G0xx_HAL_Driver/Src/stm32g0xx_hal_dma.c ****   [..]
  16:Drivers/STM32G0xx_HAL_Driver/Src/stm32g0xx_hal_dma.c ****    (#) Enable and configure the peripheral to be connected to the DMA Channel
  17:Drivers/STM32G0xx_HAL_Driver/Src/stm32g0xx_hal_dma.c ****        (except for internal SRAM / FLASH memories: no initialization is
  18:Drivers/STM32G0xx_HAL_Driver/Src/stm32g0xx_hal_dma.c ****        necessary). Please refer to the Reference manual for connection between peripherals
  19:Drivers/STM32G0xx_HAL_Driver/Src/stm32g0xx_hal_dma.c ****        and DMA requests.
  20:Drivers/STM32G0xx_HAL_Driver/Src/stm32g0xx_hal_dma.c **** 
  21:Drivers/STM32G0xx_HAL_Driver/Src/stm32g0xx_hal_dma.c ****    (#) For a given Channel, program the required configuration through the following parameters:
  22:Drivers/STM32G0xx_HAL_Driver/Src/stm32g0xx_hal_dma.c ****        Channel request, Transfer Direction, Source and Destination data formats,
  23:Drivers/STM32G0xx_HAL_Driver/Src/stm32g0xx_hal_dma.c ****        Circular or Normal mode, Channel Priority level, Source and Destination Increment mode
  24:Drivers/STM32G0xx_HAL_Driver/Src/stm32g0xx_hal_dma.c ****        using HAL_DMA_Init() function.
  25:Drivers/STM32G0xx_HAL_Driver/Src/stm32g0xx_hal_dma.c **** 
  26:Drivers/STM32G0xx_HAL_Driver/Src/stm32g0xx_hal_dma.c ****        Prior to HAL_DMA_Init the CLK shall be enabled for both DMA & DMAMUX
  27:Drivers/STM32G0xx_HAL_Driver/Src/stm32g0xx_hal_dma.c ****        thanks to:
  28:Drivers/STM32G0xx_HAL_Driver/Src/stm32g0xx_hal_dma.c ****        DMA1   :       __HAL_RCC_DMA1_CLK_ENABLE();
  29:Drivers/STM32G0xx_HAL_Driver/Src/stm32g0xx_hal_dma.c **** 
  30:Drivers/STM32G0xx_HAL_Driver/Src/stm32g0xx_hal_dma.c ****    (#) Use HAL_DMA_GetState() function to return the DMA state and HAL_DMA_GetError() in case of er
  31:Drivers/STM32G0xx_HAL_Driver/Src/stm32g0xx_hal_dma.c ****        detection.
  32:Drivers/STM32G0xx_HAL_Driver/Src/stm32g0xx_hal_dma.c **** 
ARM GAS  /tmp/ccbutQBb.s 			page 2


  33:Drivers/STM32G0xx_HAL_Driver/Src/stm32g0xx_hal_dma.c ****    (#) Use HAL_DMA_Abort() function to abort the current transfer
  34:Drivers/STM32G0xx_HAL_Driver/Src/stm32g0xx_hal_dma.c **** 
  35:Drivers/STM32G0xx_HAL_Driver/Src/stm32g0xx_hal_dma.c ****      -@-   In Memory-to-Memory transfer mode, Circular mode is not allowed.
  36:Drivers/STM32G0xx_HAL_Driver/Src/stm32g0xx_hal_dma.c ****      *** Polling mode IO operation ***
  37:Drivers/STM32G0xx_HAL_Driver/Src/stm32g0xx_hal_dma.c ****      =================================
  38:Drivers/STM32G0xx_HAL_Driver/Src/stm32g0xx_hal_dma.c ****     [..]
  39:Drivers/STM32G0xx_HAL_Driver/Src/stm32g0xx_hal_dma.c ****           (+) Use HAL_DMA_Start() to start DMA transfer after the configuration of Source
  40:Drivers/STM32G0xx_HAL_Driver/Src/stm32g0xx_hal_dma.c ****               address and destination address and the Length of data to be transferred
  41:Drivers/STM32G0xx_HAL_Driver/Src/stm32g0xx_hal_dma.c ****           (+) Use HAL_DMA_PollForTransfer() to poll for the end of current transfer, in this
  42:Drivers/STM32G0xx_HAL_Driver/Src/stm32g0xx_hal_dma.c ****               case a fixed Timeout can be configured by User depending from his application.
  43:Drivers/STM32G0xx_HAL_Driver/Src/stm32g0xx_hal_dma.c **** 
  44:Drivers/STM32G0xx_HAL_Driver/Src/stm32g0xx_hal_dma.c ****      *** Interrupt mode IO operation ***
  45:Drivers/STM32G0xx_HAL_Driver/Src/stm32g0xx_hal_dma.c ****      ===================================
  46:Drivers/STM32G0xx_HAL_Driver/Src/stm32g0xx_hal_dma.c ****     [..]
  47:Drivers/STM32G0xx_HAL_Driver/Src/stm32g0xx_hal_dma.c ****           (+) Configure the DMA interrupt priority using HAL_NVIC_SetPriority()
  48:Drivers/STM32G0xx_HAL_Driver/Src/stm32g0xx_hal_dma.c ****           (+) Enable the DMA IRQ handler using HAL_NVIC_EnableIRQ()
  49:Drivers/STM32G0xx_HAL_Driver/Src/stm32g0xx_hal_dma.c ****           (+) Use HAL_DMA_Start_IT() to start DMA transfer after the configuration of
  50:Drivers/STM32G0xx_HAL_Driver/Src/stm32g0xx_hal_dma.c ****               Source address and destination address and the Length of data to be transferred.
  51:Drivers/STM32G0xx_HAL_Driver/Src/stm32g0xx_hal_dma.c ****               In this case the DMA interrupt is configured
  52:Drivers/STM32G0xx_HAL_Driver/Src/stm32g0xx_hal_dma.c ****           (+) Use HAL_DMA_IRQHandler() called under DMA_IRQHandler() Interrupt subroutine
  53:Drivers/STM32G0xx_HAL_Driver/Src/stm32g0xx_hal_dma.c ****           (+) At the end of data transfer HAL_DMA_IRQHandler() function is executed and user can
  54:Drivers/STM32G0xx_HAL_Driver/Src/stm32g0xx_hal_dma.c ****               add his own function by customization of function pointer XferCpltCallback and
  55:Drivers/STM32G0xx_HAL_Driver/Src/stm32g0xx_hal_dma.c ****               XferErrorCallback (i.e. a member of DMA handle structure).
  56:Drivers/STM32G0xx_HAL_Driver/Src/stm32g0xx_hal_dma.c **** 
  57:Drivers/STM32G0xx_HAL_Driver/Src/stm32g0xx_hal_dma.c ****      *** DMA HAL driver macros list ***
  58:Drivers/STM32G0xx_HAL_Driver/Src/stm32g0xx_hal_dma.c ****      =============================================
  59:Drivers/STM32G0xx_HAL_Driver/Src/stm32g0xx_hal_dma.c ****       [..]
  60:Drivers/STM32G0xx_HAL_Driver/Src/stm32g0xx_hal_dma.c ****        Below the list of most used macros in DMA HAL driver.
  61:Drivers/STM32G0xx_HAL_Driver/Src/stm32g0xx_hal_dma.c **** 
  62:Drivers/STM32G0xx_HAL_Driver/Src/stm32g0xx_hal_dma.c ****        (+) __HAL_DMA_ENABLE: Enable the specified DMA Channel.
  63:Drivers/STM32G0xx_HAL_Driver/Src/stm32g0xx_hal_dma.c ****        (+) __HAL_DMA_DISABLE: Disable the specified DMA Channel.
  64:Drivers/STM32G0xx_HAL_Driver/Src/stm32g0xx_hal_dma.c ****        (+) __HAL_DMA_GET_FLAG: Get the DMA Channel pending flags.
  65:Drivers/STM32G0xx_HAL_Driver/Src/stm32g0xx_hal_dma.c ****        (+) __HAL_DMA_CLEAR_FLAG: Clear the DMA Channel pending flags.
  66:Drivers/STM32G0xx_HAL_Driver/Src/stm32g0xx_hal_dma.c ****        (+) __HAL_DMA_ENABLE_IT: Enable the specified DMA Channel interrupts.
  67:Drivers/STM32G0xx_HAL_Driver/Src/stm32g0xx_hal_dma.c ****        (+) __HAL_DMA_DISABLE_IT: Disable the specified DMA Channel interrupts.
  68:Drivers/STM32G0xx_HAL_Driver/Src/stm32g0xx_hal_dma.c ****        (+) __HAL_DMA_GET_IT_SOURCE: Check whether the specified DMA Channel interrupt has occurred 
  69:Drivers/STM32G0xx_HAL_Driver/Src/stm32g0xx_hal_dma.c **** 
  70:Drivers/STM32G0xx_HAL_Driver/Src/stm32g0xx_hal_dma.c ****      [..]
  71:Drivers/STM32G0xx_HAL_Driver/Src/stm32g0xx_hal_dma.c ****       (@) You can refer to the DMA HAL driver header file for more useful macros
  72:Drivers/STM32G0xx_HAL_Driver/Src/stm32g0xx_hal_dma.c **** 
  73:Drivers/STM32G0xx_HAL_Driver/Src/stm32g0xx_hal_dma.c ****   @endverbatim
  74:Drivers/STM32G0xx_HAL_Driver/Src/stm32g0xx_hal_dma.c ****   ******************************************************************************
  75:Drivers/STM32G0xx_HAL_Driver/Src/stm32g0xx_hal_dma.c ****   * @attention
  76:Drivers/STM32G0xx_HAL_Driver/Src/stm32g0xx_hal_dma.c ****   *
  77:Drivers/STM32G0xx_HAL_Driver/Src/stm32g0xx_hal_dma.c ****   * <h2><center>&copy; Copyright (c) 2018 STMicroelectronics. 
  78:Drivers/STM32G0xx_HAL_Driver/Src/stm32g0xx_hal_dma.c ****   * All rights reserved.</center></h2>
  79:Drivers/STM32G0xx_HAL_Driver/Src/stm32g0xx_hal_dma.c ****   *
  80:Drivers/STM32G0xx_HAL_Driver/Src/stm32g0xx_hal_dma.c ****   * This software component is licensed by ST under BSD 3-Clause license,
  81:Drivers/STM32G0xx_HAL_Driver/Src/stm32g0xx_hal_dma.c ****   * the "License"; You may not use this file except in compliance with the 
  82:Drivers/STM32G0xx_HAL_Driver/Src/stm32g0xx_hal_dma.c ****   * License. You may obtain a copy of the License at:
  83:Drivers/STM32G0xx_HAL_Driver/Src/stm32g0xx_hal_dma.c ****   *                        opensource.org/licenses/BSD-3-Clause
  84:Drivers/STM32G0xx_HAL_Driver/Src/stm32g0xx_hal_dma.c ****   *
  85:Drivers/STM32G0xx_HAL_Driver/Src/stm32g0xx_hal_dma.c ****   ******************************************************************************
  86:Drivers/STM32G0xx_HAL_Driver/Src/stm32g0xx_hal_dma.c ****   */
  87:Drivers/STM32G0xx_HAL_Driver/Src/stm32g0xx_hal_dma.c **** 
  88:Drivers/STM32G0xx_HAL_Driver/Src/stm32g0xx_hal_dma.c **** /* Includes ------------------------------------------------------------------*/
  89:Drivers/STM32G0xx_HAL_Driver/Src/stm32g0xx_hal_dma.c **** #include "stm32g0xx_hal.h"
ARM GAS  /tmp/ccbutQBb.s 			page 3


  90:Drivers/STM32G0xx_HAL_Driver/Src/stm32g0xx_hal_dma.c **** 
  91:Drivers/STM32G0xx_HAL_Driver/Src/stm32g0xx_hal_dma.c **** /** @addtogroup STM32G0xx_HAL_Driver
  92:Drivers/STM32G0xx_HAL_Driver/Src/stm32g0xx_hal_dma.c ****   * @{
  93:Drivers/STM32G0xx_HAL_Driver/Src/stm32g0xx_hal_dma.c ****   */
  94:Drivers/STM32G0xx_HAL_Driver/Src/stm32g0xx_hal_dma.c **** 
  95:Drivers/STM32G0xx_HAL_Driver/Src/stm32g0xx_hal_dma.c **** /** @defgroup DMA DMA
  96:Drivers/STM32G0xx_HAL_Driver/Src/stm32g0xx_hal_dma.c ****   * @brief DMA HAL module driver
  97:Drivers/STM32G0xx_HAL_Driver/Src/stm32g0xx_hal_dma.c ****   * @{
  98:Drivers/STM32G0xx_HAL_Driver/Src/stm32g0xx_hal_dma.c ****   */
  99:Drivers/STM32G0xx_HAL_Driver/Src/stm32g0xx_hal_dma.c **** 
 100:Drivers/STM32G0xx_HAL_Driver/Src/stm32g0xx_hal_dma.c **** #ifdef HAL_DMA_MODULE_ENABLED
 101:Drivers/STM32G0xx_HAL_Driver/Src/stm32g0xx_hal_dma.c **** 
 102:Drivers/STM32G0xx_HAL_Driver/Src/stm32g0xx_hal_dma.c **** /* Private typedef -----------------------------------------------------------*/
 103:Drivers/STM32G0xx_HAL_Driver/Src/stm32g0xx_hal_dma.c **** /* Private define ------------------------------------------------------------*/
 104:Drivers/STM32G0xx_HAL_Driver/Src/stm32g0xx_hal_dma.c **** /* Private macro -------------------------------------------------------------*/
 105:Drivers/STM32G0xx_HAL_Driver/Src/stm32g0xx_hal_dma.c **** /* Private variables ---------------------------------------------------------*/
 106:Drivers/STM32G0xx_HAL_Driver/Src/stm32g0xx_hal_dma.c **** /* Private function prototypes -----------------------------------------------*/
 107:Drivers/STM32G0xx_HAL_Driver/Src/stm32g0xx_hal_dma.c **** 
 108:Drivers/STM32G0xx_HAL_Driver/Src/stm32g0xx_hal_dma.c **** /** @defgroup DMA_Private_Functions DMA Private Functions
 109:Drivers/STM32G0xx_HAL_Driver/Src/stm32g0xx_hal_dma.c ****   * @{
 110:Drivers/STM32G0xx_HAL_Driver/Src/stm32g0xx_hal_dma.c ****   */
 111:Drivers/STM32G0xx_HAL_Driver/Src/stm32g0xx_hal_dma.c **** static void DMA_SetConfig(DMA_HandleTypeDef *hdma, uint32_t SrcAddress, uint32_t DstAddress, uint32
 112:Drivers/STM32G0xx_HAL_Driver/Src/stm32g0xx_hal_dma.c **** static void DMA_CalcDMAMUXChannelBaseAndMask(DMA_HandleTypeDef *hdma);
 113:Drivers/STM32G0xx_HAL_Driver/Src/stm32g0xx_hal_dma.c **** static void DMA_CalcDMAMUXRequestGenBaseAndMask(DMA_HandleTypeDef *hdma);
 114:Drivers/STM32G0xx_HAL_Driver/Src/stm32g0xx_hal_dma.c **** 
 115:Drivers/STM32G0xx_HAL_Driver/Src/stm32g0xx_hal_dma.c **** /**
 116:Drivers/STM32G0xx_HAL_Driver/Src/stm32g0xx_hal_dma.c ****   * @}
 117:Drivers/STM32G0xx_HAL_Driver/Src/stm32g0xx_hal_dma.c ****   */
 118:Drivers/STM32G0xx_HAL_Driver/Src/stm32g0xx_hal_dma.c **** 
 119:Drivers/STM32G0xx_HAL_Driver/Src/stm32g0xx_hal_dma.c **** /* Exported functions ---------------------------------------------------------*/
 120:Drivers/STM32G0xx_HAL_Driver/Src/stm32g0xx_hal_dma.c **** 
 121:Drivers/STM32G0xx_HAL_Driver/Src/stm32g0xx_hal_dma.c **** /** @defgroup DMA_Exported_Functions DMA Exported Functions
 122:Drivers/STM32G0xx_HAL_Driver/Src/stm32g0xx_hal_dma.c ****   * @{
 123:Drivers/STM32G0xx_HAL_Driver/Src/stm32g0xx_hal_dma.c ****   */
 124:Drivers/STM32G0xx_HAL_Driver/Src/stm32g0xx_hal_dma.c **** 
 125:Drivers/STM32G0xx_HAL_Driver/Src/stm32g0xx_hal_dma.c **** /** @defgroup DMA_Exported_Functions_Group1 Initialization and de-initialization functions
 126:Drivers/STM32G0xx_HAL_Driver/Src/stm32g0xx_hal_dma.c ****  *  @brief   Initialization and de-initialization functions
 127:Drivers/STM32G0xx_HAL_Driver/Src/stm32g0xx_hal_dma.c ****  *
 128:Drivers/STM32G0xx_HAL_Driver/Src/stm32g0xx_hal_dma.c **** @verbatim
 129:Drivers/STM32G0xx_HAL_Driver/Src/stm32g0xx_hal_dma.c ****  ===============================================================================
 130:Drivers/STM32G0xx_HAL_Driver/Src/stm32g0xx_hal_dma.c ****              ##### Initialization and de-initialization functions  #####
 131:Drivers/STM32G0xx_HAL_Driver/Src/stm32g0xx_hal_dma.c ****  ===============================================================================
 132:Drivers/STM32G0xx_HAL_Driver/Src/stm32g0xx_hal_dma.c ****     [..]
 133:Drivers/STM32G0xx_HAL_Driver/Src/stm32g0xx_hal_dma.c ****     This section provides functions allowing to initialize the DMA Channel source
 134:Drivers/STM32G0xx_HAL_Driver/Src/stm32g0xx_hal_dma.c ****     and destination addresses, incrementation and data sizes, transfer direction,
 135:Drivers/STM32G0xx_HAL_Driver/Src/stm32g0xx_hal_dma.c ****     circular/normal mode selection, memory-to-memory mode selection and Channel priority value.
 136:Drivers/STM32G0xx_HAL_Driver/Src/stm32g0xx_hal_dma.c ****     [..]
 137:Drivers/STM32G0xx_HAL_Driver/Src/stm32g0xx_hal_dma.c ****     The HAL_DMA_Init() function follows the DMA configuration procedures as described in
 138:Drivers/STM32G0xx_HAL_Driver/Src/stm32g0xx_hal_dma.c ****     reference manual.
 139:Drivers/STM32G0xx_HAL_Driver/Src/stm32g0xx_hal_dma.c **** 
 140:Drivers/STM32G0xx_HAL_Driver/Src/stm32g0xx_hal_dma.c **** @endverbatim
 141:Drivers/STM32G0xx_HAL_Driver/Src/stm32g0xx_hal_dma.c ****   * @{
 142:Drivers/STM32G0xx_HAL_Driver/Src/stm32g0xx_hal_dma.c ****   */
 143:Drivers/STM32G0xx_HAL_Driver/Src/stm32g0xx_hal_dma.c **** 
 144:Drivers/STM32G0xx_HAL_Driver/Src/stm32g0xx_hal_dma.c **** /**
 145:Drivers/STM32G0xx_HAL_Driver/Src/stm32g0xx_hal_dma.c ****   * @brief  Initialize the DMA according to the specified
 146:Drivers/STM32G0xx_HAL_Driver/Src/stm32g0xx_hal_dma.c ****   *         parameters in the DMA_InitTypeDef and initialize the associated handle.
ARM GAS  /tmp/ccbutQBb.s 			page 4


 147:Drivers/STM32G0xx_HAL_Driver/Src/stm32g0xx_hal_dma.c ****   * @param  hdma  Pointer to a DMA_HandleTypeDef structure that contains
 148:Drivers/STM32G0xx_HAL_Driver/Src/stm32g0xx_hal_dma.c ****   *               the configuration information for the specified DMA Channel.
 149:Drivers/STM32G0xx_HAL_Driver/Src/stm32g0xx_hal_dma.c ****   * @retval HAL status
 150:Drivers/STM32G0xx_HAL_Driver/Src/stm32g0xx_hal_dma.c ****   */
 151:Drivers/STM32G0xx_HAL_Driver/Src/stm32g0xx_hal_dma.c **** HAL_StatusTypeDef HAL_DMA_Init(DMA_HandleTypeDef *hdma)
 152:Drivers/STM32G0xx_HAL_Driver/Src/stm32g0xx_hal_dma.c **** {
 153:Drivers/STM32G0xx_HAL_Driver/Src/stm32g0xx_hal_dma.c ****   /* Check the DMA handle allocation */
 154:Drivers/STM32G0xx_HAL_Driver/Src/stm32g0xx_hal_dma.c ****   if (hdma == NULL)
 155:Drivers/STM32G0xx_HAL_Driver/Src/stm32g0xx_hal_dma.c ****   {
 156:Drivers/STM32G0xx_HAL_Driver/Src/stm32g0xx_hal_dma.c ****     return HAL_ERROR;
 157:Drivers/STM32G0xx_HAL_Driver/Src/stm32g0xx_hal_dma.c ****   }
 158:Drivers/STM32G0xx_HAL_Driver/Src/stm32g0xx_hal_dma.c **** 
 159:Drivers/STM32G0xx_HAL_Driver/Src/stm32g0xx_hal_dma.c ****   /* Check the parameters */
 160:Drivers/STM32G0xx_HAL_Driver/Src/stm32g0xx_hal_dma.c ****   assert_param(IS_DMA_ALL_INSTANCE(hdma->Instance));
 161:Drivers/STM32G0xx_HAL_Driver/Src/stm32g0xx_hal_dma.c ****   assert_param(IS_DMA_DIRECTION(hdma->Init.Direction));
 162:Drivers/STM32G0xx_HAL_Driver/Src/stm32g0xx_hal_dma.c ****   assert_param(IS_DMA_PERIPHERAL_INC_STATE(hdma->Init.PeriphInc));
 163:Drivers/STM32G0xx_HAL_Driver/Src/stm32g0xx_hal_dma.c ****   assert_param(IS_DMA_MEMORY_INC_STATE(hdma->Init.MemInc));
 164:Drivers/STM32G0xx_HAL_Driver/Src/stm32g0xx_hal_dma.c ****   assert_param(IS_DMA_PERIPHERAL_DATA_SIZE(hdma->Init.PeriphDataAlignment));
 165:Drivers/STM32G0xx_HAL_Driver/Src/stm32g0xx_hal_dma.c ****   assert_param(IS_DMA_MEMORY_DATA_SIZE(hdma->Init.MemDataAlignment));
 166:Drivers/STM32G0xx_HAL_Driver/Src/stm32g0xx_hal_dma.c ****   assert_param(IS_DMA_MODE(hdma->Init.Mode));
 167:Drivers/STM32G0xx_HAL_Driver/Src/stm32g0xx_hal_dma.c ****   assert_param(IS_DMA_PRIORITY(hdma->Init.Priority));
 168:Drivers/STM32G0xx_HAL_Driver/Src/stm32g0xx_hal_dma.c **** 
 169:Drivers/STM32G0xx_HAL_Driver/Src/stm32g0xx_hal_dma.c ****   /* calculation of the channel index */
 170:Drivers/STM32G0xx_HAL_Driver/Src/stm32g0xx_hal_dma.c ****   hdma->ChannelIndex = (((uint32_t)hdma->Instance - (uint32_t)DMA1_Channel1) / ((uint32_t)DMA1_Chan
 171:Drivers/STM32G0xx_HAL_Driver/Src/stm32g0xx_hal_dma.c **** 
 172:Drivers/STM32G0xx_HAL_Driver/Src/stm32g0xx_hal_dma.c ****   /* Change DMA peripheral state */
 173:Drivers/STM32G0xx_HAL_Driver/Src/stm32g0xx_hal_dma.c ****   hdma->State = HAL_DMA_STATE_BUSY;
 174:Drivers/STM32G0xx_HAL_Driver/Src/stm32g0xx_hal_dma.c **** 
 175:Drivers/STM32G0xx_HAL_Driver/Src/stm32g0xx_hal_dma.c ****   /* Clear PL, MSIZE, PSIZE, MINC, PINC, CIRC, DIR and MEM2MEM bits */
 176:Drivers/STM32G0xx_HAL_Driver/Src/stm32g0xx_hal_dma.c ****   CLEAR_BIT(hdma->Instance->CCR, (DMA_CCR_PL    | DMA_CCR_MSIZE  | DMA_CCR_PSIZE  | \
 177:Drivers/STM32G0xx_HAL_Driver/Src/stm32g0xx_hal_dma.c ****                                   DMA_CCR_MINC  | DMA_CCR_PINC   | DMA_CCR_CIRC   | \
 178:Drivers/STM32G0xx_HAL_Driver/Src/stm32g0xx_hal_dma.c ****                                   DMA_CCR_DIR   | DMA_CCR_MEM2MEM));
 179:Drivers/STM32G0xx_HAL_Driver/Src/stm32g0xx_hal_dma.c **** 
 180:Drivers/STM32G0xx_HAL_Driver/Src/stm32g0xx_hal_dma.c ****   /* Set the DMA Channel configuration */
 181:Drivers/STM32G0xx_HAL_Driver/Src/stm32g0xx_hal_dma.c ****   SET_BIT(hdma->Instance->CCR, (hdma->Init.Direction           |                               \
 182:Drivers/STM32G0xx_HAL_Driver/Src/stm32g0xx_hal_dma.c ****                                 hdma->Init.PeriphInc           | hdma->Init.MemInc           | \
 183:Drivers/STM32G0xx_HAL_Driver/Src/stm32g0xx_hal_dma.c ****                                 hdma->Init.PeriphDataAlignment | hdma->Init.MemDataAlignment | \
 184:Drivers/STM32G0xx_HAL_Driver/Src/stm32g0xx_hal_dma.c ****                                 hdma->Init.Mode                | hdma->Init.Priority));
 185:Drivers/STM32G0xx_HAL_Driver/Src/stm32g0xx_hal_dma.c **** 
 186:Drivers/STM32G0xx_HAL_Driver/Src/stm32g0xx_hal_dma.c ****   /* Initialize parameters for DMAMUX channel :
 187:Drivers/STM32G0xx_HAL_Driver/Src/stm32g0xx_hal_dma.c ****      DMAmuxChannel, DMAmuxChannelStatus and DMAmuxChannelStatusMask
 188:Drivers/STM32G0xx_HAL_Driver/Src/stm32g0xx_hal_dma.c ****   */
 189:Drivers/STM32G0xx_HAL_Driver/Src/stm32g0xx_hal_dma.c ****   DMA_CalcDMAMUXChannelBaseAndMask(hdma);
 190:Drivers/STM32G0xx_HAL_Driver/Src/stm32g0xx_hal_dma.c **** 
 191:Drivers/STM32G0xx_HAL_Driver/Src/stm32g0xx_hal_dma.c ****   if (hdma->Init.Direction == DMA_MEMORY_TO_MEMORY)
 192:Drivers/STM32G0xx_HAL_Driver/Src/stm32g0xx_hal_dma.c ****   {
 193:Drivers/STM32G0xx_HAL_Driver/Src/stm32g0xx_hal_dma.c ****     /* if memory to memory force the request to 0*/
 194:Drivers/STM32G0xx_HAL_Driver/Src/stm32g0xx_hal_dma.c ****     hdma->Init.Request = DMA_REQUEST_MEM2MEM;
 195:Drivers/STM32G0xx_HAL_Driver/Src/stm32g0xx_hal_dma.c ****   }
 196:Drivers/STM32G0xx_HAL_Driver/Src/stm32g0xx_hal_dma.c **** 
 197:Drivers/STM32G0xx_HAL_Driver/Src/stm32g0xx_hal_dma.c ****   /* Set peripheral request  to DMAMUX channel */
 198:Drivers/STM32G0xx_HAL_Driver/Src/stm32g0xx_hal_dma.c ****   hdma->DMAmuxChannel->CCR = (hdma->Init.Request & DMAMUX_CxCR_DMAREQ_ID);
 199:Drivers/STM32G0xx_HAL_Driver/Src/stm32g0xx_hal_dma.c **** 
 200:Drivers/STM32G0xx_HAL_Driver/Src/stm32g0xx_hal_dma.c ****   /* Clear the DMAMUX synchro overrun flag */
 201:Drivers/STM32G0xx_HAL_Driver/Src/stm32g0xx_hal_dma.c ****   hdma->DMAmuxChannelStatus->CFR = hdma->DMAmuxChannelStatusMask;
 202:Drivers/STM32G0xx_HAL_Driver/Src/stm32g0xx_hal_dma.c **** 
 203:Drivers/STM32G0xx_HAL_Driver/Src/stm32g0xx_hal_dma.c ****   if (((hdma->Init.Request >  0UL) && (hdma->Init.Request <= DMA_REQUEST_GENERATOR3)))
ARM GAS  /tmp/ccbutQBb.s 			page 5


 204:Drivers/STM32G0xx_HAL_Driver/Src/stm32g0xx_hal_dma.c ****   {
 205:Drivers/STM32G0xx_HAL_Driver/Src/stm32g0xx_hal_dma.c ****     /* Initialize parameters for DMAMUX request generator :
 206:Drivers/STM32G0xx_HAL_Driver/Src/stm32g0xx_hal_dma.c ****        DMAmuxRequestGen, DMAmuxRequestGenStatus and DMAmuxRequestGenStatusMask
 207:Drivers/STM32G0xx_HAL_Driver/Src/stm32g0xx_hal_dma.c ****     */
 208:Drivers/STM32G0xx_HAL_Driver/Src/stm32g0xx_hal_dma.c ****     DMA_CalcDMAMUXRequestGenBaseAndMask(hdma);
 209:Drivers/STM32G0xx_HAL_Driver/Src/stm32g0xx_hal_dma.c **** 
 210:Drivers/STM32G0xx_HAL_Driver/Src/stm32g0xx_hal_dma.c ****     /* Reset the DMAMUX request generator register*/
 211:Drivers/STM32G0xx_HAL_Driver/Src/stm32g0xx_hal_dma.c ****     hdma->DMAmuxRequestGen->RGCR = 0U;
 212:Drivers/STM32G0xx_HAL_Driver/Src/stm32g0xx_hal_dma.c **** 
 213:Drivers/STM32G0xx_HAL_Driver/Src/stm32g0xx_hal_dma.c ****     /* Clear the DMAMUX request generator overrun flag */
 214:Drivers/STM32G0xx_HAL_Driver/Src/stm32g0xx_hal_dma.c ****     hdma->DMAmuxRequestGenStatus->RGCFR = hdma->DMAmuxRequestGenStatusMask;
 215:Drivers/STM32G0xx_HAL_Driver/Src/stm32g0xx_hal_dma.c ****   }
 216:Drivers/STM32G0xx_HAL_Driver/Src/stm32g0xx_hal_dma.c ****   else
 217:Drivers/STM32G0xx_HAL_Driver/Src/stm32g0xx_hal_dma.c ****   {
 218:Drivers/STM32G0xx_HAL_Driver/Src/stm32g0xx_hal_dma.c ****     hdma->DMAmuxRequestGen = 0U;
 219:Drivers/STM32G0xx_HAL_Driver/Src/stm32g0xx_hal_dma.c ****     hdma->DMAmuxRequestGenStatus = 0U;
 220:Drivers/STM32G0xx_HAL_Driver/Src/stm32g0xx_hal_dma.c ****     hdma->DMAmuxRequestGenStatusMask = 0U;
 221:Drivers/STM32G0xx_HAL_Driver/Src/stm32g0xx_hal_dma.c ****   }
 222:Drivers/STM32G0xx_HAL_Driver/Src/stm32g0xx_hal_dma.c **** 
 223:Drivers/STM32G0xx_HAL_Driver/Src/stm32g0xx_hal_dma.c ****   /* Initialize the error code */
 224:Drivers/STM32G0xx_HAL_Driver/Src/stm32g0xx_hal_dma.c ****   hdma->ErrorCode = HAL_DMA_ERROR_NONE;
 225:Drivers/STM32G0xx_HAL_Driver/Src/stm32g0xx_hal_dma.c **** 
 226:Drivers/STM32G0xx_HAL_Driver/Src/stm32g0xx_hal_dma.c ****   /* Initialize the DMA state*/
 227:Drivers/STM32G0xx_HAL_Driver/Src/stm32g0xx_hal_dma.c ****   hdma->State  = HAL_DMA_STATE_READY;
 228:Drivers/STM32G0xx_HAL_Driver/Src/stm32g0xx_hal_dma.c **** 
 229:Drivers/STM32G0xx_HAL_Driver/Src/stm32g0xx_hal_dma.c ****   /* Release Lock */
 230:Drivers/STM32G0xx_HAL_Driver/Src/stm32g0xx_hal_dma.c ****   __HAL_UNLOCK(hdma);
 231:Drivers/STM32G0xx_HAL_Driver/Src/stm32g0xx_hal_dma.c **** 
 232:Drivers/STM32G0xx_HAL_Driver/Src/stm32g0xx_hal_dma.c ****   return HAL_OK;
 233:Drivers/STM32G0xx_HAL_Driver/Src/stm32g0xx_hal_dma.c **** }
 234:Drivers/STM32G0xx_HAL_Driver/Src/stm32g0xx_hal_dma.c **** 
 235:Drivers/STM32G0xx_HAL_Driver/Src/stm32g0xx_hal_dma.c **** /**
 236:Drivers/STM32G0xx_HAL_Driver/Src/stm32g0xx_hal_dma.c ****   * @brief  DeInitialize the DMA peripheral.
 237:Drivers/STM32G0xx_HAL_Driver/Src/stm32g0xx_hal_dma.c ****   * @param  hdma  pointer to a DMA_HandleTypeDef structure that contains
 238:Drivers/STM32G0xx_HAL_Driver/Src/stm32g0xx_hal_dma.c ****   *               the configuration information for the specified DMA Channel.
 239:Drivers/STM32G0xx_HAL_Driver/Src/stm32g0xx_hal_dma.c ****   * @retval HAL status
 240:Drivers/STM32G0xx_HAL_Driver/Src/stm32g0xx_hal_dma.c ****   */
 241:Drivers/STM32G0xx_HAL_Driver/Src/stm32g0xx_hal_dma.c **** HAL_StatusTypeDef HAL_DMA_DeInit(DMA_HandleTypeDef *hdma)
 242:Drivers/STM32G0xx_HAL_Driver/Src/stm32g0xx_hal_dma.c **** {
 243:Drivers/STM32G0xx_HAL_Driver/Src/stm32g0xx_hal_dma.c ****   /* Check the DMA handle allocation */
 244:Drivers/STM32G0xx_HAL_Driver/Src/stm32g0xx_hal_dma.c ****   if (NULL == hdma)
 245:Drivers/STM32G0xx_HAL_Driver/Src/stm32g0xx_hal_dma.c ****   {
 246:Drivers/STM32G0xx_HAL_Driver/Src/stm32g0xx_hal_dma.c ****     return HAL_ERROR;
 247:Drivers/STM32G0xx_HAL_Driver/Src/stm32g0xx_hal_dma.c ****   }
 248:Drivers/STM32G0xx_HAL_Driver/Src/stm32g0xx_hal_dma.c **** 
 249:Drivers/STM32G0xx_HAL_Driver/Src/stm32g0xx_hal_dma.c ****   /* Check the parameters */
 250:Drivers/STM32G0xx_HAL_Driver/Src/stm32g0xx_hal_dma.c ****   assert_param(IS_DMA_ALL_INSTANCE(hdma->Instance));
 251:Drivers/STM32G0xx_HAL_Driver/Src/stm32g0xx_hal_dma.c **** 
 252:Drivers/STM32G0xx_HAL_Driver/Src/stm32g0xx_hal_dma.c ****   /* Disable the selected DMA Channelx */
 253:Drivers/STM32G0xx_HAL_Driver/Src/stm32g0xx_hal_dma.c ****   __HAL_DMA_DISABLE(hdma);
 254:Drivers/STM32G0xx_HAL_Driver/Src/stm32g0xx_hal_dma.c **** 
 255:Drivers/STM32G0xx_HAL_Driver/Src/stm32g0xx_hal_dma.c ****   /* calculation of the channel index */
 256:Drivers/STM32G0xx_HAL_Driver/Src/stm32g0xx_hal_dma.c ****   hdma->ChannelIndex = (((uint32_t)hdma->Instance - (uint32_t)DMA1_Channel1) / ((uint32_t)DMA1_Chan
 257:Drivers/STM32G0xx_HAL_Driver/Src/stm32g0xx_hal_dma.c **** 
 258:Drivers/STM32G0xx_HAL_Driver/Src/stm32g0xx_hal_dma.c ****   /* Reset DMA Channel control register */
 259:Drivers/STM32G0xx_HAL_Driver/Src/stm32g0xx_hal_dma.c ****   hdma->Instance->CCR  = 0U;
 260:Drivers/STM32G0xx_HAL_Driver/Src/stm32g0xx_hal_dma.c **** 
ARM GAS  /tmp/ccbutQBb.s 			page 6


 261:Drivers/STM32G0xx_HAL_Driver/Src/stm32g0xx_hal_dma.c ****   /* Clear all flags */
 262:Drivers/STM32G0xx_HAL_Driver/Src/stm32g0xx_hal_dma.c ****   __HAL_DMA_CLEAR_FLAG(hdma, (DMA_FLAG_GI1 << (hdma->ChannelIndex & 0x1cU)));
 263:Drivers/STM32G0xx_HAL_Driver/Src/stm32g0xx_hal_dma.c **** 
 264:Drivers/STM32G0xx_HAL_Driver/Src/stm32g0xx_hal_dma.c ****   /* Initialize parameters for DMAMUX channel :
 265:Drivers/STM32G0xx_HAL_Driver/Src/stm32g0xx_hal_dma.c ****      DMAmuxChannel, DMAmuxChannelStatus and DMAmuxChannelStatusMask */
 266:Drivers/STM32G0xx_HAL_Driver/Src/stm32g0xx_hal_dma.c **** 
 267:Drivers/STM32G0xx_HAL_Driver/Src/stm32g0xx_hal_dma.c ****   DMA_CalcDMAMUXChannelBaseAndMask(hdma);
 268:Drivers/STM32G0xx_HAL_Driver/Src/stm32g0xx_hal_dma.c **** 
 269:Drivers/STM32G0xx_HAL_Driver/Src/stm32g0xx_hal_dma.c ****   /* Reset the DMAMUX channel that corresponds to the DMA channel */
 270:Drivers/STM32G0xx_HAL_Driver/Src/stm32g0xx_hal_dma.c ****   hdma->DMAmuxChannel->CCR = 0U;
 271:Drivers/STM32G0xx_HAL_Driver/Src/stm32g0xx_hal_dma.c **** 
 272:Drivers/STM32G0xx_HAL_Driver/Src/stm32g0xx_hal_dma.c ****   /* Clear the DMAMUX synchro overrun flag */
 273:Drivers/STM32G0xx_HAL_Driver/Src/stm32g0xx_hal_dma.c ****   hdma->DMAmuxChannelStatus->CFR = hdma->DMAmuxChannelStatusMask;
 274:Drivers/STM32G0xx_HAL_Driver/Src/stm32g0xx_hal_dma.c **** 
 275:Drivers/STM32G0xx_HAL_Driver/Src/stm32g0xx_hal_dma.c ****   /* Reset Request generator parameters if any */
 276:Drivers/STM32G0xx_HAL_Driver/Src/stm32g0xx_hal_dma.c ****   if (((hdma->Init.Request >  0UL) && (hdma->Init.Request <= DMA_REQUEST_GENERATOR3)))
 277:Drivers/STM32G0xx_HAL_Driver/Src/stm32g0xx_hal_dma.c ****   {
 278:Drivers/STM32G0xx_HAL_Driver/Src/stm32g0xx_hal_dma.c ****     /* Initialize parameters for DMAMUX request generator :
 279:Drivers/STM32G0xx_HAL_Driver/Src/stm32g0xx_hal_dma.c ****        DMAmuxRequestGen, DMAmuxRequestGenStatus and DMAmuxRequestGenStatusMask
 280:Drivers/STM32G0xx_HAL_Driver/Src/stm32g0xx_hal_dma.c ****     */
 281:Drivers/STM32G0xx_HAL_Driver/Src/stm32g0xx_hal_dma.c ****     DMA_CalcDMAMUXRequestGenBaseAndMask(hdma);
 282:Drivers/STM32G0xx_HAL_Driver/Src/stm32g0xx_hal_dma.c **** 
 283:Drivers/STM32G0xx_HAL_Driver/Src/stm32g0xx_hal_dma.c ****     /* Reset the DMAMUX request generator register*/
 284:Drivers/STM32G0xx_HAL_Driver/Src/stm32g0xx_hal_dma.c ****     hdma->DMAmuxRequestGen->RGCR = 0U;
 285:Drivers/STM32G0xx_HAL_Driver/Src/stm32g0xx_hal_dma.c **** 
 286:Drivers/STM32G0xx_HAL_Driver/Src/stm32g0xx_hal_dma.c ****     /* Clear the DMAMUX request generator overrun flag */
 287:Drivers/STM32G0xx_HAL_Driver/Src/stm32g0xx_hal_dma.c ****     hdma->DMAmuxRequestGenStatus->RGCFR = hdma->DMAmuxRequestGenStatusMask;
 288:Drivers/STM32G0xx_HAL_Driver/Src/stm32g0xx_hal_dma.c ****   }
 289:Drivers/STM32G0xx_HAL_Driver/Src/stm32g0xx_hal_dma.c **** 
 290:Drivers/STM32G0xx_HAL_Driver/Src/stm32g0xx_hal_dma.c ****   /* Clean callbacks */
 291:Drivers/STM32G0xx_HAL_Driver/Src/stm32g0xx_hal_dma.c ****   hdma->XferCpltCallback = NULL;
 292:Drivers/STM32G0xx_HAL_Driver/Src/stm32g0xx_hal_dma.c ****   hdma->XferHalfCpltCallback = NULL;
 293:Drivers/STM32G0xx_HAL_Driver/Src/stm32g0xx_hal_dma.c ****   hdma->XferErrorCallback = NULL;
 294:Drivers/STM32G0xx_HAL_Driver/Src/stm32g0xx_hal_dma.c ****   hdma->XferAbortCallback = NULL;
 295:Drivers/STM32G0xx_HAL_Driver/Src/stm32g0xx_hal_dma.c **** 
 296:Drivers/STM32G0xx_HAL_Driver/Src/stm32g0xx_hal_dma.c ****   hdma->DMAmuxRequestGen = 0U;
 297:Drivers/STM32G0xx_HAL_Driver/Src/stm32g0xx_hal_dma.c ****   hdma->DMAmuxRequestGenStatus = 0U;
 298:Drivers/STM32G0xx_HAL_Driver/Src/stm32g0xx_hal_dma.c ****   hdma->DMAmuxRequestGenStatusMask = 0U;
 299:Drivers/STM32G0xx_HAL_Driver/Src/stm32g0xx_hal_dma.c **** 
 300:Drivers/STM32G0xx_HAL_Driver/Src/stm32g0xx_hal_dma.c ****   /* Initialize the error code */
 301:Drivers/STM32G0xx_HAL_Driver/Src/stm32g0xx_hal_dma.c ****   hdma->ErrorCode = HAL_DMA_ERROR_NONE;
 302:Drivers/STM32G0xx_HAL_Driver/Src/stm32g0xx_hal_dma.c **** 
 303:Drivers/STM32G0xx_HAL_Driver/Src/stm32g0xx_hal_dma.c ****   /* Initialize the DMA state */
 304:Drivers/STM32G0xx_HAL_Driver/Src/stm32g0xx_hal_dma.c ****   hdma->State = HAL_DMA_STATE_RESET;
 305:Drivers/STM32G0xx_HAL_Driver/Src/stm32g0xx_hal_dma.c **** 
 306:Drivers/STM32G0xx_HAL_Driver/Src/stm32g0xx_hal_dma.c ****   /* Release Lock */
 307:Drivers/STM32G0xx_HAL_Driver/Src/stm32g0xx_hal_dma.c ****   __HAL_UNLOCK(hdma);
 308:Drivers/STM32G0xx_HAL_Driver/Src/stm32g0xx_hal_dma.c **** 
 309:Drivers/STM32G0xx_HAL_Driver/Src/stm32g0xx_hal_dma.c ****   return HAL_OK;
 310:Drivers/STM32G0xx_HAL_Driver/Src/stm32g0xx_hal_dma.c **** }
 311:Drivers/STM32G0xx_HAL_Driver/Src/stm32g0xx_hal_dma.c **** 
 312:Drivers/STM32G0xx_HAL_Driver/Src/stm32g0xx_hal_dma.c **** /**
 313:Drivers/STM32G0xx_HAL_Driver/Src/stm32g0xx_hal_dma.c ****   * @}
 314:Drivers/STM32G0xx_HAL_Driver/Src/stm32g0xx_hal_dma.c ****   */
 315:Drivers/STM32G0xx_HAL_Driver/Src/stm32g0xx_hal_dma.c **** 
 316:Drivers/STM32G0xx_HAL_Driver/Src/stm32g0xx_hal_dma.c **** /** @defgroup DMA_Exported_Functions_Group2 Input and Output operation functions
 317:Drivers/STM32G0xx_HAL_Driver/Src/stm32g0xx_hal_dma.c ****  *  @brief   Input and Output operation functions
ARM GAS  /tmp/ccbutQBb.s 			page 7


 318:Drivers/STM32G0xx_HAL_Driver/Src/stm32g0xx_hal_dma.c ****  *
 319:Drivers/STM32G0xx_HAL_Driver/Src/stm32g0xx_hal_dma.c **** @verbatim
 320:Drivers/STM32G0xx_HAL_Driver/Src/stm32g0xx_hal_dma.c ****  ===============================================================================
 321:Drivers/STM32G0xx_HAL_Driver/Src/stm32g0xx_hal_dma.c ****                       #####  IO operation functions  #####
 322:Drivers/STM32G0xx_HAL_Driver/Src/stm32g0xx_hal_dma.c ****  ===============================================================================
 323:Drivers/STM32G0xx_HAL_Driver/Src/stm32g0xx_hal_dma.c ****     [..]  This section provides functions allowing to:
 324:Drivers/STM32G0xx_HAL_Driver/Src/stm32g0xx_hal_dma.c ****       (+) Configure the source, destination address and data length and Start DMA transfer
 325:Drivers/STM32G0xx_HAL_Driver/Src/stm32g0xx_hal_dma.c ****       (+) Configure the source, destination address and data length and
 326:Drivers/STM32G0xx_HAL_Driver/Src/stm32g0xx_hal_dma.c ****           Start DMA transfer with interrupt
 327:Drivers/STM32G0xx_HAL_Driver/Src/stm32g0xx_hal_dma.c ****       (+) Abort DMA transfer
 328:Drivers/STM32G0xx_HAL_Driver/Src/stm32g0xx_hal_dma.c ****       (+) Poll for transfer complete
 329:Drivers/STM32G0xx_HAL_Driver/Src/stm32g0xx_hal_dma.c ****       (+) Handle DMA interrupt request
 330:Drivers/STM32G0xx_HAL_Driver/Src/stm32g0xx_hal_dma.c **** 
 331:Drivers/STM32G0xx_HAL_Driver/Src/stm32g0xx_hal_dma.c **** @endverbatim
 332:Drivers/STM32G0xx_HAL_Driver/Src/stm32g0xx_hal_dma.c ****   * @{
 333:Drivers/STM32G0xx_HAL_Driver/Src/stm32g0xx_hal_dma.c ****   */
 334:Drivers/STM32G0xx_HAL_Driver/Src/stm32g0xx_hal_dma.c **** 
 335:Drivers/STM32G0xx_HAL_Driver/Src/stm32g0xx_hal_dma.c **** /**
 336:Drivers/STM32G0xx_HAL_Driver/Src/stm32g0xx_hal_dma.c ****   * @brief  Start the DMA Transfer.
 337:Drivers/STM32G0xx_HAL_Driver/Src/stm32g0xx_hal_dma.c ****   * @param hdma Pointer to a DMA_HandleTypeDef structure that contains
 338:Drivers/STM32G0xx_HAL_Driver/Src/stm32g0xx_hal_dma.c ****   *               the configuration information for the specified DMA Channel.
 339:Drivers/STM32G0xx_HAL_Driver/Src/stm32g0xx_hal_dma.c ****   * @param SrcAddress The source memory Buffer address
 340:Drivers/STM32G0xx_HAL_Driver/Src/stm32g0xx_hal_dma.c ****   * @param DstAddress The destination memory Buffer address
 341:Drivers/STM32G0xx_HAL_Driver/Src/stm32g0xx_hal_dma.c ****   * @param DataLength The length of data to be transferred from source to destination
 342:Drivers/STM32G0xx_HAL_Driver/Src/stm32g0xx_hal_dma.c ****   * @retval HAL status
 343:Drivers/STM32G0xx_HAL_Driver/Src/stm32g0xx_hal_dma.c ****   */
 344:Drivers/STM32G0xx_HAL_Driver/Src/stm32g0xx_hal_dma.c **** HAL_StatusTypeDef HAL_DMA_Start(DMA_HandleTypeDef *hdma, uint32_t SrcAddress, uint32_t DstAddress, 
 345:Drivers/STM32G0xx_HAL_Driver/Src/stm32g0xx_hal_dma.c **** {
 346:Drivers/STM32G0xx_HAL_Driver/Src/stm32g0xx_hal_dma.c ****   HAL_StatusTypeDef status = HAL_OK;
 347:Drivers/STM32G0xx_HAL_Driver/Src/stm32g0xx_hal_dma.c **** 
 348:Drivers/STM32G0xx_HAL_Driver/Src/stm32g0xx_hal_dma.c ****   /* Check the parameters */
 349:Drivers/STM32G0xx_HAL_Driver/Src/stm32g0xx_hal_dma.c ****   assert_param(IS_DMA_BUFFER_SIZE(DataLength));
 350:Drivers/STM32G0xx_HAL_Driver/Src/stm32g0xx_hal_dma.c **** 
 351:Drivers/STM32G0xx_HAL_Driver/Src/stm32g0xx_hal_dma.c ****   /* Process locked */
 352:Drivers/STM32G0xx_HAL_Driver/Src/stm32g0xx_hal_dma.c ****   __HAL_LOCK(hdma);
 353:Drivers/STM32G0xx_HAL_Driver/Src/stm32g0xx_hal_dma.c **** 
 354:Drivers/STM32G0xx_HAL_Driver/Src/stm32g0xx_hal_dma.c ****   if (HAL_DMA_STATE_READY == hdma->State)
 355:Drivers/STM32G0xx_HAL_Driver/Src/stm32g0xx_hal_dma.c ****   {
 356:Drivers/STM32G0xx_HAL_Driver/Src/stm32g0xx_hal_dma.c ****     /* Change DMA peripheral state */
 357:Drivers/STM32G0xx_HAL_Driver/Src/stm32g0xx_hal_dma.c ****     hdma->State = HAL_DMA_STATE_BUSY;
 358:Drivers/STM32G0xx_HAL_Driver/Src/stm32g0xx_hal_dma.c ****     hdma->ErrorCode = HAL_DMA_ERROR_NONE;
 359:Drivers/STM32G0xx_HAL_Driver/Src/stm32g0xx_hal_dma.c **** 
 360:Drivers/STM32G0xx_HAL_Driver/Src/stm32g0xx_hal_dma.c ****     /* Disable the peripheral */
 361:Drivers/STM32G0xx_HAL_Driver/Src/stm32g0xx_hal_dma.c ****     __HAL_DMA_DISABLE(hdma);
 362:Drivers/STM32G0xx_HAL_Driver/Src/stm32g0xx_hal_dma.c **** 
 363:Drivers/STM32G0xx_HAL_Driver/Src/stm32g0xx_hal_dma.c ****     /* Configure the source, destination address and the data length & clear flags*/
 364:Drivers/STM32G0xx_HAL_Driver/Src/stm32g0xx_hal_dma.c ****     DMA_SetConfig(hdma, SrcAddress, DstAddress, DataLength);
 365:Drivers/STM32G0xx_HAL_Driver/Src/stm32g0xx_hal_dma.c **** 
 366:Drivers/STM32G0xx_HAL_Driver/Src/stm32g0xx_hal_dma.c ****     /* Enable the Peripheral */
 367:Drivers/STM32G0xx_HAL_Driver/Src/stm32g0xx_hal_dma.c ****     __HAL_DMA_ENABLE(hdma);
 368:Drivers/STM32G0xx_HAL_Driver/Src/stm32g0xx_hal_dma.c ****   }
 369:Drivers/STM32G0xx_HAL_Driver/Src/stm32g0xx_hal_dma.c ****   else
 370:Drivers/STM32G0xx_HAL_Driver/Src/stm32g0xx_hal_dma.c ****   {
 371:Drivers/STM32G0xx_HAL_Driver/Src/stm32g0xx_hal_dma.c ****     /* Process Unlocked */
 372:Drivers/STM32G0xx_HAL_Driver/Src/stm32g0xx_hal_dma.c ****     __HAL_UNLOCK(hdma);
 373:Drivers/STM32G0xx_HAL_Driver/Src/stm32g0xx_hal_dma.c ****     status = HAL_BUSY;
 374:Drivers/STM32G0xx_HAL_Driver/Src/stm32g0xx_hal_dma.c ****   }
ARM GAS  /tmp/ccbutQBb.s 			page 8


 375:Drivers/STM32G0xx_HAL_Driver/Src/stm32g0xx_hal_dma.c **** 
 376:Drivers/STM32G0xx_HAL_Driver/Src/stm32g0xx_hal_dma.c ****   /* Process locked */
 377:Drivers/STM32G0xx_HAL_Driver/Src/stm32g0xx_hal_dma.c ****   __HAL_UNLOCK(hdma);
 378:Drivers/STM32G0xx_HAL_Driver/Src/stm32g0xx_hal_dma.c **** 
 379:Drivers/STM32G0xx_HAL_Driver/Src/stm32g0xx_hal_dma.c ****   return status;
 380:Drivers/STM32G0xx_HAL_Driver/Src/stm32g0xx_hal_dma.c **** }
 381:Drivers/STM32G0xx_HAL_Driver/Src/stm32g0xx_hal_dma.c **** 
 382:Drivers/STM32G0xx_HAL_Driver/Src/stm32g0xx_hal_dma.c **** /**
 383:Drivers/STM32G0xx_HAL_Driver/Src/stm32g0xx_hal_dma.c ****   * @brief  Start the DMA Transfer with interrupt enabled.
 384:Drivers/STM32G0xx_HAL_Driver/Src/stm32g0xx_hal_dma.c ****   * @param hdma Pointer to a DMA_HandleTypeDef structure that contains
 385:Drivers/STM32G0xx_HAL_Driver/Src/stm32g0xx_hal_dma.c ****   *               the configuration information for the specified DMA Channel.
 386:Drivers/STM32G0xx_HAL_Driver/Src/stm32g0xx_hal_dma.c ****   * @param SrcAddress The source memory Buffer address
 387:Drivers/STM32G0xx_HAL_Driver/Src/stm32g0xx_hal_dma.c ****   * @param DstAddress The destination memory Buffer address
 388:Drivers/STM32G0xx_HAL_Driver/Src/stm32g0xx_hal_dma.c ****   * @param DataLength The length of data to be transferred from source to destination
 389:Drivers/STM32G0xx_HAL_Driver/Src/stm32g0xx_hal_dma.c ****   * @retval HAL status
 390:Drivers/STM32G0xx_HAL_Driver/Src/stm32g0xx_hal_dma.c ****   */
 391:Drivers/STM32G0xx_HAL_Driver/Src/stm32g0xx_hal_dma.c **** HAL_StatusTypeDef HAL_DMA_Start_IT(DMA_HandleTypeDef *hdma, uint32_t SrcAddress, uint32_t DstAddres
 392:Drivers/STM32G0xx_HAL_Driver/Src/stm32g0xx_hal_dma.c **** {
 393:Drivers/STM32G0xx_HAL_Driver/Src/stm32g0xx_hal_dma.c ****   HAL_StatusTypeDef status = HAL_OK;
 394:Drivers/STM32G0xx_HAL_Driver/Src/stm32g0xx_hal_dma.c **** 
 395:Drivers/STM32G0xx_HAL_Driver/Src/stm32g0xx_hal_dma.c ****   /* Check the parameters */
 396:Drivers/STM32G0xx_HAL_Driver/Src/stm32g0xx_hal_dma.c ****   assert_param(IS_DMA_BUFFER_SIZE(DataLength));
 397:Drivers/STM32G0xx_HAL_Driver/Src/stm32g0xx_hal_dma.c **** 
 398:Drivers/STM32G0xx_HAL_Driver/Src/stm32g0xx_hal_dma.c ****   /* Process locked */
 399:Drivers/STM32G0xx_HAL_Driver/Src/stm32g0xx_hal_dma.c ****   __HAL_LOCK(hdma);
 400:Drivers/STM32G0xx_HAL_Driver/Src/stm32g0xx_hal_dma.c **** 
 401:Drivers/STM32G0xx_HAL_Driver/Src/stm32g0xx_hal_dma.c ****   if (HAL_DMA_STATE_READY == hdma->State)
 402:Drivers/STM32G0xx_HAL_Driver/Src/stm32g0xx_hal_dma.c ****   {
 403:Drivers/STM32G0xx_HAL_Driver/Src/stm32g0xx_hal_dma.c ****     /* Change DMA peripheral state */
 404:Drivers/STM32G0xx_HAL_Driver/Src/stm32g0xx_hal_dma.c ****     hdma->State = HAL_DMA_STATE_BUSY;
 405:Drivers/STM32G0xx_HAL_Driver/Src/stm32g0xx_hal_dma.c ****     hdma->ErrorCode = HAL_DMA_ERROR_NONE;
 406:Drivers/STM32G0xx_HAL_Driver/Src/stm32g0xx_hal_dma.c **** 
 407:Drivers/STM32G0xx_HAL_Driver/Src/stm32g0xx_hal_dma.c ****     /* Disable the peripheral */
 408:Drivers/STM32G0xx_HAL_Driver/Src/stm32g0xx_hal_dma.c ****     __HAL_DMA_DISABLE(hdma);
 409:Drivers/STM32G0xx_HAL_Driver/Src/stm32g0xx_hal_dma.c **** 
 410:Drivers/STM32G0xx_HAL_Driver/Src/stm32g0xx_hal_dma.c ****     /* Configure the source, destination address and the data length & clear flags*/
 411:Drivers/STM32G0xx_HAL_Driver/Src/stm32g0xx_hal_dma.c ****     DMA_SetConfig(hdma, SrcAddress, DstAddress, DataLength);
 412:Drivers/STM32G0xx_HAL_Driver/Src/stm32g0xx_hal_dma.c **** 
 413:Drivers/STM32G0xx_HAL_Driver/Src/stm32g0xx_hal_dma.c ****     /* Enable the transfer complete interrupt */
 414:Drivers/STM32G0xx_HAL_Driver/Src/stm32g0xx_hal_dma.c ****     /* Enable the transfer Error interrupt */
 415:Drivers/STM32G0xx_HAL_Driver/Src/stm32g0xx_hal_dma.c ****     if (NULL != hdma->XferHalfCpltCallback)
 416:Drivers/STM32G0xx_HAL_Driver/Src/stm32g0xx_hal_dma.c ****     {
 417:Drivers/STM32G0xx_HAL_Driver/Src/stm32g0xx_hal_dma.c ****       /* Enable the Half transfer complete interrupt as well */
 418:Drivers/STM32G0xx_HAL_Driver/Src/stm32g0xx_hal_dma.c ****       __HAL_DMA_ENABLE_IT(hdma, (DMA_IT_TC | DMA_IT_HT | DMA_IT_TE));
 419:Drivers/STM32G0xx_HAL_Driver/Src/stm32g0xx_hal_dma.c ****     }
 420:Drivers/STM32G0xx_HAL_Driver/Src/stm32g0xx_hal_dma.c ****     else
 421:Drivers/STM32G0xx_HAL_Driver/Src/stm32g0xx_hal_dma.c ****     {
 422:Drivers/STM32G0xx_HAL_Driver/Src/stm32g0xx_hal_dma.c ****       __HAL_DMA_DISABLE_IT(hdma, DMA_IT_HT);
 423:Drivers/STM32G0xx_HAL_Driver/Src/stm32g0xx_hal_dma.c ****       __HAL_DMA_ENABLE_IT(hdma, (DMA_IT_TC | DMA_IT_TE));
 424:Drivers/STM32G0xx_HAL_Driver/Src/stm32g0xx_hal_dma.c ****     }
 425:Drivers/STM32G0xx_HAL_Driver/Src/stm32g0xx_hal_dma.c **** 
 426:Drivers/STM32G0xx_HAL_Driver/Src/stm32g0xx_hal_dma.c ****     /* Check if DMAMUX Synchronization is enabled*/
 427:Drivers/STM32G0xx_HAL_Driver/Src/stm32g0xx_hal_dma.c ****     if ((hdma->DMAmuxChannel->CCR & DMAMUX_CxCR_SE) != 0U)
 428:Drivers/STM32G0xx_HAL_Driver/Src/stm32g0xx_hal_dma.c ****     {
 429:Drivers/STM32G0xx_HAL_Driver/Src/stm32g0xx_hal_dma.c ****       /* Enable DMAMUX sync overrun IT*/
 430:Drivers/STM32G0xx_HAL_Driver/Src/stm32g0xx_hal_dma.c ****       hdma->DMAmuxChannel->CCR |= DMAMUX_CxCR_SOIE;
 431:Drivers/STM32G0xx_HAL_Driver/Src/stm32g0xx_hal_dma.c ****     }
ARM GAS  /tmp/ccbutQBb.s 			page 9


 432:Drivers/STM32G0xx_HAL_Driver/Src/stm32g0xx_hal_dma.c **** 
 433:Drivers/STM32G0xx_HAL_Driver/Src/stm32g0xx_hal_dma.c ****     if (hdma->DMAmuxRequestGen != 0U)
 434:Drivers/STM32G0xx_HAL_Driver/Src/stm32g0xx_hal_dma.c ****     {
 435:Drivers/STM32G0xx_HAL_Driver/Src/stm32g0xx_hal_dma.c ****       /* if using DMAMUX request generator, enable the DMAMUX request generator overrun IT*/
 436:Drivers/STM32G0xx_HAL_Driver/Src/stm32g0xx_hal_dma.c ****       /* enable the request gen overrun IT*/
 437:Drivers/STM32G0xx_HAL_Driver/Src/stm32g0xx_hal_dma.c ****       hdma->DMAmuxRequestGen->RGCR |= DMAMUX_RGxCR_OIE;
 438:Drivers/STM32G0xx_HAL_Driver/Src/stm32g0xx_hal_dma.c ****     }
 439:Drivers/STM32G0xx_HAL_Driver/Src/stm32g0xx_hal_dma.c **** 
 440:Drivers/STM32G0xx_HAL_Driver/Src/stm32g0xx_hal_dma.c ****     /* Enable the Peripheral */
 441:Drivers/STM32G0xx_HAL_Driver/Src/stm32g0xx_hal_dma.c ****     __HAL_DMA_ENABLE(hdma);
 442:Drivers/STM32G0xx_HAL_Driver/Src/stm32g0xx_hal_dma.c ****   }
 443:Drivers/STM32G0xx_HAL_Driver/Src/stm32g0xx_hal_dma.c ****   else
 444:Drivers/STM32G0xx_HAL_Driver/Src/stm32g0xx_hal_dma.c ****   {
 445:Drivers/STM32G0xx_HAL_Driver/Src/stm32g0xx_hal_dma.c ****     /* Process Unlocked */
 446:Drivers/STM32G0xx_HAL_Driver/Src/stm32g0xx_hal_dma.c ****     __HAL_UNLOCK(hdma);
 447:Drivers/STM32G0xx_HAL_Driver/Src/stm32g0xx_hal_dma.c **** 
 448:Drivers/STM32G0xx_HAL_Driver/Src/stm32g0xx_hal_dma.c ****     /* Remain BUSY */
 449:Drivers/STM32G0xx_HAL_Driver/Src/stm32g0xx_hal_dma.c ****     status = HAL_BUSY;
 450:Drivers/STM32G0xx_HAL_Driver/Src/stm32g0xx_hal_dma.c ****   }
 451:Drivers/STM32G0xx_HAL_Driver/Src/stm32g0xx_hal_dma.c **** 
 452:Drivers/STM32G0xx_HAL_Driver/Src/stm32g0xx_hal_dma.c ****   /* Process unlocked */
 453:Drivers/STM32G0xx_HAL_Driver/Src/stm32g0xx_hal_dma.c ****   __HAL_UNLOCK(hdma);
 454:Drivers/STM32G0xx_HAL_Driver/Src/stm32g0xx_hal_dma.c **** 
 455:Drivers/STM32G0xx_HAL_Driver/Src/stm32g0xx_hal_dma.c ****   return status;
 456:Drivers/STM32G0xx_HAL_Driver/Src/stm32g0xx_hal_dma.c **** }
 457:Drivers/STM32G0xx_HAL_Driver/Src/stm32g0xx_hal_dma.c **** 
 458:Drivers/STM32G0xx_HAL_Driver/Src/stm32g0xx_hal_dma.c **** /**
 459:Drivers/STM32G0xx_HAL_Driver/Src/stm32g0xx_hal_dma.c ****   * @brief  Abort the DMA Transfer.
 460:Drivers/STM32G0xx_HAL_Driver/Src/stm32g0xx_hal_dma.c ****   * @param hdma Pointer to a DMA_HandleTypeDef structure that contains
 461:Drivers/STM32G0xx_HAL_Driver/Src/stm32g0xx_hal_dma.c ****   *               the configuration information for the specified DMA Channel.
 462:Drivers/STM32G0xx_HAL_Driver/Src/stm32g0xx_hal_dma.c ****     * @retval HAL status
 463:Drivers/STM32G0xx_HAL_Driver/Src/stm32g0xx_hal_dma.c ****   */
 464:Drivers/STM32G0xx_HAL_Driver/Src/stm32g0xx_hal_dma.c **** HAL_StatusTypeDef HAL_DMA_Abort(DMA_HandleTypeDef *hdma)
 465:Drivers/STM32G0xx_HAL_Driver/Src/stm32g0xx_hal_dma.c **** {
 466:Drivers/STM32G0xx_HAL_Driver/Src/stm32g0xx_hal_dma.c ****   /* Check the DMA peripheral handle */
 467:Drivers/STM32G0xx_HAL_Driver/Src/stm32g0xx_hal_dma.c ****   if (NULL == hdma)
 468:Drivers/STM32G0xx_HAL_Driver/Src/stm32g0xx_hal_dma.c ****   {
 469:Drivers/STM32G0xx_HAL_Driver/Src/stm32g0xx_hal_dma.c ****     return HAL_ERROR;
 470:Drivers/STM32G0xx_HAL_Driver/Src/stm32g0xx_hal_dma.c ****   }
 471:Drivers/STM32G0xx_HAL_Driver/Src/stm32g0xx_hal_dma.c **** 
 472:Drivers/STM32G0xx_HAL_Driver/Src/stm32g0xx_hal_dma.c ****   /* Check the DMA peripheral state */
 473:Drivers/STM32G0xx_HAL_Driver/Src/stm32g0xx_hal_dma.c ****   if(hdma->State != HAL_DMA_STATE_BUSY)
 474:Drivers/STM32G0xx_HAL_Driver/Src/stm32g0xx_hal_dma.c ****   {
 475:Drivers/STM32G0xx_HAL_Driver/Src/stm32g0xx_hal_dma.c ****     hdma->ErrorCode = HAL_DMA_ERROR_NO_XFER;
 476:Drivers/STM32G0xx_HAL_Driver/Src/stm32g0xx_hal_dma.c **** 
 477:Drivers/STM32G0xx_HAL_Driver/Src/stm32g0xx_hal_dma.c ****     /* Process Unlocked */
 478:Drivers/STM32G0xx_HAL_Driver/Src/stm32g0xx_hal_dma.c ****     __HAL_UNLOCK(hdma);
 479:Drivers/STM32G0xx_HAL_Driver/Src/stm32g0xx_hal_dma.c **** 
 480:Drivers/STM32G0xx_HAL_Driver/Src/stm32g0xx_hal_dma.c ****     return HAL_ERROR;
 481:Drivers/STM32G0xx_HAL_Driver/Src/stm32g0xx_hal_dma.c ****   }
 482:Drivers/STM32G0xx_HAL_Driver/Src/stm32g0xx_hal_dma.c ****   else
 483:Drivers/STM32G0xx_HAL_Driver/Src/stm32g0xx_hal_dma.c ****   {
 484:Drivers/STM32G0xx_HAL_Driver/Src/stm32g0xx_hal_dma.c ****     /* Disable DMA IT */
 485:Drivers/STM32G0xx_HAL_Driver/Src/stm32g0xx_hal_dma.c ****     __HAL_DMA_DISABLE_IT(hdma, (DMA_IT_TC | DMA_IT_HT | DMA_IT_TE));
 486:Drivers/STM32G0xx_HAL_Driver/Src/stm32g0xx_hal_dma.c **** 
 487:Drivers/STM32G0xx_HAL_Driver/Src/stm32g0xx_hal_dma.c ****     /* disable the DMAMUX sync overrun IT*/
 488:Drivers/STM32G0xx_HAL_Driver/Src/stm32g0xx_hal_dma.c ****     hdma->DMAmuxChannel->CCR &= ~DMAMUX_CxCR_SOIE;
ARM GAS  /tmp/ccbutQBb.s 			page 10


 489:Drivers/STM32G0xx_HAL_Driver/Src/stm32g0xx_hal_dma.c **** 
 490:Drivers/STM32G0xx_HAL_Driver/Src/stm32g0xx_hal_dma.c ****     /* Disable the channel */
 491:Drivers/STM32G0xx_HAL_Driver/Src/stm32g0xx_hal_dma.c ****     __HAL_DMA_DISABLE(hdma);
 492:Drivers/STM32G0xx_HAL_Driver/Src/stm32g0xx_hal_dma.c **** 
 493:Drivers/STM32G0xx_HAL_Driver/Src/stm32g0xx_hal_dma.c ****     /* Clear all flags */
 494:Drivers/STM32G0xx_HAL_Driver/Src/stm32g0xx_hal_dma.c ****     __HAL_DMA_CLEAR_FLAG(hdma, ((DMA_FLAG_GI1) << (hdma->ChannelIndex  & 0x1cU)));
 495:Drivers/STM32G0xx_HAL_Driver/Src/stm32g0xx_hal_dma.c **** 
 496:Drivers/STM32G0xx_HAL_Driver/Src/stm32g0xx_hal_dma.c ****     /* Clear the DMAMUX synchro overrun flag */
 497:Drivers/STM32G0xx_HAL_Driver/Src/stm32g0xx_hal_dma.c ****     hdma->DMAmuxChannelStatus->CFR = hdma->DMAmuxChannelStatusMask;
 498:Drivers/STM32G0xx_HAL_Driver/Src/stm32g0xx_hal_dma.c **** 
 499:Drivers/STM32G0xx_HAL_Driver/Src/stm32g0xx_hal_dma.c ****     if (hdma->DMAmuxRequestGen != 0U)
 500:Drivers/STM32G0xx_HAL_Driver/Src/stm32g0xx_hal_dma.c ****     {
 501:Drivers/STM32G0xx_HAL_Driver/Src/stm32g0xx_hal_dma.c ****       /* if using DMAMUX request generator, disable the DMAMUX request generator overrun IT*/
 502:Drivers/STM32G0xx_HAL_Driver/Src/stm32g0xx_hal_dma.c ****       /* disable the request gen overrun IT*/
 503:Drivers/STM32G0xx_HAL_Driver/Src/stm32g0xx_hal_dma.c ****       hdma->DMAmuxRequestGen->RGCR &= ~DMAMUX_RGxCR_OIE;
 504:Drivers/STM32G0xx_HAL_Driver/Src/stm32g0xx_hal_dma.c **** 
 505:Drivers/STM32G0xx_HAL_Driver/Src/stm32g0xx_hal_dma.c ****       /* Clear the DMAMUX request generator overrun flag */
 506:Drivers/STM32G0xx_HAL_Driver/Src/stm32g0xx_hal_dma.c ****       hdma->DMAmuxRequestGenStatus->RGCFR = hdma->DMAmuxRequestGenStatusMask;
 507:Drivers/STM32G0xx_HAL_Driver/Src/stm32g0xx_hal_dma.c ****     }
 508:Drivers/STM32G0xx_HAL_Driver/Src/stm32g0xx_hal_dma.c **** 
 509:Drivers/STM32G0xx_HAL_Driver/Src/stm32g0xx_hal_dma.c ****     /* Change the DMA state */
 510:Drivers/STM32G0xx_HAL_Driver/Src/stm32g0xx_hal_dma.c ****     hdma->State = HAL_DMA_STATE_READY;
 511:Drivers/STM32G0xx_HAL_Driver/Src/stm32g0xx_hal_dma.c **** 
 512:Drivers/STM32G0xx_HAL_Driver/Src/stm32g0xx_hal_dma.c ****     /* Process Unlocked */
 513:Drivers/STM32G0xx_HAL_Driver/Src/stm32g0xx_hal_dma.c ****     __HAL_UNLOCK(hdma);
 514:Drivers/STM32G0xx_HAL_Driver/Src/stm32g0xx_hal_dma.c ****   }
 515:Drivers/STM32G0xx_HAL_Driver/Src/stm32g0xx_hal_dma.c **** 
 516:Drivers/STM32G0xx_HAL_Driver/Src/stm32g0xx_hal_dma.c ****   return HAL_OK;
 517:Drivers/STM32G0xx_HAL_Driver/Src/stm32g0xx_hal_dma.c **** }
 518:Drivers/STM32G0xx_HAL_Driver/Src/stm32g0xx_hal_dma.c **** 
 519:Drivers/STM32G0xx_HAL_Driver/Src/stm32g0xx_hal_dma.c **** /**
 520:Drivers/STM32G0xx_HAL_Driver/Src/stm32g0xx_hal_dma.c ****   * @brief  Aborts the DMA Transfer in Interrupt mode.
 521:Drivers/STM32G0xx_HAL_Driver/Src/stm32g0xx_hal_dma.c ****   * @param  hdma    pointer to a DMA_HandleTypeDef structure that contains
 522:Drivers/STM32G0xx_HAL_Driver/Src/stm32g0xx_hal_dma.c ****   *                 the configuration information for the specified DMA Stream.
 523:Drivers/STM32G0xx_HAL_Driver/Src/stm32g0xx_hal_dma.c ****   * @retval HAL status
 524:Drivers/STM32G0xx_HAL_Driver/Src/stm32g0xx_hal_dma.c ****   */
 525:Drivers/STM32G0xx_HAL_Driver/Src/stm32g0xx_hal_dma.c **** HAL_StatusTypeDef HAL_DMA_Abort_IT(DMA_HandleTypeDef *hdma)
 526:Drivers/STM32G0xx_HAL_Driver/Src/stm32g0xx_hal_dma.c **** {
 527:Drivers/STM32G0xx_HAL_Driver/Src/stm32g0xx_hal_dma.c ****   HAL_StatusTypeDef status = HAL_OK;
 528:Drivers/STM32G0xx_HAL_Driver/Src/stm32g0xx_hal_dma.c **** 
 529:Drivers/STM32G0xx_HAL_Driver/Src/stm32g0xx_hal_dma.c ****   /* Process Unlocked/locked */
 530:Drivers/STM32G0xx_HAL_Driver/Src/stm32g0xx_hal_dma.c ****   __HAL_UNLOCK(hdma);
 531:Drivers/STM32G0xx_HAL_Driver/Src/stm32g0xx_hal_dma.c ****   __HAL_LOCK(hdma);
 532:Drivers/STM32G0xx_HAL_Driver/Src/stm32g0xx_hal_dma.c **** 
 533:Drivers/STM32G0xx_HAL_Driver/Src/stm32g0xx_hal_dma.c ****   if (HAL_DMA_STATE_BUSY != hdma->State)
 534:Drivers/STM32G0xx_HAL_Driver/Src/stm32g0xx_hal_dma.c ****   {
 535:Drivers/STM32G0xx_HAL_Driver/Src/stm32g0xx_hal_dma.c ****     /* no transfer ongoing */
 536:Drivers/STM32G0xx_HAL_Driver/Src/stm32g0xx_hal_dma.c ****     hdma->ErrorCode = HAL_DMA_ERROR_NO_XFER;
 537:Drivers/STM32G0xx_HAL_Driver/Src/stm32g0xx_hal_dma.c **** 
 538:Drivers/STM32G0xx_HAL_Driver/Src/stm32g0xx_hal_dma.c ****     status = HAL_ERROR;
 539:Drivers/STM32G0xx_HAL_Driver/Src/stm32g0xx_hal_dma.c ****   }
 540:Drivers/STM32G0xx_HAL_Driver/Src/stm32g0xx_hal_dma.c ****   else
 541:Drivers/STM32G0xx_HAL_Driver/Src/stm32g0xx_hal_dma.c ****   {
 542:Drivers/STM32G0xx_HAL_Driver/Src/stm32g0xx_hal_dma.c ****     /* Disable DMA IT */
 543:Drivers/STM32G0xx_HAL_Driver/Src/stm32g0xx_hal_dma.c ****     __HAL_DMA_DISABLE_IT(hdma, (DMA_IT_TC | DMA_IT_HT | DMA_IT_TE));
 544:Drivers/STM32G0xx_HAL_Driver/Src/stm32g0xx_hal_dma.c **** 
 545:Drivers/STM32G0xx_HAL_Driver/Src/stm32g0xx_hal_dma.c ****     /* Disable the channel */
ARM GAS  /tmp/ccbutQBb.s 			page 11


 546:Drivers/STM32G0xx_HAL_Driver/Src/stm32g0xx_hal_dma.c ****     __HAL_DMA_DISABLE(hdma);
 547:Drivers/STM32G0xx_HAL_Driver/Src/stm32g0xx_hal_dma.c **** 
 548:Drivers/STM32G0xx_HAL_Driver/Src/stm32g0xx_hal_dma.c ****     /* disable the DMAMUX sync overrun IT*/
 549:Drivers/STM32G0xx_HAL_Driver/Src/stm32g0xx_hal_dma.c ****     hdma->DMAmuxChannel->CCR &= ~DMAMUX_CxCR_SOIE;
 550:Drivers/STM32G0xx_HAL_Driver/Src/stm32g0xx_hal_dma.c **** 
 551:Drivers/STM32G0xx_HAL_Driver/Src/stm32g0xx_hal_dma.c ****     /* Clear all flags */
 552:Drivers/STM32G0xx_HAL_Driver/Src/stm32g0xx_hal_dma.c ****     __HAL_DMA_CLEAR_FLAG(hdma, ((DMA_FLAG_GI1) << (hdma->ChannelIndex & 0x1cU)));
 553:Drivers/STM32G0xx_HAL_Driver/Src/stm32g0xx_hal_dma.c **** 
 554:Drivers/STM32G0xx_HAL_Driver/Src/stm32g0xx_hal_dma.c ****     /* Clear the DMAMUX synchro overrun flag */
 555:Drivers/STM32G0xx_HAL_Driver/Src/stm32g0xx_hal_dma.c ****     hdma->DMAmuxChannelStatus->CFR = hdma->DMAmuxChannelStatusMask;
 556:Drivers/STM32G0xx_HAL_Driver/Src/stm32g0xx_hal_dma.c **** 
 557:Drivers/STM32G0xx_HAL_Driver/Src/stm32g0xx_hal_dma.c ****     if (hdma->DMAmuxRequestGen != 0U)
 558:Drivers/STM32G0xx_HAL_Driver/Src/stm32g0xx_hal_dma.c ****     {
 559:Drivers/STM32G0xx_HAL_Driver/Src/stm32g0xx_hal_dma.c ****       /* if using DMAMUX request generator, disable the DMAMUX request generator overrun IT*/
 560:Drivers/STM32G0xx_HAL_Driver/Src/stm32g0xx_hal_dma.c ****       /* disable the request gen overrun IT*/
 561:Drivers/STM32G0xx_HAL_Driver/Src/stm32g0xx_hal_dma.c ****       hdma->DMAmuxRequestGen->RGCR &= ~DMAMUX_RGxCR_OIE;
 562:Drivers/STM32G0xx_HAL_Driver/Src/stm32g0xx_hal_dma.c **** 
 563:Drivers/STM32G0xx_HAL_Driver/Src/stm32g0xx_hal_dma.c ****       /* Clear the DMAMUX request generator overrun flag */
 564:Drivers/STM32G0xx_HAL_Driver/Src/stm32g0xx_hal_dma.c ****       hdma->DMAmuxRequestGenStatus->RGCFR = hdma->DMAmuxRequestGenStatusMask;
 565:Drivers/STM32G0xx_HAL_Driver/Src/stm32g0xx_hal_dma.c ****     }
 566:Drivers/STM32G0xx_HAL_Driver/Src/stm32g0xx_hal_dma.c **** 
 567:Drivers/STM32G0xx_HAL_Driver/Src/stm32g0xx_hal_dma.c ****     /* Change the DMA state */
 568:Drivers/STM32G0xx_HAL_Driver/Src/stm32g0xx_hal_dma.c ****     hdma->State = HAL_DMA_STATE_READY;
 569:Drivers/STM32G0xx_HAL_Driver/Src/stm32g0xx_hal_dma.c **** 
 570:Drivers/STM32G0xx_HAL_Driver/Src/stm32g0xx_hal_dma.c ****     /* Process Unlocked */
 571:Drivers/STM32G0xx_HAL_Driver/Src/stm32g0xx_hal_dma.c ****     __HAL_UNLOCK(hdma);
 572:Drivers/STM32G0xx_HAL_Driver/Src/stm32g0xx_hal_dma.c **** 
 573:Drivers/STM32G0xx_HAL_Driver/Src/stm32g0xx_hal_dma.c ****     /* Call User Abort callback */
 574:Drivers/STM32G0xx_HAL_Driver/Src/stm32g0xx_hal_dma.c ****     if (hdma->XferAbortCallback != NULL)
 575:Drivers/STM32G0xx_HAL_Driver/Src/stm32g0xx_hal_dma.c ****     {
 576:Drivers/STM32G0xx_HAL_Driver/Src/stm32g0xx_hal_dma.c ****       hdma->XferAbortCallback(hdma);
 577:Drivers/STM32G0xx_HAL_Driver/Src/stm32g0xx_hal_dma.c ****     }
 578:Drivers/STM32G0xx_HAL_Driver/Src/stm32g0xx_hal_dma.c ****   }
 579:Drivers/STM32G0xx_HAL_Driver/Src/stm32g0xx_hal_dma.c ****   return status;
 580:Drivers/STM32G0xx_HAL_Driver/Src/stm32g0xx_hal_dma.c **** }
 581:Drivers/STM32G0xx_HAL_Driver/Src/stm32g0xx_hal_dma.c **** 
 582:Drivers/STM32G0xx_HAL_Driver/Src/stm32g0xx_hal_dma.c **** /**
 583:Drivers/STM32G0xx_HAL_Driver/Src/stm32g0xx_hal_dma.c ****   * @brief  Polling for transfer complete.
 584:Drivers/STM32G0xx_HAL_Driver/Src/stm32g0xx_hal_dma.c ****   * @param hdma Pointer to a DMA_HandleTypeDef structure that contains
 585:Drivers/STM32G0xx_HAL_Driver/Src/stm32g0xx_hal_dma.c ****   *                  the configuration information for the specified DMA Channel.
 586:Drivers/STM32G0xx_HAL_Driver/Src/stm32g0xx_hal_dma.c ****   * @param CompleteLevel Specifies the DMA level complete.
 587:Drivers/STM32G0xx_HAL_Driver/Src/stm32g0xx_hal_dma.c ****   * @param Timeout Timeout duration.
 588:Drivers/STM32G0xx_HAL_Driver/Src/stm32g0xx_hal_dma.c ****   * @retval HAL status
 589:Drivers/STM32G0xx_HAL_Driver/Src/stm32g0xx_hal_dma.c ****   */
 590:Drivers/STM32G0xx_HAL_Driver/Src/stm32g0xx_hal_dma.c **** HAL_StatusTypeDef HAL_DMA_PollForTransfer(DMA_HandleTypeDef *hdma, HAL_DMA_LevelCompleteTypeDef Com
 591:Drivers/STM32G0xx_HAL_Driver/Src/stm32g0xx_hal_dma.c **** {
 592:Drivers/STM32G0xx_HAL_Driver/Src/stm32g0xx_hal_dma.c ****   uint32_t temp;
 593:Drivers/STM32G0xx_HAL_Driver/Src/stm32g0xx_hal_dma.c ****   uint32_t tickstart;
 594:Drivers/STM32G0xx_HAL_Driver/Src/stm32g0xx_hal_dma.c **** 
 595:Drivers/STM32G0xx_HAL_Driver/Src/stm32g0xx_hal_dma.c ****   /* Process unlocked */
 596:Drivers/STM32G0xx_HAL_Driver/Src/stm32g0xx_hal_dma.c ****   __HAL_UNLOCK(hdma);
 597:Drivers/STM32G0xx_HAL_Driver/Src/stm32g0xx_hal_dma.c **** 
 598:Drivers/STM32G0xx_HAL_Driver/Src/stm32g0xx_hal_dma.c ****   if (HAL_DMA_STATE_BUSY != hdma->State)
 599:Drivers/STM32G0xx_HAL_Driver/Src/stm32g0xx_hal_dma.c ****   {
 600:Drivers/STM32G0xx_HAL_Driver/Src/stm32g0xx_hal_dma.c ****     /* no transfer ongoing */
 601:Drivers/STM32G0xx_HAL_Driver/Src/stm32g0xx_hal_dma.c ****     hdma->ErrorCode = HAL_DMA_ERROR_NO_XFER;
 602:Drivers/STM32G0xx_HAL_Driver/Src/stm32g0xx_hal_dma.c ****     __HAL_UNLOCK(hdma);
ARM GAS  /tmp/ccbutQBb.s 			page 12


 603:Drivers/STM32G0xx_HAL_Driver/Src/stm32g0xx_hal_dma.c ****     return HAL_ERROR;
 604:Drivers/STM32G0xx_HAL_Driver/Src/stm32g0xx_hal_dma.c ****   }
 605:Drivers/STM32G0xx_HAL_Driver/Src/stm32g0xx_hal_dma.c **** 
 606:Drivers/STM32G0xx_HAL_Driver/Src/stm32g0xx_hal_dma.c ****   /* Polling mode not supported in circular mode */
 607:Drivers/STM32G0xx_HAL_Driver/Src/stm32g0xx_hal_dma.c ****   if ((hdma->Instance->CCR & DMA_CCR_CIRC) != 0U)
 608:Drivers/STM32G0xx_HAL_Driver/Src/stm32g0xx_hal_dma.c ****   {
 609:Drivers/STM32G0xx_HAL_Driver/Src/stm32g0xx_hal_dma.c ****     hdma->ErrorCode = HAL_DMA_ERROR_NOT_SUPPORTED;
 610:Drivers/STM32G0xx_HAL_Driver/Src/stm32g0xx_hal_dma.c ****     return HAL_ERROR;
 611:Drivers/STM32G0xx_HAL_Driver/Src/stm32g0xx_hal_dma.c ****   }
 612:Drivers/STM32G0xx_HAL_Driver/Src/stm32g0xx_hal_dma.c **** 
 613:Drivers/STM32G0xx_HAL_Driver/Src/stm32g0xx_hal_dma.c ****   /* Get the level transfer complete flag */
 614:Drivers/STM32G0xx_HAL_Driver/Src/stm32g0xx_hal_dma.c ****   if (HAL_DMA_FULL_TRANSFER == CompleteLevel)
 615:Drivers/STM32G0xx_HAL_Driver/Src/stm32g0xx_hal_dma.c ****   {
 616:Drivers/STM32G0xx_HAL_Driver/Src/stm32g0xx_hal_dma.c ****     /* Transfer Complete flag */
 617:Drivers/STM32G0xx_HAL_Driver/Src/stm32g0xx_hal_dma.c ****     temp = DMA_FLAG_TC1 << (hdma->ChannelIndex & 0x1cU);
 618:Drivers/STM32G0xx_HAL_Driver/Src/stm32g0xx_hal_dma.c ****   }
 619:Drivers/STM32G0xx_HAL_Driver/Src/stm32g0xx_hal_dma.c ****   else
 620:Drivers/STM32G0xx_HAL_Driver/Src/stm32g0xx_hal_dma.c ****   {
 621:Drivers/STM32G0xx_HAL_Driver/Src/stm32g0xx_hal_dma.c ****     /* Half Transfer Complete flag */
 622:Drivers/STM32G0xx_HAL_Driver/Src/stm32g0xx_hal_dma.c ****     temp = DMA_FLAG_HT1 << (hdma->ChannelIndex  & 0x1cU);
 623:Drivers/STM32G0xx_HAL_Driver/Src/stm32g0xx_hal_dma.c ****   }
 624:Drivers/STM32G0xx_HAL_Driver/Src/stm32g0xx_hal_dma.c **** 
 625:Drivers/STM32G0xx_HAL_Driver/Src/stm32g0xx_hal_dma.c ****   /* Get tick */
 626:Drivers/STM32G0xx_HAL_Driver/Src/stm32g0xx_hal_dma.c ****   tickstart = HAL_GetTick();
 627:Drivers/STM32G0xx_HAL_Driver/Src/stm32g0xx_hal_dma.c **** 
 628:Drivers/STM32G0xx_HAL_Driver/Src/stm32g0xx_hal_dma.c ****   while (0U == __HAL_DMA_GET_FLAG(hdma, temp))
 629:Drivers/STM32G0xx_HAL_Driver/Src/stm32g0xx_hal_dma.c ****   {
 630:Drivers/STM32G0xx_HAL_Driver/Src/stm32g0xx_hal_dma.c ****     if (0U != __HAL_DMA_GET_FLAG(hdma, (DMA_FLAG_TE1 << (hdma->ChannelIndex & 0x1cU))))
 631:Drivers/STM32G0xx_HAL_Driver/Src/stm32g0xx_hal_dma.c ****     {
 632:Drivers/STM32G0xx_HAL_Driver/Src/stm32g0xx_hal_dma.c ****       /* When a DMA transfer error occurs */
 633:Drivers/STM32G0xx_HAL_Driver/Src/stm32g0xx_hal_dma.c ****       /* A hardware clear of its EN bits is performed */
 634:Drivers/STM32G0xx_HAL_Driver/Src/stm32g0xx_hal_dma.c ****       /* Clear all flags */
 635:Drivers/STM32G0xx_HAL_Driver/Src/stm32g0xx_hal_dma.c ****       __HAL_DMA_CLEAR_FLAG(hdma, ((DMA_FLAG_GI1) << (hdma->ChannelIndex & 0x1cU)));
 636:Drivers/STM32G0xx_HAL_Driver/Src/stm32g0xx_hal_dma.c **** 
 637:Drivers/STM32G0xx_HAL_Driver/Src/stm32g0xx_hal_dma.c ****       /* Update error code */
 638:Drivers/STM32G0xx_HAL_Driver/Src/stm32g0xx_hal_dma.c ****       hdma->ErrorCode = HAL_DMA_ERROR_TE;
 639:Drivers/STM32G0xx_HAL_Driver/Src/stm32g0xx_hal_dma.c **** 
 640:Drivers/STM32G0xx_HAL_Driver/Src/stm32g0xx_hal_dma.c ****       /* Change the DMA state */
 641:Drivers/STM32G0xx_HAL_Driver/Src/stm32g0xx_hal_dma.c ****       hdma->State = HAL_DMA_STATE_READY;
 642:Drivers/STM32G0xx_HAL_Driver/Src/stm32g0xx_hal_dma.c **** 
 643:Drivers/STM32G0xx_HAL_Driver/Src/stm32g0xx_hal_dma.c ****       /* Process Unlocked */
 644:Drivers/STM32G0xx_HAL_Driver/Src/stm32g0xx_hal_dma.c ****       __HAL_UNLOCK(hdma);
 645:Drivers/STM32G0xx_HAL_Driver/Src/stm32g0xx_hal_dma.c **** 
 646:Drivers/STM32G0xx_HAL_Driver/Src/stm32g0xx_hal_dma.c ****       return HAL_ERROR;
 647:Drivers/STM32G0xx_HAL_Driver/Src/stm32g0xx_hal_dma.c ****     }
 648:Drivers/STM32G0xx_HAL_Driver/Src/stm32g0xx_hal_dma.c ****     /* Check for the Timeout */
 649:Drivers/STM32G0xx_HAL_Driver/Src/stm32g0xx_hal_dma.c ****     if (Timeout != HAL_MAX_DELAY)
 650:Drivers/STM32G0xx_HAL_Driver/Src/stm32g0xx_hal_dma.c ****     {
 651:Drivers/STM32G0xx_HAL_Driver/Src/stm32g0xx_hal_dma.c ****       if(((HAL_GetTick() - tickstart ) > Timeout)||(Timeout == 0U))
 652:Drivers/STM32G0xx_HAL_Driver/Src/stm32g0xx_hal_dma.c ****       {
 653:Drivers/STM32G0xx_HAL_Driver/Src/stm32g0xx_hal_dma.c ****         /* Update error code */
 654:Drivers/STM32G0xx_HAL_Driver/Src/stm32g0xx_hal_dma.c ****         hdma->ErrorCode = HAL_DMA_ERROR_TIMEOUT;
 655:Drivers/STM32G0xx_HAL_Driver/Src/stm32g0xx_hal_dma.c **** 
 656:Drivers/STM32G0xx_HAL_Driver/Src/stm32g0xx_hal_dma.c ****         /* Change the DMA state */
 657:Drivers/STM32G0xx_HAL_Driver/Src/stm32g0xx_hal_dma.c ****         hdma->State = HAL_DMA_STATE_READY;
 658:Drivers/STM32G0xx_HAL_Driver/Src/stm32g0xx_hal_dma.c **** 
 659:Drivers/STM32G0xx_HAL_Driver/Src/stm32g0xx_hal_dma.c ****         /* Process Unlocked */
ARM GAS  /tmp/ccbutQBb.s 			page 13


 660:Drivers/STM32G0xx_HAL_Driver/Src/stm32g0xx_hal_dma.c ****         __HAL_UNLOCK(hdma);
 661:Drivers/STM32G0xx_HAL_Driver/Src/stm32g0xx_hal_dma.c **** 
 662:Drivers/STM32G0xx_HAL_Driver/Src/stm32g0xx_hal_dma.c ****         return HAL_ERROR;
 663:Drivers/STM32G0xx_HAL_Driver/Src/stm32g0xx_hal_dma.c ****       }
 664:Drivers/STM32G0xx_HAL_Driver/Src/stm32g0xx_hal_dma.c ****     }
 665:Drivers/STM32G0xx_HAL_Driver/Src/stm32g0xx_hal_dma.c ****   }
 666:Drivers/STM32G0xx_HAL_Driver/Src/stm32g0xx_hal_dma.c **** 
 667:Drivers/STM32G0xx_HAL_Driver/Src/stm32g0xx_hal_dma.c ****   /*Check for DMAMUX Request generator (if used) overrun status */
 668:Drivers/STM32G0xx_HAL_Driver/Src/stm32g0xx_hal_dma.c ****   if (hdma->DMAmuxRequestGen != 0U)
 669:Drivers/STM32G0xx_HAL_Driver/Src/stm32g0xx_hal_dma.c ****   {
 670:Drivers/STM32G0xx_HAL_Driver/Src/stm32g0xx_hal_dma.c ****     /* if using DMAMUX request generator Check for DMAMUX request generator overrun */
 671:Drivers/STM32G0xx_HAL_Driver/Src/stm32g0xx_hal_dma.c ****     if ((hdma->DMAmuxRequestGenStatus->RGSR & hdma->DMAmuxRequestGenStatusMask) != 0U)
 672:Drivers/STM32G0xx_HAL_Driver/Src/stm32g0xx_hal_dma.c ****     {
 673:Drivers/STM32G0xx_HAL_Driver/Src/stm32g0xx_hal_dma.c ****       /* Disable the request gen overrun interrupt */
 674:Drivers/STM32G0xx_HAL_Driver/Src/stm32g0xx_hal_dma.c ****       hdma->DMAmuxRequestGen->RGCR |= DMAMUX_RGxCR_OIE;
 675:Drivers/STM32G0xx_HAL_Driver/Src/stm32g0xx_hal_dma.c **** 
 676:Drivers/STM32G0xx_HAL_Driver/Src/stm32g0xx_hal_dma.c ****       /* Clear the DMAMUX request generator overrun flag */
 677:Drivers/STM32G0xx_HAL_Driver/Src/stm32g0xx_hal_dma.c ****       hdma->DMAmuxRequestGenStatus->RGCFR = hdma->DMAmuxRequestGenStatusMask;
 678:Drivers/STM32G0xx_HAL_Driver/Src/stm32g0xx_hal_dma.c **** 
 679:Drivers/STM32G0xx_HAL_Driver/Src/stm32g0xx_hal_dma.c ****       /* Update error code */
 680:Drivers/STM32G0xx_HAL_Driver/Src/stm32g0xx_hal_dma.c ****       hdma->ErrorCode |= HAL_DMA_ERROR_REQGEN;
 681:Drivers/STM32G0xx_HAL_Driver/Src/stm32g0xx_hal_dma.c ****     }
 682:Drivers/STM32G0xx_HAL_Driver/Src/stm32g0xx_hal_dma.c ****   }
 683:Drivers/STM32G0xx_HAL_Driver/Src/stm32g0xx_hal_dma.c **** 
 684:Drivers/STM32G0xx_HAL_Driver/Src/stm32g0xx_hal_dma.c ****   /* Check for DMAMUX Synchronization overrun */
 685:Drivers/STM32G0xx_HAL_Driver/Src/stm32g0xx_hal_dma.c ****   if ((hdma->DMAmuxChannelStatus->CSR & hdma->DMAmuxChannelStatusMask) != 0U)
 686:Drivers/STM32G0xx_HAL_Driver/Src/stm32g0xx_hal_dma.c ****   {
 687:Drivers/STM32G0xx_HAL_Driver/Src/stm32g0xx_hal_dma.c ****     /* Clear the DMAMUX synchro overrun flag */
 688:Drivers/STM32G0xx_HAL_Driver/Src/stm32g0xx_hal_dma.c ****     hdma->DMAmuxChannelStatus->CFR = hdma->DMAmuxChannelStatusMask;
 689:Drivers/STM32G0xx_HAL_Driver/Src/stm32g0xx_hal_dma.c **** 
 690:Drivers/STM32G0xx_HAL_Driver/Src/stm32g0xx_hal_dma.c ****     /* Update error code */
 691:Drivers/STM32G0xx_HAL_Driver/Src/stm32g0xx_hal_dma.c ****     hdma->ErrorCode |= HAL_DMA_ERROR_SYNC;
 692:Drivers/STM32G0xx_HAL_Driver/Src/stm32g0xx_hal_dma.c ****   }
 693:Drivers/STM32G0xx_HAL_Driver/Src/stm32g0xx_hal_dma.c **** 
 694:Drivers/STM32G0xx_HAL_Driver/Src/stm32g0xx_hal_dma.c ****   if (HAL_DMA_FULL_TRANSFER == CompleteLevel)
 695:Drivers/STM32G0xx_HAL_Driver/Src/stm32g0xx_hal_dma.c ****   {
 696:Drivers/STM32G0xx_HAL_Driver/Src/stm32g0xx_hal_dma.c ****     /* Clear the transfer complete flag */
 697:Drivers/STM32G0xx_HAL_Driver/Src/stm32g0xx_hal_dma.c ****     __HAL_DMA_CLEAR_FLAG(hdma, (DMA_FLAG_TC1 << (hdma->ChannelIndex & 0x1cU)));
 698:Drivers/STM32G0xx_HAL_Driver/Src/stm32g0xx_hal_dma.c **** 
 699:Drivers/STM32G0xx_HAL_Driver/Src/stm32g0xx_hal_dma.c ****     /* The selected Channelx EN bit is cleared (DMA is disabled and
 700:Drivers/STM32G0xx_HAL_Driver/Src/stm32g0xx_hal_dma.c ****     all transfers are complete) */
 701:Drivers/STM32G0xx_HAL_Driver/Src/stm32g0xx_hal_dma.c ****     hdma->State = HAL_DMA_STATE_READY;
 702:Drivers/STM32G0xx_HAL_Driver/Src/stm32g0xx_hal_dma.c ****   }
 703:Drivers/STM32G0xx_HAL_Driver/Src/stm32g0xx_hal_dma.c ****   else
 704:Drivers/STM32G0xx_HAL_Driver/Src/stm32g0xx_hal_dma.c ****   {
 705:Drivers/STM32G0xx_HAL_Driver/Src/stm32g0xx_hal_dma.c ****     /* Clear the half transfer complete flag */
 706:Drivers/STM32G0xx_HAL_Driver/Src/stm32g0xx_hal_dma.c ****     __HAL_DMA_CLEAR_FLAG(hdma, (DMA_FLAG_HT1 << (hdma->ChannelIndex & 0x1cU)));
 707:Drivers/STM32G0xx_HAL_Driver/Src/stm32g0xx_hal_dma.c ****   }
 708:Drivers/STM32G0xx_HAL_Driver/Src/stm32g0xx_hal_dma.c **** 
 709:Drivers/STM32G0xx_HAL_Driver/Src/stm32g0xx_hal_dma.c ****   /* Process unlocked */
 710:Drivers/STM32G0xx_HAL_Driver/Src/stm32g0xx_hal_dma.c ****   __HAL_UNLOCK(hdma);
 711:Drivers/STM32G0xx_HAL_Driver/Src/stm32g0xx_hal_dma.c **** 
 712:Drivers/STM32G0xx_HAL_Driver/Src/stm32g0xx_hal_dma.c ****   return HAL_OK;
 713:Drivers/STM32G0xx_HAL_Driver/Src/stm32g0xx_hal_dma.c **** }
 714:Drivers/STM32G0xx_HAL_Driver/Src/stm32g0xx_hal_dma.c **** 
 715:Drivers/STM32G0xx_HAL_Driver/Src/stm32g0xx_hal_dma.c **** /**
 716:Drivers/STM32G0xx_HAL_Driver/Src/stm32g0xx_hal_dma.c ****   * @brief  Handle DMA interrupt request.
ARM GAS  /tmp/ccbutQBb.s 			page 14


 717:Drivers/STM32G0xx_HAL_Driver/Src/stm32g0xx_hal_dma.c ****   * @param  hdma: pointer to a DMA_HandleTypeDef structure that contains
 718:Drivers/STM32G0xx_HAL_Driver/Src/stm32g0xx_hal_dma.c ****   *               the configuration information for the specified DMA Channel.
 719:Drivers/STM32G0xx_HAL_Driver/Src/stm32g0xx_hal_dma.c ****   * @retval None
 720:Drivers/STM32G0xx_HAL_Driver/Src/stm32g0xx_hal_dma.c ****   */
 721:Drivers/STM32G0xx_HAL_Driver/Src/stm32g0xx_hal_dma.c **** void HAL_DMA_IRQHandler(DMA_HandleTypeDef *hdma)
 722:Drivers/STM32G0xx_HAL_Driver/Src/stm32g0xx_hal_dma.c **** {
 723:Drivers/STM32G0xx_HAL_Driver/Src/stm32g0xx_hal_dma.c ****   uint32_t flag_it = DMA1->ISR;
 724:Drivers/STM32G0xx_HAL_Driver/Src/stm32g0xx_hal_dma.c ****   uint32_t source_it = hdma->Instance->CCR;
 725:Drivers/STM32G0xx_HAL_Driver/Src/stm32g0xx_hal_dma.c **** 
 726:Drivers/STM32G0xx_HAL_Driver/Src/stm32g0xx_hal_dma.c ****   /* Half Transfer Complete Interrupt management ******************************/
 727:Drivers/STM32G0xx_HAL_Driver/Src/stm32g0xx_hal_dma.c ****   if (((flag_it & (DMA_FLAG_HT1 << (hdma->ChannelIndex & 0x1cU))) != 0U) && ((source_it & DMA_IT_HT
 728:Drivers/STM32G0xx_HAL_Driver/Src/stm32g0xx_hal_dma.c ****   {
 729:Drivers/STM32G0xx_HAL_Driver/Src/stm32g0xx_hal_dma.c ****     /* Disable the half transfer interrupt if the DMA mode is not CIRCULAR */
 730:Drivers/STM32G0xx_HAL_Driver/Src/stm32g0xx_hal_dma.c ****     if ((hdma->Instance->CCR & DMA_CCR_CIRC) == 0U)
 731:Drivers/STM32G0xx_HAL_Driver/Src/stm32g0xx_hal_dma.c ****     {
 732:Drivers/STM32G0xx_HAL_Driver/Src/stm32g0xx_hal_dma.c ****       /* Disable the half transfer interrupt */
 733:Drivers/STM32G0xx_HAL_Driver/Src/stm32g0xx_hal_dma.c ****       __HAL_DMA_DISABLE_IT(hdma, DMA_IT_HT);
 734:Drivers/STM32G0xx_HAL_Driver/Src/stm32g0xx_hal_dma.c ****     }
 735:Drivers/STM32G0xx_HAL_Driver/Src/stm32g0xx_hal_dma.c ****     /* Clear the half transfer complete flag */
 736:Drivers/STM32G0xx_HAL_Driver/Src/stm32g0xx_hal_dma.c ****     __HAL_DMA_CLEAR_FLAG(hdma, (DMA_FLAG_HT1 << (hdma->ChannelIndex & 0x1cU)));
 737:Drivers/STM32G0xx_HAL_Driver/Src/stm32g0xx_hal_dma.c **** 
 738:Drivers/STM32G0xx_HAL_Driver/Src/stm32g0xx_hal_dma.c ****     /* DMA peripheral state is not updated in Half Transfer */
 739:Drivers/STM32G0xx_HAL_Driver/Src/stm32g0xx_hal_dma.c ****     /* but in Transfer Complete case */
 740:Drivers/STM32G0xx_HAL_Driver/Src/stm32g0xx_hal_dma.c **** 
 741:Drivers/STM32G0xx_HAL_Driver/Src/stm32g0xx_hal_dma.c ****     if (hdma->XferHalfCpltCallback != NULL)
 742:Drivers/STM32G0xx_HAL_Driver/Src/stm32g0xx_hal_dma.c ****     {
 743:Drivers/STM32G0xx_HAL_Driver/Src/stm32g0xx_hal_dma.c ****       /* Half transfer callback */
 744:Drivers/STM32G0xx_HAL_Driver/Src/stm32g0xx_hal_dma.c ****       hdma->XferHalfCpltCallback(hdma);
 745:Drivers/STM32G0xx_HAL_Driver/Src/stm32g0xx_hal_dma.c ****     }
 746:Drivers/STM32G0xx_HAL_Driver/Src/stm32g0xx_hal_dma.c ****   }
 747:Drivers/STM32G0xx_HAL_Driver/Src/stm32g0xx_hal_dma.c **** 
 748:Drivers/STM32G0xx_HAL_Driver/Src/stm32g0xx_hal_dma.c ****   /* Transfer Complete Interrupt management ***********************************/
 749:Drivers/STM32G0xx_HAL_Driver/Src/stm32g0xx_hal_dma.c ****   else if ((0U != (flag_it & (DMA_FLAG_TC1 << (hdma->ChannelIndex & 0x1cU)))) && (0U != (source_it 
 750:Drivers/STM32G0xx_HAL_Driver/Src/stm32g0xx_hal_dma.c ****   {
 751:Drivers/STM32G0xx_HAL_Driver/Src/stm32g0xx_hal_dma.c ****     if ((hdma->Instance->CCR & DMA_CCR_CIRC) == 0U)
 752:Drivers/STM32G0xx_HAL_Driver/Src/stm32g0xx_hal_dma.c ****     {
 753:Drivers/STM32G0xx_HAL_Driver/Src/stm32g0xx_hal_dma.c ****       /* Disable the transfer complete and error interrupt */
 754:Drivers/STM32G0xx_HAL_Driver/Src/stm32g0xx_hal_dma.c ****       __HAL_DMA_DISABLE_IT(hdma, DMA_IT_TE | DMA_IT_TC);
 755:Drivers/STM32G0xx_HAL_Driver/Src/stm32g0xx_hal_dma.c **** 
 756:Drivers/STM32G0xx_HAL_Driver/Src/stm32g0xx_hal_dma.c ****       /* Change the DMA state */
 757:Drivers/STM32G0xx_HAL_Driver/Src/stm32g0xx_hal_dma.c ****       hdma->State = HAL_DMA_STATE_READY;
 758:Drivers/STM32G0xx_HAL_Driver/Src/stm32g0xx_hal_dma.c ****     }
 759:Drivers/STM32G0xx_HAL_Driver/Src/stm32g0xx_hal_dma.c ****     /* Clear the transfer complete flag */
 760:Drivers/STM32G0xx_HAL_Driver/Src/stm32g0xx_hal_dma.c ****     __HAL_DMA_CLEAR_FLAG(hdma, (DMA_FLAG_TC1 << (hdma->ChannelIndex & 0x1cU)));
 761:Drivers/STM32G0xx_HAL_Driver/Src/stm32g0xx_hal_dma.c **** 
 762:Drivers/STM32G0xx_HAL_Driver/Src/stm32g0xx_hal_dma.c ****     /* Process Unlocked */
 763:Drivers/STM32G0xx_HAL_Driver/Src/stm32g0xx_hal_dma.c ****     __HAL_UNLOCK(hdma);
 764:Drivers/STM32G0xx_HAL_Driver/Src/stm32g0xx_hal_dma.c **** 
 765:Drivers/STM32G0xx_HAL_Driver/Src/stm32g0xx_hal_dma.c ****     if (hdma->XferCpltCallback != NULL)
 766:Drivers/STM32G0xx_HAL_Driver/Src/stm32g0xx_hal_dma.c ****     {
 767:Drivers/STM32G0xx_HAL_Driver/Src/stm32g0xx_hal_dma.c ****       /* Transfer complete callback */
 768:Drivers/STM32G0xx_HAL_Driver/Src/stm32g0xx_hal_dma.c ****       hdma->XferCpltCallback(hdma);
 769:Drivers/STM32G0xx_HAL_Driver/Src/stm32g0xx_hal_dma.c ****     }
 770:Drivers/STM32G0xx_HAL_Driver/Src/stm32g0xx_hal_dma.c ****   }
 771:Drivers/STM32G0xx_HAL_Driver/Src/stm32g0xx_hal_dma.c **** 
 772:Drivers/STM32G0xx_HAL_Driver/Src/stm32g0xx_hal_dma.c ****   /* Transfer Error Interrupt management **************************************/
 773:Drivers/STM32G0xx_HAL_Driver/Src/stm32g0xx_hal_dma.c ****   else if (((flag_it & (DMA_FLAG_TE1 << (hdma->ChannelIndex & 0x1cU)))!= 0U) && ((source_it & DMA_I
ARM GAS  /tmp/ccbutQBb.s 			page 15


 774:Drivers/STM32G0xx_HAL_Driver/Src/stm32g0xx_hal_dma.c ****   {
 775:Drivers/STM32G0xx_HAL_Driver/Src/stm32g0xx_hal_dma.c ****     /* When a DMA transfer error occurs */
 776:Drivers/STM32G0xx_HAL_Driver/Src/stm32g0xx_hal_dma.c ****     /* A hardware clear of its EN bits is performed */
 777:Drivers/STM32G0xx_HAL_Driver/Src/stm32g0xx_hal_dma.c ****     /* Disable ALL DMA IT */
 778:Drivers/STM32G0xx_HAL_Driver/Src/stm32g0xx_hal_dma.c ****     __HAL_DMA_DISABLE_IT(hdma, (DMA_IT_TC | DMA_IT_HT | DMA_IT_TE));
 779:Drivers/STM32G0xx_HAL_Driver/Src/stm32g0xx_hal_dma.c **** 
 780:Drivers/STM32G0xx_HAL_Driver/Src/stm32g0xx_hal_dma.c ****     /* Clear all flags */
 781:Drivers/STM32G0xx_HAL_Driver/Src/stm32g0xx_hal_dma.c ****     __HAL_DMA_CLEAR_FLAG(hdma, (DMA_FLAG_GI1 << (hdma->ChannelIndex& 0x1cU)));
 782:Drivers/STM32G0xx_HAL_Driver/Src/stm32g0xx_hal_dma.c **** 
 783:Drivers/STM32G0xx_HAL_Driver/Src/stm32g0xx_hal_dma.c ****     /* Update error code */
 784:Drivers/STM32G0xx_HAL_Driver/Src/stm32g0xx_hal_dma.c ****     hdma->ErrorCode = HAL_DMA_ERROR_TE;
 785:Drivers/STM32G0xx_HAL_Driver/Src/stm32g0xx_hal_dma.c **** 
 786:Drivers/STM32G0xx_HAL_Driver/Src/stm32g0xx_hal_dma.c ****     /* Change the DMA state */
 787:Drivers/STM32G0xx_HAL_Driver/Src/stm32g0xx_hal_dma.c ****     hdma->State = HAL_DMA_STATE_READY;
 788:Drivers/STM32G0xx_HAL_Driver/Src/stm32g0xx_hal_dma.c **** 
 789:Drivers/STM32G0xx_HAL_Driver/Src/stm32g0xx_hal_dma.c ****     /* Process Unlocked */
 790:Drivers/STM32G0xx_HAL_Driver/Src/stm32g0xx_hal_dma.c ****     __HAL_UNLOCK(hdma);
 791:Drivers/STM32G0xx_HAL_Driver/Src/stm32g0xx_hal_dma.c **** 
 792:Drivers/STM32G0xx_HAL_Driver/Src/stm32g0xx_hal_dma.c ****     if (hdma->XferErrorCallback != NULL)
 793:Drivers/STM32G0xx_HAL_Driver/Src/stm32g0xx_hal_dma.c ****     {
 794:Drivers/STM32G0xx_HAL_Driver/Src/stm32g0xx_hal_dma.c ****       /* Transfer error callback */
 795:Drivers/STM32G0xx_HAL_Driver/Src/stm32g0xx_hal_dma.c ****       hdma->XferErrorCallback(hdma);
 796:Drivers/STM32G0xx_HAL_Driver/Src/stm32g0xx_hal_dma.c ****     }
 797:Drivers/STM32G0xx_HAL_Driver/Src/stm32g0xx_hal_dma.c ****   }
 798:Drivers/STM32G0xx_HAL_Driver/Src/stm32g0xx_hal_dma.c ****   else
 799:Drivers/STM32G0xx_HAL_Driver/Src/stm32g0xx_hal_dma.c ****   {
 800:Drivers/STM32G0xx_HAL_Driver/Src/stm32g0xx_hal_dma.c ****     /* Nothing To Do */
 801:Drivers/STM32G0xx_HAL_Driver/Src/stm32g0xx_hal_dma.c ****   }
 802:Drivers/STM32G0xx_HAL_Driver/Src/stm32g0xx_hal_dma.c ****   return;
 803:Drivers/STM32G0xx_HAL_Driver/Src/stm32g0xx_hal_dma.c **** }
 804:Drivers/STM32G0xx_HAL_Driver/Src/stm32g0xx_hal_dma.c **** 
 805:Drivers/STM32G0xx_HAL_Driver/Src/stm32g0xx_hal_dma.c **** /**
 806:Drivers/STM32G0xx_HAL_Driver/Src/stm32g0xx_hal_dma.c ****   * @brief  Register callbacks
 807:Drivers/STM32G0xx_HAL_Driver/Src/stm32g0xx_hal_dma.c ****   * @param  hdma                  pointer to a DMA_HandleTypeDef structure that contains
 808:Drivers/STM32G0xx_HAL_Driver/Src/stm32g0xx_hal_dma.c ****   *                               the configuration information for the specified DMA Stream.
 809:Drivers/STM32G0xx_HAL_Driver/Src/stm32g0xx_hal_dma.c ****   * @param  CallbackID            User Callback identifer
 810:Drivers/STM32G0xx_HAL_Driver/Src/stm32g0xx_hal_dma.c ****   *                               a HAL_DMA_CallbackIDTypeDef ENUM as parameter.
 811:Drivers/STM32G0xx_HAL_Driver/Src/stm32g0xx_hal_dma.c ****   * @param  pCallback             pointer to private callbacsk function which has pointer to
 812:Drivers/STM32G0xx_HAL_Driver/Src/stm32g0xx_hal_dma.c ****   *                               a DMA_HandleTypeDef structure as parameter.
 813:Drivers/STM32G0xx_HAL_Driver/Src/stm32g0xx_hal_dma.c ****   * @retval HAL status
 814:Drivers/STM32G0xx_HAL_Driver/Src/stm32g0xx_hal_dma.c ****   */
 815:Drivers/STM32G0xx_HAL_Driver/Src/stm32g0xx_hal_dma.c **** HAL_StatusTypeDef HAL_DMA_RegisterCallback(DMA_HandleTypeDef *hdma, HAL_DMA_CallbackIDTypeDef Callb
 816:Drivers/STM32G0xx_HAL_Driver/Src/stm32g0xx_hal_dma.c **** {
 817:Drivers/STM32G0xx_HAL_Driver/Src/stm32g0xx_hal_dma.c ****   HAL_StatusTypeDef status = HAL_OK;
 818:Drivers/STM32G0xx_HAL_Driver/Src/stm32g0xx_hal_dma.c **** 
 819:Drivers/STM32G0xx_HAL_Driver/Src/stm32g0xx_hal_dma.c ****   /* Process locked */
 820:Drivers/STM32G0xx_HAL_Driver/Src/stm32g0xx_hal_dma.c ****   __HAL_LOCK(hdma);
 821:Drivers/STM32G0xx_HAL_Driver/Src/stm32g0xx_hal_dma.c **** 
 822:Drivers/STM32G0xx_HAL_Driver/Src/stm32g0xx_hal_dma.c ****   if (HAL_DMA_STATE_READY == hdma->State)
 823:Drivers/STM32G0xx_HAL_Driver/Src/stm32g0xx_hal_dma.c ****   {
 824:Drivers/STM32G0xx_HAL_Driver/Src/stm32g0xx_hal_dma.c ****     switch (CallbackID)
 825:Drivers/STM32G0xx_HAL_Driver/Src/stm32g0xx_hal_dma.c ****     {
 826:Drivers/STM32G0xx_HAL_Driver/Src/stm32g0xx_hal_dma.c ****       case  HAL_DMA_XFER_CPLT_CB_ID:
 827:Drivers/STM32G0xx_HAL_Driver/Src/stm32g0xx_hal_dma.c ****         hdma->XferCpltCallback = pCallback;
 828:Drivers/STM32G0xx_HAL_Driver/Src/stm32g0xx_hal_dma.c ****         break;
 829:Drivers/STM32G0xx_HAL_Driver/Src/stm32g0xx_hal_dma.c **** 
 830:Drivers/STM32G0xx_HAL_Driver/Src/stm32g0xx_hal_dma.c ****       case  HAL_DMA_XFER_HALFCPLT_CB_ID:
ARM GAS  /tmp/ccbutQBb.s 			page 16


 831:Drivers/STM32G0xx_HAL_Driver/Src/stm32g0xx_hal_dma.c ****         hdma->XferHalfCpltCallback = pCallback;
 832:Drivers/STM32G0xx_HAL_Driver/Src/stm32g0xx_hal_dma.c ****         break;
 833:Drivers/STM32G0xx_HAL_Driver/Src/stm32g0xx_hal_dma.c **** 
 834:Drivers/STM32G0xx_HAL_Driver/Src/stm32g0xx_hal_dma.c ****       case  HAL_DMA_XFER_ERROR_CB_ID:
 835:Drivers/STM32G0xx_HAL_Driver/Src/stm32g0xx_hal_dma.c ****         hdma->XferErrorCallback = pCallback;
 836:Drivers/STM32G0xx_HAL_Driver/Src/stm32g0xx_hal_dma.c ****         break;
 837:Drivers/STM32G0xx_HAL_Driver/Src/stm32g0xx_hal_dma.c **** 
 838:Drivers/STM32G0xx_HAL_Driver/Src/stm32g0xx_hal_dma.c ****       case  HAL_DMA_XFER_ABORT_CB_ID:
 839:Drivers/STM32G0xx_HAL_Driver/Src/stm32g0xx_hal_dma.c ****         hdma->XferAbortCallback = pCallback;
 840:Drivers/STM32G0xx_HAL_Driver/Src/stm32g0xx_hal_dma.c ****         break;
 841:Drivers/STM32G0xx_HAL_Driver/Src/stm32g0xx_hal_dma.c **** 
 842:Drivers/STM32G0xx_HAL_Driver/Src/stm32g0xx_hal_dma.c ****       default:
 843:Drivers/STM32G0xx_HAL_Driver/Src/stm32g0xx_hal_dma.c ****         status = HAL_ERROR;
 844:Drivers/STM32G0xx_HAL_Driver/Src/stm32g0xx_hal_dma.c ****         break;
 845:Drivers/STM32G0xx_HAL_Driver/Src/stm32g0xx_hal_dma.c ****     }
 846:Drivers/STM32G0xx_HAL_Driver/Src/stm32g0xx_hal_dma.c ****   }
 847:Drivers/STM32G0xx_HAL_Driver/Src/stm32g0xx_hal_dma.c ****   else
 848:Drivers/STM32G0xx_HAL_Driver/Src/stm32g0xx_hal_dma.c ****   {
 849:Drivers/STM32G0xx_HAL_Driver/Src/stm32g0xx_hal_dma.c ****     status = HAL_ERROR;
 850:Drivers/STM32G0xx_HAL_Driver/Src/stm32g0xx_hal_dma.c ****   }
 851:Drivers/STM32G0xx_HAL_Driver/Src/stm32g0xx_hal_dma.c **** 
 852:Drivers/STM32G0xx_HAL_Driver/Src/stm32g0xx_hal_dma.c ****   /* Release Lock */
 853:Drivers/STM32G0xx_HAL_Driver/Src/stm32g0xx_hal_dma.c ****   __HAL_UNLOCK(hdma);
 854:Drivers/STM32G0xx_HAL_Driver/Src/stm32g0xx_hal_dma.c **** 
 855:Drivers/STM32G0xx_HAL_Driver/Src/stm32g0xx_hal_dma.c ****   return status;
 856:Drivers/STM32G0xx_HAL_Driver/Src/stm32g0xx_hal_dma.c **** }
 857:Drivers/STM32G0xx_HAL_Driver/Src/stm32g0xx_hal_dma.c **** 
 858:Drivers/STM32G0xx_HAL_Driver/Src/stm32g0xx_hal_dma.c **** /**
 859:Drivers/STM32G0xx_HAL_Driver/Src/stm32g0xx_hal_dma.c ****   * @brief  UnRegister callbacks
 860:Drivers/STM32G0xx_HAL_Driver/Src/stm32g0xx_hal_dma.c ****   * @param  hdma                  pointer to a DMA_HandleTypeDef structure that contains
 861:Drivers/STM32G0xx_HAL_Driver/Src/stm32g0xx_hal_dma.c ****   *                               the configuration information for the specified DMA Stream.
 862:Drivers/STM32G0xx_HAL_Driver/Src/stm32g0xx_hal_dma.c ****   * @param  CallbackID            User Callback identifer
 863:Drivers/STM32G0xx_HAL_Driver/Src/stm32g0xx_hal_dma.c ****   *                               a HAL_DMA_CallbackIDTypeDef ENUM as parameter.
 864:Drivers/STM32G0xx_HAL_Driver/Src/stm32g0xx_hal_dma.c ****   * @retval HAL status
 865:Drivers/STM32G0xx_HAL_Driver/Src/stm32g0xx_hal_dma.c ****   */
 866:Drivers/STM32G0xx_HAL_Driver/Src/stm32g0xx_hal_dma.c **** HAL_StatusTypeDef HAL_DMA_UnRegisterCallback(DMA_HandleTypeDef *hdma, HAL_DMA_CallbackIDTypeDef Cal
 867:Drivers/STM32G0xx_HAL_Driver/Src/stm32g0xx_hal_dma.c **** {
 868:Drivers/STM32G0xx_HAL_Driver/Src/stm32g0xx_hal_dma.c ****   HAL_StatusTypeDef status = HAL_OK;
 869:Drivers/STM32G0xx_HAL_Driver/Src/stm32g0xx_hal_dma.c **** 
 870:Drivers/STM32G0xx_HAL_Driver/Src/stm32g0xx_hal_dma.c ****   /* Process locked */
 871:Drivers/STM32G0xx_HAL_Driver/Src/stm32g0xx_hal_dma.c ****   __HAL_LOCK(hdma);
 872:Drivers/STM32G0xx_HAL_Driver/Src/stm32g0xx_hal_dma.c **** 
 873:Drivers/STM32G0xx_HAL_Driver/Src/stm32g0xx_hal_dma.c ****   if (HAL_DMA_STATE_READY == hdma->State)
 874:Drivers/STM32G0xx_HAL_Driver/Src/stm32g0xx_hal_dma.c ****   {
 875:Drivers/STM32G0xx_HAL_Driver/Src/stm32g0xx_hal_dma.c ****     switch (CallbackID)
 876:Drivers/STM32G0xx_HAL_Driver/Src/stm32g0xx_hal_dma.c ****     {
 877:Drivers/STM32G0xx_HAL_Driver/Src/stm32g0xx_hal_dma.c ****       case  HAL_DMA_XFER_CPLT_CB_ID:
 878:Drivers/STM32G0xx_HAL_Driver/Src/stm32g0xx_hal_dma.c ****         hdma->XferCpltCallback = NULL;
 879:Drivers/STM32G0xx_HAL_Driver/Src/stm32g0xx_hal_dma.c ****         break;
 880:Drivers/STM32G0xx_HAL_Driver/Src/stm32g0xx_hal_dma.c **** 
 881:Drivers/STM32G0xx_HAL_Driver/Src/stm32g0xx_hal_dma.c ****       case  HAL_DMA_XFER_HALFCPLT_CB_ID:
 882:Drivers/STM32G0xx_HAL_Driver/Src/stm32g0xx_hal_dma.c ****         hdma->XferHalfCpltCallback = NULL;
 883:Drivers/STM32G0xx_HAL_Driver/Src/stm32g0xx_hal_dma.c ****         break;
 884:Drivers/STM32G0xx_HAL_Driver/Src/stm32g0xx_hal_dma.c **** 
 885:Drivers/STM32G0xx_HAL_Driver/Src/stm32g0xx_hal_dma.c ****       case  HAL_DMA_XFER_ERROR_CB_ID:
 886:Drivers/STM32G0xx_HAL_Driver/Src/stm32g0xx_hal_dma.c ****         hdma->XferErrorCallback = NULL;
 887:Drivers/STM32G0xx_HAL_Driver/Src/stm32g0xx_hal_dma.c ****         break;
ARM GAS  /tmp/ccbutQBb.s 			page 17


 888:Drivers/STM32G0xx_HAL_Driver/Src/stm32g0xx_hal_dma.c **** 
 889:Drivers/STM32G0xx_HAL_Driver/Src/stm32g0xx_hal_dma.c ****       case  HAL_DMA_XFER_ABORT_CB_ID:
 890:Drivers/STM32G0xx_HAL_Driver/Src/stm32g0xx_hal_dma.c ****         hdma->XferAbortCallback = NULL;
 891:Drivers/STM32G0xx_HAL_Driver/Src/stm32g0xx_hal_dma.c ****         break;
 892:Drivers/STM32G0xx_HAL_Driver/Src/stm32g0xx_hal_dma.c **** 
 893:Drivers/STM32G0xx_HAL_Driver/Src/stm32g0xx_hal_dma.c ****       case   HAL_DMA_XFER_ALL_CB_ID:
 894:Drivers/STM32G0xx_HAL_Driver/Src/stm32g0xx_hal_dma.c ****         hdma->XferCpltCallback = NULL;
 895:Drivers/STM32G0xx_HAL_Driver/Src/stm32g0xx_hal_dma.c ****         hdma->XferHalfCpltCallback = NULL;
 896:Drivers/STM32G0xx_HAL_Driver/Src/stm32g0xx_hal_dma.c ****         hdma->XferErrorCallback = NULL;
 897:Drivers/STM32G0xx_HAL_Driver/Src/stm32g0xx_hal_dma.c ****         hdma->XferAbortCallback = NULL;
 898:Drivers/STM32G0xx_HAL_Driver/Src/stm32g0xx_hal_dma.c ****         break;
 899:Drivers/STM32G0xx_HAL_Driver/Src/stm32g0xx_hal_dma.c **** 
 900:Drivers/STM32G0xx_HAL_Driver/Src/stm32g0xx_hal_dma.c ****       default:
 901:Drivers/STM32G0xx_HAL_Driver/Src/stm32g0xx_hal_dma.c ****         status = HAL_ERROR;
 902:Drivers/STM32G0xx_HAL_Driver/Src/stm32g0xx_hal_dma.c ****         break;
 903:Drivers/STM32G0xx_HAL_Driver/Src/stm32g0xx_hal_dma.c ****     }
 904:Drivers/STM32G0xx_HAL_Driver/Src/stm32g0xx_hal_dma.c ****   }
 905:Drivers/STM32G0xx_HAL_Driver/Src/stm32g0xx_hal_dma.c ****   else
 906:Drivers/STM32G0xx_HAL_Driver/Src/stm32g0xx_hal_dma.c ****   {
 907:Drivers/STM32G0xx_HAL_Driver/Src/stm32g0xx_hal_dma.c ****     status = HAL_ERROR;
 908:Drivers/STM32G0xx_HAL_Driver/Src/stm32g0xx_hal_dma.c ****   }
 909:Drivers/STM32G0xx_HAL_Driver/Src/stm32g0xx_hal_dma.c **** 
 910:Drivers/STM32G0xx_HAL_Driver/Src/stm32g0xx_hal_dma.c ****   /* Release Lock */
 911:Drivers/STM32G0xx_HAL_Driver/Src/stm32g0xx_hal_dma.c ****   __HAL_UNLOCK(hdma);
 912:Drivers/STM32G0xx_HAL_Driver/Src/stm32g0xx_hal_dma.c **** 
 913:Drivers/STM32G0xx_HAL_Driver/Src/stm32g0xx_hal_dma.c ****   return status;
 914:Drivers/STM32G0xx_HAL_Driver/Src/stm32g0xx_hal_dma.c **** }
 915:Drivers/STM32G0xx_HAL_Driver/Src/stm32g0xx_hal_dma.c **** 
 916:Drivers/STM32G0xx_HAL_Driver/Src/stm32g0xx_hal_dma.c **** /**
 917:Drivers/STM32G0xx_HAL_Driver/Src/stm32g0xx_hal_dma.c ****   * @}
 918:Drivers/STM32G0xx_HAL_Driver/Src/stm32g0xx_hal_dma.c ****   */
 919:Drivers/STM32G0xx_HAL_Driver/Src/stm32g0xx_hal_dma.c **** 
 920:Drivers/STM32G0xx_HAL_Driver/Src/stm32g0xx_hal_dma.c **** 
 921:Drivers/STM32G0xx_HAL_Driver/Src/stm32g0xx_hal_dma.c **** 
 922:Drivers/STM32G0xx_HAL_Driver/Src/stm32g0xx_hal_dma.c **** /** @defgroup DMA_Exported_Functions_Group3 Peripheral State and Errors functions
 923:Drivers/STM32G0xx_HAL_Driver/Src/stm32g0xx_hal_dma.c ****  *  @brief    Peripheral State and Errors functions
 924:Drivers/STM32G0xx_HAL_Driver/Src/stm32g0xx_hal_dma.c ****  *
 925:Drivers/STM32G0xx_HAL_Driver/Src/stm32g0xx_hal_dma.c **** @verbatim
 926:Drivers/STM32G0xx_HAL_Driver/Src/stm32g0xx_hal_dma.c ****  ===============================================================================
 927:Drivers/STM32G0xx_HAL_Driver/Src/stm32g0xx_hal_dma.c ****             ##### Peripheral State and Errors functions #####
 928:Drivers/STM32G0xx_HAL_Driver/Src/stm32g0xx_hal_dma.c ****  ===============================================================================
 929:Drivers/STM32G0xx_HAL_Driver/Src/stm32g0xx_hal_dma.c ****     [..]
 930:Drivers/STM32G0xx_HAL_Driver/Src/stm32g0xx_hal_dma.c ****     This subsection provides functions allowing to
 931:Drivers/STM32G0xx_HAL_Driver/Src/stm32g0xx_hal_dma.c ****       (+) Check the DMA state
 932:Drivers/STM32G0xx_HAL_Driver/Src/stm32g0xx_hal_dma.c ****       (+) Get error code
 933:Drivers/STM32G0xx_HAL_Driver/Src/stm32g0xx_hal_dma.c **** 
 934:Drivers/STM32G0xx_HAL_Driver/Src/stm32g0xx_hal_dma.c **** @endverbatim
 935:Drivers/STM32G0xx_HAL_Driver/Src/stm32g0xx_hal_dma.c ****   * @{
 936:Drivers/STM32G0xx_HAL_Driver/Src/stm32g0xx_hal_dma.c ****   */
 937:Drivers/STM32G0xx_HAL_Driver/Src/stm32g0xx_hal_dma.c **** 
 938:Drivers/STM32G0xx_HAL_Driver/Src/stm32g0xx_hal_dma.c **** /**
 939:Drivers/STM32G0xx_HAL_Driver/Src/stm32g0xx_hal_dma.c ****   * @brief  Return the DMA hande state.
 940:Drivers/STM32G0xx_HAL_Driver/Src/stm32g0xx_hal_dma.c ****   * @param hdma Pointer to a DMA_HandleTypeDef structure that contains
 941:Drivers/STM32G0xx_HAL_Driver/Src/stm32g0xx_hal_dma.c ****   *               the configuration information for the specified DMA Channel.
 942:Drivers/STM32G0xx_HAL_Driver/Src/stm32g0xx_hal_dma.c ****   * @retval HAL state
 943:Drivers/STM32G0xx_HAL_Driver/Src/stm32g0xx_hal_dma.c ****   */
 944:Drivers/STM32G0xx_HAL_Driver/Src/stm32g0xx_hal_dma.c **** HAL_DMA_StateTypeDef HAL_DMA_GetState(DMA_HandleTypeDef *hdma)
ARM GAS  /tmp/ccbutQBb.s 			page 18


 945:Drivers/STM32G0xx_HAL_Driver/Src/stm32g0xx_hal_dma.c **** {
 946:Drivers/STM32G0xx_HAL_Driver/Src/stm32g0xx_hal_dma.c ****   /* Return DMA handle state */
 947:Drivers/STM32G0xx_HAL_Driver/Src/stm32g0xx_hal_dma.c ****   return hdma->State;
 948:Drivers/STM32G0xx_HAL_Driver/Src/stm32g0xx_hal_dma.c **** }
 949:Drivers/STM32G0xx_HAL_Driver/Src/stm32g0xx_hal_dma.c **** 
 950:Drivers/STM32G0xx_HAL_Driver/Src/stm32g0xx_hal_dma.c **** /**
 951:Drivers/STM32G0xx_HAL_Driver/Src/stm32g0xx_hal_dma.c ****   * @brief  Return the DMA error code.
 952:Drivers/STM32G0xx_HAL_Driver/Src/stm32g0xx_hal_dma.c ****   * @param  hdma Pointer to a DMA_HandleTypeDef structure that contains
 953:Drivers/STM32G0xx_HAL_Driver/Src/stm32g0xx_hal_dma.c ****   *              the configuration information for the specified DMA Channel.
 954:Drivers/STM32G0xx_HAL_Driver/Src/stm32g0xx_hal_dma.c ****   * @retval DMA Error Code
 955:Drivers/STM32G0xx_HAL_Driver/Src/stm32g0xx_hal_dma.c ****   */
 956:Drivers/STM32G0xx_HAL_Driver/Src/stm32g0xx_hal_dma.c **** uint32_t HAL_DMA_GetError(DMA_HandleTypeDef *hdma)
 957:Drivers/STM32G0xx_HAL_Driver/Src/stm32g0xx_hal_dma.c **** {
 958:Drivers/STM32G0xx_HAL_Driver/Src/stm32g0xx_hal_dma.c ****   return hdma->ErrorCode;
 959:Drivers/STM32G0xx_HAL_Driver/Src/stm32g0xx_hal_dma.c **** }
 960:Drivers/STM32G0xx_HAL_Driver/Src/stm32g0xx_hal_dma.c **** 
 961:Drivers/STM32G0xx_HAL_Driver/Src/stm32g0xx_hal_dma.c **** /**
 962:Drivers/STM32G0xx_HAL_Driver/Src/stm32g0xx_hal_dma.c ****   * @}
 963:Drivers/STM32G0xx_HAL_Driver/Src/stm32g0xx_hal_dma.c ****   */
 964:Drivers/STM32G0xx_HAL_Driver/Src/stm32g0xx_hal_dma.c **** 
 965:Drivers/STM32G0xx_HAL_Driver/Src/stm32g0xx_hal_dma.c **** /**
 966:Drivers/STM32G0xx_HAL_Driver/Src/stm32g0xx_hal_dma.c ****   * @}
 967:Drivers/STM32G0xx_HAL_Driver/Src/stm32g0xx_hal_dma.c ****   */
 968:Drivers/STM32G0xx_HAL_Driver/Src/stm32g0xx_hal_dma.c **** 
 969:Drivers/STM32G0xx_HAL_Driver/Src/stm32g0xx_hal_dma.c **** /** @addtogroup DMA_Private_Functions
 970:Drivers/STM32G0xx_HAL_Driver/Src/stm32g0xx_hal_dma.c ****   * @{
 971:Drivers/STM32G0xx_HAL_Driver/Src/stm32g0xx_hal_dma.c ****   */
 972:Drivers/STM32G0xx_HAL_Driver/Src/stm32g0xx_hal_dma.c **** 
 973:Drivers/STM32G0xx_HAL_Driver/Src/stm32g0xx_hal_dma.c **** /**
 974:Drivers/STM32G0xx_HAL_Driver/Src/stm32g0xx_hal_dma.c ****   * @brief  Sets the DMA Transfer parameter.
 975:Drivers/STM32G0xx_HAL_Driver/Src/stm32g0xx_hal_dma.c ****   * @param hdma Pointer to a DMA_HandleTypeDef structure that contains
 976:Drivers/STM32G0xx_HAL_Driver/Src/stm32g0xx_hal_dma.c ****   *                     the configuration information for the specified DMA Channel.
 977:Drivers/STM32G0xx_HAL_Driver/Src/stm32g0xx_hal_dma.c ****   * @param SrcAddress The source memory Buffer address
 978:Drivers/STM32G0xx_HAL_Driver/Src/stm32g0xx_hal_dma.c ****   * @param DstAddress The destination memory Buffer address
 979:Drivers/STM32G0xx_HAL_Driver/Src/stm32g0xx_hal_dma.c ****   * @param DataLength The length of data to be transferred from source to destination
 980:Drivers/STM32G0xx_HAL_Driver/Src/stm32g0xx_hal_dma.c ****   * @retval HAL status
 981:Drivers/STM32G0xx_HAL_Driver/Src/stm32g0xx_hal_dma.c ****   */
 982:Drivers/STM32G0xx_HAL_Driver/Src/stm32g0xx_hal_dma.c **** static void DMA_SetConfig(DMA_HandleTypeDef *hdma, uint32_t SrcAddress, uint32_t DstAddress, uint32
 983:Drivers/STM32G0xx_HAL_Driver/Src/stm32g0xx_hal_dma.c **** {
  27              		.loc 1 983 1 view -0
  28              		.cfi_startproc
  29              		@ args = 0, pretend = 0, frame = 0
  30              		@ frame_needed = 0, uses_anonymous_args = 0
 984:Drivers/STM32G0xx_HAL_Driver/Src/stm32g0xx_hal_dma.c ****   /* Clear the DMAMUX synchro overrun flag */
 985:Drivers/STM32G0xx_HAL_Driver/Src/stm32g0xx_hal_dma.c ****   hdma->DMAmuxChannelStatus->CFR = hdma->DMAmuxChannelStatusMask;
  31              		.loc 1 985 3 view .LVU1
 983:Drivers/STM32G0xx_HAL_Driver/Src/stm32g0xx_hal_dma.c ****   /* Clear the DMAMUX synchro overrun flag */
  32              		.loc 1 983 1 is_stmt 0 view .LVU2
  33 0000 F0B5     		push	{r4, r5, r6, r7, lr}
  34              	.LCFI0:
  35              		.cfi_def_cfa_offset 20
  36              		.cfi_offset 4, -20
  37              		.cfi_offset 5, -16
  38              		.cfi_offset 6, -12
  39              		.cfi_offset 7, -8
  40              		.cfi_offset 14, -4
  41              		.loc 1 985 7 view .LVU3
ARM GAS  /tmp/ccbutQBb.s 			page 19


  42 0002 846C     		ldr	r4, [r0, #72]
  43              		.loc 1 985 34 view .LVU4
  44 0004 C56C     		ldr	r5, [r0, #76]
  45 0006 6560     		str	r5, [r4, #4]
 986:Drivers/STM32G0xx_HAL_Driver/Src/stm32g0xx_hal_dma.c **** 
 987:Drivers/STM32G0xx_HAL_Driver/Src/stm32g0xx_hal_dma.c ****   if (hdma->DMAmuxRequestGen != 0U)
  46              		.loc 1 987 3 is_stmt 1 view .LVU5
  47              		.loc 1 987 6 is_stmt 0 view .LVU6
  48 0008 046D     		ldr	r4, [r0, #80]
  49 000a 002C     		cmp	r4, #0
  50 000c 02D0     		beq	.L2
 988:Drivers/STM32G0xx_HAL_Driver/Src/stm32g0xx_hal_dma.c ****   {
 989:Drivers/STM32G0xx_HAL_Driver/Src/stm32g0xx_hal_dma.c ****     /* Clear the DMAMUX request generator overrun flag */
 990:Drivers/STM32G0xx_HAL_Driver/Src/stm32g0xx_hal_dma.c ****     hdma->DMAmuxRequestGenStatus->RGCFR = hdma->DMAmuxRequestGenStatusMask;
  51              		.loc 1 990 5 is_stmt 1 view .LVU7
  52              		.loc 1 990 9 is_stmt 0 view .LVU8
  53 000e 446D     		ldr	r4, [r0, #84]
  54              		.loc 1 990 41 view .LVU9
  55 0010 856D     		ldr	r5, [r0, #88]
  56 0012 6560     		str	r5, [r4, #4]
  57              	.L2:
 991:Drivers/STM32G0xx_HAL_Driver/Src/stm32g0xx_hal_dma.c ****   }
 992:Drivers/STM32G0xx_HAL_Driver/Src/stm32g0xx_hal_dma.c **** 
 993:Drivers/STM32G0xx_HAL_Driver/Src/stm32g0xx_hal_dma.c ****   /* Clear all flags */
 994:Drivers/STM32G0xx_HAL_Driver/Src/stm32g0xx_hal_dma.c ****   __HAL_DMA_CLEAR_FLAG(hdma, (DMA_FLAG_GI1 << (hdma->ChannelIndex & 0x1cU)));
  58              		.loc 1 994 3 is_stmt 1 view .LVU10
  59 0014 1C25     		movs	r5, #28
  60 0016 046C     		ldr	r4, [r0, #64]
  61 0018 084E     		ldr	r6, .L8
  62 001a 2540     		ands	r5, r4
  63 001c 0124     		movs	r4, #1
  64 001e AC40     		lsls	r4, r4, r5
  65 0020 7768     		ldr	r7, [r6, #4]
  66 0022 3C43     		orrs	r4, r7
  67 0024 7460     		str	r4, [r6, #4]
 995:Drivers/STM32G0xx_HAL_Driver/Src/stm32g0xx_hal_dma.c **** 
 996:Drivers/STM32G0xx_HAL_Driver/Src/stm32g0xx_hal_dma.c ****   /* Configure DMA Channel data length */
 997:Drivers/STM32G0xx_HAL_Driver/Src/stm32g0xx_hal_dma.c ****   hdma->Instance->CNDTR = DataLength;
  68              		.loc 1 997 3 view .LVU11
  69              		.loc 1 997 7 is_stmt 0 view .LVU12
  70 0026 0468     		ldr	r4, [r0]
  71              		.loc 1 997 25 view .LVU13
  72 0028 6360     		str	r3, [r4, #4]
 998:Drivers/STM32G0xx_HAL_Driver/Src/stm32g0xx_hal_dma.c **** 
 999:Drivers/STM32G0xx_HAL_Driver/Src/stm32g0xx_hal_dma.c ****   /* Peripheral to Memory */
1000:Drivers/STM32G0xx_HAL_Driver/Src/stm32g0xx_hal_dma.c ****   if ((hdma->Init.Direction) == DMA_MEMORY_TO_PERIPH)
  73              		.loc 1 1000 3 is_stmt 1 view .LVU14
  74              		.loc 1 1000 6 is_stmt 0 view .LVU15
  75 002a 8368     		ldr	r3, [r0, #8]
  76              	.LVL1:
  77              		.loc 1 1000 6 view .LVU16
  78 002c 102B     		cmp	r3, #16
  79 002e 02D1     		bne	.L3
1001:Drivers/STM32G0xx_HAL_Driver/Src/stm32g0xx_hal_dma.c ****   {
1002:Drivers/STM32G0xx_HAL_Driver/Src/stm32g0xx_hal_dma.c ****     /* Configure DMA Channel destination address */
1003:Drivers/STM32G0xx_HAL_Driver/Src/stm32g0xx_hal_dma.c ****     hdma->Instance->CPAR = DstAddress;
  80              		.loc 1 1003 5 is_stmt 1 view .LVU17
ARM GAS  /tmp/ccbutQBb.s 			page 20


  81              		.loc 1 1003 26 is_stmt 0 view .LVU18
  82 0030 A260     		str	r2, [r4, #8]
  83              	.LVL2:
1004:Drivers/STM32G0xx_HAL_Driver/Src/stm32g0xx_hal_dma.c **** 
1005:Drivers/STM32G0xx_HAL_Driver/Src/stm32g0xx_hal_dma.c ****     /* Configure DMA Channel source address */
1006:Drivers/STM32G0xx_HAL_Driver/Src/stm32g0xx_hal_dma.c ****     hdma->Instance->CMAR = SrcAddress;
  84              		.loc 1 1006 5 is_stmt 1 view .LVU19
  85              		.loc 1 1006 26 is_stmt 0 view .LVU20
  86 0032 E160     		str	r1, [r4, #12]
  87              	.L1:
1007:Drivers/STM32G0xx_HAL_Driver/Src/stm32g0xx_hal_dma.c ****   }
1008:Drivers/STM32G0xx_HAL_Driver/Src/stm32g0xx_hal_dma.c ****   /* Memory to Peripheral */
1009:Drivers/STM32G0xx_HAL_Driver/Src/stm32g0xx_hal_dma.c ****   else
1010:Drivers/STM32G0xx_HAL_Driver/Src/stm32g0xx_hal_dma.c ****   {
1011:Drivers/STM32G0xx_HAL_Driver/Src/stm32g0xx_hal_dma.c ****     /* Configure DMA Channel source address */
1012:Drivers/STM32G0xx_HAL_Driver/Src/stm32g0xx_hal_dma.c ****     hdma->Instance->CPAR = SrcAddress;
1013:Drivers/STM32G0xx_HAL_Driver/Src/stm32g0xx_hal_dma.c **** 
1014:Drivers/STM32G0xx_HAL_Driver/Src/stm32g0xx_hal_dma.c ****     /* Configure DMA Channel destination address */
1015:Drivers/STM32G0xx_HAL_Driver/Src/stm32g0xx_hal_dma.c ****     hdma->Instance->CMAR = DstAddress;
1016:Drivers/STM32G0xx_HAL_Driver/Src/stm32g0xx_hal_dma.c ****   }
1017:Drivers/STM32G0xx_HAL_Driver/Src/stm32g0xx_hal_dma.c **** }
  88              		.loc 1 1017 1 view .LVU21
  89              		@ sp needed
  90 0034 F0BD     		pop	{r4, r5, r6, r7, pc}
  91              	.LVL3:
  92              	.L3:
1012:Drivers/STM32G0xx_HAL_Driver/Src/stm32g0xx_hal_dma.c **** 
  93              		.loc 1 1012 5 is_stmt 1 view .LVU22
1012:Drivers/STM32G0xx_HAL_Driver/Src/stm32g0xx_hal_dma.c **** 
  94              		.loc 1 1012 26 is_stmt 0 view .LVU23
  95 0036 A160     		str	r1, [r4, #8]
  96              	.LVL4:
1015:Drivers/STM32G0xx_HAL_Driver/Src/stm32g0xx_hal_dma.c ****   }
  97              		.loc 1 1015 5 is_stmt 1 view .LVU24
1015:Drivers/STM32G0xx_HAL_Driver/Src/stm32g0xx_hal_dma.c ****   }
  98              		.loc 1 1015 26 is_stmt 0 view .LVU25
  99 0038 E260     		str	r2, [r4, #12]
 100              		.loc 1 1017 1 view .LVU26
 101 003a FBE7     		b	.L1
 102              	.L9:
 103              		.align	2
 104              	.L8:
 105 003c 00000240 		.word	1073872896
 106              		.cfi_endproc
 107              	.LFE313:
 109              		.global	__aeabi_uidiv
 110              		.section	.text.DMA_CalcDMAMUXChannelBaseAndMask,"ax",%progbits
 111              		.align	1
 112              		.syntax unified
 113              		.code	16
 114              		.thumb_func
 115              		.fpu softvfp
 117              	DMA_CalcDMAMUXChannelBaseAndMask:
 118              	.LVL5:
 119              	.LFB314:
1018:Drivers/STM32G0xx_HAL_Driver/Src/stm32g0xx_hal_dma.c **** 
1019:Drivers/STM32G0xx_HAL_Driver/Src/stm32g0xx_hal_dma.c **** /**
ARM GAS  /tmp/ccbutQBb.s 			page 21


1020:Drivers/STM32G0xx_HAL_Driver/Src/stm32g0xx_hal_dma.c ****   * @brief  Updates the DMA handle with the DMAMUX  channel and status mask depending on stream num
1021:Drivers/STM32G0xx_HAL_Driver/Src/stm32g0xx_hal_dma.c ****   * @param  hdma Pointer to a DMA_HandleTypeDef structure that contains
1022:Drivers/STM32G0xx_HAL_Driver/Src/stm32g0xx_hal_dma.c ****   *                     the configuration information for the specified DMA Stream.
1023:Drivers/STM32G0xx_HAL_Driver/Src/stm32g0xx_hal_dma.c ****   * @retval None
1024:Drivers/STM32G0xx_HAL_Driver/Src/stm32g0xx_hal_dma.c ****   */
1025:Drivers/STM32G0xx_HAL_Driver/Src/stm32g0xx_hal_dma.c **** static void DMA_CalcDMAMUXChannelBaseAndMask(DMA_HandleTypeDef *hdma)
1026:Drivers/STM32G0xx_HAL_Driver/Src/stm32g0xx_hal_dma.c **** {
 120              		.loc 1 1026 1 is_stmt 1 view -0
 121              		.cfi_startproc
 122              		@ args = 0, pretend = 0, frame = 0
 123              		@ frame_needed = 0, uses_anonymous_args = 0
1027:Drivers/STM32G0xx_HAL_Driver/Src/stm32g0xx_hal_dma.c ****   uint32_t channel_number;
 124              		.loc 1 1027 3 view .LVU28
1028:Drivers/STM32G0xx_HAL_Driver/Src/stm32g0xx_hal_dma.c **** 
1029:Drivers/STM32G0xx_HAL_Driver/Src/stm32g0xx_hal_dma.c ****   channel_number = (((uint32_t)hdma->Instance & 0xFFU) - 8U) / 20U;
 125              		.loc 1 1029 3 view .LVU29
1026:Drivers/STM32G0xx_HAL_Driver/Src/stm32g0xx_hal_dma.c ****   uint32_t channel_number;
 126              		.loc 1 1026 1 is_stmt 0 view .LVU30
 127 0000 10B5     		push	{r4, lr}
 128              	.LCFI1:
 129              		.cfi_def_cfa_offset 8
 130              		.cfi_offset 4, -8
 131              		.cfi_offset 14, -4
1026:Drivers/STM32G0xx_HAL_Driver/Src/stm32g0xx_hal_dma.c ****   uint32_t channel_number;
 132              		.loc 1 1026 1 view .LVU31
 133 0002 0400     		movs	r4, r0
 134              		.loc 1 1029 47 view .LVU32
 135 0004 0368     		ldr	r3, [r0]
 136              		.loc 1 1029 18 view .LVU33
 137 0006 1421     		movs	r1, #20
 138              		.loc 1 1029 47 view .LVU34
 139 0008 D8B2     		uxtb	r0, r3
 140              	.LVL6:
 141              		.loc 1 1029 56 view .LVU35
 142 000a 0838     		subs	r0, r0, #8
 143              		.loc 1 1029 18 view .LVU36
 144 000c FFF7FEFF 		bl	__aeabi_uidiv
 145              	.LVL7:
1030:Drivers/STM32G0xx_HAL_Driver/Src/stm32g0xx_hal_dma.c ****   hdma->DMAmuxChannel = (DMAMUX_Channel_TypeDef *)(uint32_t)((uint32_t)DMAMUX1_Channel0 + ((hdma->C
 146              		.loc 1 1030 3 is_stmt 1 view .LVU37
 147              		.loc 1 1030 112 is_stmt 0 view .LVU38
 148 0010 236C     		ldr	r3, [r4, #64]
 149              		.loc 1 1030 51 view .LVU39
 150 0012 064A     		ldr	r2, .L11
 151              		.loc 1 1030 112 view .LVU40
 152 0014 9B08     		lsrs	r3, r3, #2
 153              		.loc 1 1030 51 view .LVU41
 154 0016 9B18     		adds	r3, r3, r2
 155 0018 9B00     		lsls	r3, r3, #2
 156              		.loc 1 1030 23 view .LVU42
 157 001a 6364     		str	r3, [r4, #68]
1031:Drivers/STM32G0xx_HAL_Driver/Src/stm32g0xx_hal_dma.c ****   hdma->DMAmuxChannelStatus = DMAMUX1_ChannelStatus;
 158              		.loc 1 1031 3 is_stmt 1 view .LVU43
 159              		.loc 1 1031 29 is_stmt 0 view .LVU44
 160 001c 044B     		ldr	r3, .L11+4
1032:Drivers/STM32G0xx_HAL_Driver/Src/stm32g0xx_hal_dma.c ****   hdma->DMAmuxChannelStatusMask = 1UL << (channel_number & 0x1cU);
1033:Drivers/STM32G0xx_HAL_Driver/Src/stm32g0xx_hal_dma.c **** }
ARM GAS  /tmp/ccbutQBb.s 			page 22


 161              		.loc 1 1033 1 view .LVU45
 162              		@ sp needed
1031:Drivers/STM32G0xx_HAL_Driver/Src/stm32g0xx_hal_dma.c ****   hdma->DMAmuxChannelStatus = DMAMUX1_ChannelStatus;
 163              		.loc 1 1031 29 view .LVU46
 164 001e A364     		str	r3, [r4, #72]
1032:Drivers/STM32G0xx_HAL_Driver/Src/stm32g0xx_hal_dma.c ****   hdma->DMAmuxChannelStatusMask = 1UL << (channel_number & 0x1cU);
 165              		.loc 1 1032 3 is_stmt 1 view .LVU47
1032:Drivers/STM32G0xx_HAL_Driver/Src/stm32g0xx_hal_dma.c ****   hdma->DMAmuxChannelStatusMask = 1UL << (channel_number & 0x1cU);
 166              		.loc 1 1032 58 is_stmt 0 view .LVU48
 167 0020 1C23     		movs	r3, #28
 168 0022 1840     		ands	r0, r3
 169              	.LVL8:
1032:Drivers/STM32G0xx_HAL_Driver/Src/stm32g0xx_hal_dma.c ****   hdma->DMAmuxChannelStatusMask = 1UL << (channel_number & 0x1cU);
 170              		.loc 1 1032 39 view .LVU49
 171 0024 1B3B     		subs	r3, r3, #27
 172 0026 8340     		lsls	r3, r3, r0
1032:Drivers/STM32G0xx_HAL_Driver/Src/stm32g0xx_hal_dma.c ****   hdma->DMAmuxChannelStatusMask = 1UL << (channel_number & 0x1cU);
 173              		.loc 1 1032 33 view .LVU50
 174 0028 E364     		str	r3, [r4, #76]
 175              	.LVL9:
 176              		.loc 1 1033 1 view .LVU51
 177 002a 10BD     		pop	{r4, pc}
 178              	.L12:
 179              		.align	2
 180              	.L11:
 181 002c 00820010 		.word	268468736
 182 0030 80080240 		.word	1073875072
 183              		.cfi_endproc
 184              	.LFE314:
 186              		.section	.text.HAL_DMA_Init,"ax",%progbits
 187              		.align	1
 188              		.global	HAL_DMA_Init
 189              		.syntax unified
 190              		.code	16
 191              		.thumb_func
 192              		.fpu softvfp
 194              	HAL_DMA_Init:
 195              	.LVL10:
 196              	.LFB301:
 152:Drivers/STM32G0xx_HAL_Driver/Src/stm32g0xx_hal_dma.c ****   /* Check the DMA handle allocation */
 197              		.loc 1 152 1 is_stmt 1 view -0
 198              		.cfi_startproc
 199              		@ args = 0, pretend = 0, frame = 0
 200              		@ frame_needed = 0, uses_anonymous_args = 0
 154:Drivers/STM32G0xx_HAL_Driver/Src/stm32g0xx_hal_dma.c ****   {
 201              		.loc 1 154 3 view .LVU53
 152:Drivers/STM32G0xx_HAL_Driver/Src/stm32g0xx_hal_dma.c ****   /* Check the DMA handle allocation */
 202              		.loc 1 152 1 is_stmt 0 view .LVU54
 203 0000 70B5     		push	{r4, r5, r6, lr}
 204              	.LCFI2:
 205              		.cfi_def_cfa_offset 16
 206              		.cfi_offset 4, -16
 207              		.cfi_offset 5, -12
 208              		.cfi_offset 6, -8
 209              		.cfi_offset 14, -4
 152:Drivers/STM32G0xx_HAL_Driver/Src/stm32g0xx_hal_dma.c ****   /* Check the DMA handle allocation */
 210              		.loc 1 152 1 view .LVU55
ARM GAS  /tmp/ccbutQBb.s 			page 23


 211 0002 0400     		movs	r4, r0
 156:Drivers/STM32G0xx_HAL_Driver/Src/stm32g0xx_hal_dma.c ****   }
 212              		.loc 1 156 12 view .LVU56
 213 0004 0120     		movs	r0, #1
 214              	.LVL11:
 154:Drivers/STM32G0xx_HAL_Driver/Src/stm32g0xx_hal_dma.c ****   {
 215              		.loc 1 154 6 view .LVU57
 216 0006 002C     		cmp	r4, #0
 217 0008 48D0     		beq	.L14
 160:Drivers/STM32G0xx_HAL_Driver/Src/stm32g0xx_hal_dma.c ****   assert_param(IS_DMA_DIRECTION(hdma->Init.Direction));
 218              		.loc 1 160 3 is_stmt 1 view .LVU58
 161:Drivers/STM32G0xx_HAL_Driver/Src/stm32g0xx_hal_dma.c ****   assert_param(IS_DMA_PERIPHERAL_INC_STATE(hdma->Init.PeriphInc));
 219              		.loc 1 161 3 view .LVU59
 162:Drivers/STM32G0xx_HAL_Driver/Src/stm32g0xx_hal_dma.c ****   assert_param(IS_DMA_MEMORY_INC_STATE(hdma->Init.MemInc));
 220              		.loc 1 162 3 view .LVU60
 163:Drivers/STM32G0xx_HAL_Driver/Src/stm32g0xx_hal_dma.c ****   assert_param(IS_DMA_PERIPHERAL_DATA_SIZE(hdma->Init.PeriphDataAlignment));
 221              		.loc 1 163 3 view .LVU61
 164:Drivers/STM32G0xx_HAL_Driver/Src/stm32g0xx_hal_dma.c ****   assert_param(IS_DMA_MEMORY_DATA_SIZE(hdma->Init.MemDataAlignment));
 222              		.loc 1 164 3 view .LVU62
 165:Drivers/STM32G0xx_HAL_Driver/Src/stm32g0xx_hal_dma.c ****   assert_param(IS_DMA_MODE(hdma->Init.Mode));
 223              		.loc 1 165 3 view .LVU63
 166:Drivers/STM32G0xx_HAL_Driver/Src/stm32g0xx_hal_dma.c ****   assert_param(IS_DMA_PRIORITY(hdma->Init.Priority));
 224              		.loc 1 166 3 view .LVU64
 167:Drivers/STM32G0xx_HAL_Driver/Src/stm32g0xx_hal_dma.c **** 
 225              		.loc 1 167 3 view .LVU65
 170:Drivers/STM32G0xx_HAL_Driver/Src/stm32g0xx_hal_dma.c **** 
 226              		.loc 1 170 3 view .LVU66
 170:Drivers/STM32G0xx_HAL_Driver/Src/stm32g0xx_hal_dma.c **** 
 227              		.loc 1 170 40 is_stmt 0 view .LVU67
 228 000a 2568     		ldr	r5, [r4]
 170:Drivers/STM32G0xx_HAL_Driver/Src/stm32g0xx_hal_dma.c **** 
 229              		.loc 1 170 51 view .LVU68
 230 000c 264B     		ldr	r3, .L19
 170:Drivers/STM32G0xx_HAL_Driver/Src/stm32g0xx_hal_dma.c **** 
 231              		.loc 1 170 78 view .LVU69
 232 000e 1421     		movs	r1, #20
 170:Drivers/STM32G0xx_HAL_Driver/Src/stm32g0xx_hal_dma.c **** 
 233              		.loc 1 170 51 view .LVU70
 234 0010 E818     		adds	r0, r5, r3
 170:Drivers/STM32G0xx_HAL_Driver/Src/stm32g0xx_hal_dma.c **** 
 235              		.loc 1 170 78 view .LVU71
 236 0012 FFF7FEFF 		bl	__aeabi_uidiv
 237              	.LVL12:
 173:Drivers/STM32G0xx_HAL_Driver/Src/stm32g0xx_hal_dma.c **** 
 238              		.loc 1 173 15 view .LVU72
 239 0016 0223     		movs	r3, #2
 170:Drivers/STM32G0xx_HAL_Driver/Src/stm32g0xx_hal_dma.c **** 
 240              		.loc 1 170 133 view .LVU73
 241 0018 8000     		lsls	r0, r0, #2
 173:Drivers/STM32G0xx_HAL_Driver/Src/stm32g0xx_hal_dma.c **** 
 242              		.loc 1 173 15 view .LVU74
 243 001a A61D     		adds	r6, r4, #6
 170:Drivers/STM32G0xx_HAL_Driver/Src/stm32g0xx_hal_dma.c **** 
 244              		.loc 1 170 22 view .LVU75
 245 001c 2064     		str	r0, [r4, #64]
 173:Drivers/STM32G0xx_HAL_Driver/Src/stm32g0xx_hal_dma.c **** 
 246              		.loc 1 173 3 is_stmt 1 view .LVU76
ARM GAS  /tmp/ccbutQBb.s 			page 24


 173:Drivers/STM32G0xx_HAL_Driver/Src/stm32g0xx_hal_dma.c **** 
 247              		.loc 1 173 15 is_stmt 0 view .LVU77
 248 001e F377     		strb	r3, [r6, #31]
 176:Drivers/STM32G0xx_HAL_Driver/Src/stm32g0xx_hal_dma.c ****                                   DMA_CCR_MINC  | DMA_CCR_PINC   | DMA_CCR_CIRC   | \
 249              		.loc 1 176 3 is_stmt 1 view .LVU78
 250 0020 2B68     		ldr	r3, [r5]
 251 0022 224A     		ldr	r2, .L19+4
 181:Drivers/STM32G0xx_HAL_Driver/Src/stm32g0xx_hal_dma.c ****                                 hdma->Init.PeriphInc           | hdma->Init.MemInc           | \
 252              		.loc 1 181 3 is_stmt 0 view .LVU79
 253 0024 E168     		ldr	r1, [r4, #12]
 176:Drivers/STM32G0xx_HAL_Driver/Src/stm32g0xx_hal_dma.c ****                                   DMA_CCR_MINC  | DMA_CCR_PINC   | DMA_CCR_CIRC   | \
 254              		.loc 1 176 3 view .LVU80
 255 0026 1340     		ands	r3, r2
 256 0028 2B60     		str	r3, [r5]
 181:Drivers/STM32G0xx_HAL_Driver/Src/stm32g0xx_hal_dma.c ****                                 hdma->Init.PeriphInc           | hdma->Init.MemInc           | \
 257              		.loc 1 181 3 is_stmt 1 view .LVU81
 258 002a A368     		ldr	r3, [r4, #8]
 259 002c 2A68     		ldr	r2, [r5]
 260 002e 0B43     		orrs	r3, r1
 261 0030 2169     		ldr	r1, [r4, #16]
 189:Drivers/STM32G0xx_HAL_Driver/Src/stm32g0xx_hal_dma.c **** 
 262              		.loc 1 189 3 is_stmt 0 view .LVU82
 263 0032 2000     		movs	r0, r4
 181:Drivers/STM32G0xx_HAL_Driver/Src/stm32g0xx_hal_dma.c ****                                 hdma->Init.PeriphInc           | hdma->Init.MemInc           | \
 264              		.loc 1 181 3 view .LVU83
 265 0034 0B43     		orrs	r3, r1
 266 0036 6169     		ldr	r1, [r4, #20]
 267 0038 0B43     		orrs	r3, r1
 268 003a A169     		ldr	r1, [r4, #24]
 269 003c 0B43     		orrs	r3, r1
 270 003e E169     		ldr	r1, [r4, #28]
 271 0040 0B43     		orrs	r3, r1
 272 0042 216A     		ldr	r1, [r4, #32]
 273 0044 0B43     		orrs	r3, r1
 274 0046 1343     		orrs	r3, r2
 275 0048 2B60     		str	r3, [r5]
 189:Drivers/STM32G0xx_HAL_Driver/Src/stm32g0xx_hal_dma.c **** 
 276              		.loc 1 189 3 is_stmt 1 view .LVU84
 277 004a FFF7FEFF 		bl	DMA_CalcDMAMUXChannelBaseAndMask
 278              	.LVL13:
 191:Drivers/STM32G0xx_HAL_Driver/Src/stm32g0xx_hal_dma.c ****   {
 279              		.loc 1 191 3 view .LVU85
 191:Drivers/STM32G0xx_HAL_Driver/Src/stm32g0xx_hal_dma.c ****   {
 280              		.loc 1 191 6 is_stmt 0 view .LVU86
 281 004e 8023     		movs	r3, #128
 282 0050 A268     		ldr	r2, [r4, #8]
 283 0052 DB01     		lsls	r3, r3, #7
 284 0054 9A42     		cmp	r2, r3
 285 0056 01D1     		bne	.L15
 194:Drivers/STM32G0xx_HAL_Driver/Src/stm32g0xx_hal_dma.c ****   }
 286              		.loc 1 194 5 is_stmt 1 view .LVU87
 194:Drivers/STM32G0xx_HAL_Driver/Src/stm32g0xx_hal_dma.c ****   }
 287              		.loc 1 194 24 is_stmt 0 view .LVU88
 288 0058 0023     		movs	r3, #0
 289 005a 6360     		str	r3, [r4, #4]
 290              	.L15:
 198:Drivers/STM32G0xx_HAL_Driver/Src/stm32g0xx_hal_dma.c **** 
ARM GAS  /tmp/ccbutQBb.s 			page 25


 291              		.loc 1 198 3 is_stmt 1 view .LVU89
 198:Drivers/STM32G0xx_HAL_Driver/Src/stm32g0xx_hal_dma.c **** 
 292              		.loc 1 198 41 is_stmt 0 view .LVU90
 293 005c 6268     		ldr	r2, [r4, #4]
 198:Drivers/STM32G0xx_HAL_Driver/Src/stm32g0xx_hal_dma.c **** 
 294              		.loc 1 198 7 view .LVU91
 295 005e 616C     		ldr	r1, [r4, #68]
 198:Drivers/STM32G0xx_HAL_Driver/Src/stm32g0xx_hal_dma.c **** 
 296              		.loc 1 198 50 view .LVU92
 297 0060 D3B2     		uxtb	r3, r2
 198:Drivers/STM32G0xx_HAL_Driver/Src/stm32g0xx_hal_dma.c **** 
 298              		.loc 1 198 28 view .LVU93
 299 0062 0B60     		str	r3, [r1]
 201:Drivers/STM32G0xx_HAL_Driver/Src/stm32g0xx_hal_dma.c **** 
 300              		.loc 1 201 3 is_stmt 1 view .LVU94
 201:Drivers/STM32G0xx_HAL_Driver/Src/stm32g0xx_hal_dma.c **** 
 301              		.loc 1 201 34 is_stmt 0 view .LVU95
 302 0064 E06C     		ldr	r0, [r4, #76]
 201:Drivers/STM32G0xx_HAL_Driver/Src/stm32g0xx_hal_dma.c **** 
 303              		.loc 1 201 7 view .LVU96
 304 0066 A16C     		ldr	r1, [r4, #72]
 203:Drivers/STM32G0xx_HAL_Driver/Src/stm32g0xx_hal_dma.c ****   {
 305              		.loc 1 203 36 view .LVU97
 306 0068 013A     		subs	r2, r2, #1
 201:Drivers/STM32G0xx_HAL_Driver/Src/stm32g0xx_hal_dma.c **** 
 307              		.loc 1 201 34 view .LVU98
 308 006a 4860     		str	r0, [r1, #4]
 203:Drivers/STM32G0xx_HAL_Driver/Src/stm32g0xx_hal_dma.c ****   {
 309              		.loc 1 203 3 is_stmt 1 view .LVU99
 203:Drivers/STM32G0xx_HAL_Driver/Src/stm32g0xx_hal_dma.c ****   {
 310              		.loc 1 203 6 is_stmt 0 view .LVU100
 311 006c 032A     		cmp	r2, #3
 312 006e 16D8     		bhi	.L16
 208:Drivers/STM32G0xx_HAL_Driver/Src/stm32g0xx_hal_dma.c **** 
 313              		.loc 1 208 5 is_stmt 1 view .LVU101
 314              	.LVL14:
 315              	.LBB4:
 316              	.LBI4:
1034:Drivers/STM32G0xx_HAL_Driver/Src/stm32g0xx_hal_dma.c **** 
1035:Drivers/STM32G0xx_HAL_Driver/Src/stm32g0xx_hal_dma.c **** /**
1036:Drivers/STM32G0xx_HAL_Driver/Src/stm32g0xx_hal_dma.c ****   * @brief  Updates the DMA handle with the DMAMUX  request generator params
1037:Drivers/STM32G0xx_HAL_Driver/Src/stm32g0xx_hal_dma.c ****   * @param  hdma Pointer to a DMA_HandleTypeDef structure that contains
1038:Drivers/STM32G0xx_HAL_Driver/Src/stm32g0xx_hal_dma.c ****   *                     the configuration information for the specified DMA Stream.
1039:Drivers/STM32G0xx_HAL_Driver/Src/stm32g0xx_hal_dma.c ****   * @retval None
1040:Drivers/STM32G0xx_HAL_Driver/Src/stm32g0xx_hal_dma.c ****   */
1041:Drivers/STM32G0xx_HAL_Driver/Src/stm32g0xx_hal_dma.c **** 
1042:Drivers/STM32G0xx_HAL_Driver/Src/stm32g0xx_hal_dma.c **** static void DMA_CalcDMAMUXRequestGenBaseAndMask(DMA_HandleTypeDef *hdma)
 317              		.loc 1 1042 13 view .LVU102
 318              	.LBB5:
1043:Drivers/STM32G0xx_HAL_Driver/Src/stm32g0xx_hal_dma.c **** {
1044:Drivers/STM32G0xx_HAL_Driver/Src/stm32g0xx_hal_dma.c ****   uint32_t request =  hdma->Init.Request & DMAMUX_CxCR_DMAREQ_ID;
 319              		.loc 1 1044 3 view .LVU103
1045:Drivers/STM32G0xx_HAL_Driver/Src/stm32g0xx_hal_dma.c **** 
1046:Drivers/STM32G0xx_HAL_Driver/Src/stm32g0xx_hal_dma.c ****   /* DMA Channels are connected to DMAMUX1 request generator blocks*/
1047:Drivers/STM32G0xx_HAL_Driver/Src/stm32g0xx_hal_dma.c ****   hdma->DMAmuxRequestGen = (DMAMUX_RequestGen_TypeDef *)((uint32_t)(((uint32_t)DMAMUX1_RequestGener
 320              		.loc 1 1047 3 view .LVU104
 321              		.loc 1 1047 58 is_stmt 0 view .LVU105
ARM GAS  /tmp/ccbutQBb.s 			page 26


 322 0070 0F4A     		ldr	r2, .L19+8
1048:Drivers/STM32G0xx_HAL_Driver/Src/stm32g0xx_hal_dma.c **** 
1049:Drivers/STM32G0xx_HAL_Driver/Src/stm32g0xx_hal_dma.c ****   hdma->DMAmuxRequestGenStatus = DMAMUX1_RequestGenStatus;
 323              		.loc 1 1049 32 view .LVU106
 324 0072 1048     		ldr	r0, .L19+12
1047:Drivers/STM32G0xx_HAL_Driver/Src/stm32g0xx_hal_dma.c **** 
 325              		.loc 1 1047 58 view .LVU107
 326 0074 9918     		adds	r1, r3, r2
1050:Drivers/STM32G0xx_HAL_Driver/Src/stm32g0xx_hal_dma.c **** 
1051:Drivers/STM32G0xx_HAL_Driver/Src/stm32g0xx_hal_dma.c ****   /* here "Request" is either DMA_REQUEST_GENERATOR0 to 4, i.e. <= 4*/
1052:Drivers/STM32G0xx_HAL_Driver/Src/stm32g0xx_hal_dma.c ****   hdma->DMAmuxRequestGenStatusMask = 1UL << ((request - 1U) & 0x3U);
 327              		.loc 1 1052 61 view .LVU108
 328 0076 0322     		movs	r2, #3
 329              		.loc 1 1052 55 view .LVU109
 330 0078 013B     		subs	r3, r3, #1
 331              	.LVL15:
 332              		.loc 1 1052 61 view .LVU110
 333 007a 1340     		ands	r3, r2
 334              	.LVL16:
 335              		.loc 1 1052 42 view .LVU111
 336 007c 023A     		subs	r2, r2, #2
 337 007e 9A40     		lsls	r2, r2, r3
 338              		.loc 1 1052 36 view .LVU112
 339 0080 A265     		str	r2, [r4, #88]
 340              		.loc 1 1052 42 view .LVU113
 341 0082 1300     		movs	r3, r2
 342              	.LBE5:
 343              	.LBE4:
 211:Drivers/STM32G0xx_HAL_Driver/Src/stm32g0xx_hal_dma.c **** 
 344              		.loc 1 211 34 view .LVU114
 345 0084 0022     		movs	r2, #0
 346              	.LBB7:
 347              	.LBB6:
1047:Drivers/STM32G0xx_HAL_Driver/Src/stm32g0xx_hal_dma.c **** 
 348              		.loc 1 1047 58 view .LVU115
 349 0086 8900     		lsls	r1, r1, #2
 350              	.LVL17:
1047:Drivers/STM32G0xx_HAL_Driver/Src/stm32g0xx_hal_dma.c **** 
 351              		.loc 1 1047 26 view .LVU116
 352 0088 2165     		str	r1, [r4, #80]
1049:Drivers/STM32G0xx_HAL_Driver/Src/stm32g0xx_hal_dma.c **** 
 353              		.loc 1 1049 3 is_stmt 1 view .LVU117
1049:Drivers/STM32G0xx_HAL_Driver/Src/stm32g0xx_hal_dma.c **** 
 354              		.loc 1 1049 32 is_stmt 0 view .LVU118
 355 008a 6065     		str	r0, [r4, #84]
 356              		.loc 1 1052 3 is_stmt 1 view .LVU119
 357              	.LVL18:
 358              		.loc 1 1052 3 is_stmt 0 view .LVU120
 359              	.LBE6:
 360              	.LBE7:
 211:Drivers/STM32G0xx_HAL_Driver/Src/stm32g0xx_hal_dma.c **** 
 361              		.loc 1 211 5 is_stmt 1 view .LVU121
 211:Drivers/STM32G0xx_HAL_Driver/Src/stm32g0xx_hal_dma.c **** 
 362              		.loc 1 211 34 is_stmt 0 view .LVU122
 363 008c 0A60     		str	r2, [r1]
 214:Drivers/STM32G0xx_HAL_Driver/Src/stm32g0xx_hal_dma.c ****   }
 364              		.loc 1 214 5 is_stmt 1 view .LVU123
ARM GAS  /tmp/ccbutQBb.s 			page 27


 214:Drivers/STM32G0xx_HAL_Driver/Src/stm32g0xx_hal_dma.c ****   }
 365              		.loc 1 214 41 is_stmt 0 view .LVU124
 366 008e 4360     		str	r3, [r0, #4]
 367              	.L17:
 224:Drivers/STM32G0xx_HAL_Driver/Src/stm32g0xx_hal_dma.c **** 
 368              		.loc 1 224 3 is_stmt 1 view .LVU125
 224:Drivers/STM32G0xx_HAL_Driver/Src/stm32g0xx_hal_dma.c **** 
 369              		.loc 1 224 19 is_stmt 0 view .LVU126
 370 0090 0020     		movs	r0, #0
 227:Drivers/STM32G0xx_HAL_Driver/Src/stm32g0xx_hal_dma.c **** 
 371              		.loc 1 227 16 view .LVU127
 372 0092 0123     		movs	r3, #1
 224:Drivers/STM32G0xx_HAL_Driver/Src/stm32g0xx_hal_dma.c **** 
 373              		.loc 1 224 19 view .LVU128
 374 0094 E063     		str	r0, [r4, #60]
 227:Drivers/STM32G0xx_HAL_Driver/Src/stm32g0xx_hal_dma.c **** 
 375              		.loc 1 227 3 is_stmt 1 view .LVU129
 230:Drivers/STM32G0xx_HAL_Driver/Src/stm32g0xx_hal_dma.c **** 
 376              		.loc 1 230 3 is_stmt 0 view .LVU130
 377 0096 0534     		adds	r4, r4, #5
 378              	.LVL19:
 227:Drivers/STM32G0xx_HAL_Driver/Src/stm32g0xx_hal_dma.c **** 
 379              		.loc 1 227 16 view .LVU131
 380 0098 F377     		strb	r3, [r6, #31]
 230:Drivers/STM32G0xx_HAL_Driver/Src/stm32g0xx_hal_dma.c **** 
 381              		.loc 1 230 3 is_stmt 1 view .LVU132
 230:Drivers/STM32G0xx_HAL_Driver/Src/stm32g0xx_hal_dma.c **** 
 382              		.loc 1 230 3 view .LVU133
 383 009a E077     		strb	r0, [r4, #31]
 230:Drivers/STM32G0xx_HAL_Driver/Src/stm32g0xx_hal_dma.c **** 
 384              		.loc 1 230 3 view .LVU134
 232:Drivers/STM32G0xx_HAL_Driver/Src/stm32g0xx_hal_dma.c **** }
 385              		.loc 1 232 3 view .LVU135
 386              	.LVL20:
 387              	.L14:
 233:Drivers/STM32G0xx_HAL_Driver/Src/stm32g0xx_hal_dma.c **** 
 388              		.loc 1 233 1 is_stmt 0 view .LVU136
 389              		@ sp needed
 390 009c 70BD     		pop	{r4, r5, r6, pc}
 391              	.LVL21:
 392              	.L16:
 218:Drivers/STM32G0xx_HAL_Driver/Src/stm32g0xx_hal_dma.c ****     hdma->DMAmuxRequestGenStatus = 0U;
 393              		.loc 1 218 5 is_stmt 1 view .LVU137
 218:Drivers/STM32G0xx_HAL_Driver/Src/stm32g0xx_hal_dma.c ****     hdma->DMAmuxRequestGenStatus = 0U;
 394              		.loc 1 218 28 is_stmt 0 view .LVU138
 395 009e 0023     		movs	r3, #0
 396 00a0 2365     		str	r3, [r4, #80]
 219:Drivers/STM32G0xx_HAL_Driver/Src/stm32g0xx_hal_dma.c ****     hdma->DMAmuxRequestGenStatusMask = 0U;
 397              		.loc 1 219 5 is_stmt 1 view .LVU139
 219:Drivers/STM32G0xx_HAL_Driver/Src/stm32g0xx_hal_dma.c ****     hdma->DMAmuxRequestGenStatusMask = 0U;
 398              		.loc 1 219 34 is_stmt 0 view .LVU140
 399 00a2 6365     		str	r3, [r4, #84]
 220:Drivers/STM32G0xx_HAL_Driver/Src/stm32g0xx_hal_dma.c ****   }
 400              		.loc 1 220 5 is_stmt 1 view .LVU141
 220:Drivers/STM32G0xx_HAL_Driver/Src/stm32g0xx_hal_dma.c ****   }
 401              		.loc 1 220 38 is_stmt 0 view .LVU142
 402 00a4 A365     		str	r3, [r4, #88]
ARM GAS  /tmp/ccbutQBb.s 			page 28


 403 00a6 F3E7     		b	.L17
 404              	.L20:
 405              		.align	2
 406              	.L19:
 407 00a8 F8FFFDBF 		.word	-1073872904
 408 00ac 0F80FFFF 		.word	-32753
 409 00b0 3F820010 		.word	268468799
 410 00b4 40090240 		.word	1073875264
 411              		.cfi_endproc
 412              	.LFE301:
 414              		.section	.text.HAL_DMA_DeInit,"ax",%progbits
 415              		.align	1
 416              		.global	HAL_DMA_DeInit
 417              		.syntax unified
 418              		.code	16
 419              		.thumb_func
 420              		.fpu softvfp
 422              	HAL_DMA_DeInit:
 423              	.LVL22:
 424              	.LFB302:
 242:Drivers/STM32G0xx_HAL_Driver/Src/stm32g0xx_hal_dma.c ****   /* Check the DMA handle allocation */
 425              		.loc 1 242 1 is_stmt 1 view -0
 426              		.cfi_startproc
 427              		@ args = 0, pretend = 0, frame = 0
 428              		@ frame_needed = 0, uses_anonymous_args = 0
 244:Drivers/STM32G0xx_HAL_Driver/Src/stm32g0xx_hal_dma.c ****   {
 429              		.loc 1 244 3 view .LVU144
 242:Drivers/STM32G0xx_HAL_Driver/Src/stm32g0xx_hal_dma.c ****   /* Check the DMA handle allocation */
 430              		.loc 1 242 1 is_stmt 0 view .LVU145
 431 0000 F8B5     		push	{r3, r4, r5, r6, r7, lr}
 432              	.LCFI3:
 433              		.cfi_def_cfa_offset 24
 434              		.cfi_offset 3, -24
 435              		.cfi_offset 4, -20
 436              		.cfi_offset 5, -16
 437              		.cfi_offset 6, -12
 438              		.cfi_offset 7, -8
 439              		.cfi_offset 14, -4
 440 0002 0125     		movs	r5, #1
 242:Drivers/STM32G0xx_HAL_Driver/Src/stm32g0xx_hal_dma.c ****   /* Check the DMA handle allocation */
 441              		.loc 1 242 1 view .LVU146
 442 0004 0400     		movs	r4, r0
 246:Drivers/STM32G0xx_HAL_Driver/Src/stm32g0xx_hal_dma.c ****   }
 443              		.loc 1 246 12 view .LVU147
 444 0006 2800     		movs	r0, r5
 445              	.LVL23:
 244:Drivers/STM32G0xx_HAL_Driver/Src/stm32g0xx_hal_dma.c ****   {
 446              		.loc 1 244 6 view .LVU148
 447 0008 002C     		cmp	r4, #0
 448 000a 34D0     		beq	.L22
 250:Drivers/STM32G0xx_HAL_Driver/Src/stm32g0xx_hal_dma.c **** 
 449              		.loc 1 250 3 is_stmt 1 view .LVU149
 253:Drivers/STM32G0xx_HAL_Driver/Src/stm32g0xx_hal_dma.c **** 
 450              		.loc 1 253 3 view .LVU150
 451 000c 2768     		ldr	r7, [r4]
 256:Drivers/STM32G0xx_HAL_Driver/Src/stm32g0xx_hal_dma.c **** 
 452              		.loc 1 256 78 is_stmt 0 view .LVU151
ARM GAS  /tmp/ccbutQBb.s 			page 29


 453 000e 1421     		movs	r1, #20
 253:Drivers/STM32G0xx_HAL_Driver/Src/stm32g0xx_hal_dma.c **** 
 454              		.loc 1 253 3 view .LVU152
 455 0010 3B68     		ldr	r3, [r7]
 259:Drivers/STM32G0xx_HAL_Driver/Src/stm32g0xx_hal_dma.c **** 
 456              		.loc 1 259 24 view .LVU153
 457 0012 0026     		movs	r6, #0
 253:Drivers/STM32G0xx_HAL_Driver/Src/stm32g0xx_hal_dma.c **** 
 458              		.loc 1 253 3 view .LVU154
 459 0014 AB43     		bics	r3, r5
 460 0016 3B60     		str	r3, [r7]
 256:Drivers/STM32G0xx_HAL_Driver/Src/stm32g0xx_hal_dma.c **** 
 461              		.loc 1 256 3 is_stmt 1 view .LVU155
 256:Drivers/STM32G0xx_HAL_Driver/Src/stm32g0xx_hal_dma.c **** 
 462              		.loc 1 256 51 is_stmt 0 view .LVU156
 463 0018 174B     		ldr	r3, .L25
 464 001a F818     		adds	r0, r7, r3
 256:Drivers/STM32G0xx_HAL_Driver/Src/stm32g0xx_hal_dma.c **** 
 465              		.loc 1 256 78 view .LVU157
 466 001c FFF7FEFF 		bl	__aeabi_uidiv
 467              	.LVL24:
 262:Drivers/STM32G0xx_HAL_Driver/Src/stm32g0xx_hal_dma.c **** 
 468              		.loc 1 262 3 view .LVU158
 469 0020 1C23     		movs	r3, #28
 256:Drivers/STM32G0xx_HAL_Driver/Src/stm32g0xx_hal_dma.c **** 
 470              		.loc 1 256 133 view .LVU159
 471 0022 8000     		lsls	r0, r0, #2
 256:Drivers/STM32G0xx_HAL_Driver/Src/stm32g0xx_hal_dma.c **** 
 472              		.loc 1 256 22 view .LVU160
 473 0024 2064     		str	r0, [r4, #64]
 259:Drivers/STM32G0xx_HAL_Driver/Src/stm32g0xx_hal_dma.c **** 
 474              		.loc 1 259 3 is_stmt 1 view .LVU161
 262:Drivers/STM32G0xx_HAL_Driver/Src/stm32g0xx_hal_dma.c **** 
 475              		.loc 1 262 3 is_stmt 0 view .LVU162
 476 0026 1840     		ands	r0, r3
 477 0028 2B00     		movs	r3, r5
 478 002a 8340     		lsls	r3, r3, r0
 479 002c 134A     		ldr	r2, .L25+4
 259:Drivers/STM32G0xx_HAL_Driver/Src/stm32g0xx_hal_dma.c **** 
 480              		.loc 1 259 24 view .LVU163
 481 002e 3E60     		str	r6, [r7]
 262:Drivers/STM32G0xx_HAL_Driver/Src/stm32g0xx_hal_dma.c **** 
 482              		.loc 1 262 3 is_stmt 1 view .LVU164
 483 0030 5168     		ldr	r1, [r2, #4]
 267:Drivers/STM32G0xx_HAL_Driver/Src/stm32g0xx_hal_dma.c **** 
 484              		.loc 1 267 3 is_stmt 0 view .LVU165
 485 0032 2000     		movs	r0, r4
 262:Drivers/STM32G0xx_HAL_Driver/Src/stm32g0xx_hal_dma.c **** 
 486              		.loc 1 262 3 view .LVU166
 487 0034 0B43     		orrs	r3, r1
 488 0036 5360     		str	r3, [r2, #4]
 267:Drivers/STM32G0xx_HAL_Driver/Src/stm32g0xx_hal_dma.c **** 
 489              		.loc 1 267 3 is_stmt 1 view .LVU167
 490 0038 FFF7FEFF 		bl	DMA_CalcDMAMUXChannelBaseAndMask
 491              	.LVL25:
 270:Drivers/STM32G0xx_HAL_Driver/Src/stm32g0xx_hal_dma.c **** 
 492              		.loc 1 270 3 view .LVU168
ARM GAS  /tmp/ccbutQBb.s 			page 30


 270:Drivers/STM32G0xx_HAL_Driver/Src/stm32g0xx_hal_dma.c **** 
 493              		.loc 1 270 7 is_stmt 0 view .LVU169
 494 003c 636C     		ldr	r3, [r4, #68]
 273:Drivers/STM32G0xx_HAL_Driver/Src/stm32g0xx_hal_dma.c **** 
 495              		.loc 1 273 34 view .LVU170
 496 003e E26C     		ldr	r2, [r4, #76]
 270:Drivers/STM32G0xx_HAL_Driver/Src/stm32g0xx_hal_dma.c **** 
 497              		.loc 1 270 28 view .LVU171
 498 0040 1E60     		str	r6, [r3]
 273:Drivers/STM32G0xx_HAL_Driver/Src/stm32g0xx_hal_dma.c **** 
 499              		.loc 1 273 3 is_stmt 1 view .LVU172
 273:Drivers/STM32G0xx_HAL_Driver/Src/stm32g0xx_hal_dma.c **** 
 500              		.loc 1 273 7 is_stmt 0 view .LVU173
 501 0042 A36C     		ldr	r3, [r4, #72]
 273:Drivers/STM32G0xx_HAL_Driver/Src/stm32g0xx_hal_dma.c **** 
 502              		.loc 1 273 34 view .LVU174
 503 0044 5A60     		str	r2, [r3, #4]
 276:Drivers/STM32G0xx_HAL_Driver/Src/stm32g0xx_hal_dma.c ****   {
 504              		.loc 1 276 3 is_stmt 1 view .LVU175
 276:Drivers/STM32G0xx_HAL_Driver/Src/stm32g0xx_hal_dma.c ****   {
 505              		.loc 1 276 19 is_stmt 0 view .LVU176
 506 0046 6368     		ldr	r3, [r4, #4]
 276:Drivers/STM32G0xx_HAL_Driver/Src/stm32g0xx_hal_dma.c ****   {
 507              		.loc 1 276 36 view .LVU177
 508 0048 5A1E     		subs	r2, r3, #1
 276:Drivers/STM32G0xx_HAL_Driver/Src/stm32g0xx_hal_dma.c ****   {
 509              		.loc 1 276 6 view .LVU178
 510 004a 032A     		cmp	r2, #3
 511 004c 06D8     		bhi	.L23
 281:Drivers/STM32G0xx_HAL_Driver/Src/stm32g0xx_hal_dma.c **** 
 512              		.loc 1 281 5 is_stmt 1 view .LVU179
 513              	.LVL26:
 514              	.LBB10:
 515              	.LBI10:
1042:Drivers/STM32G0xx_HAL_Driver/Src/stm32g0xx_hal_dma.c **** {
 516              		.loc 1 1042 13 view .LVU180
 517              	.LBB11:
1044:Drivers/STM32G0xx_HAL_Driver/Src/stm32g0xx_hal_dma.c **** 
 518              		.loc 1 1044 3 view .LVU181
1047:Drivers/STM32G0xx_HAL_Driver/Src/stm32g0xx_hal_dma.c **** 
 519              		.loc 1 1047 3 view .LVU182
 520              		.loc 1 1052 42 is_stmt 0 view .LVU183
 521 004e 9540     		lsls	r5, r5, r2
1047:Drivers/STM32G0xx_HAL_Driver/Src/stm32g0xx_hal_dma.c **** 
 522              		.loc 1 1047 58 view .LVU184
 523 0050 0B49     		ldr	r1, .L25+8
 524 0052 5B18     		adds	r3, r3, r1
 525              	.LVL27:
1047:Drivers/STM32G0xx_HAL_Driver/Src/stm32g0xx_hal_dma.c **** 
 526              		.loc 1 1047 58 view .LVU185
 527 0054 9B00     		lsls	r3, r3, #2
1049:Drivers/STM32G0xx_HAL_Driver/Src/stm32g0xx_hal_dma.c **** 
 528              		.loc 1 1049 3 is_stmt 1 view .LVU186
 529              		.loc 1 1052 3 view .LVU187
 530              	.LVL28:
 531              		.loc 1 1052 3 is_stmt 0 view .LVU188
 532              	.LBE11:
ARM GAS  /tmp/ccbutQBb.s 			page 31


 533              	.LBE10:
 284:Drivers/STM32G0xx_HAL_Driver/Src/stm32g0xx_hal_dma.c **** 
 534              		.loc 1 284 5 is_stmt 1 view .LVU189
 284:Drivers/STM32G0xx_HAL_Driver/Src/stm32g0xx_hal_dma.c **** 
 535              		.loc 1 284 34 is_stmt 0 view .LVU190
 536 0056 1E60     		str	r6, [r3]
 287:Drivers/STM32G0xx_HAL_Driver/Src/stm32g0xx_hal_dma.c ****   }
 537              		.loc 1 287 5 is_stmt 1 view .LVU191
 287:Drivers/STM32G0xx_HAL_Driver/Src/stm32g0xx_hal_dma.c ****   }
 538              		.loc 1 287 41 is_stmt 0 view .LVU192
 539 0058 0A4B     		ldr	r3, .L25+12
 540 005a 5D60     		str	r5, [r3, #4]
 541              	.L23:
 291:Drivers/STM32G0xx_HAL_Driver/Src/stm32g0xx_hal_dma.c ****   hdma->XferHalfCpltCallback = NULL;
 542              		.loc 1 291 3 is_stmt 1 view .LVU193
 291:Drivers/STM32G0xx_HAL_Driver/Src/stm32g0xx_hal_dma.c ****   hdma->XferHalfCpltCallback = NULL;
 543              		.loc 1 291 26 is_stmt 0 view .LVU194
 544 005c 0020     		movs	r0, #0
 304:Drivers/STM32G0xx_HAL_Driver/Src/stm32g0xx_hal_dma.c **** 
 545              		.loc 1 304 15 view .LVU195
 546 005e A31D     		adds	r3, r4, #6
 291:Drivers/STM32G0xx_HAL_Driver/Src/stm32g0xx_hal_dma.c ****   hdma->XferHalfCpltCallback = NULL;
 547              		.loc 1 291 26 view .LVU196
 548 0060 E062     		str	r0, [r4, #44]
 292:Drivers/STM32G0xx_HAL_Driver/Src/stm32g0xx_hal_dma.c ****   hdma->XferErrorCallback = NULL;
 549              		.loc 1 292 3 is_stmt 1 view .LVU197
 292:Drivers/STM32G0xx_HAL_Driver/Src/stm32g0xx_hal_dma.c ****   hdma->XferErrorCallback = NULL;
 550              		.loc 1 292 30 is_stmt 0 view .LVU198
 551 0062 2063     		str	r0, [r4, #48]
 293:Drivers/STM32G0xx_HAL_Driver/Src/stm32g0xx_hal_dma.c ****   hdma->XferAbortCallback = NULL;
 552              		.loc 1 293 3 is_stmt 1 view .LVU199
 293:Drivers/STM32G0xx_HAL_Driver/Src/stm32g0xx_hal_dma.c ****   hdma->XferAbortCallback = NULL;
 553              		.loc 1 293 27 is_stmt 0 view .LVU200
 554 0064 6063     		str	r0, [r4, #52]
 294:Drivers/STM32G0xx_HAL_Driver/Src/stm32g0xx_hal_dma.c **** 
 555              		.loc 1 294 3 is_stmt 1 view .LVU201
 294:Drivers/STM32G0xx_HAL_Driver/Src/stm32g0xx_hal_dma.c **** 
 556              		.loc 1 294 27 is_stmt 0 view .LVU202
 557 0066 A063     		str	r0, [r4, #56]
 296:Drivers/STM32G0xx_HAL_Driver/Src/stm32g0xx_hal_dma.c ****   hdma->DMAmuxRequestGenStatus = 0U;
 558              		.loc 1 296 3 is_stmt 1 view .LVU203
 296:Drivers/STM32G0xx_HAL_Driver/Src/stm32g0xx_hal_dma.c ****   hdma->DMAmuxRequestGenStatus = 0U;
 559              		.loc 1 296 26 is_stmt 0 view .LVU204
 560 0068 2065     		str	r0, [r4, #80]
 297:Drivers/STM32G0xx_HAL_Driver/Src/stm32g0xx_hal_dma.c ****   hdma->DMAmuxRequestGenStatusMask = 0U;
 561              		.loc 1 297 3 is_stmt 1 view .LVU205
 297:Drivers/STM32G0xx_HAL_Driver/Src/stm32g0xx_hal_dma.c ****   hdma->DMAmuxRequestGenStatusMask = 0U;
 562              		.loc 1 297 32 is_stmt 0 view .LVU206
 563 006a 6065     		str	r0, [r4, #84]
 298:Drivers/STM32G0xx_HAL_Driver/Src/stm32g0xx_hal_dma.c **** 
 564              		.loc 1 298 3 is_stmt 1 view .LVU207
 298:Drivers/STM32G0xx_HAL_Driver/Src/stm32g0xx_hal_dma.c **** 
 565              		.loc 1 298 36 is_stmt 0 view .LVU208
 566 006c A065     		str	r0, [r4, #88]
 301:Drivers/STM32G0xx_HAL_Driver/Src/stm32g0xx_hal_dma.c **** 
 567              		.loc 1 301 3 is_stmt 1 view .LVU209
 301:Drivers/STM32G0xx_HAL_Driver/Src/stm32g0xx_hal_dma.c **** 
ARM GAS  /tmp/ccbutQBb.s 			page 32


 568              		.loc 1 301 19 is_stmt 0 view .LVU210
 569 006e E063     		str	r0, [r4, #60]
 304:Drivers/STM32G0xx_HAL_Driver/Src/stm32g0xx_hal_dma.c **** 
 570              		.loc 1 304 3 is_stmt 1 view .LVU211
 307:Drivers/STM32G0xx_HAL_Driver/Src/stm32g0xx_hal_dma.c **** 
 571              		.loc 1 307 3 is_stmt 0 view .LVU212
 572 0070 0534     		adds	r4, r4, #5
 573              	.LVL29:
 304:Drivers/STM32G0xx_HAL_Driver/Src/stm32g0xx_hal_dma.c **** 
 574              		.loc 1 304 15 view .LVU213
 575 0072 D877     		strb	r0, [r3, #31]
 307:Drivers/STM32G0xx_HAL_Driver/Src/stm32g0xx_hal_dma.c **** 
 576              		.loc 1 307 3 is_stmt 1 view .LVU214
 307:Drivers/STM32G0xx_HAL_Driver/Src/stm32g0xx_hal_dma.c **** 
 577              		.loc 1 307 3 view .LVU215
 578 0074 E077     		strb	r0, [r4, #31]
 307:Drivers/STM32G0xx_HAL_Driver/Src/stm32g0xx_hal_dma.c **** 
 579              		.loc 1 307 3 view .LVU216
 309:Drivers/STM32G0xx_HAL_Driver/Src/stm32g0xx_hal_dma.c **** }
 580              		.loc 1 309 3 view .LVU217
 581              	.LVL30:
 582              	.L22:
 310:Drivers/STM32G0xx_HAL_Driver/Src/stm32g0xx_hal_dma.c **** 
 583              		.loc 1 310 1 is_stmt 0 view .LVU218
 584              		@ sp needed
 585 0076 F8BD     		pop	{r3, r4, r5, r6, r7, pc}
 586              	.L26:
 587              		.align	2
 588              	.L25:
 589 0078 F8FFFDBF 		.word	-1073872904
 590 007c 00000240 		.word	1073872896
 591 0080 3F820010 		.word	268468799
 592 0084 40090240 		.word	1073875264
 593              		.cfi_endproc
 594              	.LFE302:
 596              		.section	.text.HAL_DMA_Start,"ax",%progbits
 597              		.align	1
 598              		.global	HAL_DMA_Start
 599              		.syntax unified
 600              		.code	16
 601              		.thumb_func
 602              		.fpu softvfp
 604              	HAL_DMA_Start:
 605              	.LVL31:
 606              	.LFB303:
 345:Drivers/STM32G0xx_HAL_Driver/Src/stm32g0xx_hal_dma.c ****   HAL_StatusTypeDef status = HAL_OK;
 607              		.loc 1 345 1 is_stmt 1 view -0
 608              		.cfi_startproc
 609              		@ args = 0, pretend = 0, frame = 8
 610              		@ frame_needed = 0, uses_anonymous_args = 0
 346:Drivers/STM32G0xx_HAL_Driver/Src/stm32g0xx_hal_dma.c **** 
 611              		.loc 1 346 3 view .LVU220
 349:Drivers/STM32G0xx_HAL_Driver/Src/stm32g0xx_hal_dma.c **** 
 612              		.loc 1 349 3 view .LVU221
 352:Drivers/STM32G0xx_HAL_Driver/Src/stm32g0xx_hal_dma.c **** 
 613              		.loc 1 352 3 view .LVU222
 352:Drivers/STM32G0xx_HAL_Driver/Src/stm32g0xx_hal_dma.c **** 
ARM GAS  /tmp/ccbutQBb.s 			page 33


 614              		.loc 1 352 3 view .LVU223
 345:Drivers/STM32G0xx_HAL_Driver/Src/stm32g0xx_hal_dma.c ****   HAL_StatusTypeDef status = HAL_OK;
 615              		.loc 1 345 1 is_stmt 0 view .LVU224
 616 0000 F7B5     		push	{r0, r1, r2, r4, r5, r6, r7, lr}
 617              	.LCFI4:
 618              		.cfi_def_cfa_offset 32
 619              		.cfi_offset 0, -32
 620              		.cfi_offset 1, -28
 621              		.cfi_offset 2, -24
 622              		.cfi_offset 4, -20
 623              		.cfi_offset 5, -16
 624              		.cfi_offset 6, -12
 625              		.cfi_offset 7, -8
 626              		.cfi_offset 14, -4
 352:Drivers/STM32G0xx_HAL_Driver/Src/stm32g0xx_hal_dma.c **** 
 627              		.loc 1 352 3 view .LVU225
 628 0002 461D     		adds	r6, r0, #5
 345:Drivers/STM32G0xx_HAL_Driver/Src/stm32g0xx_hal_dma.c ****   HAL_StatusTypeDef status = HAL_OK;
 629              		.loc 1 345 1 view .LVU226
 630 0004 0193     		str	r3, [sp, #4]
 352:Drivers/STM32G0xx_HAL_Driver/Src/stm32g0xx_hal_dma.c **** 
 631              		.loc 1 352 3 view .LVU227
 632 0006 F57F     		ldrb	r5, [r6, #31]
 345:Drivers/STM32G0xx_HAL_Driver/Src/stm32g0xx_hal_dma.c ****   HAL_StatusTypeDef status = HAL_OK;
 633              		.loc 1 345 1 view .LVU228
 634 0008 0400     		movs	r4, r0
 352:Drivers/STM32G0xx_HAL_Driver/Src/stm32g0xx_hal_dma.c **** 
 635              		.loc 1 352 3 view .LVU229
 636 000a 0220     		movs	r0, #2
 637              	.LVL32:
 352:Drivers/STM32G0xx_HAL_Driver/Src/stm32g0xx_hal_dma.c **** 
 638              		.loc 1 352 3 view .LVU230
 639 000c 012D     		cmp	r5, #1
 640 000e 1BD0     		beq	.L28
 352:Drivers/STM32G0xx_HAL_Driver/Src/stm32g0xx_hal_dma.c **** 
 641              		.loc 1 352 3 is_stmt 1 discriminator 2 view .LVU231
 642 0010 0138     		subs	r0, r0, #1
 643 0012 F077     		strb	r0, [r6, #31]
 352:Drivers/STM32G0xx_HAL_Driver/Src/stm32g0xx_hal_dma.c **** 
 644              		.loc 1 352 3 discriminator 2 view .LVU232
 354:Drivers/STM32G0xx_HAL_Driver/Src/stm32g0xx_hal_dma.c ****   {
 645              		.loc 1 354 3 discriminator 2 view .LVU233
 354:Drivers/STM32G0xx_HAL_Driver/Src/stm32g0xx_hal_dma.c ****   {
 646              		.loc 1 354 34 is_stmt 0 discriminator 2 view .LVU234
 647 0014 A71D     		adds	r7, r4, #6
 648 0016 F87F     		ldrb	r0, [r7, #31]
 649 0018 8446     		mov	ip, r0
 354:Drivers/STM32G0xx_HAL_Driver/Src/stm32g0xx_hal_dma.c ****   {
 650              		.loc 1 354 6 discriminator 2 view .LVU235
 651 001a 6346     		mov	r3, ip
 652              	.LVL33:
 354:Drivers/STM32G0xx_HAL_Driver/Src/stm32g0xx_hal_dma.c ****   {
 653              		.loc 1 354 34 discriminator 2 view .LVU236
 654 001c C5B2     		uxtb	r5, r0
 655 001e 0220     		movs	r0, #2
 354:Drivers/STM32G0xx_HAL_Driver/Src/stm32g0xx_hal_dma.c ****   {
 656              		.loc 1 354 6 discriminator 2 view .LVU237
ARM GAS  /tmp/ccbutQBb.s 			page 34


 657 0020 012B     		cmp	r3, #1
 658 0022 0FD1     		bne	.L29
 357:Drivers/STM32G0xx_HAL_Driver/Src/stm32g0xx_hal_dma.c ****     hdma->ErrorCode = HAL_DMA_ERROR_NONE;
 659              		.loc 1 357 5 is_stmt 1 view .LVU238
 357:Drivers/STM32G0xx_HAL_Driver/Src/stm32g0xx_hal_dma.c ****     hdma->ErrorCode = HAL_DMA_ERROR_NONE;
 660              		.loc 1 357 17 is_stmt 0 view .LVU239
 661 0024 F877     		strb	r0, [r7, #31]
 358:Drivers/STM32G0xx_HAL_Driver/Src/stm32g0xx_hal_dma.c **** 
 662              		.loc 1 358 5 is_stmt 1 view .LVU240
 358:Drivers/STM32G0xx_HAL_Driver/Src/stm32g0xx_hal_dma.c **** 
 663              		.loc 1 358 21 is_stmt 0 view .LVU241
 664 0026 0027     		movs	r7, #0
 361:Drivers/STM32G0xx_HAL_Driver/Src/stm32g0xx_hal_dma.c **** 
 665              		.loc 1 361 5 view .LVU242
 666 0028 2368     		ldr	r3, [r4]
 358:Drivers/STM32G0xx_HAL_Driver/Src/stm32g0xx_hal_dma.c **** 
 667              		.loc 1 358 21 view .LVU243
 668 002a E763     		str	r7, [r4, #60]
 361:Drivers/STM32G0xx_HAL_Driver/Src/stm32g0xx_hal_dma.c **** 
 669              		.loc 1 361 5 is_stmt 1 view .LVU244
 670 002c 1868     		ldr	r0, [r3]
 671 002e A843     		bics	r0, r5
 672 0030 1860     		str	r0, [r3]
 364:Drivers/STM32G0xx_HAL_Driver/Src/stm32g0xx_hal_dma.c **** 
 673              		.loc 1 364 5 view .LVU245
 674 0032 2000     		movs	r0, r4
 675 0034 019B     		ldr	r3, [sp, #4]
 676 0036 FFF7FEFF 		bl	DMA_SetConfig
 677              	.LVL34:
 367:Drivers/STM32G0xx_HAL_Driver/Src/stm32g0xx_hal_dma.c ****   }
 678              		.loc 1 367 5 view .LVU246
 346:Drivers/STM32G0xx_HAL_Driver/Src/stm32g0xx_hal_dma.c **** 
 679              		.loc 1 346 21 is_stmt 0 view .LVU247
 680 003a 3800     		movs	r0, r7
 367:Drivers/STM32G0xx_HAL_Driver/Src/stm32g0xx_hal_dma.c ****   }
 681              		.loc 1 367 5 view .LVU248
 682 003c 2368     		ldr	r3, [r4]
 683 003e 1A68     		ldr	r2, [r3]
 684 0040 1543     		orrs	r5, r2
 685 0042 1D60     		str	r5, [r3]
 686              	.L29:
 687              	.LVL35:
 377:Drivers/STM32G0xx_HAL_Driver/Src/stm32g0xx_hal_dma.c **** 
 688              		.loc 1 377 3 is_stmt 1 view .LVU249
 377:Drivers/STM32G0xx_HAL_Driver/Src/stm32g0xx_hal_dma.c **** 
 689              		.loc 1 377 3 view .LVU250
 690 0044 0023     		movs	r3, #0
 691 0046 F377     		strb	r3, [r6, #31]
 377:Drivers/STM32G0xx_HAL_Driver/Src/stm32g0xx_hal_dma.c **** 
 692              		.loc 1 377 3 view .LVU251
 379:Drivers/STM32G0xx_HAL_Driver/Src/stm32g0xx_hal_dma.c **** }
 693              		.loc 1 379 3 view .LVU252
 694              	.LVL36:
 695              	.L28:
 380:Drivers/STM32G0xx_HAL_Driver/Src/stm32g0xx_hal_dma.c **** 
 696              		.loc 1 380 1 is_stmt 0 view .LVU253
 697              		@ sp needed
ARM GAS  /tmp/ccbutQBb.s 			page 35


 698              	.LVL37:
 699              	.LVL38:
 380:Drivers/STM32G0xx_HAL_Driver/Src/stm32g0xx_hal_dma.c **** 
 700              		.loc 1 380 1 view .LVU254
 701 0048 FEBD     		pop	{r1, r2, r3, r4, r5, r6, r7, pc}
 702              		.cfi_endproc
 703              	.LFE303:
 705              		.section	.text.HAL_DMA_Start_IT,"ax",%progbits
 706              		.align	1
 707              		.global	HAL_DMA_Start_IT
 708              		.syntax unified
 709              		.code	16
 710              		.thumb_func
 711              		.fpu softvfp
 713              	HAL_DMA_Start_IT:
 714              	.LVL39:
 715              	.LFB304:
 392:Drivers/STM32G0xx_HAL_Driver/Src/stm32g0xx_hal_dma.c ****   HAL_StatusTypeDef status = HAL_OK;
 716              		.loc 1 392 1 is_stmt 1 view -0
 717              		.cfi_startproc
 718              		@ args = 0, pretend = 0, frame = 8
 719              		@ frame_needed = 0, uses_anonymous_args = 0
 393:Drivers/STM32G0xx_HAL_Driver/Src/stm32g0xx_hal_dma.c **** 
 720              		.loc 1 393 3 view .LVU256
 396:Drivers/STM32G0xx_HAL_Driver/Src/stm32g0xx_hal_dma.c **** 
 721              		.loc 1 396 3 view .LVU257
 399:Drivers/STM32G0xx_HAL_Driver/Src/stm32g0xx_hal_dma.c **** 
 722              		.loc 1 399 3 view .LVU258
 399:Drivers/STM32G0xx_HAL_Driver/Src/stm32g0xx_hal_dma.c **** 
 723              		.loc 1 399 3 view .LVU259
 392:Drivers/STM32G0xx_HAL_Driver/Src/stm32g0xx_hal_dma.c ****   HAL_StatusTypeDef status = HAL_OK;
 724              		.loc 1 392 1 is_stmt 0 view .LVU260
 725 0000 F7B5     		push	{r0, r1, r2, r4, r5, r6, r7, lr}
 726              	.LCFI5:
 727              		.cfi_def_cfa_offset 32
 728              		.cfi_offset 0, -32
 729              		.cfi_offset 1, -28
 730              		.cfi_offset 2, -24
 731              		.cfi_offset 4, -20
 732              		.cfi_offset 5, -16
 733              		.cfi_offset 6, -12
 734              		.cfi_offset 7, -8
 735              		.cfi_offset 14, -4
 399:Drivers/STM32G0xx_HAL_Driver/Src/stm32g0xx_hal_dma.c **** 
 736              		.loc 1 399 3 view .LVU261
 737 0002 451D     		adds	r5, r0, #5
 392:Drivers/STM32G0xx_HAL_Driver/Src/stm32g0xx_hal_dma.c ****   HAL_StatusTypeDef status = HAL_OK;
 738              		.loc 1 392 1 view .LVU262
 739 0004 0193     		str	r3, [sp, #4]
 399:Drivers/STM32G0xx_HAL_Driver/Src/stm32g0xx_hal_dma.c **** 
 740              		.loc 1 399 3 view .LVU263
 741 0006 EE7F     		ldrb	r6, [r5, #31]
 392:Drivers/STM32G0xx_HAL_Driver/Src/stm32g0xx_hal_dma.c ****   HAL_StatusTypeDef status = HAL_OK;
 742              		.loc 1 392 1 view .LVU264
 743 0008 0400     		movs	r4, r0
 399:Drivers/STM32G0xx_HAL_Driver/Src/stm32g0xx_hal_dma.c **** 
 744              		.loc 1 399 3 view .LVU265
ARM GAS  /tmp/ccbutQBb.s 			page 36


 745 000a 0220     		movs	r0, #2
 746              	.LVL40:
 399:Drivers/STM32G0xx_HAL_Driver/Src/stm32g0xx_hal_dma.c **** 
 747              		.loc 1 399 3 view .LVU266
 748 000c 012E     		cmp	r6, #1
 749 000e 37D0     		beq	.L33
 399:Drivers/STM32G0xx_HAL_Driver/Src/stm32g0xx_hal_dma.c **** 
 750              		.loc 1 399 3 is_stmt 1 discriminator 2 view .LVU267
 751 0010 0138     		subs	r0, r0, #1
 752 0012 E877     		strb	r0, [r5, #31]
 399:Drivers/STM32G0xx_HAL_Driver/Src/stm32g0xx_hal_dma.c **** 
 753              		.loc 1 399 3 discriminator 2 view .LVU268
 401:Drivers/STM32G0xx_HAL_Driver/Src/stm32g0xx_hal_dma.c ****   {
 754              		.loc 1 401 3 discriminator 2 view .LVU269
 401:Drivers/STM32G0xx_HAL_Driver/Src/stm32g0xx_hal_dma.c ****   {
 755              		.loc 1 401 34 is_stmt 0 discriminator 2 view .LVU270
 756 0014 A61D     		adds	r6, r4, #6
 757 0016 F07F     		ldrb	r0, [r6, #31]
 758 0018 0227     		movs	r7, #2
 759 001a 8446     		mov	ip, r0
 401:Drivers/STM32G0xx_HAL_Driver/Src/stm32g0xx_hal_dma.c ****   {
 760              		.loc 1 401 6 discriminator 2 view .LVU271
 761 001c 6346     		mov	r3, ip
 762              	.LVL41:
 401:Drivers/STM32G0xx_HAL_Driver/Src/stm32g0xx_hal_dma.c ****   {
 763              		.loc 1 401 34 discriminator 2 view .LVU272
 764 001e C0B2     		uxtb	r0, r0
 765 0020 0090     		str	r0, [sp]
 449:Drivers/STM32G0xx_HAL_Driver/Src/stm32g0xx_hal_dma.c ****   }
 766              		.loc 1 449 12 discriminator 2 view .LVU273
 767 0022 3800     		movs	r0, r7
 401:Drivers/STM32G0xx_HAL_Driver/Src/stm32g0xx_hal_dma.c ****   {
 768              		.loc 1 401 6 discriminator 2 view .LVU274
 769 0024 012B     		cmp	r3, #1
 770 0026 29D1     		bne	.L34
 404:Drivers/STM32G0xx_HAL_Driver/Src/stm32g0xx_hal_dma.c ****     hdma->ErrorCode = HAL_DMA_ERROR_NONE;
 771              		.loc 1 404 5 is_stmt 1 view .LVU275
 405:Drivers/STM32G0xx_HAL_Driver/Src/stm32g0xx_hal_dma.c **** 
 772              		.loc 1 405 21 is_stmt 0 view .LVU276
 773 0028 0020     		movs	r0, #0
 404:Drivers/STM32G0xx_HAL_Driver/Src/stm32g0xx_hal_dma.c ****     hdma->ErrorCode = HAL_DMA_ERROR_NONE;
 774              		.loc 1 404 17 view .LVU277
 775 002a F777     		strb	r7, [r6, #31]
 405:Drivers/STM32G0xx_HAL_Driver/Src/stm32g0xx_hal_dma.c **** 
 776              		.loc 1 405 5 is_stmt 1 view .LVU278
 408:Drivers/STM32G0xx_HAL_Driver/Src/stm32g0xx_hal_dma.c **** 
 777              		.loc 1 408 5 is_stmt 0 view .LVU279
 778 002c 2668     		ldr	r6, [r4]
 405:Drivers/STM32G0xx_HAL_Driver/Src/stm32g0xx_hal_dma.c **** 
 779              		.loc 1 405 21 view .LVU280
 780 002e E063     		str	r0, [r4, #60]
 408:Drivers/STM32G0xx_HAL_Driver/Src/stm32g0xx_hal_dma.c **** 
 781              		.loc 1 408 5 is_stmt 1 view .LVU281
 782 0030 3068     		ldr	r0, [r6]
 783 0032 009B     		ldr	r3, [sp]
 784 0034 9843     		bics	r0, r3
 785 0036 3060     		str	r0, [r6]
ARM GAS  /tmp/ccbutQBb.s 			page 37


 411:Drivers/STM32G0xx_HAL_Driver/Src/stm32g0xx_hal_dma.c **** 
 786              		.loc 1 411 5 view .LVU282
 787 0038 019B     		ldr	r3, [sp, #4]
 788 003a 2000     		movs	r0, r4
 789 003c FFF7FEFF 		bl	DMA_SetConfig
 790              	.LVL42:
 415:Drivers/STM32G0xx_HAL_Driver/Src/stm32g0xx_hal_dma.c ****     {
 791              		.loc 1 415 5 view .LVU283
 415:Drivers/STM32G0xx_HAL_Driver/Src/stm32g0xx_hal_dma.c ****     {
 792              		.loc 1 415 8 is_stmt 0 view .LVU284
 793 0040 226B     		ldr	r2, [r4, #48]
 794 0042 2368     		ldr	r3, [r4]
 795 0044 002A     		cmp	r2, #0
 796 0046 1CD0     		beq	.L35
 418:Drivers/STM32G0xx_HAL_Driver/Src/stm32g0xx_hal_dma.c ****     }
 797              		.loc 1 418 7 is_stmt 1 view .LVU285
 798 0048 0E22     		movs	r2, #14
 799 004a 1968     		ldr	r1, [r3]
 800              	.L47:
 423:Drivers/STM32G0xx_HAL_Driver/Src/stm32g0xx_hal_dma.c ****     }
 801              		.loc 1 423 7 is_stmt 0 view .LVU286
 802 004c 0A43     		orrs	r2, r1
 803 004e 1A60     		str	r2, [r3]
 427:Drivers/STM32G0xx_HAL_Driver/Src/stm32g0xx_hal_dma.c ****     {
 804              		.loc 1 427 5 is_stmt 1 view .LVU287
 427:Drivers/STM32G0xx_HAL_Driver/Src/stm32g0xx_hal_dma.c ****     {
 805              		.loc 1 427 14 is_stmt 0 view .LVU288
 806 0050 626C     		ldr	r2, [r4, #68]
 427:Drivers/STM32G0xx_HAL_Driver/Src/stm32g0xx_hal_dma.c ****     {
 807              		.loc 1 427 29 view .LVU289
 808 0052 1168     		ldr	r1, [r2]
 427:Drivers/STM32G0xx_HAL_Driver/Src/stm32g0xx_hal_dma.c ****     {
 809              		.loc 1 427 8 view .LVU290
 810 0054 C903     		lsls	r1, r1, #15
 811 0056 04D5     		bpl	.L37
 430:Drivers/STM32G0xx_HAL_Driver/Src/stm32g0xx_hal_dma.c ****     }
 812              		.loc 1 430 7 is_stmt 1 view .LVU291
 430:Drivers/STM32G0xx_HAL_Driver/Src/stm32g0xx_hal_dma.c ****     }
 813              		.loc 1 430 32 is_stmt 0 view .LVU292
 814 0058 8021     		movs	r1, #128
 815 005a 1068     		ldr	r0, [r2]
 816 005c 4900     		lsls	r1, r1, #1
 817 005e 0143     		orrs	r1, r0
 818 0060 1160     		str	r1, [r2]
 819              	.L37:
 433:Drivers/STM32G0xx_HAL_Driver/Src/stm32g0xx_hal_dma.c ****     {
 820              		.loc 1 433 5 is_stmt 1 view .LVU293
 433:Drivers/STM32G0xx_HAL_Driver/Src/stm32g0xx_hal_dma.c ****     {
 821              		.loc 1 433 13 is_stmt 0 view .LVU294
 822 0062 226D     		ldr	r2, [r4, #80]
 433:Drivers/STM32G0xx_HAL_Driver/Src/stm32g0xx_hal_dma.c ****     {
 823              		.loc 1 433 8 view .LVU295
 824 0064 002A     		cmp	r2, #0
 825 0066 04D0     		beq	.L38
 437:Drivers/STM32G0xx_HAL_Driver/Src/stm32g0xx_hal_dma.c ****     }
 826              		.loc 1 437 7 is_stmt 1 view .LVU296
 437:Drivers/STM32G0xx_HAL_Driver/Src/stm32g0xx_hal_dma.c ****     }
ARM GAS  /tmp/ccbutQBb.s 			page 38


 827              		.loc 1 437 36 is_stmt 0 view .LVU297
 828 0068 8021     		movs	r1, #128
 829 006a 1068     		ldr	r0, [r2]
 830 006c 4900     		lsls	r1, r1, #1
 831 006e 0143     		orrs	r1, r0
 832 0070 1160     		str	r1, [r2]
 833              	.L38:
 441:Drivers/STM32G0xx_HAL_Driver/Src/stm32g0xx_hal_dma.c ****   }
 834              		.loc 1 441 5 is_stmt 1 view .LVU298
 835 0072 0122     		movs	r2, #1
 393:Drivers/STM32G0xx_HAL_Driver/Src/stm32g0xx_hal_dma.c **** 
 836              		.loc 1 393 21 is_stmt 0 view .LVU299
 837 0074 0020     		movs	r0, #0
 441:Drivers/STM32G0xx_HAL_Driver/Src/stm32g0xx_hal_dma.c ****   }
 838              		.loc 1 441 5 view .LVU300
 839 0076 1968     		ldr	r1, [r3]
 840 0078 0A43     		orrs	r2, r1
 841 007a 1A60     		str	r2, [r3]
 842              	.L34:
 843              	.LVL43:
 453:Drivers/STM32G0xx_HAL_Driver/Src/stm32g0xx_hal_dma.c **** 
 844              		.loc 1 453 3 is_stmt 1 view .LVU301
 453:Drivers/STM32G0xx_HAL_Driver/Src/stm32g0xx_hal_dma.c **** 
 845              		.loc 1 453 3 view .LVU302
 846 007c 0023     		movs	r3, #0
 847 007e EB77     		strb	r3, [r5, #31]
 453:Drivers/STM32G0xx_HAL_Driver/Src/stm32g0xx_hal_dma.c **** 
 848              		.loc 1 453 3 view .LVU303
 455:Drivers/STM32G0xx_HAL_Driver/Src/stm32g0xx_hal_dma.c **** }
 849              		.loc 1 455 3 view .LVU304
 850              	.LVL44:
 851              	.L33:
 456:Drivers/STM32G0xx_HAL_Driver/Src/stm32g0xx_hal_dma.c **** 
 852              		.loc 1 456 1 is_stmt 0 view .LVU305
 853              		@ sp needed
 854              	.LVL45:
 855              	.LVL46:
 456:Drivers/STM32G0xx_HAL_Driver/Src/stm32g0xx_hal_dma.c **** 
 856              		.loc 1 456 1 view .LVU306
 857 0080 FEBD     		pop	{r1, r2, r3, r4, r5, r6, r7, pc}
 858              	.LVL47:
 859              	.L35:
 422:Drivers/STM32G0xx_HAL_Driver/Src/stm32g0xx_hal_dma.c ****       __HAL_DMA_ENABLE_IT(hdma, (DMA_IT_TC | DMA_IT_TE));
 860              		.loc 1 422 7 is_stmt 1 view .LVU307
 861 0082 0421     		movs	r1, #4
 862 0084 1A68     		ldr	r2, [r3]
 863 0086 8A43     		bics	r2, r1
 864 0088 1A60     		str	r2, [r3]
 423:Drivers/STM32G0xx_HAL_Driver/Src/stm32g0xx_hal_dma.c ****     }
 865              		.loc 1 423 7 view .LVU308
 866 008a 1968     		ldr	r1, [r3]
 867 008c 0A22     		movs	r2, #10
 868 008e DDE7     		b	.L47
 869              		.cfi_endproc
 870              	.LFE304:
 872              		.section	.text.HAL_DMA_Abort,"ax",%progbits
 873              		.align	1
ARM GAS  /tmp/ccbutQBb.s 			page 39


 874              		.global	HAL_DMA_Abort
 875              		.syntax unified
 876              		.code	16
 877              		.thumb_func
 878              		.fpu softvfp
 880              	HAL_DMA_Abort:
 881              	.LVL48:
 882              	.LFB305:
 465:Drivers/STM32G0xx_HAL_Driver/Src/stm32g0xx_hal_dma.c ****   /* Check the DMA peripheral handle */
 883              		.loc 1 465 1 view -0
 884              		.cfi_startproc
 885              		@ args = 0, pretend = 0, frame = 0
 886              		@ frame_needed = 0, uses_anonymous_args = 0
 467:Drivers/STM32G0xx_HAL_Driver/Src/stm32g0xx_hal_dma.c ****   {
 887              		.loc 1 467 3 view .LVU310
 465:Drivers/STM32G0xx_HAL_Driver/Src/stm32g0xx_hal_dma.c ****   /* Check the DMA peripheral handle */
 888              		.loc 1 465 1 is_stmt 0 view .LVU311
 889 0000 0300     		movs	r3, r0
 890 0002 F0B5     		push	{r4, r5, r6, r7, lr}
 891              	.LCFI6:
 892              		.cfi_def_cfa_offset 20
 893              		.cfi_offset 4, -20
 894              		.cfi_offset 5, -16
 895              		.cfi_offset 6, -12
 896              		.cfi_offset 7, -8
 897              		.cfi_offset 14, -4
 469:Drivers/STM32G0xx_HAL_Driver/Src/stm32g0xx_hal_dma.c ****   }
 898              		.loc 1 469 12 view .LVU312
 899 0004 0120     		movs	r0, #1
 900              	.LVL49:
 467:Drivers/STM32G0xx_HAL_Driver/Src/stm32g0xx_hal_dma.c ****   {
 901              		.loc 1 467 6 view .LVU313
 902 0006 002B     		cmp	r3, #0
 903 0008 09D0     		beq	.L49
 473:Drivers/STM32G0xx_HAL_Driver/Src/stm32g0xx_hal_dma.c ****   {
 904              		.loc 1 473 3 is_stmt 1 view .LVU314
 473:Drivers/STM32G0xx_HAL_Driver/Src/stm32g0xx_hal_dma.c ****   {
 905              		.loc 1 473 10 is_stmt 0 view .LVU315
 906 000a 981D     		adds	r0, r3, #6
 907 000c C27F     		ldrb	r2, [r0, #31]
 908 000e 5C1D     		adds	r4, r3, #5
 473:Drivers/STM32G0xx_HAL_Driver/Src/stm32g0xx_hal_dma.c ****   {
 909              		.loc 1 473 5 view .LVU316
 910 0010 022A     		cmp	r2, #2
 911 0012 05D0     		beq	.L50
 475:Drivers/STM32G0xx_HAL_Driver/Src/stm32g0xx_hal_dma.c **** 
 912              		.loc 1 475 5 is_stmt 1 view .LVU317
 475:Drivers/STM32G0xx_HAL_Driver/Src/stm32g0xx_hal_dma.c **** 
 913              		.loc 1 475 21 is_stmt 0 view .LVU318
 914 0014 0422     		movs	r2, #4
 915 0016 DA63     		str	r2, [r3, #60]
 478:Drivers/STM32G0xx_HAL_Driver/Src/stm32g0xx_hal_dma.c **** 
 916              		.loc 1 478 5 is_stmt 1 view .LVU319
 478:Drivers/STM32G0xx_HAL_Driver/Src/stm32g0xx_hal_dma.c **** 
 917              		.loc 1 478 5 view .LVU320
 918 0018 0023     		movs	r3, #0
 919              	.LVL50:
ARM GAS  /tmp/ccbutQBb.s 			page 40


 480:Drivers/STM32G0xx_HAL_Driver/Src/stm32g0xx_hal_dma.c ****   }
 920              		.loc 1 480 12 is_stmt 0 view .LVU321
 921 001a 0120     		movs	r0, #1
 478:Drivers/STM32G0xx_HAL_Driver/Src/stm32g0xx_hal_dma.c **** 
 922              		.loc 1 478 5 view .LVU322
 923 001c E377     		strb	r3, [r4, #31]
 478:Drivers/STM32G0xx_HAL_Driver/Src/stm32g0xx_hal_dma.c **** 
 924              		.loc 1 478 5 is_stmt 1 view .LVU323
 480:Drivers/STM32G0xx_HAL_Driver/Src/stm32g0xx_hal_dma.c ****   }
 925              		.loc 1 480 5 view .LVU324
 926              	.LVL51:
 927              	.L49:
 517:Drivers/STM32G0xx_HAL_Driver/Src/stm32g0xx_hal_dma.c **** 
 928              		.loc 1 517 1 is_stmt 0 view .LVU325
 929              		@ sp needed
 930 001e F0BD     		pop	{r4, r5, r6, r7, pc}
 931              	.LVL52:
 932              	.L50:
 485:Drivers/STM32G0xx_HAL_Driver/Src/stm32g0xx_hal_dma.c **** 
 933              		.loc 1 485 5 is_stmt 1 view .LVU326
 934 0020 0E25     		movs	r5, #14
 935 0022 1968     		ldr	r1, [r3]
 488:Drivers/STM32G0xx_HAL_Driver/Src/stm32g0xx_hal_dma.c **** 
 936              		.loc 1 488 9 is_stmt 0 view .LVU327
 937 0024 5E6C     		ldr	r6, [r3, #68]
 485:Drivers/STM32G0xx_HAL_Driver/Src/stm32g0xx_hal_dma.c **** 
 938              		.loc 1 485 5 view .LVU328
 939 0026 0A68     		ldr	r2, [r1]
 940 0028 AA43     		bics	r2, r5
 941 002a 0A60     		str	r2, [r1]
 488:Drivers/STM32G0xx_HAL_Driver/Src/stm32g0xx_hal_dma.c **** 
 942              		.loc 1 488 5 is_stmt 1 view .LVU329
 488:Drivers/STM32G0xx_HAL_Driver/Src/stm32g0xx_hal_dma.c **** 
 943              		.loc 1 488 30 is_stmt 0 view .LVU330
 944 002c 3268     		ldr	r2, [r6]
 945 002e 114D     		ldr	r5, .L56
 946 0030 2A40     		ands	r2, r5
 947 0032 3260     		str	r2, [r6]
 491:Drivers/STM32G0xx_HAL_Driver/Src/stm32g0xx_hal_dma.c **** 
 948              		.loc 1 491 5 is_stmt 1 view .LVU331
 949 0034 0122     		movs	r2, #1
 950 0036 0E68     		ldr	r6, [r1]
 951 0038 9446     		mov	ip, r2
 952 003a 9643     		bics	r6, r2
 953 003c 0E60     		str	r6, [r1]
 494:Drivers/STM32G0xx_HAL_Driver/Src/stm32g0xx_hal_dma.c **** 
 954              		.loc 1 494 5 view .LVU332
 955 003e 1C21     		movs	r1, #28
 956 0040 1A6C     		ldr	r2, [r3, #64]
 957 0042 0D4E     		ldr	r6, .L56+4
 958 0044 1140     		ands	r1, r2
 959 0046 6246     		mov	r2, ip
 960 0048 8A40     		lsls	r2, r2, r1
 961 004a 7768     		ldr	r7, [r6, #4]
 962 004c 3A43     		orrs	r2, r7
 963 004e 7260     		str	r2, [r6, #4]
 497:Drivers/STM32G0xx_HAL_Driver/Src/stm32g0xx_hal_dma.c **** 
ARM GAS  /tmp/ccbutQBb.s 			page 41


 964              		.loc 1 497 5 view .LVU333
 497:Drivers/STM32G0xx_HAL_Driver/Src/stm32g0xx_hal_dma.c **** 
 965              		.loc 1 497 36 is_stmt 0 view .LVU334
 966 0050 D96C     		ldr	r1, [r3, #76]
 497:Drivers/STM32G0xx_HAL_Driver/Src/stm32g0xx_hal_dma.c **** 
 967              		.loc 1 497 9 view .LVU335
 968 0052 9A6C     		ldr	r2, [r3, #72]
 497:Drivers/STM32G0xx_HAL_Driver/Src/stm32g0xx_hal_dma.c **** 
 969              		.loc 1 497 36 view .LVU336
 970 0054 5160     		str	r1, [r2, #4]
 499:Drivers/STM32G0xx_HAL_Driver/Src/stm32g0xx_hal_dma.c ****     {
 971              		.loc 1 499 5 is_stmt 1 view .LVU337
 499:Drivers/STM32G0xx_HAL_Driver/Src/stm32g0xx_hal_dma.c ****     {
 972              		.loc 1 499 13 is_stmt 0 view .LVU338
 973 0056 1A6D     		ldr	r2, [r3, #80]
 499:Drivers/STM32G0xx_HAL_Driver/Src/stm32g0xx_hal_dma.c ****     {
 974              		.loc 1 499 8 view .LVU339
 975 0058 002A     		cmp	r2, #0
 976 005a 05D0     		beq	.L51
 503:Drivers/STM32G0xx_HAL_Driver/Src/stm32g0xx_hal_dma.c **** 
 977              		.loc 1 503 7 is_stmt 1 view .LVU340
 503:Drivers/STM32G0xx_HAL_Driver/Src/stm32g0xx_hal_dma.c **** 
 978              		.loc 1 503 36 is_stmt 0 view .LVU341
 979 005c 1168     		ldr	r1, [r2]
 980 005e 2940     		ands	r1, r5
 981 0060 1160     		str	r1, [r2]
 506:Drivers/STM32G0xx_HAL_Driver/Src/stm32g0xx_hal_dma.c ****     }
 982              		.loc 1 506 7 is_stmt 1 view .LVU342
 506:Drivers/STM32G0xx_HAL_Driver/Src/stm32g0xx_hal_dma.c ****     }
 983              		.loc 1 506 11 is_stmt 0 view .LVU343
 984 0062 5A6D     		ldr	r2, [r3, #84]
 506:Drivers/STM32G0xx_HAL_Driver/Src/stm32g0xx_hal_dma.c ****     }
 985              		.loc 1 506 49 view .LVU344
 986 0064 9B6D     		ldr	r3, [r3, #88]
 987              	.LVL53:
 506:Drivers/STM32G0xx_HAL_Driver/Src/stm32g0xx_hal_dma.c ****     }
 988              		.loc 1 506 43 view .LVU345
 989 0066 5360     		str	r3, [r2, #4]
 990              	.L51:
 510:Drivers/STM32G0xx_HAL_Driver/Src/stm32g0xx_hal_dma.c **** 
 991              		.loc 1 510 5 is_stmt 1 view .LVU346
 510:Drivers/STM32G0xx_HAL_Driver/Src/stm32g0xx_hal_dma.c **** 
 992              		.loc 1 510 17 is_stmt 0 view .LVU347
 993 0068 0123     		movs	r3, #1
 994 006a C377     		strb	r3, [r0, #31]
 513:Drivers/STM32G0xx_HAL_Driver/Src/stm32g0xx_hal_dma.c ****   }
 995              		.loc 1 513 5 is_stmt 1 view .LVU348
 513:Drivers/STM32G0xx_HAL_Driver/Src/stm32g0xx_hal_dma.c ****   }
 996              		.loc 1 513 5 view .LVU349
 997 006c 0020     		movs	r0, #0
 998 006e E077     		strb	r0, [r4, #31]
 513:Drivers/STM32G0xx_HAL_Driver/Src/stm32g0xx_hal_dma.c ****   }
 999              		.loc 1 513 5 view .LVU350
 516:Drivers/STM32G0xx_HAL_Driver/Src/stm32g0xx_hal_dma.c **** }
 1000              		.loc 1 516 3 view .LVU351
 516:Drivers/STM32G0xx_HAL_Driver/Src/stm32g0xx_hal_dma.c **** }
 1001              		.loc 1 516 10 is_stmt 0 view .LVU352
ARM GAS  /tmp/ccbutQBb.s 			page 42


 1002 0070 D5E7     		b	.L49
 1003              	.L57:
 1004 0072 C046     		.align	2
 1005              	.L56:
 1006 0074 FFFEFFFF 		.word	-257
 1007 0078 00000240 		.word	1073872896
 1008              		.cfi_endproc
 1009              	.LFE305:
 1011              		.section	.text.HAL_DMA_Abort_IT,"ax",%progbits
 1012              		.align	1
 1013              		.global	HAL_DMA_Abort_IT
 1014              		.syntax unified
 1015              		.code	16
 1016              		.thumb_func
 1017              		.fpu softvfp
 1019              	HAL_DMA_Abort_IT:
 1020              	.LVL54:
 1021              	.LFB306:
 526:Drivers/STM32G0xx_HAL_Driver/Src/stm32g0xx_hal_dma.c ****   HAL_StatusTypeDef status = HAL_OK;
 1022              		.loc 1 526 1 is_stmt 1 view -0
 1023              		.cfi_startproc
 1024              		@ args = 0, pretend = 0, frame = 0
 1025              		@ frame_needed = 0, uses_anonymous_args = 0
 527:Drivers/STM32G0xx_HAL_Driver/Src/stm32g0xx_hal_dma.c **** 
 1026              		.loc 1 527 3 view .LVU354
 530:Drivers/STM32G0xx_HAL_Driver/Src/stm32g0xx_hal_dma.c ****   __HAL_LOCK(hdma);
 1027              		.loc 1 530 3 view .LVU355
 530:Drivers/STM32G0xx_HAL_Driver/Src/stm32g0xx_hal_dma.c ****   __HAL_LOCK(hdma);
 1028              		.loc 1 530 3 view .LVU356
 530:Drivers/STM32G0xx_HAL_Driver/Src/stm32g0xx_hal_dma.c ****   __HAL_LOCK(hdma);
 1029              		.loc 1 530 3 view .LVU357
 531:Drivers/STM32G0xx_HAL_Driver/Src/stm32g0xx_hal_dma.c **** 
 1030              		.loc 1 531 3 view .LVU358
 531:Drivers/STM32G0xx_HAL_Driver/Src/stm32g0xx_hal_dma.c **** 
 1031              		.loc 1 531 3 view .LVU359
 531:Drivers/STM32G0xx_HAL_Driver/Src/stm32g0xx_hal_dma.c **** 
 1032              		.loc 1 531 3 view .LVU360
 526:Drivers/STM32G0xx_HAL_Driver/Src/stm32g0xx_hal_dma.c ****   HAL_StatusTypeDef status = HAL_OK;
 1033              		.loc 1 526 1 is_stmt 0 view .LVU361
 1034 0000 F8B5     		push	{r3, r4, r5, r6, r7, lr}
 1035              	.LCFI7:
 1036              		.cfi_def_cfa_offset 24
 1037              		.cfi_offset 3, -24
 1038              		.cfi_offset 4, -20
 1039              		.cfi_offset 5, -16
 1040              		.cfi_offset 6, -12
 1041              		.cfi_offset 7, -8
 1042              		.cfi_offset 14, -4
 531:Drivers/STM32G0xx_HAL_Driver/Src/stm32g0xx_hal_dma.c **** 
 1043              		.loc 1 531 3 view .LVU362
 1044 0002 0123     		movs	r3, #1
 1045 0004 411D     		adds	r1, r0, #5
 1046 0006 CB77     		strb	r3, [r1, #31]
 531:Drivers/STM32G0xx_HAL_Driver/Src/stm32g0xx_hal_dma.c **** 
 1047              		.loc 1 531 3 is_stmt 1 view .LVU363
 533:Drivers/STM32G0xx_HAL_Driver/Src/stm32g0xx_hal_dma.c ****   {
 1048              		.loc 1 533 3 view .LVU364
ARM GAS  /tmp/ccbutQBb.s 			page 43


 533:Drivers/STM32G0xx_HAL_Driver/Src/stm32g0xx_hal_dma.c ****   {
 1049              		.loc 1 533 33 is_stmt 0 view .LVU365
 1050 0008 841D     		adds	r4, r0, #6
 1051 000a E27F     		ldrb	r2, [r4, #31]
 533:Drivers/STM32G0xx_HAL_Driver/Src/stm32g0xx_hal_dma.c ****   {
 1052              		.loc 1 533 6 view .LVU366
 1053 000c 022A     		cmp	r2, #2
 1054 000e 03D0     		beq	.L59
 536:Drivers/STM32G0xx_HAL_Driver/Src/stm32g0xx_hal_dma.c **** 
 1055              		.loc 1 536 5 is_stmt 1 view .LVU367
 536:Drivers/STM32G0xx_HAL_Driver/Src/stm32g0xx_hal_dma.c **** 
 1056              		.loc 1 536 21 is_stmt 0 view .LVU368
 1057 0010 0422     		movs	r2, #4
 1058 0012 C263     		str	r2, [r0, #60]
 538:Drivers/STM32G0xx_HAL_Driver/Src/stm32g0xx_hal_dma.c ****   }
 1059              		.loc 1 538 5 is_stmt 1 view .LVU369
 1060              	.LVL55:
 1061              	.L60:
 579:Drivers/STM32G0xx_HAL_Driver/Src/stm32g0xx_hal_dma.c **** }
 1062              		.loc 1 579 3 view .LVU370
 580:Drivers/STM32G0xx_HAL_Driver/Src/stm32g0xx_hal_dma.c **** 
 1063              		.loc 1 580 1 is_stmt 0 view .LVU371
 1064 0014 1800     		movs	r0, r3
 1065              		@ sp needed
 1066 0016 F8BD     		pop	{r3, r4, r5, r6, r7, pc}
 1067              	.LVL56:
 1068              	.L59:
 543:Drivers/STM32G0xx_HAL_Driver/Src/stm32g0xx_hal_dma.c **** 
 1069              		.loc 1 543 5 is_stmt 1 view .LVU372
 1070 0018 0E26     		movs	r6, #14
 1071 001a 0268     		ldr	r2, [r0]
 1072 001c 1568     		ldr	r5, [r2]
 1073 001e B543     		bics	r5, r6
 1074 0020 1560     		str	r5, [r2]
 546:Drivers/STM32G0xx_HAL_Driver/Src/stm32g0xx_hal_dma.c **** 
 1075              		.loc 1 546 5 view .LVU373
 1076 0022 1568     		ldr	r5, [r2]
 549:Drivers/STM32G0xx_HAL_Driver/Src/stm32g0xx_hal_dma.c **** 
 1077              		.loc 1 549 9 is_stmt 0 view .LVU374
 1078 0024 466C     		ldr	r6, [r0, #68]
 546:Drivers/STM32G0xx_HAL_Driver/Src/stm32g0xx_hal_dma.c **** 
 1079              		.loc 1 546 5 view .LVU375
 1080 0026 9D43     		bics	r5, r3
 1081 0028 1560     		str	r5, [r2]
 549:Drivers/STM32G0xx_HAL_Driver/Src/stm32g0xx_hal_dma.c **** 
 1082              		.loc 1 549 5 is_stmt 1 view .LVU376
 549:Drivers/STM32G0xx_HAL_Driver/Src/stm32g0xx_hal_dma.c **** 
 1083              		.loc 1 549 30 is_stmt 0 view .LVU377
 1084 002a 3268     		ldr	r2, [r6]
 1085 002c 114D     		ldr	r5, .L66
 1086 002e 2A40     		ands	r2, r5
 1087 0030 3260     		str	r2, [r6]
 552:Drivers/STM32G0xx_HAL_Driver/Src/stm32g0xx_hal_dma.c **** 
 1088              		.loc 1 552 5 is_stmt 1 view .LVU378
 1089 0032 1C22     		movs	r2, #28
 549:Drivers/STM32G0xx_HAL_Driver/Src/stm32g0xx_hal_dma.c **** 
 1090              		.loc 1 549 30 is_stmt 0 view .LVU379
ARM GAS  /tmp/ccbutQBb.s 			page 44


 1091 0034 AC46     		mov	ip, r5
 552:Drivers/STM32G0xx_HAL_Driver/Src/stm32g0xx_hal_dma.c **** 
 1092              		.loc 1 552 5 view .LVU380
 1093 0036 056C     		ldr	r5, [r0, #64]
 1094 0038 0F4E     		ldr	r6, .L66+4
 1095 003a 2A40     		ands	r2, r5
 1096 003c 9340     		lsls	r3, r3, r2
 1097 003e 7768     		ldr	r7, [r6, #4]
 1098 0040 3B43     		orrs	r3, r7
 1099 0042 7360     		str	r3, [r6, #4]
 555:Drivers/STM32G0xx_HAL_Driver/Src/stm32g0xx_hal_dma.c **** 
 1100              		.loc 1 555 5 is_stmt 1 view .LVU381
 555:Drivers/STM32G0xx_HAL_Driver/Src/stm32g0xx_hal_dma.c **** 
 1101              		.loc 1 555 36 is_stmt 0 view .LVU382
 1102 0044 C26C     		ldr	r2, [r0, #76]
 555:Drivers/STM32G0xx_HAL_Driver/Src/stm32g0xx_hal_dma.c **** 
 1103              		.loc 1 555 9 view .LVU383
 1104 0046 836C     		ldr	r3, [r0, #72]
 555:Drivers/STM32G0xx_HAL_Driver/Src/stm32g0xx_hal_dma.c **** 
 1105              		.loc 1 555 36 view .LVU384
 1106 0048 5A60     		str	r2, [r3, #4]
 557:Drivers/STM32G0xx_HAL_Driver/Src/stm32g0xx_hal_dma.c ****     {
 1107              		.loc 1 557 5 is_stmt 1 view .LVU385
 557:Drivers/STM32G0xx_HAL_Driver/Src/stm32g0xx_hal_dma.c ****     {
 1108              		.loc 1 557 13 is_stmt 0 view .LVU386
 1109 004a 036D     		ldr	r3, [r0, #80]
 557:Drivers/STM32G0xx_HAL_Driver/Src/stm32g0xx_hal_dma.c ****     {
 1110              		.loc 1 557 8 view .LVU387
 1111 004c 002B     		cmp	r3, #0
 1112 004e 06D0     		beq	.L61
 561:Drivers/STM32G0xx_HAL_Driver/Src/stm32g0xx_hal_dma.c **** 
 1113              		.loc 1 561 7 is_stmt 1 view .LVU388
 561:Drivers/STM32G0xx_HAL_Driver/Src/stm32g0xx_hal_dma.c **** 
 1114              		.loc 1 561 36 is_stmt 0 view .LVU389
 1115 0050 6546     		mov	r5, ip
 1116 0052 1A68     		ldr	r2, [r3]
 1117 0054 2A40     		ands	r2, r5
 1118 0056 1A60     		str	r2, [r3]
 564:Drivers/STM32G0xx_HAL_Driver/Src/stm32g0xx_hal_dma.c ****     }
 1119              		.loc 1 564 7 is_stmt 1 view .LVU390
 564:Drivers/STM32G0xx_HAL_Driver/Src/stm32g0xx_hal_dma.c ****     }
 1120              		.loc 1 564 11 is_stmt 0 view .LVU391
 1121 0058 436D     		ldr	r3, [r0, #84]
 564:Drivers/STM32G0xx_HAL_Driver/Src/stm32g0xx_hal_dma.c ****     }
 1122              		.loc 1 564 43 view .LVU392
 1123 005a 826D     		ldr	r2, [r0, #88]
 1124 005c 5A60     		str	r2, [r3, #4]
 1125              	.L61:
 568:Drivers/STM32G0xx_HAL_Driver/Src/stm32g0xx_hal_dma.c **** 
 1126              		.loc 1 568 5 is_stmt 1 view .LVU393
 568:Drivers/STM32G0xx_HAL_Driver/Src/stm32g0xx_hal_dma.c **** 
 1127              		.loc 1 568 17 is_stmt 0 view .LVU394
 1128 005e 0123     		movs	r3, #1
 1129 0060 E377     		strb	r3, [r4, #31]
 571:Drivers/STM32G0xx_HAL_Driver/Src/stm32g0xx_hal_dma.c **** 
 1130              		.loc 1 571 5 is_stmt 1 view .LVU395
 571:Drivers/STM32G0xx_HAL_Driver/Src/stm32g0xx_hal_dma.c **** 
ARM GAS  /tmp/ccbutQBb.s 			page 45


 1131              		.loc 1 571 5 view .LVU396
 1132 0062 0024     		movs	r4, #0
 1133 0064 CC77     		strb	r4, [r1, #31]
 571:Drivers/STM32G0xx_HAL_Driver/Src/stm32g0xx_hal_dma.c **** 
 1134              		.loc 1 571 5 view .LVU397
 574:Drivers/STM32G0xx_HAL_Driver/Src/stm32g0xx_hal_dma.c ****     {
 1135              		.loc 1 574 5 view .LVU398
 574:Drivers/STM32G0xx_HAL_Driver/Src/stm32g0xx_hal_dma.c ****     {
 1136              		.loc 1 574 13 is_stmt 0 view .LVU399
 1137 0066 826B     		ldr	r2, [r0, #56]
 527:Drivers/STM32G0xx_HAL_Driver/Src/stm32g0xx_hal_dma.c **** 
 1138              		.loc 1 527 21 view .LVU400
 1139 0068 1300     		movs	r3, r2
 574:Drivers/STM32G0xx_HAL_Driver/Src/stm32g0xx_hal_dma.c ****     {
 1140              		.loc 1 574 8 view .LVU401
 1141 006a A242     		cmp	r2, r4
 1142 006c D2D0     		beq	.L60
 576:Drivers/STM32G0xx_HAL_Driver/Src/stm32g0xx_hal_dma.c ****     }
 1143              		.loc 1 576 7 is_stmt 1 view .LVU402
 1144 006e 9047     		blx	r2
 1145              	.LVL57:
 527:Drivers/STM32G0xx_HAL_Driver/Src/stm32g0xx_hal_dma.c **** 
 1146              		.loc 1 527 21 is_stmt 0 view .LVU403
 1147 0070 2300     		movs	r3, r4
 1148 0072 CFE7     		b	.L60
 1149              	.L67:
 1150              		.align	2
 1151              	.L66:
 1152 0074 FFFEFFFF 		.word	-257
 1153 0078 00000240 		.word	1073872896
 1154              		.cfi_endproc
 1155              	.LFE306:
 1157              		.section	.text.HAL_DMA_PollForTransfer,"ax",%progbits
 1158              		.align	1
 1159              		.global	HAL_DMA_PollForTransfer
 1160              		.syntax unified
 1161              		.code	16
 1162              		.thumb_func
 1163              		.fpu softvfp
 1165              	HAL_DMA_PollForTransfer:
 1166              	.LVL58:
 1167              	.LFB307:
 591:Drivers/STM32G0xx_HAL_Driver/Src/stm32g0xx_hal_dma.c ****   uint32_t temp;
 1168              		.loc 1 591 1 is_stmt 1 view -0
 1169              		.cfi_startproc
 1170              		@ args = 0, pretend = 0, frame = 16
 1171              		@ frame_needed = 0, uses_anonymous_args = 0
 592:Drivers/STM32G0xx_HAL_Driver/Src/stm32g0xx_hal_dma.c ****   uint32_t tickstart;
 1172              		.loc 1 592 3 view .LVU405
 593:Drivers/STM32G0xx_HAL_Driver/Src/stm32g0xx_hal_dma.c **** 
 1173              		.loc 1 593 3 view .LVU406
 596:Drivers/STM32G0xx_HAL_Driver/Src/stm32g0xx_hal_dma.c **** 
 1174              		.loc 1 596 3 view .LVU407
 596:Drivers/STM32G0xx_HAL_Driver/Src/stm32g0xx_hal_dma.c **** 
 1175              		.loc 1 596 3 view .LVU408
 591:Drivers/STM32G0xx_HAL_Driver/Src/stm32g0xx_hal_dma.c ****   uint32_t temp;
 1176              		.loc 1 591 1 is_stmt 0 view .LVU409
ARM GAS  /tmp/ccbutQBb.s 			page 46


 1177 0000 F0B5     		push	{r4, r5, r6, r7, lr}
 1178              	.LCFI8:
 1179              		.cfi_def_cfa_offset 20
 1180              		.cfi_offset 4, -20
 1181              		.cfi_offset 5, -16
 1182              		.cfi_offset 6, -12
 1183              		.cfi_offset 7, -8
 1184              		.cfi_offset 14, -4
 596:Drivers/STM32G0xx_HAL_Driver/Src/stm32g0xx_hal_dma.c **** 
 1185              		.loc 1 596 3 view .LVU410
 1186 0002 431D     		adds	r3, r0, #5
 591:Drivers/STM32G0xx_HAL_Driver/Src/stm32g0xx_hal_dma.c ****   uint32_t temp;
 1187              		.loc 1 591 1 view .LVU411
 1188 0004 85B0     		sub	sp, sp, #20
 1189              	.LCFI9:
 1190              		.cfi_def_cfa_offset 40
 596:Drivers/STM32G0xx_HAL_Driver/Src/stm32g0xx_hal_dma.c **** 
 1191              		.loc 1 596 3 view .LVU412
 1192 0006 0193     		str	r3, [sp, #4]
 1193 0008 0023     		movs	r3, #0
 591:Drivers/STM32G0xx_HAL_Driver/Src/stm32g0xx_hal_dma.c ****   uint32_t temp;
 1194              		.loc 1 591 1 view .LVU413
 1195 000a 1600     		movs	r6, r2
 596:Drivers/STM32G0xx_HAL_Driver/Src/stm32g0xx_hal_dma.c **** 
 1196              		.loc 1 596 3 view .LVU414
 1197 000c 421D     		adds	r2, r0, #5
 1198              	.LVL59:
 591:Drivers/STM32G0xx_HAL_Driver/Src/stm32g0xx_hal_dma.c ****   uint32_t temp;
 1199              		.loc 1 591 1 view .LVU415
 1200 000e 0091     		str	r1, [sp]
 596:Drivers/STM32G0xx_HAL_Driver/Src/stm32g0xx_hal_dma.c **** 
 1201              		.loc 1 596 3 view .LVU416
 1202 0010 D377     		strb	r3, [r2, #31]
 596:Drivers/STM32G0xx_HAL_Driver/Src/stm32g0xx_hal_dma.c **** 
 1203              		.loc 1 596 3 is_stmt 1 view .LVU417
 598:Drivers/STM32G0xx_HAL_Driver/Src/stm32g0xx_hal_dma.c ****   {
 1204              		.loc 1 598 3 view .LVU418
 598:Drivers/STM32G0xx_HAL_Driver/Src/stm32g0xx_hal_dma.c ****   {
 1205              		.loc 1 598 33 is_stmt 0 view .LVU419
 1206 0012 871D     		adds	r7, r0, #6
 1207 0014 FB7F     		ldrb	r3, [r7, #31]
 591:Drivers/STM32G0xx_HAL_Driver/Src/stm32g0xx_hal_dma.c ****   uint32_t temp;
 1208              		.loc 1 591 1 view .LVU420
 1209 0016 0400     		movs	r4, r0
 598:Drivers/STM32G0xx_HAL_Driver/Src/stm32g0xx_hal_dma.c ****   {
 1210              		.loc 1 598 33 view .LVU421
 1211 0018 DDB2     		uxtb	r5, r3
 598:Drivers/STM32G0xx_HAL_Driver/Src/stm32g0xx_hal_dma.c ****   {
 1212              		.loc 1 598 6 view .LVU422
 1213 001a 022B     		cmp	r3, #2
 1214 001c 04D0     		beq	.L69
 601:Drivers/STM32G0xx_HAL_Driver/Src/stm32g0xx_hal_dma.c ****     __HAL_UNLOCK(hdma);
 1215              		.loc 1 601 5 is_stmt 1 view .LVU423
 601:Drivers/STM32G0xx_HAL_Driver/Src/stm32g0xx_hal_dma.c ****     __HAL_UNLOCK(hdma);
 1216              		.loc 1 601 21 is_stmt 0 view .LVU424
 1217 001e 0423     		movs	r3, #4
 1218              	.L96:
ARM GAS  /tmp/ccbutQBb.s 			page 47


 610:Drivers/STM32G0xx_HAL_Driver/Src/stm32g0xx_hal_dma.c ****   }
 1219              		.loc 1 610 12 view .LVU425
 1220 0020 0120     		movs	r0, #1
 1221              	.LVL60:
 609:Drivers/STM32G0xx_HAL_Driver/Src/stm32g0xx_hal_dma.c ****     return HAL_ERROR;
 1222              		.loc 1 609 21 view .LVU426
 1223 0022 E363     		str	r3, [r4, #60]
 610:Drivers/STM32G0xx_HAL_Driver/Src/stm32g0xx_hal_dma.c ****   }
 1224              		.loc 1 610 5 is_stmt 1 view .LVU427
 1225              	.LVL61:
 1226              	.L70:
 713:Drivers/STM32G0xx_HAL_Driver/Src/stm32g0xx_hal_dma.c **** 
 1227              		.loc 1 713 1 is_stmt 0 view .LVU428
 1228 0024 05B0     		add	sp, sp, #20
 1229              		@ sp needed
 1230 0026 F0BD     		pop	{r4, r5, r6, r7, pc}
 1231              	.LVL62:
 1232              	.L69:
 607:Drivers/STM32G0xx_HAL_Driver/Src/stm32g0xx_hal_dma.c ****   {
 1233              		.loc 1 607 3 is_stmt 1 view .LVU429
 607:Drivers/STM32G0xx_HAL_Driver/Src/stm32g0xx_hal_dma.c ****   {
 1234              		.loc 1 607 12 is_stmt 0 view .LVU430
 1235 0028 0368     		ldr	r3, [r0]
 607:Drivers/STM32G0xx_HAL_Driver/Src/stm32g0xx_hal_dma.c ****   {
 1236              		.loc 1 607 22 view .LVU431
 1237 002a 1B68     		ldr	r3, [r3]
 607:Drivers/STM32G0xx_HAL_Driver/Src/stm32g0xx_hal_dma.c ****   {
 1238              		.loc 1 607 6 view .LVU432
 1239 002c 9B06     		lsls	r3, r3, #26
 1240 002e 02D5     		bpl	.L71
 609:Drivers/STM32G0xx_HAL_Driver/Src/stm32g0xx_hal_dma.c ****     return HAL_ERROR;
 1241              		.loc 1 609 5 is_stmt 1 view .LVU433
 609:Drivers/STM32G0xx_HAL_Driver/Src/stm32g0xx_hal_dma.c ****     return HAL_ERROR;
 1242              		.loc 1 609 21 is_stmt 0 view .LVU434
 1243 0030 8023     		movs	r3, #128
 1244 0032 5B00     		lsls	r3, r3, #1
 1245 0034 F4E7     		b	.L96
 1246              	.L71:
 614:Drivers/STM32G0xx_HAL_Driver/Src/stm32g0xx_hal_dma.c ****   {
 1247              		.loc 1 614 3 is_stmt 1 view .LVU435
 1248 0036 1C23     		movs	r3, #28
 1249 0038 026C     		ldr	r2, [r0, #64]
 1250 003a 1340     		ands	r3, r2
 614:Drivers/STM32G0xx_HAL_Driver/Src/stm32g0xx_hal_dma.c ****   {
 1251              		.loc 1 614 6 is_stmt 0 view .LVU436
 1252 003c 009A     		ldr	r2, [sp]
 1253 003e 002A     		cmp	r2, #0
 1254 0040 3FD1     		bne	.L72
 1255              	.L95:
 622:Drivers/STM32G0xx_HAL_Driver/Src/stm32g0xx_hal_dma.c ****   }
 1256              		.loc 1 622 10 view .LVU437
 1257 0042 9D40     		lsls	r5, r5, r3
 1258              	.LVL63:
 626:Drivers/STM32G0xx_HAL_Driver/Src/stm32g0xx_hal_dma.c **** 
 1259              		.loc 1 626 3 is_stmt 1 view .LVU438
 626:Drivers/STM32G0xx_HAL_Driver/Src/stm32g0xx_hal_dma.c **** 
 1260              		.loc 1 626 15 is_stmt 0 view .LVU439
ARM GAS  /tmp/ccbutQBb.s 			page 48


 1261 0044 FFF7FEFF 		bl	HAL_GetTick
 1262              	.LVL64:
 626:Drivers/STM32G0xx_HAL_Driver/Src/stm32g0xx_hal_dma.c **** 
 1263              		.loc 1 626 15 view .LVU440
 1264 0048 0390     		str	r0, [sp, #12]
 1265              	.LVL65:
 628:Drivers/STM32G0xx_HAL_Driver/Src/stm32g0xx_hal_dma.c ****   {
 1266              		.loc 1 628 3 is_stmt 1 view .LVU441
 1267              	.L74:
 628:Drivers/STM32G0xx_HAL_Driver/Src/stm32g0xx_hal_dma.c ****   {
 1268              		.loc 1 628 3 is_stmt 0 view .LVU442
 1269 004a 1C22     		movs	r2, #28
 1270 004c 236C     		ldr	r3, [r4, #64]
 1271 004e 1340     		ands	r3, r2
 630:Drivers/STM32G0xx_HAL_Driver/Src/stm32g0xx_hal_dma.c ****     {
 1272              		.loc 1 630 15 view .LVU443
 1273 0050 143A     		subs	r2, r2, #20
 1274 0052 9A40     		lsls	r2, r2, r3
 1275 0054 0292     		str	r2, [sp, #8]
 628:Drivers/STM32G0xx_HAL_Driver/Src/stm32g0xx_hal_dma.c ****   {
 1276              		.loc 1 628 16 view .LVU444
 1277 0056 304A     		ldr	r2, .L97
 1278              	.L76:
 628:Drivers/STM32G0xx_HAL_Driver/Src/stm32g0xx_hal_dma.c ****   {
 1279              		.loc 1 628 9 is_stmt 1 view .LVU445
 628:Drivers/STM32G0xx_HAL_Driver/Src/stm32g0xx_hal_dma.c ****   {
 1280              		.loc 1 628 16 is_stmt 0 view .LVU446
 1281 0058 2900     		movs	r1, r5
 1282 005a 1068     		ldr	r0, [r2]
 1283 005c 0140     		ands	r1, r0
 1284 005e 8C46     		mov	ip, r1
 628:Drivers/STM32G0xx_HAL_Driver/Src/stm32g0xx_hal_dma.c ****   {
 1285              		.loc 1 628 9 view .LVU447
 1286 0060 0542     		tst	r5, r0
 1287 0062 30D0     		beq	.L78
 668:Drivers/STM32G0xx_HAL_Driver/Src/stm32g0xx_hal_dma.c ****   {
 1288              		.loc 1 668 3 is_stmt 1 view .LVU448
 668:Drivers/STM32G0xx_HAL_Driver/Src/stm32g0xx_hal_dma.c ****   {
 1289              		.loc 1 668 11 is_stmt 0 view .LVU449
 1290 0064 226D     		ldr	r2, [r4, #80]
 668:Drivers/STM32G0xx_HAL_Driver/Src/stm32g0xx_hal_dma.c ****   {
 1291              		.loc 1 668 6 view .LVU450
 1292 0066 002A     		cmp	r2, #0
 1293 0068 0FD0     		beq	.L79
 671:Drivers/STM32G0xx_HAL_Driver/Src/stm32g0xx_hal_dma.c ****     {
 1294              		.loc 1 671 5 is_stmt 1 view .LVU451
 671:Drivers/STM32G0xx_HAL_Driver/Src/stm32g0xx_hal_dma.c ****     {
 1295              		.loc 1 671 14 is_stmt 0 view .LVU452
 1296 006a 656D     		ldr	r5, [r4, #84]
 1297              	.LVL66:
 671:Drivers/STM32G0xx_HAL_Driver/Src/stm32g0xx_hal_dma.c ****     {
 1298              		.loc 1 671 51 view .LVU453
 1299 006c A66D     		ldr	r6, [r4, #88]
 1300              	.LVL67:
 671:Drivers/STM32G0xx_HAL_Driver/Src/stm32g0xx_hal_dma.c ****     {
 1301              		.loc 1 671 38 view .LVU454
 1302 006e 2868     		ldr	r0, [r5]
ARM GAS  /tmp/ccbutQBb.s 			page 49


 671:Drivers/STM32G0xx_HAL_Driver/Src/stm32g0xx_hal_dma.c ****     {
 1303              		.loc 1 671 8 view .LVU455
 1304 0070 0642     		tst	r6, r0
 1305 0072 0AD0     		beq	.L79
 674:Drivers/STM32G0xx_HAL_Driver/Src/stm32g0xx_hal_dma.c **** 
 1306              		.loc 1 674 7 is_stmt 1 view .LVU456
 674:Drivers/STM32G0xx_HAL_Driver/Src/stm32g0xx_hal_dma.c **** 
 1307              		.loc 1 674 36 is_stmt 0 view .LVU457
 1308 0074 8020     		movs	r0, #128
 1309 0076 1768     		ldr	r7, [r2]
 1310 0078 4000     		lsls	r0, r0, #1
 1311 007a 3843     		orrs	r0, r7
 1312 007c 1060     		str	r0, [r2]
 677:Drivers/STM32G0xx_HAL_Driver/Src/stm32g0xx_hal_dma.c **** 
 1313              		.loc 1 677 7 is_stmt 1 view .LVU458
 680:Drivers/STM32G0xx_HAL_Driver/Src/stm32g0xx_hal_dma.c ****     }
 1314              		.loc 1 680 23 is_stmt 0 view .LVU459
 1315 007e 8022     		movs	r2, #128
 677:Drivers/STM32G0xx_HAL_Driver/Src/stm32g0xx_hal_dma.c **** 
 1316              		.loc 1 677 43 view .LVU460
 1317 0080 6E60     		str	r6, [r5, #4]
 680:Drivers/STM32G0xx_HAL_Driver/Src/stm32g0xx_hal_dma.c ****     }
 1318              		.loc 1 680 7 is_stmt 1 view .LVU461
 680:Drivers/STM32G0xx_HAL_Driver/Src/stm32g0xx_hal_dma.c ****     }
 1319              		.loc 1 680 23 is_stmt 0 view .LVU462
 1320 0082 E06B     		ldr	r0, [r4, #60]
 1321 0084 D200     		lsls	r2, r2, #3
 1322 0086 0243     		orrs	r2, r0
 1323 0088 E263     		str	r2, [r4, #60]
 1324              	.L79:
 685:Drivers/STM32G0xx_HAL_Driver/Src/stm32g0xx_hal_dma.c ****   {
 1325              		.loc 1 685 3 is_stmt 1 view .LVU463
 685:Drivers/STM32G0xx_HAL_Driver/Src/stm32g0xx_hal_dma.c ****   {
 1326              		.loc 1 685 12 is_stmt 0 view .LVU464
 1327 008a A26C     		ldr	r2, [r4, #72]
 685:Drivers/STM32G0xx_HAL_Driver/Src/stm32g0xx_hal_dma.c ****   {
 1328              		.loc 1 685 45 view .LVU465
 1329 008c E06C     		ldr	r0, [r4, #76]
 685:Drivers/STM32G0xx_HAL_Driver/Src/stm32g0xx_hal_dma.c ****   {
 1330              		.loc 1 685 33 view .LVU466
 1331 008e 1568     		ldr	r5, [r2]
 685:Drivers/STM32G0xx_HAL_Driver/Src/stm32g0xx_hal_dma.c ****   {
 1332              		.loc 1 685 6 view .LVU467
 1333 0090 2842     		tst	r0, r5
 1334 0092 05D0     		beq	.L80
 688:Drivers/STM32G0xx_HAL_Driver/Src/stm32g0xx_hal_dma.c **** 
 1335              		.loc 1 688 5 is_stmt 1 view .LVU468
 688:Drivers/STM32G0xx_HAL_Driver/Src/stm32g0xx_hal_dma.c **** 
 1336              		.loc 1 688 36 is_stmt 0 view .LVU469
 1337 0094 5060     		str	r0, [r2, #4]
 691:Drivers/STM32G0xx_HAL_Driver/Src/stm32g0xx_hal_dma.c ****   }
 1338              		.loc 1 691 5 is_stmt 1 view .LVU470
 691:Drivers/STM32G0xx_HAL_Driver/Src/stm32g0xx_hal_dma.c ****   }
 1339              		.loc 1 691 21 is_stmt 0 view .LVU471
 1340 0096 8022     		movs	r2, #128
 1341 0098 E06B     		ldr	r0, [r4, #60]
 1342 009a 9200     		lsls	r2, r2, #2
ARM GAS  /tmp/ccbutQBb.s 			page 50


 1343 009c 0243     		orrs	r2, r0
 1344 009e E263     		str	r2, [r4, #60]
 1345              	.L80:
 694:Drivers/STM32G0xx_HAL_Driver/Src/stm32g0xx_hal_dma.c ****   {
 1346              		.loc 1 694 3 is_stmt 1 view .LVU472
 697:Drivers/STM32G0xx_HAL_Driver/Src/stm32g0xx_hal_dma.c **** 
 1347              		.loc 1 697 5 is_stmt 0 view .LVU473
 1348 00a0 1D49     		ldr	r1, .L97
 694:Drivers/STM32G0xx_HAL_Driver/Src/stm32g0xx_hal_dma.c ****   {
 1349              		.loc 1 694 6 view .LVU474
 1350 00a2 009A     		ldr	r2, [sp]
 697:Drivers/STM32G0xx_HAL_Driver/Src/stm32g0xx_hal_dma.c **** 
 1351              		.loc 1 697 5 view .LVU475
 1352 00a4 4868     		ldr	r0, [r1, #4]
 694:Drivers/STM32G0xx_HAL_Driver/Src/stm32g0xx_hal_dma.c ****   {
 1353              		.loc 1 694 6 view .LVU476
 1354 00a6 002A     		cmp	r2, #0
 1355 00a8 30D1     		bne	.L81
 697:Drivers/STM32G0xx_HAL_Driver/Src/stm32g0xx_hal_dma.c **** 
 1356              		.loc 1 697 5 is_stmt 1 view .LVU477
 1357 00aa 0232     		adds	r2, r2, #2
 1358 00ac 9A40     		lsls	r2, r2, r3
 1359 00ae 1300     		movs	r3, r2
 1360 00b0 0343     		orrs	r3, r0
 1361 00b2 4B60     		str	r3, [r1, #4]
 701:Drivers/STM32G0xx_HAL_Driver/Src/stm32g0xx_hal_dma.c ****   }
 1362              		.loc 1 701 5 view .LVU478
 701:Drivers/STM32G0xx_HAL_Driver/Src/stm32g0xx_hal_dma.c ****   }
 1363              		.loc 1 701 17 is_stmt 0 view .LVU479
 1364 00b4 0123     		movs	r3, #1
 1365 00b6 0634     		adds	r4, r4, #6
 1366              	.LVL68:
 701:Drivers/STM32G0xx_HAL_Driver/Src/stm32g0xx_hal_dma.c ****   }
 1367              		.loc 1 701 17 view .LVU480
 1368 00b8 E377     		strb	r3, [r4, #31]
 1369              	.LVL69:
 1370              	.L82:
 710:Drivers/STM32G0xx_HAL_Driver/Src/stm32g0xx_hal_dma.c **** 
 1371              		.loc 1 710 3 is_stmt 1 view .LVU481
 710:Drivers/STM32G0xx_HAL_Driver/Src/stm32g0xx_hal_dma.c **** 
 1372              		.loc 1 710 3 view .LVU482
 1373 00ba 0020     		movs	r0, #0
 1374 00bc 019B     		ldr	r3, [sp, #4]
 1375 00be D877     		strb	r0, [r3, #31]
 710:Drivers/STM32G0xx_HAL_Driver/Src/stm32g0xx_hal_dma.c **** 
 1376              		.loc 1 710 3 view .LVU483
 712:Drivers/STM32G0xx_HAL_Driver/Src/stm32g0xx_hal_dma.c **** }
 1377              		.loc 1 712 3 view .LVU484
 712:Drivers/STM32G0xx_HAL_Driver/Src/stm32g0xx_hal_dma.c **** }
 1378              		.loc 1 712 10 is_stmt 0 view .LVU485
 1379 00c0 B0E7     		b	.L70
 1380              	.LVL70:
 1381              	.L72:
 622:Drivers/STM32G0xx_HAL_Driver/Src/stm32g0xx_hal_dma.c ****   }
 1382              		.loc 1 622 5 is_stmt 1 view .LVU486
 622:Drivers/STM32G0xx_HAL_Driver/Src/stm32g0xx_hal_dma.c ****   }
 1383              		.loc 1 622 10 is_stmt 0 view .LVU487
ARM GAS  /tmp/ccbutQBb.s 			page 51


 1384 00c2 0425     		movs	r5, #4
 1385 00c4 BDE7     		b	.L95
 1386              	.LVL71:
 1387              	.L78:
 630:Drivers/STM32G0xx_HAL_Driver/Src/stm32g0xx_hal_dma.c ****     {
 1388              		.loc 1 630 5 is_stmt 1 view .LVU488
 630:Drivers/STM32G0xx_HAL_Driver/Src/stm32g0xx_hal_dma.c ****     {
 1389              		.loc 1 630 15 is_stmt 0 view .LVU489
 1390 00c6 1068     		ldr	r0, [r2]
 630:Drivers/STM32G0xx_HAL_Driver/Src/stm32g0xx_hal_dma.c ****     {
 1391              		.loc 1 630 8 view .LVU490
 1392 00c8 0299     		ldr	r1, [sp, #8]
 1393 00ca 0142     		tst	r1, r0
 1394 00cc 0CD0     		beq	.L75
 635:Drivers/STM32G0xx_HAL_Driver/Src/stm32g0xx_hal_dma.c **** 
 1395              		.loc 1 635 7 is_stmt 1 view .LVU491
 1396 00ce 0120     		movs	r0, #1
 1397 00d0 0500     		movs	r5, r0
 1398              	.LVL72:
 635:Drivers/STM32G0xx_HAL_Driver/Src/stm32g0xx_hal_dma.c **** 
 1399              		.loc 1 635 7 is_stmt 0 view .LVU492
 1400 00d2 9D40     		lsls	r5, r5, r3
 1401 00d4 2B00     		movs	r3, r5
 1402 00d6 5168     		ldr	r1, [r2, #4]
 1403 00d8 0B43     		orrs	r3, r1
 1404 00da 5360     		str	r3, [r2, #4]
 638:Drivers/STM32G0xx_HAL_Driver/Src/stm32g0xx_hal_dma.c **** 
 1405              		.loc 1 638 7 is_stmt 1 view .LVU493
 644:Drivers/STM32G0xx_HAL_Driver/Src/stm32g0xx_hal_dma.c **** 
 1406              		.loc 1 644 7 is_stmt 0 view .LVU494
 1407 00dc 6346     		mov	r3, ip
 638:Drivers/STM32G0xx_HAL_Driver/Src/stm32g0xx_hal_dma.c **** 
 1408              		.loc 1 638 23 view .LVU495
 1409 00de E063     		str	r0, [r4, #60]
 641:Drivers/STM32G0xx_HAL_Driver/Src/stm32g0xx_hal_dma.c **** 
 1410              		.loc 1 641 7 is_stmt 1 view .LVU496
 644:Drivers/STM32G0xx_HAL_Driver/Src/stm32g0xx_hal_dma.c **** 
 1411              		.loc 1 644 7 is_stmt 0 view .LVU497
 1412 00e0 0534     		adds	r4, r4, #5
 1413              	.LVL73:
 641:Drivers/STM32G0xx_HAL_Driver/Src/stm32g0xx_hal_dma.c **** 
 1414              		.loc 1 641 19 view .LVU498
 1415 00e2 F877     		strb	r0, [r7, #31]
 644:Drivers/STM32G0xx_HAL_Driver/Src/stm32g0xx_hal_dma.c **** 
 1416              		.loc 1 644 7 is_stmt 1 view .LVU499
 644:Drivers/STM32G0xx_HAL_Driver/Src/stm32g0xx_hal_dma.c **** 
 1417              		.loc 1 644 7 view .LVU500
 1418 00e4 E377     		strb	r3, [r4, #31]
 644:Drivers/STM32G0xx_HAL_Driver/Src/stm32g0xx_hal_dma.c **** 
 1419              		.loc 1 644 7 view .LVU501
 646:Drivers/STM32G0xx_HAL_Driver/Src/stm32g0xx_hal_dma.c ****     }
 1420              		.loc 1 646 7 view .LVU502
 646:Drivers/STM32G0xx_HAL_Driver/Src/stm32g0xx_hal_dma.c ****     }
 1421              		.loc 1 646 14 is_stmt 0 view .LVU503
 1422 00e6 9DE7     		b	.L70
 1423              	.LVL74:
 1424              	.L75:
ARM GAS  /tmp/ccbutQBb.s 			page 52


 649:Drivers/STM32G0xx_HAL_Driver/Src/stm32g0xx_hal_dma.c ****     {
 1425              		.loc 1 649 5 is_stmt 1 view .LVU504
 649:Drivers/STM32G0xx_HAL_Driver/Src/stm32g0xx_hal_dma.c ****     {
 1426              		.loc 1 649 8 is_stmt 0 view .LVU505
 1427 00e8 711C     		adds	r1, r6, #1
 1428 00ea B5D0     		beq	.L76
 651:Drivers/STM32G0xx_HAL_Driver/Src/stm32g0xx_hal_dma.c ****       {
 1429              		.loc 1 651 7 is_stmt 1 view .LVU506
 651:Drivers/STM32G0xx_HAL_Driver/Src/stm32g0xx_hal_dma.c ****       {
 1430              		.loc 1 651 12 is_stmt 0 view .LVU507
 1431 00ec FFF7FEFF 		bl	HAL_GetTick
 1432              	.LVL75:
 651:Drivers/STM32G0xx_HAL_Driver/Src/stm32g0xx_hal_dma.c ****       {
 1433              		.loc 1 651 26 view .LVU508
 1434 00f0 039B     		ldr	r3, [sp, #12]
 1435 00f2 C01A     		subs	r0, r0, r3
 651:Drivers/STM32G0xx_HAL_Driver/Src/stm32g0xx_hal_dma.c ****       {
 1436              		.loc 1 651 9 view .LVU509
 1437 00f4 B042     		cmp	r0, r6
 1438 00f6 01D8     		bhi	.L77
 651:Drivers/STM32G0xx_HAL_Driver/Src/stm32g0xx_hal_dma.c ****       {
 1439              		.loc 1 651 50 discriminator 1 view .LVU510
 1440 00f8 002E     		cmp	r6, #0
 1441 00fa A6D1     		bne	.L74
 1442              	.L77:
 654:Drivers/STM32G0xx_HAL_Driver/Src/stm32g0xx_hal_dma.c **** 
 1443              		.loc 1 654 9 is_stmt 1 view .LVU511
 654:Drivers/STM32G0xx_HAL_Driver/Src/stm32g0xx_hal_dma.c **** 
 1444              		.loc 1 654 25 is_stmt 0 view .LVU512
 1445 00fc 2023     		movs	r3, #32
 657:Drivers/STM32G0xx_HAL_Driver/Src/stm32g0xx_hal_dma.c **** 
 1446              		.loc 1 657 21 view .LVU513
 1447 00fe 0120     		movs	r0, #1
 654:Drivers/STM32G0xx_HAL_Driver/Src/stm32g0xx_hal_dma.c **** 
 1448              		.loc 1 654 25 view .LVU514
 1449 0100 E363     		str	r3, [r4, #60]
 657:Drivers/STM32G0xx_HAL_Driver/Src/stm32g0xx_hal_dma.c **** 
 1450              		.loc 1 657 9 is_stmt 1 view .LVU515
 660:Drivers/STM32G0xx_HAL_Driver/Src/stm32g0xx_hal_dma.c **** 
 1451              		.loc 1 660 9 is_stmt 0 view .LVU516
 1452 0102 0023     		movs	r3, #0
 1453 0104 019A     		ldr	r2, [sp, #4]
 657:Drivers/STM32G0xx_HAL_Driver/Src/stm32g0xx_hal_dma.c **** 
 1454              		.loc 1 657 21 view .LVU517
 1455 0106 F877     		strb	r0, [r7, #31]
 660:Drivers/STM32G0xx_HAL_Driver/Src/stm32g0xx_hal_dma.c **** 
 1456              		.loc 1 660 9 is_stmt 1 view .LVU518
 660:Drivers/STM32G0xx_HAL_Driver/Src/stm32g0xx_hal_dma.c **** 
 1457              		.loc 1 660 9 view .LVU519
 1458 0108 D377     		strb	r3, [r2, #31]
 660:Drivers/STM32G0xx_HAL_Driver/Src/stm32g0xx_hal_dma.c **** 
 1459              		.loc 1 660 9 view .LVU520
 662:Drivers/STM32G0xx_HAL_Driver/Src/stm32g0xx_hal_dma.c ****       }
 1460              		.loc 1 662 9 view .LVU521
 662:Drivers/STM32G0xx_HAL_Driver/Src/stm32g0xx_hal_dma.c ****       }
 1461              		.loc 1 662 16 is_stmt 0 view .LVU522
 1462 010a 8BE7     		b	.L70
ARM GAS  /tmp/ccbutQBb.s 			page 53


 1463              	.LVL76:
 1464              	.L81:
 706:Drivers/STM32G0xx_HAL_Driver/Src/stm32g0xx_hal_dma.c ****   }
 1465              		.loc 1 706 5 is_stmt 1 view .LVU523
 1466 010c 0422     		movs	r2, #4
 1467 010e 9A40     		lsls	r2, r2, r3
 1468 0110 1300     		movs	r3, r2
 1469 0112 0343     		orrs	r3, r0
 1470 0114 4B60     		str	r3, [r1, #4]
 1471 0116 D0E7     		b	.L82
 1472              	.L98:
 1473              		.align	2
 1474              	.L97:
 1475 0118 00000240 		.word	1073872896
 1476              		.cfi_endproc
 1477              	.LFE307:
 1479              		.section	.text.HAL_DMA_IRQHandler,"ax",%progbits
 1480              		.align	1
 1481              		.global	HAL_DMA_IRQHandler
 1482              		.syntax unified
 1483              		.code	16
 1484              		.thumb_func
 1485              		.fpu softvfp
 1487              	HAL_DMA_IRQHandler:
 1488              	.LVL77:
 1489              	.LFB308:
 722:Drivers/STM32G0xx_HAL_Driver/Src/stm32g0xx_hal_dma.c ****   uint32_t flag_it = DMA1->ISR;
 1490              		.loc 1 722 1 view -0
 1491              		.cfi_startproc
 1492              		@ args = 0, pretend = 0, frame = 0
 1493              		@ frame_needed = 0, uses_anonymous_args = 0
 723:Drivers/STM32G0xx_HAL_Driver/Src/stm32g0xx_hal_dma.c ****   uint32_t source_it = hdma->Instance->CCR;
 1494              		.loc 1 723 3 view .LVU525
 722:Drivers/STM32G0xx_HAL_Driver/Src/stm32g0xx_hal_dma.c ****   uint32_t flag_it = DMA1->ISR;
 1495              		.loc 1 722 1 is_stmt 0 view .LVU526
 1496 0000 F8B5     		push	{r3, r4, r5, r6, r7, lr}
 1497              	.LCFI10:
 1498              		.cfi_def_cfa_offset 24
 1499              		.cfi_offset 3, -24
 1500              		.cfi_offset 4, -20
 1501              		.cfi_offset 5, -16
 1502              		.cfi_offset 6, -12
 1503              		.cfi_offset 7, -8
 1504              		.cfi_offset 14, -4
 727:Drivers/STM32G0xx_HAL_Driver/Src/stm32g0xx_hal_dma.c ****   {
 1505              		.loc 1 727 56 view .LVU527
 1506 0002 1C21     		movs	r1, #28
 727:Drivers/STM32G0xx_HAL_Driver/Src/stm32g0xx_hal_dma.c ****   {
 1507              		.loc 1 727 33 view .LVU528
 1508 0004 0427     		movs	r7, #4
 727:Drivers/STM32G0xx_HAL_Driver/Src/stm32g0xx_hal_dma.c ****   {
 1509              		.loc 1 727 56 view .LVU529
 1510 0006 046C     		ldr	r4, [r0, #64]
 723:Drivers/STM32G0xx_HAL_Driver/Src/stm32g0xx_hal_dma.c ****   uint32_t source_it = hdma->Instance->CCR;
 1511              		.loc 1 723 12 view .LVU530
 1512 0008 264B     		ldr	r3, .L134
 727:Drivers/STM32G0xx_HAL_Driver/Src/stm32g0xx_hal_dma.c ****   {
ARM GAS  /tmp/ccbutQBb.s 			page 54


 1513              		.loc 1 727 56 view .LVU531
 1514 000a 2140     		ands	r1, r4
 727:Drivers/STM32G0xx_HAL_Driver/Src/stm32g0xx_hal_dma.c ****   {
 1515              		.loc 1 727 33 view .LVU532
 1516 000c 3C00     		movs	r4, r7
 1517 000e 8C40     		lsls	r4, r4, r1
 723:Drivers/STM32G0xx_HAL_Driver/Src/stm32g0xx_hal_dma.c ****   uint32_t source_it = hdma->Instance->CCR;
 1518              		.loc 1 723 12 view .LVU533
 1519 0010 1E68     		ldr	r6, [r3]
 1520              	.LVL78:
 724:Drivers/STM32G0xx_HAL_Driver/Src/stm32g0xx_hal_dma.c **** 
 1521              		.loc 1 724 3 is_stmt 1 view .LVU534
 724:Drivers/STM32G0xx_HAL_Driver/Src/stm32g0xx_hal_dma.c **** 
 1522              		.loc 1 724 28 is_stmt 0 view .LVU535
 1523 0012 0268     		ldr	r2, [r0]
 724:Drivers/STM32G0xx_HAL_Driver/Src/stm32g0xx_hal_dma.c **** 
 1524              		.loc 1 724 12 view .LVU536
 1525 0014 1568     		ldr	r5, [r2]
 1526              	.LVL79:
 727:Drivers/STM32G0xx_HAL_Driver/Src/stm32g0xx_hal_dma.c ****   {
 1527              		.loc 1 727 3 is_stmt 1 view .LVU537
 727:Drivers/STM32G0xx_HAL_Driver/Src/stm32g0xx_hal_dma.c ****   {
 1528              		.loc 1 727 6 is_stmt 0 view .LVU538
 1529 0016 2642     		tst	r6, r4
 1530 0018 0FD0     		beq	.L100
 727:Drivers/STM32G0xx_HAL_Driver/Src/stm32g0xx_hal_dma.c ****   {
 1531              		.loc 1 727 74 discriminator 1 view .LVU539
 1532 001a 3D42     		tst	r5, r7
 1533 001c 0DD0     		beq	.L100
 730:Drivers/STM32G0xx_HAL_Driver/Src/stm32g0xx_hal_dma.c ****     {
 1534              		.loc 1 730 5 is_stmt 1 view .LVU540
 730:Drivers/STM32G0xx_HAL_Driver/Src/stm32g0xx_hal_dma.c ****     {
 1535              		.loc 1 730 24 is_stmt 0 view .LVU541
 1536 001e 1168     		ldr	r1, [r2]
 730:Drivers/STM32G0xx_HAL_Driver/Src/stm32g0xx_hal_dma.c ****     {
 1537              		.loc 1 730 8 view .LVU542
 1538 0020 8906     		lsls	r1, r1, #26
 1539 0022 02D4     		bmi	.L101
 733:Drivers/STM32G0xx_HAL_Driver/Src/stm32g0xx_hal_dma.c ****     }
 1540              		.loc 1 733 7 is_stmt 1 view .LVU543
 1541 0024 1168     		ldr	r1, [r2]
 1542 0026 B943     		bics	r1, r7
 1543 0028 1160     		str	r1, [r2]
 1544              	.L101:
 736:Drivers/STM32G0xx_HAL_Driver/Src/stm32g0xx_hal_dma.c **** 
 1545              		.loc 1 736 5 view .LVU544
 1546 002a 5A68     		ldr	r2, [r3, #4]
 1547 002c 1443     		orrs	r4, r2
 1548 002e 5C60     		str	r4, [r3, #4]
 741:Drivers/STM32G0xx_HAL_Driver/Src/stm32g0xx_hal_dma.c ****     {
 1549              		.loc 1 741 5 view .LVU545
 741:Drivers/STM32G0xx_HAL_Driver/Src/stm32g0xx_hal_dma.c ****     {
 1550              		.loc 1 741 13 is_stmt 0 view .LVU546
 1551 0030 036B     		ldr	r3, [r0, #48]
 741:Drivers/STM32G0xx_HAL_Driver/Src/stm32g0xx_hal_dma.c ****     {
 1552              		.loc 1 741 8 view .LVU547
 1553 0032 002B     		cmp	r3, #0
ARM GAS  /tmp/ccbutQBb.s 			page 55


 1554 0034 1BD0     		beq	.L99
 1555              	.LVL80:
 1556              	.L131:
 795:Drivers/STM32G0xx_HAL_Driver/Src/stm32g0xx_hal_dma.c ****     }
 1557              		.loc 1 795 7 is_stmt 1 view .LVU548
 1558 0036 9847     		blx	r3
 1559              	.LVL81:
 801:Drivers/STM32G0xx_HAL_Driver/Src/stm32g0xx_hal_dma.c ****   return;
 1560              		.loc 1 801 3 view .LVU549
 802:Drivers/STM32G0xx_HAL_Driver/Src/stm32g0xx_hal_dma.c **** }
 1561              		.loc 1 802 3 view .LVU550
 1562 0038 19E0     		b	.L99
 1563              	.LVL82:
 1564              	.L100:
 749:Drivers/STM32G0xx_HAL_Driver/Src/stm32g0xx_hal_dma.c ****   {
 1565              		.loc 1 749 8 view .LVU551
 749:Drivers/STM32G0xx_HAL_Driver/Src/stm32g0xx_hal_dma.c ****   {
 1566              		.loc 1 749 44 is_stmt 0 view .LVU552
 1567 003a 0227     		movs	r7, #2
 1568 003c 3C00     		movs	r4, r7
 1569 003e 8C40     		lsls	r4, r4, r1
 749:Drivers/STM32G0xx_HAL_Driver/Src/stm32g0xx_hal_dma.c ****   {
 1570              		.loc 1 749 11 view .LVU553
 1571 0040 2642     		tst	r6, r4
 1572 0042 15D0     		beq	.L104
 749:Drivers/STM32G0xx_HAL_Driver/Src/stm32g0xx_hal_dma.c ****   {
 1573              		.loc 1 749 79 discriminator 1 view .LVU554
 1574 0044 3D42     		tst	r5, r7
 1575 0046 13D0     		beq	.L104
 751:Drivers/STM32G0xx_HAL_Driver/Src/stm32g0xx_hal_dma.c ****     {
 1576              		.loc 1 751 5 is_stmt 1 view .LVU555
 751:Drivers/STM32G0xx_HAL_Driver/Src/stm32g0xx_hal_dma.c ****     {
 1577              		.loc 1 751 24 is_stmt 0 view .LVU556
 1578 0048 1168     		ldr	r1, [r2]
 751:Drivers/STM32G0xx_HAL_Driver/Src/stm32g0xx_hal_dma.c ****     {
 1579              		.loc 1 751 8 view .LVU557
 1580 004a 8906     		lsls	r1, r1, #26
 1581 004c 06D4     		bmi	.L105
 754:Drivers/STM32G0xx_HAL_Driver/Src/stm32g0xx_hal_dma.c **** 
 1582              		.loc 1 754 7 is_stmt 1 view .LVU558
 1583 004e 0A25     		movs	r5, #10
 1584              	.LVL83:
 754:Drivers/STM32G0xx_HAL_Driver/Src/stm32g0xx_hal_dma.c **** 
 1585              		.loc 1 754 7 is_stmt 0 view .LVU559
 1586 0050 1168     		ldr	r1, [r2]
 1587 0052 A943     		bics	r1, r5
 1588 0054 1160     		str	r1, [r2]
 757:Drivers/STM32G0xx_HAL_Driver/Src/stm32g0xx_hal_dma.c ****     }
 1589              		.loc 1 757 7 is_stmt 1 view .LVU560
 757:Drivers/STM32G0xx_HAL_Driver/Src/stm32g0xx_hal_dma.c ****     }
 1590              		.loc 1 757 19 is_stmt 0 view .LVU561
 1591 0056 0121     		movs	r1, #1
 1592 0058 821D     		adds	r2, r0, #6
 1593 005a D177     		strb	r1, [r2, #31]
 1594              	.L105:
 760:Drivers/STM32G0xx_HAL_Driver/Src/stm32g0xx_hal_dma.c **** 
 1595              		.loc 1 760 5 is_stmt 1 view .LVU562
ARM GAS  /tmp/ccbutQBb.s 			page 56


 1596 005c 5A68     		ldr	r2, [r3, #4]
 1597 005e 1443     		orrs	r4, r2
 763:Drivers/STM32G0xx_HAL_Driver/Src/stm32g0xx_hal_dma.c **** 
 1598              		.loc 1 763 5 is_stmt 0 view .LVU563
 1599 0060 0022     		movs	r2, #0
 760:Drivers/STM32G0xx_HAL_Driver/Src/stm32g0xx_hal_dma.c **** 
 1600              		.loc 1 760 5 view .LVU564
 1601 0062 5C60     		str	r4, [r3, #4]
 763:Drivers/STM32G0xx_HAL_Driver/Src/stm32g0xx_hal_dma.c **** 
 1602              		.loc 1 763 5 is_stmt 1 view .LVU565
 763:Drivers/STM32G0xx_HAL_Driver/Src/stm32g0xx_hal_dma.c **** 
 1603              		.loc 1 763 5 view .LVU566
 1604 0064 431D     		adds	r3, r0, #5
 1605 0066 DA77     		strb	r2, [r3, #31]
 763:Drivers/STM32G0xx_HAL_Driver/Src/stm32g0xx_hal_dma.c **** 
 1606              		.loc 1 763 5 view .LVU567
 765:Drivers/STM32G0xx_HAL_Driver/Src/stm32g0xx_hal_dma.c ****     {
 1607              		.loc 1 765 5 view .LVU568
 765:Drivers/STM32G0xx_HAL_Driver/Src/stm32g0xx_hal_dma.c ****     {
 1608              		.loc 1 765 13 is_stmt 0 view .LVU569
 1609 0068 C36A     		ldr	r3, [r0, #44]
 1610              	.L133:
 792:Drivers/STM32G0xx_HAL_Driver/Src/stm32g0xx_hal_dma.c ****     {
 1611              		.loc 1 792 8 view .LVU570
 1612 006a 9342     		cmp	r3, r2
 1613 006c E3D1     		bne	.L131
 1614              	.LVL84:
 1615              	.L99:
 803:Drivers/STM32G0xx_HAL_Driver/Src/stm32g0xx_hal_dma.c **** 
 1616              		.loc 1 803 1 view .LVU571
 1617              		@ sp needed
 1618              	.LVL85:
 803:Drivers/STM32G0xx_HAL_Driver/Src/stm32g0xx_hal_dma.c **** 
 1619              		.loc 1 803 1 view .LVU572
 1620 006e F8BD     		pop	{r3, r4, r5, r6, r7, pc}
 1621              	.LVL86:
 1622              	.L104:
 773:Drivers/STM32G0xx_HAL_Driver/Src/stm32g0xx_hal_dma.c ****   {
 1623              		.loc 1 773 8 is_stmt 1 view .LVU573
 773:Drivers/STM32G0xx_HAL_Driver/Src/stm32g0xx_hal_dma.c ****   {
 1624              		.loc 1 773 38 is_stmt 0 view .LVU574
 1625 0070 0824     		movs	r4, #8
 1626 0072 2700     		movs	r7, r4
 1627 0074 8F40     		lsls	r7, r7, r1
 773:Drivers/STM32G0xx_HAL_Driver/Src/stm32g0xx_hal_dma.c ****   {
 1628              		.loc 1 773 11 view .LVU575
 1629 0076 3E42     		tst	r6, r7
 1630 0078 F9D0     		beq	.L99
 773:Drivers/STM32G0xx_HAL_Driver/Src/stm32g0xx_hal_dma.c ****   {
 1631              		.loc 1 773 78 discriminator 1 view .LVU576
 1632 007a 2542     		tst	r5, r4
 1633 007c F7D0     		beq	.L99
 778:Drivers/STM32G0xx_HAL_Driver/Src/stm32g0xx_hal_dma.c **** 
 1634              		.loc 1 778 5 is_stmt 1 view .LVU577
 1635 007e 0E25     		movs	r5, #14
 1636              	.LVL87:
 778:Drivers/STM32G0xx_HAL_Driver/Src/stm32g0xx_hal_dma.c **** 
ARM GAS  /tmp/ccbutQBb.s 			page 57


 1637              		.loc 1 778 5 is_stmt 0 view .LVU578
 1638 0080 1468     		ldr	r4, [r2]
 1639 0082 AC43     		bics	r4, r5
 1640 0084 1460     		str	r4, [r2]
 781:Drivers/STM32G0xx_HAL_Driver/Src/stm32g0xx_hal_dma.c **** 
 1641              		.loc 1 781 5 is_stmt 1 view .LVU579
 1642 0086 0122     		movs	r2, #1
 1643 0088 1500     		movs	r5, r2
 1644 008a 8D40     		lsls	r5, r5, r1
 1645 008c 2900     		movs	r1, r5
 1646 008e 5C68     		ldr	r4, [r3, #4]
 1647 0090 2143     		orrs	r1, r4
 1648 0092 5960     		str	r1, [r3, #4]
 784:Drivers/STM32G0xx_HAL_Driver/Src/stm32g0xx_hal_dma.c **** 
 1649              		.loc 1 784 5 view .LVU580
 787:Drivers/STM32G0xx_HAL_Driver/Src/stm32g0xx_hal_dma.c **** 
 1650              		.loc 1 787 17 is_stmt 0 view .LVU581
 1651 0094 831D     		adds	r3, r0, #6
 784:Drivers/STM32G0xx_HAL_Driver/Src/stm32g0xx_hal_dma.c **** 
 1652              		.loc 1 784 21 view .LVU582
 1653 0096 C263     		str	r2, [r0, #60]
 787:Drivers/STM32G0xx_HAL_Driver/Src/stm32g0xx_hal_dma.c **** 
 1654              		.loc 1 787 5 is_stmt 1 view .LVU583
 787:Drivers/STM32G0xx_HAL_Driver/Src/stm32g0xx_hal_dma.c **** 
 1655              		.loc 1 787 17 is_stmt 0 view .LVU584
 1656 0098 DA77     		strb	r2, [r3, #31]
 790:Drivers/STM32G0xx_HAL_Driver/Src/stm32g0xx_hal_dma.c **** 
 1657              		.loc 1 790 5 is_stmt 1 view .LVU585
 790:Drivers/STM32G0xx_HAL_Driver/Src/stm32g0xx_hal_dma.c **** 
 1658              		.loc 1 790 5 view .LVU586
 1659 009a 0022     		movs	r2, #0
 1660 009c 431D     		adds	r3, r0, #5
 1661 009e DA77     		strb	r2, [r3, #31]
 790:Drivers/STM32G0xx_HAL_Driver/Src/stm32g0xx_hal_dma.c **** 
 1662              		.loc 1 790 5 view .LVU587
 792:Drivers/STM32G0xx_HAL_Driver/Src/stm32g0xx_hal_dma.c ****     {
 1663              		.loc 1 792 5 view .LVU588
 792:Drivers/STM32G0xx_HAL_Driver/Src/stm32g0xx_hal_dma.c ****     {
 1664              		.loc 1 792 13 is_stmt 0 view .LVU589
 1665 00a0 436B     		ldr	r3, [r0, #52]
 1666 00a2 E2E7     		b	.L133
 1667              	.L135:
 1668              		.align	2
 1669              	.L134:
 1670 00a4 00000240 		.word	1073872896
 1671              		.cfi_endproc
 1672              	.LFE308:
 1674              		.section	.text.HAL_DMA_RegisterCallback,"ax",%progbits
 1675              		.align	1
 1676              		.global	HAL_DMA_RegisterCallback
 1677              		.syntax unified
 1678              		.code	16
 1679              		.thumb_func
 1680              		.fpu softvfp
 1682              	HAL_DMA_RegisterCallback:
 1683              	.LVL88:
 1684              	.LFB309:
ARM GAS  /tmp/ccbutQBb.s 			page 58


 816:Drivers/STM32G0xx_HAL_Driver/Src/stm32g0xx_hal_dma.c ****   HAL_StatusTypeDef status = HAL_OK;
 1685              		.loc 1 816 1 is_stmt 1 view -0
 1686              		.cfi_startproc
 1687              		@ args = 0, pretend = 0, frame = 0
 1688              		@ frame_needed = 0, uses_anonymous_args = 0
 817:Drivers/STM32G0xx_HAL_Driver/Src/stm32g0xx_hal_dma.c **** 
 1689              		.loc 1 817 3 view .LVU591
 820:Drivers/STM32G0xx_HAL_Driver/Src/stm32g0xx_hal_dma.c **** 
 1690              		.loc 1 820 3 view .LVU592
 820:Drivers/STM32G0xx_HAL_Driver/Src/stm32g0xx_hal_dma.c **** 
 1691              		.loc 1 820 3 view .LVU593
 816:Drivers/STM32G0xx_HAL_Driver/Src/stm32g0xx_hal_dma.c ****   HAL_StatusTypeDef status = HAL_OK;
 1692              		.loc 1 816 1 is_stmt 0 view .LVU594
 1693 0000 30B5     		push	{r4, r5, lr}
 1694              	.LCFI11:
 1695              		.cfi_def_cfa_offset 12
 1696              		.cfi_offset 4, -12
 1697              		.cfi_offset 5, -8
 1698              		.cfi_offset 14, -4
 820:Drivers/STM32G0xx_HAL_Driver/Src/stm32g0xx_hal_dma.c **** 
 1699              		.loc 1 820 3 view .LVU595
 1700 0002 441D     		adds	r4, r0, #5
 1701 0004 E57F     		ldrb	r5, [r4, #31]
 816:Drivers/STM32G0xx_HAL_Driver/Src/stm32g0xx_hal_dma.c ****   HAL_StatusTypeDef status = HAL_OK;
 1702              		.loc 1 816 1 view .LVU596
 1703 0006 0300     		movs	r3, r0
 820:Drivers/STM32G0xx_HAL_Driver/Src/stm32g0xx_hal_dma.c **** 
 1704              		.loc 1 820 3 view .LVU597
 1705 0008 0220     		movs	r0, #2
 1706              	.LVL89:
 820:Drivers/STM32G0xx_HAL_Driver/Src/stm32g0xx_hal_dma.c **** 
 1707              		.loc 1 820 3 view .LVU598
 1708 000a 012D     		cmp	r5, #1
 1709 000c 0ED0     		beq	.L137
 820:Drivers/STM32G0xx_HAL_Driver/Src/stm32g0xx_hal_dma.c **** 
 1710              		.loc 1 820 3 is_stmt 1 discriminator 2 view .LVU599
 820:Drivers/STM32G0xx_HAL_Driver/Src/stm32g0xx_hal_dma.c **** 
 1711              		.loc 1 820 3 discriminator 2 view .LVU600
 822:Drivers/STM32G0xx_HAL_Driver/Src/stm32g0xx_hal_dma.c ****   {
 1712              		.loc 1 822 3 discriminator 2 view .LVU601
 822:Drivers/STM32G0xx_HAL_Driver/Src/stm32g0xx_hal_dma.c ****   {
 1713              		.loc 1 822 34 is_stmt 0 discriminator 2 view .LVU602
 1714 000e 981D     		adds	r0, r3, #6
 1715 0010 C57F     		ldrb	r5, [r0, #31]
 1716 0012 E8B2     		uxtb	r0, r5
 822:Drivers/STM32G0xx_HAL_Driver/Src/stm32g0xx_hal_dma.c ****   {
 1717              		.loc 1 822 6 discriminator 2 view .LVU603
 1718 0014 012D     		cmp	r5, #1
 1719 0016 11D1     		bne	.L145
 824:Drivers/STM32G0xx_HAL_Driver/Src/stm32g0xx_hal_dma.c ****     {
 1720              		.loc 1 824 5 is_stmt 1 view .LVU604
 1721 0018 0329     		cmp	r1, #3
 1722 001a 05D8     		bhi	.L138
 1723 001c 0800     		movs	r0, r1
 1724 001e FFF7FEFF 		bl	__gnu_thumb1_case_uqi
 1725              	.L140:
 1726 0022 02       		.byte	(.L143-.L140)/2
ARM GAS  /tmp/ccbutQBb.s 			page 59


 1727 0023 06       		.byte	(.L142-.L140)/2
 1728 0024 09       		.byte	(.L141-.L140)/2
 1729 0025 0B       		.byte	(.L139-.L140)/2
 1730              		.p2align 1
 1731              	.L143:
 827:Drivers/STM32G0xx_HAL_Driver/Src/stm32g0xx_hal_dma.c ****         break;
 1732              		.loc 1 827 9 view .LVU605
 827:Drivers/STM32G0xx_HAL_Driver/Src/stm32g0xx_hal_dma.c ****         break;
 1733              		.loc 1 827 32 is_stmt 0 view .LVU606
 1734 0026 DA62     		str	r2, [r3, #44]
 828:Drivers/STM32G0xx_HAL_Driver/Src/stm32g0xx_hal_dma.c **** 
 1735              		.loc 1 828 9 is_stmt 1 view .LVU607
 1736              	.L138:
 1737              	.LVL90:
 853:Drivers/STM32G0xx_HAL_Driver/Src/stm32g0xx_hal_dma.c **** 
 1738              		.loc 1 853 3 view .LVU608
 853:Drivers/STM32G0xx_HAL_Driver/Src/stm32g0xx_hal_dma.c **** 
 1739              		.loc 1 853 3 view .LVU609
 1740 0028 0023     		movs	r3, #0
 1741              	.LVL91:
 853:Drivers/STM32G0xx_HAL_Driver/Src/stm32g0xx_hal_dma.c **** 
 1742              		.loc 1 853 3 is_stmt 0 view .LVU610
 1743 002a E377     		strb	r3, [r4, #31]
 853:Drivers/STM32G0xx_HAL_Driver/Src/stm32g0xx_hal_dma.c **** 
 1744              		.loc 1 853 3 is_stmt 1 view .LVU611
 855:Drivers/STM32G0xx_HAL_Driver/Src/stm32g0xx_hal_dma.c **** }
 1745              		.loc 1 855 3 view .LVU612
 1746              	.LVL92:
 1747              	.L137:
 856:Drivers/STM32G0xx_HAL_Driver/Src/stm32g0xx_hal_dma.c **** 
 1748              		.loc 1 856 1 is_stmt 0 view .LVU613
 1749              		@ sp needed
 1750              	.LVL93:
 856:Drivers/STM32G0xx_HAL_Driver/Src/stm32g0xx_hal_dma.c **** 
 1751              		.loc 1 856 1 view .LVU614
 1752 002c 30BD     		pop	{r4, r5, pc}
 1753              	.LVL94:
 1754              	.L142:
 831:Drivers/STM32G0xx_HAL_Driver/Src/stm32g0xx_hal_dma.c ****         break;
 1755              		.loc 1 831 9 is_stmt 1 view .LVU615
 831:Drivers/STM32G0xx_HAL_Driver/Src/stm32g0xx_hal_dma.c ****         break;
 1756              		.loc 1 831 36 is_stmt 0 view .LVU616
 1757 002e 1A63     		str	r2, [r3, #48]
 832:Drivers/STM32G0xx_HAL_Driver/Src/stm32g0xx_hal_dma.c **** 
 1758              		.loc 1 832 9 is_stmt 1 view .LVU617
 1759              	.L146:
 836:Drivers/STM32G0xx_HAL_Driver/Src/stm32g0xx_hal_dma.c **** 
 1760              		.loc 1 836 9 view .LVU618
 817:Drivers/STM32G0xx_HAL_Driver/Src/stm32g0xx_hal_dma.c **** 
 1761              		.loc 1 817 21 is_stmt 0 view .LVU619
 1762 0030 0020     		movs	r0, #0
 836:Drivers/STM32G0xx_HAL_Driver/Src/stm32g0xx_hal_dma.c **** 
 1763              		.loc 1 836 9 view .LVU620
 1764 0032 F9E7     		b	.L138
 1765              	.L141:
 835:Drivers/STM32G0xx_HAL_Driver/Src/stm32g0xx_hal_dma.c ****         break;
 1766              		.loc 1 835 9 is_stmt 1 view .LVU621
ARM GAS  /tmp/ccbutQBb.s 			page 60


 835:Drivers/STM32G0xx_HAL_Driver/Src/stm32g0xx_hal_dma.c ****         break;
 1767              		.loc 1 835 33 is_stmt 0 view .LVU622
 1768 0034 5A63     		str	r2, [r3, #52]
 1769 0036 FBE7     		b	.L146
 1770              	.L139:
 839:Drivers/STM32G0xx_HAL_Driver/Src/stm32g0xx_hal_dma.c ****         break;
 1771              		.loc 1 839 9 is_stmt 1 view .LVU623
 839:Drivers/STM32G0xx_HAL_Driver/Src/stm32g0xx_hal_dma.c ****         break;
 1772              		.loc 1 839 33 is_stmt 0 view .LVU624
 1773 0038 9A63     		str	r2, [r3, #56]
 840:Drivers/STM32G0xx_HAL_Driver/Src/stm32g0xx_hal_dma.c **** 
 1774              		.loc 1 840 9 is_stmt 1 view .LVU625
 1775 003a F9E7     		b	.L146
 1776              	.L145:
 849:Drivers/STM32G0xx_HAL_Driver/Src/stm32g0xx_hal_dma.c ****   }
 1777              		.loc 1 849 12 is_stmt 0 view .LVU626
 1778 003c 0120     		movs	r0, #1
 1779 003e F3E7     		b	.L138
 1780              		.cfi_endproc
 1781              	.LFE309:
 1783              		.section	.text.HAL_DMA_UnRegisterCallback,"ax",%progbits
 1784              		.align	1
 1785              		.global	HAL_DMA_UnRegisterCallback
 1786              		.syntax unified
 1787              		.code	16
 1788              		.thumb_func
 1789              		.fpu softvfp
 1791              	HAL_DMA_UnRegisterCallback:
 1792              	.LVL95:
 1793              	.LFB310:
 867:Drivers/STM32G0xx_HAL_Driver/Src/stm32g0xx_hal_dma.c ****   HAL_StatusTypeDef status = HAL_OK;
 1794              		.loc 1 867 1 is_stmt 1 view -0
 1795              		.cfi_startproc
 1796              		@ args = 0, pretend = 0, frame = 0
 1797              		@ frame_needed = 0, uses_anonymous_args = 0
 868:Drivers/STM32G0xx_HAL_Driver/Src/stm32g0xx_hal_dma.c **** 
 1798              		.loc 1 868 3 view .LVU628
 871:Drivers/STM32G0xx_HAL_Driver/Src/stm32g0xx_hal_dma.c **** 
 1799              		.loc 1 871 3 view .LVU629
 871:Drivers/STM32G0xx_HAL_Driver/Src/stm32g0xx_hal_dma.c **** 
 1800              		.loc 1 871 3 view .LVU630
 867:Drivers/STM32G0xx_HAL_Driver/Src/stm32g0xx_hal_dma.c ****   HAL_StatusTypeDef status = HAL_OK;
 1801              		.loc 1 867 1 is_stmt 0 view .LVU631
 1802 0000 30B5     		push	{r4, r5, lr}
 1803              	.LCFI12:
 1804              		.cfi_def_cfa_offset 12
 1805              		.cfi_offset 4, -12
 1806              		.cfi_offset 5, -8
 1807              		.cfi_offset 14, -4
 871:Drivers/STM32G0xx_HAL_Driver/Src/stm32g0xx_hal_dma.c **** 
 1808              		.loc 1 871 3 view .LVU632
 1809 0002 441D     		adds	r4, r0, #5
 1810 0004 E27F     		ldrb	r2, [r4, #31]
 867:Drivers/STM32G0xx_HAL_Driver/Src/stm32g0xx_hal_dma.c ****   HAL_StatusTypeDef status = HAL_OK;
 1811              		.loc 1 867 1 view .LVU633
 1812 0006 0300     		movs	r3, r0
 871:Drivers/STM32G0xx_HAL_Driver/Src/stm32g0xx_hal_dma.c **** 
ARM GAS  /tmp/ccbutQBb.s 			page 61


 1813              		.loc 1 871 3 view .LVU634
 1814 0008 0220     		movs	r0, #2
 1815              	.LVL96:
 871:Drivers/STM32G0xx_HAL_Driver/Src/stm32g0xx_hal_dma.c **** 
 1816              		.loc 1 871 3 view .LVU635
 1817 000a 012A     		cmp	r2, #1
 1818 000c 12D0     		beq	.L148
 871:Drivers/STM32G0xx_HAL_Driver/Src/stm32g0xx_hal_dma.c **** 
 1819              		.loc 1 871 3 is_stmt 1 discriminator 2 view .LVU636
 1820 000e 0122     		movs	r2, #1
 873:Drivers/STM32G0xx_HAL_Driver/Src/stm32g0xx_hal_dma.c ****   {
 1821              		.loc 1 873 34 is_stmt 0 discriminator 2 view .LVU637
 1822 0010 981D     		adds	r0, r3, #6
 871:Drivers/STM32G0xx_HAL_Driver/Src/stm32g0xx_hal_dma.c **** 
 1823              		.loc 1 871 3 discriminator 2 view .LVU638
 1824 0012 E277     		strb	r2, [r4, #31]
 871:Drivers/STM32G0xx_HAL_Driver/Src/stm32g0xx_hal_dma.c **** 
 1825              		.loc 1 871 3 is_stmt 1 discriminator 2 view .LVU639
 873:Drivers/STM32G0xx_HAL_Driver/Src/stm32g0xx_hal_dma.c ****   {
 1826              		.loc 1 873 3 discriminator 2 view .LVU640
 873:Drivers/STM32G0xx_HAL_Driver/Src/stm32g0xx_hal_dma.c ****   {
 1827              		.loc 1 873 34 is_stmt 0 discriminator 2 view .LVU641
 1828 0014 C57F     		ldrb	r5, [r0, #31]
 1829 0016 E8B2     		uxtb	r0, r5
 873:Drivers/STM32G0xx_HAL_Driver/Src/stm32g0xx_hal_dma.c ****   {
 1830              		.loc 1 873 6 discriminator 2 view .LVU642
 1831 0018 9542     		cmp	r5, r2
 1832 001a 16D1     		bne	.L157
 875:Drivers/STM32G0xx_HAL_Driver/Src/stm32g0xx_hal_dma.c ****     {
 1833              		.loc 1 875 5 is_stmt 1 view .LVU643
 1834 001c 0429     		cmp	r1, #4
 1835 001e 07D8     		bhi	.L149
 1836 0020 0800     		movs	r0, r1
 1837 0022 0022     		movs	r2, #0
 1838 0024 FFF7FEFF 		bl	__gnu_thumb1_case_uqi
 1839              	.L151:
 1840 0028 03       		.byte	(.L155-.L151)/2
 1841 0029 07       		.byte	(.L154-.L151)/2
 1842 002a 0A       		.byte	(.L153-.L151)/2
 1843 002b 0F       		.byte	(.L152-.L151)/2
 1844 002c 0C       		.byte	(.L150-.L151)/2
 1845 002d 00       		.p2align 1
 1846              	.L155:
 878:Drivers/STM32G0xx_HAL_Driver/Src/stm32g0xx_hal_dma.c ****         break;
 1847              		.loc 1 878 9 view .LVU644
 878:Drivers/STM32G0xx_HAL_Driver/Src/stm32g0xx_hal_dma.c ****         break;
 1848              		.loc 1 878 32 is_stmt 0 view .LVU645
 1849 002e DA62     		str	r2, [r3, #44]
 879:Drivers/STM32G0xx_HAL_Driver/Src/stm32g0xx_hal_dma.c **** 
 1850              		.loc 1 879 9 is_stmt 1 view .LVU646
 1851              	.L149:
 1852              	.LVL97:
 911:Drivers/STM32G0xx_HAL_Driver/Src/stm32g0xx_hal_dma.c **** 
 1853              		.loc 1 911 3 view .LVU647
 911:Drivers/STM32G0xx_HAL_Driver/Src/stm32g0xx_hal_dma.c **** 
 1854              		.loc 1 911 3 view .LVU648
 1855 0030 0023     		movs	r3, #0
ARM GAS  /tmp/ccbutQBb.s 			page 62


 1856              	.LVL98:
 911:Drivers/STM32G0xx_HAL_Driver/Src/stm32g0xx_hal_dma.c **** 
 1857              		.loc 1 911 3 is_stmt 0 view .LVU649
 1858 0032 E377     		strb	r3, [r4, #31]
 911:Drivers/STM32G0xx_HAL_Driver/Src/stm32g0xx_hal_dma.c **** 
 1859              		.loc 1 911 3 is_stmt 1 view .LVU650
 913:Drivers/STM32G0xx_HAL_Driver/Src/stm32g0xx_hal_dma.c **** }
 1860              		.loc 1 913 3 view .LVU651
 1861              	.LVL99:
 1862              	.L148:
 914:Drivers/STM32G0xx_HAL_Driver/Src/stm32g0xx_hal_dma.c **** 
 1863              		.loc 1 914 1 is_stmt 0 view .LVU652
 1864              		@ sp needed
 1865              	.LVL100:
 914:Drivers/STM32G0xx_HAL_Driver/Src/stm32g0xx_hal_dma.c **** 
 1866              		.loc 1 914 1 view .LVU653
 1867 0034 30BD     		pop	{r4, r5, pc}
 1868              	.LVL101:
 1869              	.L154:
 882:Drivers/STM32G0xx_HAL_Driver/Src/stm32g0xx_hal_dma.c ****         break;
 1870              		.loc 1 882 9 is_stmt 1 view .LVU654
 882:Drivers/STM32G0xx_HAL_Driver/Src/stm32g0xx_hal_dma.c ****         break;
 1871              		.loc 1 882 36 is_stmt 0 view .LVU655
 1872 0036 1A63     		str	r2, [r3, #48]
 883:Drivers/STM32G0xx_HAL_Driver/Src/stm32g0xx_hal_dma.c **** 
 1873              		.loc 1 883 9 is_stmt 1 view .LVU656
 1874              	.L158:
 891:Drivers/STM32G0xx_HAL_Driver/Src/stm32g0xx_hal_dma.c **** 
 1875              		.loc 1 891 9 view .LVU657
 868:Drivers/STM32G0xx_HAL_Driver/Src/stm32g0xx_hal_dma.c **** 
 1876              		.loc 1 868 21 is_stmt 0 view .LVU658
 1877 0038 0020     		movs	r0, #0
 891:Drivers/STM32G0xx_HAL_Driver/Src/stm32g0xx_hal_dma.c **** 
 1878              		.loc 1 891 9 view .LVU659
 1879 003a F9E7     		b	.L149
 1880              	.L153:
 886:Drivers/STM32G0xx_HAL_Driver/Src/stm32g0xx_hal_dma.c ****         break;
 1881              		.loc 1 886 9 is_stmt 1 view .LVU660
 886:Drivers/STM32G0xx_HAL_Driver/Src/stm32g0xx_hal_dma.c ****         break;
 1882              		.loc 1 886 33 is_stmt 0 view .LVU661
 1883 003c 5A63     		str	r2, [r3, #52]
 887:Drivers/STM32G0xx_HAL_Driver/Src/stm32g0xx_hal_dma.c **** 
 1884              		.loc 1 887 9 is_stmt 1 view .LVU662
 1885 003e FBE7     		b	.L158
 1886              	.L150:
 894:Drivers/STM32G0xx_HAL_Driver/Src/stm32g0xx_hal_dma.c ****         hdma->XferHalfCpltCallback = NULL;
 1887              		.loc 1 894 9 view .LVU663
 894:Drivers/STM32G0xx_HAL_Driver/Src/stm32g0xx_hal_dma.c ****         hdma->XferHalfCpltCallback = NULL;
 1888              		.loc 1 894 32 is_stmt 0 view .LVU664
 1889 0040 DA62     		str	r2, [r3, #44]
 895:Drivers/STM32G0xx_HAL_Driver/Src/stm32g0xx_hal_dma.c ****         hdma->XferErrorCallback = NULL;
 1890              		.loc 1 895 9 is_stmt 1 view .LVU665
 895:Drivers/STM32G0xx_HAL_Driver/Src/stm32g0xx_hal_dma.c ****         hdma->XferErrorCallback = NULL;
 1891              		.loc 1 895 36 is_stmt 0 view .LVU666
 1892 0042 1A63     		str	r2, [r3, #48]
 896:Drivers/STM32G0xx_HAL_Driver/Src/stm32g0xx_hal_dma.c ****         hdma->XferAbortCallback = NULL;
 1893              		.loc 1 896 9 is_stmt 1 view .LVU667
ARM GAS  /tmp/ccbutQBb.s 			page 63


 896:Drivers/STM32G0xx_HAL_Driver/Src/stm32g0xx_hal_dma.c ****         hdma->XferAbortCallback = NULL;
 1894              		.loc 1 896 33 is_stmt 0 view .LVU668
 1895 0044 5A63     		str	r2, [r3, #52]
 897:Drivers/STM32G0xx_HAL_Driver/Src/stm32g0xx_hal_dma.c ****         break;
 1896              		.loc 1 897 9 is_stmt 1 view .LVU669
 1897              	.L152:
 890:Drivers/STM32G0xx_HAL_Driver/Src/stm32g0xx_hal_dma.c ****         break;
 1898              		.loc 1 890 9 view .LVU670
 890:Drivers/STM32G0xx_HAL_Driver/Src/stm32g0xx_hal_dma.c ****         break;
 1899              		.loc 1 890 33 is_stmt 0 view .LVU671
 1900 0046 9A63     		str	r2, [r3, #56]
 1901 0048 F6E7     		b	.L158
 1902              	.L157:
 907:Drivers/STM32G0xx_HAL_Driver/Src/stm32g0xx_hal_dma.c ****   }
 1903              		.loc 1 907 12 view .LVU672
 1904 004a 1000     		movs	r0, r2
 1905 004c F0E7     		b	.L149
 1906              		.cfi_endproc
 1907              	.LFE310:
 1909              		.section	.text.HAL_DMA_GetState,"ax",%progbits
 1910              		.align	1
 1911              		.global	HAL_DMA_GetState
 1912              		.syntax unified
 1913              		.code	16
 1914              		.thumb_func
 1915              		.fpu softvfp
 1917              	HAL_DMA_GetState:
 1918              	.LVL102:
 1919              	.LFB311:
 945:Drivers/STM32G0xx_HAL_Driver/Src/stm32g0xx_hal_dma.c ****   /* Return DMA handle state */
 1920              		.loc 1 945 1 is_stmt 1 view -0
 1921              		.cfi_startproc
 1922              		@ args = 0, pretend = 0, frame = 0
 1923              		@ frame_needed = 0, uses_anonymous_args = 0
 1924              		@ link register save eliminated.
 947:Drivers/STM32G0xx_HAL_Driver/Src/stm32g0xx_hal_dma.c **** }
 1925              		.loc 1 947 3 view .LVU674
 947:Drivers/STM32G0xx_HAL_Driver/Src/stm32g0xx_hal_dma.c **** }
 1926              		.loc 1 947 14 is_stmt 0 view .LVU675
 1927 0000 0630     		adds	r0, r0, #6
 1928              	.LVL103:
 947:Drivers/STM32G0xx_HAL_Driver/Src/stm32g0xx_hal_dma.c **** }
 1929              		.loc 1 947 14 view .LVU676
 1930 0002 C07F     		ldrb	r0, [r0, #31]
 1931              	.LVL104:
 948:Drivers/STM32G0xx_HAL_Driver/Src/stm32g0xx_hal_dma.c **** 
 1932              		.loc 1 948 1 view .LVU677
 1933              		@ sp needed
 947:Drivers/STM32G0xx_HAL_Driver/Src/stm32g0xx_hal_dma.c **** }
 1934              		.loc 1 947 14 view .LVU678
 1935 0004 C0B2     		uxtb	r0, r0
 948:Drivers/STM32G0xx_HAL_Driver/Src/stm32g0xx_hal_dma.c **** 
 1936              		.loc 1 948 1 view .LVU679
 1937 0006 7047     		bx	lr
 1938              		.cfi_endproc
 1939              	.LFE311:
 1941              		.section	.text.HAL_DMA_GetError,"ax",%progbits
ARM GAS  /tmp/ccbutQBb.s 			page 64


 1942              		.align	1
 1943              		.global	HAL_DMA_GetError
 1944              		.syntax unified
 1945              		.code	16
 1946              		.thumb_func
 1947              		.fpu softvfp
 1949              	HAL_DMA_GetError:
 1950              	.LVL105:
 1951              	.LFB312:
 957:Drivers/STM32G0xx_HAL_Driver/Src/stm32g0xx_hal_dma.c ****   return hdma->ErrorCode;
 1952              		.loc 1 957 1 is_stmt 1 view -0
 1953              		.cfi_startproc
 1954              		@ args = 0, pretend = 0, frame = 0
 1955              		@ frame_needed = 0, uses_anonymous_args = 0
 1956              		@ link register save eliminated.
 958:Drivers/STM32G0xx_HAL_Driver/Src/stm32g0xx_hal_dma.c **** }
 1957              		.loc 1 958 3 view .LVU681
 958:Drivers/STM32G0xx_HAL_Driver/Src/stm32g0xx_hal_dma.c **** }
 1958              		.loc 1 958 14 is_stmt 0 view .LVU682
 1959 0000 C06B     		ldr	r0, [r0, #60]
 1960              	.LVL106:
 959:Drivers/STM32G0xx_HAL_Driver/Src/stm32g0xx_hal_dma.c **** 
 1961              		.loc 1 959 1 view .LVU683
 1962              		@ sp needed
 1963 0002 7047     		bx	lr
 1964              		.cfi_endproc
 1965              	.LFE312:
 1967              		.text
 1968              	.Letext0:
 1969              		.file 2 "Drivers/CMSIS/Device/ST/STM32G0xx/Include/system_stm32g0xx.h"
 1970              		.file 3 "Drivers/CMSIS/Device/ST/STM32G0xx/Include/stm32g071xx.h"
 1971              		.file 4 "/usr/lib/gcc/arm-none-eabi/9.2.1/include/stdint.h"
 1972              		.file 5 "Drivers/STM32G0xx_HAL_Driver/Inc/stm32g0xx_hal_def.h"
 1973              		.file 6 "Drivers/STM32G0xx_HAL_Driver/Inc/stm32g0xx_hal_dma.h"
 1974              		.file 7 "Drivers/STM32G0xx_HAL_Driver/Inc/stm32g0xx_hal_flash.h"
 1975              		.file 8 "Drivers/STM32G0xx_HAL_Driver/Inc/stm32g0xx_hal.h"
ARM GAS  /tmp/ccbutQBb.s 			page 65

