ARM GAS  /tmp/ccvtvpVm.s 			page 1


   1              		.cpu cortex-m0plus
   2              		.eabi_attribute 20, 1
   3              		.eabi_attribute 21, 1
   4              		.eabi_attribute 23, 3
   5              		.eabi_attribute 24, 1
   6              		.eabi_attribute 25, 1
   7              		.eabi_attribute 26, 1
   8              		.eabi_attribute 30, 4
   9              		.eabi_attribute 34, 0
  10              		.eabi_attribute 18, 4
  11              		.file	"stm32g0xx_hal_flash.c"
  12              		.text
  13              	.Ltext0:
  14              		.cfi_sections	.debug_frame
  15              		.section	.RamFunc,"ax",%progbits
  16              		.align	1
  17              		.arch armv6s-m
  18              		.syntax unified
  19              		.code	16
  20              		.thumb_func
  21              		.fpu softvfp
  23              	FLASH_Program_Fast:
  24              	.LVL0:
  25              	.LFB314:
  26              		.file 1 "Drivers/STM32G0xx_HAL_Driver/Src/stm32g0xx_hal_flash.c"
   1:Drivers/STM32G0xx_HAL_Driver/Src/stm32g0xx_hal_flash.c **** /**
   2:Drivers/STM32G0xx_HAL_Driver/Src/stm32g0xx_hal_flash.c ****   ******************************************************************************
   3:Drivers/STM32G0xx_HAL_Driver/Src/stm32g0xx_hal_flash.c ****   * @file    stm32g0xx_hal_flash.c
   4:Drivers/STM32G0xx_HAL_Driver/Src/stm32g0xx_hal_flash.c ****   * @author  MCD Application Team
   5:Drivers/STM32G0xx_HAL_Driver/Src/stm32g0xx_hal_flash.c ****   * @brief   FLASH HAL module driver.
   6:Drivers/STM32G0xx_HAL_Driver/Src/stm32g0xx_hal_flash.c ****   *          This file provides firmware functions to manage the following
   7:Drivers/STM32G0xx_HAL_Driver/Src/stm32g0xx_hal_flash.c ****   *          functionalities of the internal FLASH memory:
   8:Drivers/STM32G0xx_HAL_Driver/Src/stm32g0xx_hal_flash.c ****   *           + Program operations functions
   9:Drivers/STM32G0xx_HAL_Driver/Src/stm32g0xx_hal_flash.c ****   *           + Memory Control functions
  10:Drivers/STM32G0xx_HAL_Driver/Src/stm32g0xx_hal_flash.c ****   *           + Peripheral Errors functions
  11:Drivers/STM32G0xx_HAL_Driver/Src/stm32g0xx_hal_flash.c ****   *
  12:Drivers/STM32G0xx_HAL_Driver/Src/stm32g0xx_hal_flash.c ****  @verbatim
  13:Drivers/STM32G0xx_HAL_Driver/Src/stm32g0xx_hal_flash.c ****   ==============================================================================
  14:Drivers/STM32G0xx_HAL_Driver/Src/stm32g0xx_hal_flash.c ****                         ##### FLASH peripheral features #####
  15:Drivers/STM32G0xx_HAL_Driver/Src/stm32g0xx_hal_flash.c ****   ==============================================================================
  16:Drivers/STM32G0xx_HAL_Driver/Src/stm32g0xx_hal_flash.c **** 
  17:Drivers/STM32G0xx_HAL_Driver/Src/stm32g0xx_hal_flash.c ****   [..] The Flash memory interface manages CPU AHB I-Code and D-Code accesses
  18:Drivers/STM32G0xx_HAL_Driver/Src/stm32g0xx_hal_flash.c ****        to the Flash memory. It implements the erase and program Flash memory operations
  19:Drivers/STM32G0xx_HAL_Driver/Src/stm32g0xx_hal_flash.c ****        and the read and write protection mechanisms.
  20:Drivers/STM32G0xx_HAL_Driver/Src/stm32g0xx_hal_flash.c **** 
  21:Drivers/STM32G0xx_HAL_Driver/Src/stm32g0xx_hal_flash.c ****   [..] The Flash memory interface accelerates code execution with a system of instruction
  22:Drivers/STM32G0xx_HAL_Driver/Src/stm32g0xx_hal_flash.c ****        prefetch and cache lines.
  23:Drivers/STM32G0xx_HAL_Driver/Src/stm32g0xx_hal_flash.c **** 
  24:Drivers/STM32G0xx_HAL_Driver/Src/stm32g0xx_hal_flash.c ****   [..] The FLASH main features are:
  25:Drivers/STM32G0xx_HAL_Driver/Src/stm32g0xx_hal_flash.c ****       (+) Flash memory read operations
  26:Drivers/STM32G0xx_HAL_Driver/Src/stm32g0xx_hal_flash.c ****       (+) Flash memory program/erase operations
  27:Drivers/STM32G0xx_HAL_Driver/Src/stm32g0xx_hal_flash.c ****       (+) Read / write protections
  28:Drivers/STM32G0xx_HAL_Driver/Src/stm32g0xx_hal_flash.c ****       (+) Option bytes programming
  29:Drivers/STM32G0xx_HAL_Driver/Src/stm32g0xx_hal_flash.c ****       (+) Prefetch on I-Code
  30:Drivers/STM32G0xx_HAL_Driver/Src/stm32g0xx_hal_flash.c ****       (+) 32 cache lines of 4*64 bits on I-Code
  31:Drivers/STM32G0xx_HAL_Driver/Src/stm32g0xx_hal_flash.c ****       (+) Error code correction (ECC) : Data in flash are 72-bits word
  32:Drivers/STM32G0xx_HAL_Driver/Src/stm32g0xx_hal_flash.c ****           (8 bits added per double word)
ARM GAS  /tmp/ccvtvpVm.s 			page 2


  33:Drivers/STM32G0xx_HAL_Driver/Src/stm32g0xx_hal_flash.c **** 
  34:Drivers/STM32G0xx_HAL_Driver/Src/stm32g0xx_hal_flash.c ****                         ##### How to use this driver #####
  35:Drivers/STM32G0xx_HAL_Driver/Src/stm32g0xx_hal_flash.c ****  ==============================================================================
  36:Drivers/STM32G0xx_HAL_Driver/Src/stm32g0xx_hal_flash.c ****     [..]
  37:Drivers/STM32G0xx_HAL_Driver/Src/stm32g0xx_hal_flash.c ****       This driver provides functions and macros to configure and program the FLASH
  38:Drivers/STM32G0xx_HAL_Driver/Src/stm32g0xx_hal_flash.c ****       memory of all STM32G0xx devices.
  39:Drivers/STM32G0xx_HAL_Driver/Src/stm32g0xx_hal_flash.c **** 
  40:Drivers/STM32G0xx_HAL_Driver/Src/stm32g0xx_hal_flash.c ****       (#) Flash Memory IO Programming functions:
  41:Drivers/STM32G0xx_HAL_Driver/Src/stm32g0xx_hal_flash.c ****            (++) Lock and Unlock the FLASH interface using HAL_FLASH_Unlock() and
  42:Drivers/STM32G0xx_HAL_Driver/Src/stm32g0xx_hal_flash.c ****                 HAL_FLASH_Lock() functions
  43:Drivers/STM32G0xx_HAL_Driver/Src/stm32g0xx_hal_flash.c ****            (++) Program functions: double word and fast program (full row programming)
  44:Drivers/STM32G0xx_HAL_Driver/Src/stm32g0xx_hal_flash.c ****            (++) There are two modes of programming:
  45:Drivers/STM32G0xx_HAL_Driver/Src/stm32g0xx_hal_flash.c ****             (+++) Polling mode using HAL_FLASH_Program() function
  46:Drivers/STM32G0xx_HAL_Driver/Src/stm32g0xx_hal_flash.c ****             (+++) Interrupt mode using HAL_FLASH_Program_IT() function
  47:Drivers/STM32G0xx_HAL_Driver/Src/stm32g0xx_hal_flash.c **** 
  48:Drivers/STM32G0xx_HAL_Driver/Src/stm32g0xx_hal_flash.c ****       (#) Interrupts and flags management functions:
  49:Drivers/STM32G0xx_HAL_Driver/Src/stm32g0xx_hal_flash.c ****            (++) Handle FLASH interrupts by calling HAL_FLASH_IRQHandler()
  50:Drivers/STM32G0xx_HAL_Driver/Src/stm32g0xx_hal_flash.c ****            (++) Callback functions are called when the flash operations are finished :
  51:Drivers/STM32G0xx_HAL_Driver/Src/stm32g0xx_hal_flash.c ****                 HAL_FLASH_EndOfOperationCallback() when everything is ok, otherwise
  52:Drivers/STM32G0xx_HAL_Driver/Src/stm32g0xx_hal_flash.c ****                 HAL_FLASH_OperationErrorCallback()
  53:Drivers/STM32G0xx_HAL_Driver/Src/stm32g0xx_hal_flash.c ****            (++) Get error flag status by calling HAL_GetError()
  54:Drivers/STM32G0xx_HAL_Driver/Src/stm32g0xx_hal_flash.c **** 
  55:Drivers/STM32G0xx_HAL_Driver/Src/stm32g0xx_hal_flash.c ****       (#) Option bytes management functions :
  56:Drivers/STM32G0xx_HAL_Driver/Src/stm32g0xx_hal_flash.c ****            (++) Lock and Unlock the option bytes using HAL_FLASH_OB_Unlock() and
  57:Drivers/STM32G0xx_HAL_Driver/Src/stm32g0xx_hal_flash.c ****                 HAL_FLASH_OB_Lock() functions
  58:Drivers/STM32G0xx_HAL_Driver/Src/stm32g0xx_hal_flash.c ****            (++) Launch the reload of the option bytes using HAL_FLASH_OB_Launch() function.
  59:Drivers/STM32G0xx_HAL_Driver/Src/stm32g0xx_hal_flash.c ****                 In this case, a reset is generated
  60:Drivers/STM32G0xx_HAL_Driver/Src/stm32g0xx_hal_flash.c **** 
  61:Drivers/STM32G0xx_HAL_Driver/Src/stm32g0xx_hal_flash.c ****     [..]
  62:Drivers/STM32G0xx_HAL_Driver/Src/stm32g0xx_hal_flash.c ****       In addition to these functions, this driver includes a set of macros allowing
  63:Drivers/STM32G0xx_HAL_Driver/Src/stm32g0xx_hal_flash.c ****       to handle the following operations:
  64:Drivers/STM32G0xx_HAL_Driver/Src/stm32g0xx_hal_flash.c ****        (+) Set the latency
  65:Drivers/STM32G0xx_HAL_Driver/Src/stm32g0xx_hal_flash.c ****        (+) Enable/Disable the prefetch buffer
  66:Drivers/STM32G0xx_HAL_Driver/Src/stm32g0xx_hal_flash.c ****        (+) Enable/Disable the Instruction cache
  67:Drivers/STM32G0xx_HAL_Driver/Src/stm32g0xx_hal_flash.c ****        (+) Reset the Instruction cache
  68:Drivers/STM32G0xx_HAL_Driver/Src/stm32g0xx_hal_flash.c ****        (+) Enable/Disable the Flash power-down during low-power run and sleep modes
  69:Drivers/STM32G0xx_HAL_Driver/Src/stm32g0xx_hal_flash.c ****        (+) Enable/Disable the Flash interrupts
  70:Drivers/STM32G0xx_HAL_Driver/Src/stm32g0xx_hal_flash.c ****        (+) Monitor the Flash flags status
  71:Drivers/STM32G0xx_HAL_Driver/Src/stm32g0xx_hal_flash.c **** 
  72:Drivers/STM32G0xx_HAL_Driver/Src/stm32g0xx_hal_flash.c ****  @endverbatim
  73:Drivers/STM32G0xx_HAL_Driver/Src/stm32g0xx_hal_flash.c ****   ******************************************************************************
  74:Drivers/STM32G0xx_HAL_Driver/Src/stm32g0xx_hal_flash.c ****   * @attention
  75:Drivers/STM32G0xx_HAL_Driver/Src/stm32g0xx_hal_flash.c ****   *
  76:Drivers/STM32G0xx_HAL_Driver/Src/stm32g0xx_hal_flash.c ****   * <h2><center>&copy; Copyright (c) 2018 STMicroelectronics.
  77:Drivers/STM32G0xx_HAL_Driver/Src/stm32g0xx_hal_flash.c ****   * All rights reserved.</center></h2>
  78:Drivers/STM32G0xx_HAL_Driver/Src/stm32g0xx_hal_flash.c ****   *
  79:Drivers/STM32G0xx_HAL_Driver/Src/stm32g0xx_hal_flash.c ****   * This software component is licensed by ST under BSD 3-Clause license,
  80:Drivers/STM32G0xx_HAL_Driver/Src/stm32g0xx_hal_flash.c ****   * the "License"; You may not use this file except in compliance with the
  81:Drivers/STM32G0xx_HAL_Driver/Src/stm32g0xx_hal_flash.c ****   * License. You may obtain a copy of the License at:
  82:Drivers/STM32G0xx_HAL_Driver/Src/stm32g0xx_hal_flash.c ****   *                        opensource.org/licenses/BSD-3-Clause
  83:Drivers/STM32G0xx_HAL_Driver/Src/stm32g0xx_hal_flash.c ****   *
  84:Drivers/STM32G0xx_HAL_Driver/Src/stm32g0xx_hal_flash.c ****   ******************************************************************************
  85:Drivers/STM32G0xx_HAL_Driver/Src/stm32g0xx_hal_flash.c ****   */
  86:Drivers/STM32G0xx_HAL_Driver/Src/stm32g0xx_hal_flash.c **** 
  87:Drivers/STM32G0xx_HAL_Driver/Src/stm32g0xx_hal_flash.c **** /* Includes ------------------------------------------------------------------*/
  88:Drivers/STM32G0xx_HAL_Driver/Src/stm32g0xx_hal_flash.c **** #include "stm32g0xx_hal.h"
  89:Drivers/STM32G0xx_HAL_Driver/Src/stm32g0xx_hal_flash.c **** 
ARM GAS  /tmp/ccvtvpVm.s 			page 3


  90:Drivers/STM32G0xx_HAL_Driver/Src/stm32g0xx_hal_flash.c **** /** @addtogroup STM32G0xx_HAL_Driver
  91:Drivers/STM32G0xx_HAL_Driver/Src/stm32g0xx_hal_flash.c ****   * @{
  92:Drivers/STM32G0xx_HAL_Driver/Src/stm32g0xx_hal_flash.c ****   */
  93:Drivers/STM32G0xx_HAL_Driver/Src/stm32g0xx_hal_flash.c **** 
  94:Drivers/STM32G0xx_HAL_Driver/Src/stm32g0xx_hal_flash.c **** /** @defgroup FLASH FLASH
  95:Drivers/STM32G0xx_HAL_Driver/Src/stm32g0xx_hal_flash.c ****   * @brief FLASH HAL module driver
  96:Drivers/STM32G0xx_HAL_Driver/Src/stm32g0xx_hal_flash.c ****   * @{
  97:Drivers/STM32G0xx_HAL_Driver/Src/stm32g0xx_hal_flash.c ****   */
  98:Drivers/STM32G0xx_HAL_Driver/Src/stm32g0xx_hal_flash.c **** 
  99:Drivers/STM32G0xx_HAL_Driver/Src/stm32g0xx_hal_flash.c **** #ifdef HAL_FLASH_MODULE_ENABLED
 100:Drivers/STM32G0xx_HAL_Driver/Src/stm32g0xx_hal_flash.c **** 
 101:Drivers/STM32G0xx_HAL_Driver/Src/stm32g0xx_hal_flash.c **** /* Private typedef -----------------------------------------------------------*/
 102:Drivers/STM32G0xx_HAL_Driver/Src/stm32g0xx_hal_flash.c **** /* Private defines -----------------------------------------------------------*/
 103:Drivers/STM32G0xx_HAL_Driver/Src/stm32g0xx_hal_flash.c **** /* Private macros ------------------------------------------------------------*/
 104:Drivers/STM32G0xx_HAL_Driver/Src/stm32g0xx_hal_flash.c **** /* Private variables ---------------------------------------------------------*/
 105:Drivers/STM32G0xx_HAL_Driver/Src/stm32g0xx_hal_flash.c **** /** @defgroup FLASH_Private_Variables FLASH Private Variables
 106:Drivers/STM32G0xx_HAL_Driver/Src/stm32g0xx_hal_flash.c ****  * @{
 107:Drivers/STM32G0xx_HAL_Driver/Src/stm32g0xx_hal_flash.c ****  */
 108:Drivers/STM32G0xx_HAL_Driver/Src/stm32g0xx_hal_flash.c **** /**
 109:Drivers/STM32G0xx_HAL_Driver/Src/stm32g0xx_hal_flash.c ****   * @brief  Variable used for Program/Erase sectors under interruption
 110:Drivers/STM32G0xx_HAL_Driver/Src/stm32g0xx_hal_flash.c ****   */
 111:Drivers/STM32G0xx_HAL_Driver/Src/stm32g0xx_hal_flash.c **** FLASH_ProcessTypeDef pFlash  = {.Lock = HAL_UNLOCKED, \
 112:Drivers/STM32G0xx_HAL_Driver/Src/stm32g0xx_hal_flash.c ****                                 .ErrorCode = HAL_FLASH_ERROR_NONE, \
 113:Drivers/STM32G0xx_HAL_Driver/Src/stm32g0xx_hal_flash.c ****                                 .ProcedureOnGoing = FLASH_TYPENONE, \
 114:Drivers/STM32G0xx_HAL_Driver/Src/stm32g0xx_hal_flash.c ****                                 .Address = 0U, \
 115:Drivers/STM32G0xx_HAL_Driver/Src/stm32g0xx_hal_flash.c ****                                 .Page = 0U, \
 116:Drivers/STM32G0xx_HAL_Driver/Src/stm32g0xx_hal_flash.c ****                                 .NbPagesToErase = 0U
 117:Drivers/STM32G0xx_HAL_Driver/Src/stm32g0xx_hal_flash.c ****                                };
 118:Drivers/STM32G0xx_HAL_Driver/Src/stm32g0xx_hal_flash.c **** /**
 119:Drivers/STM32G0xx_HAL_Driver/Src/stm32g0xx_hal_flash.c ****   * @}
 120:Drivers/STM32G0xx_HAL_Driver/Src/stm32g0xx_hal_flash.c ****   */
 121:Drivers/STM32G0xx_HAL_Driver/Src/stm32g0xx_hal_flash.c **** 
 122:Drivers/STM32G0xx_HAL_Driver/Src/stm32g0xx_hal_flash.c **** /* Private function prototypes -----------------------------------------------*/
 123:Drivers/STM32G0xx_HAL_Driver/Src/stm32g0xx_hal_flash.c **** /** @defgroup FLASH_Private_Functions FLASH Private Functions
 124:Drivers/STM32G0xx_HAL_Driver/Src/stm32g0xx_hal_flash.c ****  * @{
 125:Drivers/STM32G0xx_HAL_Driver/Src/stm32g0xx_hal_flash.c ****  */
 126:Drivers/STM32G0xx_HAL_Driver/Src/stm32g0xx_hal_flash.c **** static void          FLASH_Program_DoubleWord(uint32_t Address, uint64_t Data);
 127:Drivers/STM32G0xx_HAL_Driver/Src/stm32g0xx_hal_flash.c **** static void          FLASH_Program_Fast(uint32_t Address, uint32_t DataAddress);
 128:Drivers/STM32G0xx_HAL_Driver/Src/stm32g0xx_hal_flash.c **** /**
 129:Drivers/STM32G0xx_HAL_Driver/Src/stm32g0xx_hal_flash.c ****   * @}
 130:Drivers/STM32G0xx_HAL_Driver/Src/stm32g0xx_hal_flash.c ****   */
 131:Drivers/STM32G0xx_HAL_Driver/Src/stm32g0xx_hal_flash.c **** 
 132:Drivers/STM32G0xx_HAL_Driver/Src/stm32g0xx_hal_flash.c **** /* Exported functions --------------------------------------------------------*/
 133:Drivers/STM32G0xx_HAL_Driver/Src/stm32g0xx_hal_flash.c **** /** @defgroup FLASH_Exported_Functions FLASH Exported Functions
 134:Drivers/STM32G0xx_HAL_Driver/Src/stm32g0xx_hal_flash.c ****   * @{
 135:Drivers/STM32G0xx_HAL_Driver/Src/stm32g0xx_hal_flash.c ****   */
 136:Drivers/STM32G0xx_HAL_Driver/Src/stm32g0xx_hal_flash.c **** 
 137:Drivers/STM32G0xx_HAL_Driver/Src/stm32g0xx_hal_flash.c **** /** @defgroup FLASH_Exported_Functions_Group1 Programming operation functions
 138:Drivers/STM32G0xx_HAL_Driver/Src/stm32g0xx_hal_flash.c ****  *  @brief   Programming operation functions
 139:Drivers/STM32G0xx_HAL_Driver/Src/stm32g0xx_hal_flash.c ****  *
 140:Drivers/STM32G0xx_HAL_Driver/Src/stm32g0xx_hal_flash.c **** @verbatim
 141:Drivers/STM32G0xx_HAL_Driver/Src/stm32g0xx_hal_flash.c ****  ===============================================================================
 142:Drivers/STM32G0xx_HAL_Driver/Src/stm32g0xx_hal_flash.c ****                   ##### Programming operation functions #####
 143:Drivers/STM32G0xx_HAL_Driver/Src/stm32g0xx_hal_flash.c ****  ===============================================================================
 144:Drivers/STM32G0xx_HAL_Driver/Src/stm32g0xx_hal_flash.c ****     [..]
 145:Drivers/STM32G0xx_HAL_Driver/Src/stm32g0xx_hal_flash.c ****     This subsection provides a set of functions allowing to manage the FLASH
 146:Drivers/STM32G0xx_HAL_Driver/Src/stm32g0xx_hal_flash.c ****     program operations.
ARM GAS  /tmp/ccvtvpVm.s 			page 4


 147:Drivers/STM32G0xx_HAL_Driver/Src/stm32g0xx_hal_flash.c **** 
 148:Drivers/STM32G0xx_HAL_Driver/Src/stm32g0xx_hal_flash.c **** @endverbatim
 149:Drivers/STM32G0xx_HAL_Driver/Src/stm32g0xx_hal_flash.c ****   * @{
 150:Drivers/STM32G0xx_HAL_Driver/Src/stm32g0xx_hal_flash.c ****   */
 151:Drivers/STM32G0xx_HAL_Driver/Src/stm32g0xx_hal_flash.c **** 
 152:Drivers/STM32G0xx_HAL_Driver/Src/stm32g0xx_hal_flash.c **** /**
 153:Drivers/STM32G0xx_HAL_Driver/Src/stm32g0xx_hal_flash.c ****   * @brief  Program double word or fast program of a row at a specified address.
 154:Drivers/STM32G0xx_HAL_Driver/Src/stm32g0xx_hal_flash.c ****   * @param  TypeProgram Indicate the way to program at a specified address.
 155:Drivers/STM32G0xx_HAL_Driver/Src/stm32g0xx_hal_flash.c ****   *                      This parameter can be a value of @ref FLASH_Type_Program
 156:Drivers/STM32G0xx_HAL_Driver/Src/stm32g0xx_hal_flash.c ****   * @param  Address Specifies the address to be programmed.
 157:Drivers/STM32G0xx_HAL_Driver/Src/stm32g0xx_hal_flash.c ****   * @param  Data Specifies the data to be programmed
 158:Drivers/STM32G0xx_HAL_Driver/Src/stm32g0xx_hal_flash.c ****   *               This parameter is the data for the double word program and the address where
 159:Drivers/STM32G0xx_HAL_Driver/Src/stm32g0xx_hal_flash.c ****   *               are stored the data for the row fast program.
 160:Drivers/STM32G0xx_HAL_Driver/Src/stm32g0xx_hal_flash.c ****   *
 161:Drivers/STM32G0xx_HAL_Driver/Src/stm32g0xx_hal_flash.c ****   * @retval HAL_StatusTypeDef HAL Status
 162:Drivers/STM32G0xx_HAL_Driver/Src/stm32g0xx_hal_flash.c ****   */
 163:Drivers/STM32G0xx_HAL_Driver/Src/stm32g0xx_hal_flash.c **** HAL_StatusTypeDef HAL_FLASH_Program(uint32_t TypeProgram, uint32_t Address, uint64_t Data)
 164:Drivers/STM32G0xx_HAL_Driver/Src/stm32g0xx_hal_flash.c **** {
 165:Drivers/STM32G0xx_HAL_Driver/Src/stm32g0xx_hal_flash.c ****   HAL_StatusTypeDef status;
 166:Drivers/STM32G0xx_HAL_Driver/Src/stm32g0xx_hal_flash.c **** 
 167:Drivers/STM32G0xx_HAL_Driver/Src/stm32g0xx_hal_flash.c ****   /* Check the parameters */
 168:Drivers/STM32G0xx_HAL_Driver/Src/stm32g0xx_hal_flash.c ****   assert_param(IS_FLASH_TYPEPROGRAM(TypeProgram));
 169:Drivers/STM32G0xx_HAL_Driver/Src/stm32g0xx_hal_flash.c ****   assert_param(IS_FLASH_PROGRAM_ADDRESS(Address));
 170:Drivers/STM32G0xx_HAL_Driver/Src/stm32g0xx_hal_flash.c **** 
 171:Drivers/STM32G0xx_HAL_Driver/Src/stm32g0xx_hal_flash.c ****   /* Process Locked */
 172:Drivers/STM32G0xx_HAL_Driver/Src/stm32g0xx_hal_flash.c ****   __HAL_LOCK(&pFlash);
 173:Drivers/STM32G0xx_HAL_Driver/Src/stm32g0xx_hal_flash.c **** 
 174:Drivers/STM32G0xx_HAL_Driver/Src/stm32g0xx_hal_flash.c ****   /* Reset error code */
 175:Drivers/STM32G0xx_HAL_Driver/Src/stm32g0xx_hal_flash.c ****   pFlash.ErrorCode = HAL_FLASH_ERROR_NONE;
 176:Drivers/STM32G0xx_HAL_Driver/Src/stm32g0xx_hal_flash.c **** 
 177:Drivers/STM32G0xx_HAL_Driver/Src/stm32g0xx_hal_flash.c ****   /* Wait for last operation to be completed */
 178:Drivers/STM32G0xx_HAL_Driver/Src/stm32g0xx_hal_flash.c ****   status = FLASH_WaitForLastOperation(FLASH_TIMEOUT_VALUE);
 179:Drivers/STM32G0xx_HAL_Driver/Src/stm32g0xx_hal_flash.c **** 
 180:Drivers/STM32G0xx_HAL_Driver/Src/stm32g0xx_hal_flash.c ****   if (status == HAL_OK)
 181:Drivers/STM32G0xx_HAL_Driver/Src/stm32g0xx_hal_flash.c ****   {
 182:Drivers/STM32G0xx_HAL_Driver/Src/stm32g0xx_hal_flash.c ****     if (TypeProgram == FLASH_TYPEPROGRAM_DOUBLEWORD)
 183:Drivers/STM32G0xx_HAL_Driver/Src/stm32g0xx_hal_flash.c ****     {
 184:Drivers/STM32G0xx_HAL_Driver/Src/stm32g0xx_hal_flash.c ****       /* Check the parameters */
 185:Drivers/STM32G0xx_HAL_Driver/Src/stm32g0xx_hal_flash.c ****       assert_param(IS_FLASH_PROGRAM_ADDRESS(Address));
 186:Drivers/STM32G0xx_HAL_Driver/Src/stm32g0xx_hal_flash.c **** 
 187:Drivers/STM32G0xx_HAL_Driver/Src/stm32g0xx_hal_flash.c ****       /* Program double-word (64-bit) at a specified address */
 188:Drivers/STM32G0xx_HAL_Driver/Src/stm32g0xx_hal_flash.c ****       FLASH_Program_DoubleWord(Address, Data);
 189:Drivers/STM32G0xx_HAL_Driver/Src/stm32g0xx_hal_flash.c ****     }
 190:Drivers/STM32G0xx_HAL_Driver/Src/stm32g0xx_hal_flash.c ****     else
 191:Drivers/STM32G0xx_HAL_Driver/Src/stm32g0xx_hal_flash.c ****     {
 192:Drivers/STM32G0xx_HAL_Driver/Src/stm32g0xx_hal_flash.c ****       /* Check the parameters */
 193:Drivers/STM32G0xx_HAL_Driver/Src/stm32g0xx_hal_flash.c ****       assert_param(IS_FLASH_FAST_PROGRAM_ADDRESS(Address));
 194:Drivers/STM32G0xx_HAL_Driver/Src/stm32g0xx_hal_flash.c **** 
 195:Drivers/STM32G0xx_HAL_Driver/Src/stm32g0xx_hal_flash.c ****       /* Fast program a 32 row double-word (64-bit) at a specified address */
 196:Drivers/STM32G0xx_HAL_Driver/Src/stm32g0xx_hal_flash.c ****       FLASH_Program_Fast(Address, (uint32_t)Data);
 197:Drivers/STM32G0xx_HAL_Driver/Src/stm32g0xx_hal_flash.c ****     }
 198:Drivers/STM32G0xx_HAL_Driver/Src/stm32g0xx_hal_flash.c **** 
 199:Drivers/STM32G0xx_HAL_Driver/Src/stm32g0xx_hal_flash.c ****     /* Wait for last operation to be completed */
 200:Drivers/STM32G0xx_HAL_Driver/Src/stm32g0xx_hal_flash.c ****     status = FLASH_WaitForLastOperation(FLASH_TIMEOUT_VALUE);
 201:Drivers/STM32G0xx_HAL_Driver/Src/stm32g0xx_hal_flash.c **** 
 202:Drivers/STM32G0xx_HAL_Driver/Src/stm32g0xx_hal_flash.c ****     /* If the program operation is completed, disable the PG or FSTPG Bit */
 203:Drivers/STM32G0xx_HAL_Driver/Src/stm32g0xx_hal_flash.c ****     CLEAR_BIT(FLASH->CR, TypeProgram);
ARM GAS  /tmp/ccvtvpVm.s 			page 5


 204:Drivers/STM32G0xx_HAL_Driver/Src/stm32g0xx_hal_flash.c ****   }
 205:Drivers/STM32G0xx_HAL_Driver/Src/stm32g0xx_hal_flash.c **** 
 206:Drivers/STM32G0xx_HAL_Driver/Src/stm32g0xx_hal_flash.c ****   /* Process Unlocked */
 207:Drivers/STM32G0xx_HAL_Driver/Src/stm32g0xx_hal_flash.c ****   __HAL_UNLOCK(&pFlash);
 208:Drivers/STM32G0xx_HAL_Driver/Src/stm32g0xx_hal_flash.c **** 
 209:Drivers/STM32G0xx_HAL_Driver/Src/stm32g0xx_hal_flash.c ****   /* return status */
 210:Drivers/STM32G0xx_HAL_Driver/Src/stm32g0xx_hal_flash.c ****   return status;
 211:Drivers/STM32G0xx_HAL_Driver/Src/stm32g0xx_hal_flash.c **** }
 212:Drivers/STM32G0xx_HAL_Driver/Src/stm32g0xx_hal_flash.c **** 
 213:Drivers/STM32G0xx_HAL_Driver/Src/stm32g0xx_hal_flash.c **** /**
 214:Drivers/STM32G0xx_HAL_Driver/Src/stm32g0xx_hal_flash.c ****   * @brief  Program double word or fast program of a row at a specified address with interrupt enab
 215:Drivers/STM32G0xx_HAL_Driver/Src/stm32g0xx_hal_flash.c ****   * @param  TypeProgram Indicate the way to program at a specified address.
 216:Drivers/STM32G0xx_HAL_Driver/Src/stm32g0xx_hal_flash.c ****   *                      This parameter can be a value of @ref FLASH_Type_Program
 217:Drivers/STM32G0xx_HAL_Driver/Src/stm32g0xx_hal_flash.c ****   * @param  Address Specifies the address to be programmed.
 218:Drivers/STM32G0xx_HAL_Driver/Src/stm32g0xx_hal_flash.c ****   * @param  Data Specifies the data to be programmed
 219:Drivers/STM32G0xx_HAL_Driver/Src/stm32g0xx_hal_flash.c ****   *               This parameter is the data for the double word program and the address where
 220:Drivers/STM32G0xx_HAL_Driver/Src/stm32g0xx_hal_flash.c ****   *               are stored the data for the row fast program.
 221:Drivers/STM32G0xx_HAL_Driver/Src/stm32g0xx_hal_flash.c ****   *
 222:Drivers/STM32G0xx_HAL_Driver/Src/stm32g0xx_hal_flash.c ****   * @retval HAL Status
 223:Drivers/STM32G0xx_HAL_Driver/Src/stm32g0xx_hal_flash.c ****   */
 224:Drivers/STM32G0xx_HAL_Driver/Src/stm32g0xx_hal_flash.c **** HAL_StatusTypeDef HAL_FLASH_Program_IT(uint32_t TypeProgram, uint32_t Address, uint64_t Data)
 225:Drivers/STM32G0xx_HAL_Driver/Src/stm32g0xx_hal_flash.c **** {
 226:Drivers/STM32G0xx_HAL_Driver/Src/stm32g0xx_hal_flash.c ****   HAL_StatusTypeDef status;
 227:Drivers/STM32G0xx_HAL_Driver/Src/stm32g0xx_hal_flash.c **** 
 228:Drivers/STM32G0xx_HAL_Driver/Src/stm32g0xx_hal_flash.c ****   /* Check the parameters */
 229:Drivers/STM32G0xx_HAL_Driver/Src/stm32g0xx_hal_flash.c ****   assert_param(IS_FLASH_TYPEPROGRAM(TypeProgram));
 230:Drivers/STM32G0xx_HAL_Driver/Src/stm32g0xx_hal_flash.c ****   assert_param(IS_FLASH_PROGRAM_ADDRESS(Address));
 231:Drivers/STM32G0xx_HAL_Driver/Src/stm32g0xx_hal_flash.c **** 
 232:Drivers/STM32G0xx_HAL_Driver/Src/stm32g0xx_hal_flash.c ****   /* Process Locked */
 233:Drivers/STM32G0xx_HAL_Driver/Src/stm32g0xx_hal_flash.c ****   __HAL_LOCK(&pFlash);
 234:Drivers/STM32G0xx_HAL_Driver/Src/stm32g0xx_hal_flash.c **** 
 235:Drivers/STM32G0xx_HAL_Driver/Src/stm32g0xx_hal_flash.c ****   /* Reset error code */
 236:Drivers/STM32G0xx_HAL_Driver/Src/stm32g0xx_hal_flash.c ****   pFlash.ErrorCode = HAL_FLASH_ERROR_NONE;
 237:Drivers/STM32G0xx_HAL_Driver/Src/stm32g0xx_hal_flash.c **** 
 238:Drivers/STM32G0xx_HAL_Driver/Src/stm32g0xx_hal_flash.c ****   /* Wait for last operation to be completed */
 239:Drivers/STM32G0xx_HAL_Driver/Src/stm32g0xx_hal_flash.c ****   status = FLASH_WaitForLastOperation(FLASH_TIMEOUT_VALUE);
 240:Drivers/STM32G0xx_HAL_Driver/Src/stm32g0xx_hal_flash.c **** 
 241:Drivers/STM32G0xx_HAL_Driver/Src/stm32g0xx_hal_flash.c ****   if (status != HAL_OK)
 242:Drivers/STM32G0xx_HAL_Driver/Src/stm32g0xx_hal_flash.c ****   {
 243:Drivers/STM32G0xx_HAL_Driver/Src/stm32g0xx_hal_flash.c ****     /* Process Unlocked */
 244:Drivers/STM32G0xx_HAL_Driver/Src/stm32g0xx_hal_flash.c ****     __HAL_UNLOCK(&pFlash);
 245:Drivers/STM32G0xx_HAL_Driver/Src/stm32g0xx_hal_flash.c ****   }
 246:Drivers/STM32G0xx_HAL_Driver/Src/stm32g0xx_hal_flash.c ****   else
 247:Drivers/STM32G0xx_HAL_Driver/Src/stm32g0xx_hal_flash.c ****   {
 248:Drivers/STM32G0xx_HAL_Driver/Src/stm32g0xx_hal_flash.c ****     /* Set internal variables used by the IRQ handler */
 249:Drivers/STM32G0xx_HAL_Driver/Src/stm32g0xx_hal_flash.c ****     pFlash.ProcedureOnGoing = TypeProgram;
 250:Drivers/STM32G0xx_HAL_Driver/Src/stm32g0xx_hal_flash.c ****     pFlash.Address = Address;
 251:Drivers/STM32G0xx_HAL_Driver/Src/stm32g0xx_hal_flash.c **** 
 252:Drivers/STM32G0xx_HAL_Driver/Src/stm32g0xx_hal_flash.c ****     /* Enable End of Operation and Error interrupts */
 253:Drivers/STM32G0xx_HAL_Driver/Src/stm32g0xx_hal_flash.c ****     __HAL_FLASH_ENABLE_IT(FLASH_IT_EOP | FLASH_IT_OPERR | FLASH_IT_ECCC);
 254:Drivers/STM32G0xx_HAL_Driver/Src/stm32g0xx_hal_flash.c **** 
 255:Drivers/STM32G0xx_HAL_Driver/Src/stm32g0xx_hal_flash.c ****     if (TypeProgram == FLASH_TYPEPROGRAM_DOUBLEWORD)
 256:Drivers/STM32G0xx_HAL_Driver/Src/stm32g0xx_hal_flash.c ****     {
 257:Drivers/STM32G0xx_HAL_Driver/Src/stm32g0xx_hal_flash.c ****       /* Check the parameters */
 258:Drivers/STM32G0xx_HAL_Driver/Src/stm32g0xx_hal_flash.c ****       assert_param(IS_FLASH_PROGRAM_ADDRESS(Address));
 259:Drivers/STM32G0xx_HAL_Driver/Src/stm32g0xx_hal_flash.c **** 
 260:Drivers/STM32G0xx_HAL_Driver/Src/stm32g0xx_hal_flash.c ****       /* Program double-word (64-bit) at a specified address */
ARM GAS  /tmp/ccvtvpVm.s 			page 6


 261:Drivers/STM32G0xx_HAL_Driver/Src/stm32g0xx_hal_flash.c ****       FLASH_Program_DoubleWord(Address, Data);
 262:Drivers/STM32G0xx_HAL_Driver/Src/stm32g0xx_hal_flash.c ****     }
 263:Drivers/STM32G0xx_HAL_Driver/Src/stm32g0xx_hal_flash.c ****     else
 264:Drivers/STM32G0xx_HAL_Driver/Src/stm32g0xx_hal_flash.c ****     {
 265:Drivers/STM32G0xx_HAL_Driver/Src/stm32g0xx_hal_flash.c ****       /* Check the parameters */
 266:Drivers/STM32G0xx_HAL_Driver/Src/stm32g0xx_hal_flash.c ****       assert_param(IS_FLASH_FAST_PROGRAM_ADDRESS(Address));
 267:Drivers/STM32G0xx_HAL_Driver/Src/stm32g0xx_hal_flash.c **** 
 268:Drivers/STM32G0xx_HAL_Driver/Src/stm32g0xx_hal_flash.c ****       /* Fast program a 32 row double-word (64-bit) at a specified address */
 269:Drivers/STM32G0xx_HAL_Driver/Src/stm32g0xx_hal_flash.c ****       FLASH_Program_Fast(Address, (uint32_t)Data);
 270:Drivers/STM32G0xx_HAL_Driver/Src/stm32g0xx_hal_flash.c ****     }
 271:Drivers/STM32G0xx_HAL_Driver/Src/stm32g0xx_hal_flash.c ****   }
 272:Drivers/STM32G0xx_HAL_Driver/Src/stm32g0xx_hal_flash.c **** 
 273:Drivers/STM32G0xx_HAL_Driver/Src/stm32g0xx_hal_flash.c ****   /* return status */
 274:Drivers/STM32G0xx_HAL_Driver/Src/stm32g0xx_hal_flash.c ****   return status;
 275:Drivers/STM32G0xx_HAL_Driver/Src/stm32g0xx_hal_flash.c **** }
 276:Drivers/STM32G0xx_HAL_Driver/Src/stm32g0xx_hal_flash.c **** 
 277:Drivers/STM32G0xx_HAL_Driver/Src/stm32g0xx_hal_flash.c **** /**
 278:Drivers/STM32G0xx_HAL_Driver/Src/stm32g0xx_hal_flash.c ****   * @brief Handle FLASH interrupt request.
 279:Drivers/STM32G0xx_HAL_Driver/Src/stm32g0xx_hal_flash.c ****   * @retval None
 280:Drivers/STM32G0xx_HAL_Driver/Src/stm32g0xx_hal_flash.c ****   */
 281:Drivers/STM32G0xx_HAL_Driver/Src/stm32g0xx_hal_flash.c **** void HAL_FLASH_IRQHandler(void)
 282:Drivers/STM32G0xx_HAL_Driver/Src/stm32g0xx_hal_flash.c **** {
 283:Drivers/STM32G0xx_HAL_Driver/Src/stm32g0xx_hal_flash.c ****   uint32_t param = 0xFFFFFFFFU;
 284:Drivers/STM32G0xx_HAL_Driver/Src/stm32g0xx_hal_flash.c ****   uint32_t error;
 285:Drivers/STM32G0xx_HAL_Driver/Src/stm32g0xx_hal_flash.c **** 
 286:Drivers/STM32G0xx_HAL_Driver/Src/stm32g0xx_hal_flash.c ****   /* Save flash errors. Only ECC detection can be checked here as ECCC
 287:Drivers/STM32G0xx_HAL_Driver/Src/stm32g0xx_hal_flash.c ****      generates NMI */
 288:Drivers/STM32G0xx_HAL_Driver/Src/stm32g0xx_hal_flash.c ****   error = (FLASH->SR & FLASH_FLAG_SR_ERROR);
 289:Drivers/STM32G0xx_HAL_Driver/Src/stm32g0xx_hal_flash.c ****   error |= (FLASH->ECCR & FLASH_FLAG_ECCC);
 290:Drivers/STM32G0xx_HAL_Driver/Src/stm32g0xx_hal_flash.c **** 
 291:Drivers/STM32G0xx_HAL_Driver/Src/stm32g0xx_hal_flash.c ****   CLEAR_BIT(FLASH->CR, pFlash.ProcedureOnGoing);
 292:Drivers/STM32G0xx_HAL_Driver/Src/stm32g0xx_hal_flash.c **** 
 293:Drivers/STM32G0xx_HAL_Driver/Src/stm32g0xx_hal_flash.c ****   /* A] Set parameter for user or error callbacks */
 294:Drivers/STM32G0xx_HAL_Driver/Src/stm32g0xx_hal_flash.c ****   /* check operation was a program or erase */
 295:Drivers/STM32G0xx_HAL_Driver/Src/stm32g0xx_hal_flash.c ****   if ((pFlash.ProcedureOnGoing & (FLASH_TYPEPROGRAM_DOUBLEWORD | FLASH_TYPEPROGRAM_FAST)) != 0x00U)
 296:Drivers/STM32G0xx_HAL_Driver/Src/stm32g0xx_hal_flash.c ****   {
 297:Drivers/STM32G0xx_HAL_Driver/Src/stm32g0xx_hal_flash.c ****     /* return adress being programmed */
 298:Drivers/STM32G0xx_HAL_Driver/Src/stm32g0xx_hal_flash.c ****     param = pFlash.Address;
 299:Drivers/STM32G0xx_HAL_Driver/Src/stm32g0xx_hal_flash.c ****   }
 300:Drivers/STM32G0xx_HAL_Driver/Src/stm32g0xx_hal_flash.c ****   else if ((pFlash.ProcedureOnGoing & (FLASH_TYPEERASE_MASS | FLASH_TYPEERASE_PAGES)) != 0x00U)
 301:Drivers/STM32G0xx_HAL_Driver/Src/stm32g0xx_hal_flash.c ****   {
 302:Drivers/STM32G0xx_HAL_Driver/Src/stm32g0xx_hal_flash.c ****     /* return page number being erased (0 for mass erase) */
 303:Drivers/STM32G0xx_HAL_Driver/Src/stm32g0xx_hal_flash.c ****     param = pFlash.Page;
 304:Drivers/STM32G0xx_HAL_Driver/Src/stm32g0xx_hal_flash.c ****   }
 305:Drivers/STM32G0xx_HAL_Driver/Src/stm32g0xx_hal_flash.c ****   else
 306:Drivers/STM32G0xx_HAL_Driver/Src/stm32g0xx_hal_flash.c ****   {
 307:Drivers/STM32G0xx_HAL_Driver/Src/stm32g0xx_hal_flash.c ****     /* Nothing to do */
 308:Drivers/STM32G0xx_HAL_Driver/Src/stm32g0xx_hal_flash.c ****   }
 309:Drivers/STM32G0xx_HAL_Driver/Src/stm32g0xx_hal_flash.c **** 
 310:Drivers/STM32G0xx_HAL_Driver/Src/stm32g0xx_hal_flash.c ****   /* B] Check errors */
 311:Drivers/STM32G0xx_HAL_Driver/Src/stm32g0xx_hal_flash.c ****   if (error != 0x00U)
 312:Drivers/STM32G0xx_HAL_Driver/Src/stm32g0xx_hal_flash.c ****   {
 313:Drivers/STM32G0xx_HAL_Driver/Src/stm32g0xx_hal_flash.c ****     /*Save the error code*/
 314:Drivers/STM32G0xx_HAL_Driver/Src/stm32g0xx_hal_flash.c ****     pFlash.ErrorCode |= error;
 315:Drivers/STM32G0xx_HAL_Driver/Src/stm32g0xx_hal_flash.c **** 
 316:Drivers/STM32G0xx_HAL_Driver/Src/stm32g0xx_hal_flash.c ****     /* clear error flags */
 317:Drivers/STM32G0xx_HAL_Driver/Src/stm32g0xx_hal_flash.c ****     __HAL_FLASH_CLEAR_FLAG(error);
ARM GAS  /tmp/ccvtvpVm.s 			page 7


 318:Drivers/STM32G0xx_HAL_Driver/Src/stm32g0xx_hal_flash.c **** 
 319:Drivers/STM32G0xx_HAL_Driver/Src/stm32g0xx_hal_flash.c ****     /*Stop the procedure ongoing*/
 320:Drivers/STM32G0xx_HAL_Driver/Src/stm32g0xx_hal_flash.c ****     pFlash.ProcedureOnGoing = FLASH_TYPENONE;
 321:Drivers/STM32G0xx_HAL_Driver/Src/stm32g0xx_hal_flash.c **** 
 322:Drivers/STM32G0xx_HAL_Driver/Src/stm32g0xx_hal_flash.c ****     /* Error callback */
 323:Drivers/STM32G0xx_HAL_Driver/Src/stm32g0xx_hal_flash.c ****     HAL_FLASH_OperationErrorCallback(param);
 324:Drivers/STM32G0xx_HAL_Driver/Src/stm32g0xx_hal_flash.c ****   }
 325:Drivers/STM32G0xx_HAL_Driver/Src/stm32g0xx_hal_flash.c **** 
 326:Drivers/STM32G0xx_HAL_Driver/Src/stm32g0xx_hal_flash.c ****   /* C] Check FLASH End of Operation flag */
 327:Drivers/STM32G0xx_HAL_Driver/Src/stm32g0xx_hal_flash.c ****   if (__HAL_FLASH_GET_FLAG(FLASH_FLAG_EOP) != 0x00U)
 328:Drivers/STM32G0xx_HAL_Driver/Src/stm32g0xx_hal_flash.c ****   {
 329:Drivers/STM32G0xx_HAL_Driver/Src/stm32g0xx_hal_flash.c ****     /* Clear FLASH End of Operation pending bit */
 330:Drivers/STM32G0xx_HAL_Driver/Src/stm32g0xx_hal_flash.c ****     __HAL_FLASH_CLEAR_FLAG(FLASH_FLAG_EOP);
 331:Drivers/STM32G0xx_HAL_Driver/Src/stm32g0xx_hal_flash.c **** 
 332:Drivers/STM32G0xx_HAL_Driver/Src/stm32g0xx_hal_flash.c ****     if (pFlash.ProcedureOnGoing == FLASH_TYPEERASE_PAGES)
 333:Drivers/STM32G0xx_HAL_Driver/Src/stm32g0xx_hal_flash.c ****     {
 334:Drivers/STM32G0xx_HAL_Driver/Src/stm32g0xx_hal_flash.c ****       /* Nb of pages to erased can be decreased */
 335:Drivers/STM32G0xx_HAL_Driver/Src/stm32g0xx_hal_flash.c ****       pFlash.NbPagesToErase--;
 336:Drivers/STM32G0xx_HAL_Driver/Src/stm32g0xx_hal_flash.c **** 
 337:Drivers/STM32G0xx_HAL_Driver/Src/stm32g0xx_hal_flash.c ****       /* Check if there are still pages to erase*/
 338:Drivers/STM32G0xx_HAL_Driver/Src/stm32g0xx_hal_flash.c ****       if (pFlash.NbPagesToErase != 0x00U)
 339:Drivers/STM32G0xx_HAL_Driver/Src/stm32g0xx_hal_flash.c ****       {
 340:Drivers/STM32G0xx_HAL_Driver/Src/stm32g0xx_hal_flash.c ****         /* Increment page number */
 341:Drivers/STM32G0xx_HAL_Driver/Src/stm32g0xx_hal_flash.c ****         pFlash.Page++;
 342:Drivers/STM32G0xx_HAL_Driver/Src/stm32g0xx_hal_flash.c ****         FLASH_PageErase(pFlash.Page);
 343:Drivers/STM32G0xx_HAL_Driver/Src/stm32g0xx_hal_flash.c ****       }
 344:Drivers/STM32G0xx_HAL_Driver/Src/stm32g0xx_hal_flash.c ****       else
 345:Drivers/STM32G0xx_HAL_Driver/Src/stm32g0xx_hal_flash.c ****       {
 346:Drivers/STM32G0xx_HAL_Driver/Src/stm32g0xx_hal_flash.c ****         /* No more pages to erase: stop erase pages procedure */
 347:Drivers/STM32G0xx_HAL_Driver/Src/stm32g0xx_hal_flash.c ****         pFlash.ProcedureOnGoing = FLASH_TYPENONE;
 348:Drivers/STM32G0xx_HAL_Driver/Src/stm32g0xx_hal_flash.c ****       }
 349:Drivers/STM32G0xx_HAL_Driver/Src/stm32g0xx_hal_flash.c ****     }
 350:Drivers/STM32G0xx_HAL_Driver/Src/stm32g0xx_hal_flash.c ****     else
 351:Drivers/STM32G0xx_HAL_Driver/Src/stm32g0xx_hal_flash.c ****     {
 352:Drivers/STM32G0xx_HAL_Driver/Src/stm32g0xx_hal_flash.c ****       /*Stop the ongoing procedure */
 353:Drivers/STM32G0xx_HAL_Driver/Src/stm32g0xx_hal_flash.c ****       pFlash.ProcedureOnGoing = FLASH_TYPENONE;
 354:Drivers/STM32G0xx_HAL_Driver/Src/stm32g0xx_hal_flash.c ****     }
 355:Drivers/STM32G0xx_HAL_Driver/Src/stm32g0xx_hal_flash.c **** 
 356:Drivers/STM32G0xx_HAL_Driver/Src/stm32g0xx_hal_flash.c ****     /* User callback */
 357:Drivers/STM32G0xx_HAL_Driver/Src/stm32g0xx_hal_flash.c ****     HAL_FLASH_EndOfOperationCallback(param);
 358:Drivers/STM32G0xx_HAL_Driver/Src/stm32g0xx_hal_flash.c ****   }
 359:Drivers/STM32G0xx_HAL_Driver/Src/stm32g0xx_hal_flash.c **** 
 360:Drivers/STM32G0xx_HAL_Driver/Src/stm32g0xx_hal_flash.c ****   if (pFlash.ProcedureOnGoing == FLASH_TYPENONE)
 361:Drivers/STM32G0xx_HAL_Driver/Src/stm32g0xx_hal_flash.c ****   {
 362:Drivers/STM32G0xx_HAL_Driver/Src/stm32g0xx_hal_flash.c ****     /* Disable End of Operation and Error interrupts */
 363:Drivers/STM32G0xx_HAL_Driver/Src/stm32g0xx_hal_flash.c ****     __HAL_FLASH_DISABLE_IT(FLASH_IT_EOP | FLASH_IT_OPERR | FLASH_IT_ECCC);
 364:Drivers/STM32G0xx_HAL_Driver/Src/stm32g0xx_hal_flash.c **** 
 365:Drivers/STM32G0xx_HAL_Driver/Src/stm32g0xx_hal_flash.c ****     /* Process Unlocked */
 366:Drivers/STM32G0xx_HAL_Driver/Src/stm32g0xx_hal_flash.c ****     __HAL_UNLOCK(&pFlash);
 367:Drivers/STM32G0xx_HAL_Driver/Src/stm32g0xx_hal_flash.c ****   }
 368:Drivers/STM32G0xx_HAL_Driver/Src/stm32g0xx_hal_flash.c **** }
 369:Drivers/STM32G0xx_HAL_Driver/Src/stm32g0xx_hal_flash.c **** 
 370:Drivers/STM32G0xx_HAL_Driver/Src/stm32g0xx_hal_flash.c **** /**
 371:Drivers/STM32G0xx_HAL_Driver/Src/stm32g0xx_hal_flash.c ****   * @brief  FLASH end of operation interrupt callback.
 372:Drivers/STM32G0xx_HAL_Driver/Src/stm32g0xx_hal_flash.c ****   * @param  ReturnValue The value saved in this parameter depends on the ongoing procedure
 373:Drivers/STM32G0xx_HAL_Driver/Src/stm32g0xx_hal_flash.c ****   *                  Mass Erase: 0
 374:Drivers/STM32G0xx_HAL_Driver/Src/stm32g0xx_hal_flash.c ****   *                  Page Erase: Page which has been erased
ARM GAS  /tmp/ccvtvpVm.s 			page 8


 375:Drivers/STM32G0xx_HAL_Driver/Src/stm32g0xx_hal_flash.c ****   *                  Program: Address which was selected for data program
 376:Drivers/STM32G0xx_HAL_Driver/Src/stm32g0xx_hal_flash.c ****   * @retval None
 377:Drivers/STM32G0xx_HAL_Driver/Src/stm32g0xx_hal_flash.c ****   */
 378:Drivers/STM32G0xx_HAL_Driver/Src/stm32g0xx_hal_flash.c **** __weak void HAL_FLASH_EndOfOperationCallback(uint32_t ReturnValue)
 379:Drivers/STM32G0xx_HAL_Driver/Src/stm32g0xx_hal_flash.c **** {
 380:Drivers/STM32G0xx_HAL_Driver/Src/stm32g0xx_hal_flash.c ****   /* Prevent unused argument(s) compilation warning */
 381:Drivers/STM32G0xx_HAL_Driver/Src/stm32g0xx_hal_flash.c ****   UNUSED(ReturnValue);
 382:Drivers/STM32G0xx_HAL_Driver/Src/stm32g0xx_hal_flash.c **** 
 383:Drivers/STM32G0xx_HAL_Driver/Src/stm32g0xx_hal_flash.c ****   /* NOTE : This function should not be modified, when the callback is needed,
 384:Drivers/STM32G0xx_HAL_Driver/Src/stm32g0xx_hal_flash.c ****             the HAL_FLASH_EndOfOperationCallback could be implemented in the user file
 385:Drivers/STM32G0xx_HAL_Driver/Src/stm32g0xx_hal_flash.c ****    */
 386:Drivers/STM32G0xx_HAL_Driver/Src/stm32g0xx_hal_flash.c **** }
 387:Drivers/STM32G0xx_HAL_Driver/Src/stm32g0xx_hal_flash.c **** 
 388:Drivers/STM32G0xx_HAL_Driver/Src/stm32g0xx_hal_flash.c **** /**
 389:Drivers/STM32G0xx_HAL_Driver/Src/stm32g0xx_hal_flash.c ****   * @brief  FLASH operation error interrupt callback.
 390:Drivers/STM32G0xx_HAL_Driver/Src/stm32g0xx_hal_flash.c ****   * @param  ReturnValue The value saved in this parameter depends on the ongoing procedure
 391:Drivers/STM32G0xx_HAL_Driver/Src/stm32g0xx_hal_flash.c ****   *                 Mass Erase: 0
 392:Drivers/STM32G0xx_HAL_Driver/Src/stm32g0xx_hal_flash.c ****   *                 Page Erase: Page number which returned an error
 393:Drivers/STM32G0xx_HAL_Driver/Src/stm32g0xx_hal_flash.c ****   *                 Program: Address which was selected for data program
 394:Drivers/STM32G0xx_HAL_Driver/Src/stm32g0xx_hal_flash.c ****   * @retval None
 395:Drivers/STM32G0xx_HAL_Driver/Src/stm32g0xx_hal_flash.c ****   */
 396:Drivers/STM32G0xx_HAL_Driver/Src/stm32g0xx_hal_flash.c **** __weak void HAL_FLASH_OperationErrorCallback(uint32_t ReturnValue)
 397:Drivers/STM32G0xx_HAL_Driver/Src/stm32g0xx_hal_flash.c **** {
 398:Drivers/STM32G0xx_HAL_Driver/Src/stm32g0xx_hal_flash.c ****   /* Prevent unused argument(s) compilation warning */
 399:Drivers/STM32G0xx_HAL_Driver/Src/stm32g0xx_hal_flash.c ****   UNUSED(ReturnValue);
 400:Drivers/STM32G0xx_HAL_Driver/Src/stm32g0xx_hal_flash.c **** 
 401:Drivers/STM32G0xx_HAL_Driver/Src/stm32g0xx_hal_flash.c ****   /* NOTE : This function should not be modified, when the callback is needed,
 402:Drivers/STM32G0xx_HAL_Driver/Src/stm32g0xx_hal_flash.c ****             the HAL_FLASH_OperationErrorCallback could be implemented in the user file
 403:Drivers/STM32G0xx_HAL_Driver/Src/stm32g0xx_hal_flash.c ****    */
 404:Drivers/STM32G0xx_HAL_Driver/Src/stm32g0xx_hal_flash.c **** }
 405:Drivers/STM32G0xx_HAL_Driver/Src/stm32g0xx_hal_flash.c **** 
 406:Drivers/STM32G0xx_HAL_Driver/Src/stm32g0xx_hal_flash.c **** /**
 407:Drivers/STM32G0xx_HAL_Driver/Src/stm32g0xx_hal_flash.c ****   * @}
 408:Drivers/STM32G0xx_HAL_Driver/Src/stm32g0xx_hal_flash.c ****   */
 409:Drivers/STM32G0xx_HAL_Driver/Src/stm32g0xx_hal_flash.c **** 
 410:Drivers/STM32G0xx_HAL_Driver/Src/stm32g0xx_hal_flash.c **** /** @defgroup FLASH_Exported_Functions_Group2 Peripheral Control functions
 411:Drivers/STM32G0xx_HAL_Driver/Src/stm32g0xx_hal_flash.c ****  *  @brief   Management functions
 412:Drivers/STM32G0xx_HAL_Driver/Src/stm32g0xx_hal_flash.c ****  *
 413:Drivers/STM32G0xx_HAL_Driver/Src/stm32g0xx_hal_flash.c **** @verbatim
 414:Drivers/STM32G0xx_HAL_Driver/Src/stm32g0xx_hal_flash.c ****  ===============================================================================
 415:Drivers/STM32G0xx_HAL_Driver/Src/stm32g0xx_hal_flash.c ****                       ##### Peripheral Control functions #####
 416:Drivers/STM32G0xx_HAL_Driver/Src/stm32g0xx_hal_flash.c ****  ===============================================================================
 417:Drivers/STM32G0xx_HAL_Driver/Src/stm32g0xx_hal_flash.c ****     [..]
 418:Drivers/STM32G0xx_HAL_Driver/Src/stm32g0xx_hal_flash.c ****     This subsection provides a set of functions allowing to control the FLASH
 419:Drivers/STM32G0xx_HAL_Driver/Src/stm32g0xx_hal_flash.c ****     memory operations.
 420:Drivers/STM32G0xx_HAL_Driver/Src/stm32g0xx_hal_flash.c **** 
 421:Drivers/STM32G0xx_HAL_Driver/Src/stm32g0xx_hal_flash.c **** @endverbatim
 422:Drivers/STM32G0xx_HAL_Driver/Src/stm32g0xx_hal_flash.c ****   * @{
 423:Drivers/STM32G0xx_HAL_Driver/Src/stm32g0xx_hal_flash.c ****   */
 424:Drivers/STM32G0xx_HAL_Driver/Src/stm32g0xx_hal_flash.c **** 
 425:Drivers/STM32G0xx_HAL_Driver/Src/stm32g0xx_hal_flash.c **** /**
 426:Drivers/STM32G0xx_HAL_Driver/Src/stm32g0xx_hal_flash.c ****   * @brief  Unlock the FLASH control register access.
 427:Drivers/STM32G0xx_HAL_Driver/Src/stm32g0xx_hal_flash.c ****   * @retval HAL Status
 428:Drivers/STM32G0xx_HAL_Driver/Src/stm32g0xx_hal_flash.c ****   */
 429:Drivers/STM32G0xx_HAL_Driver/Src/stm32g0xx_hal_flash.c **** HAL_StatusTypeDef HAL_FLASH_Unlock(void)
 430:Drivers/STM32G0xx_HAL_Driver/Src/stm32g0xx_hal_flash.c **** {
 431:Drivers/STM32G0xx_HAL_Driver/Src/stm32g0xx_hal_flash.c ****   HAL_StatusTypeDef status = HAL_OK;
ARM GAS  /tmp/ccvtvpVm.s 			page 9


 432:Drivers/STM32G0xx_HAL_Driver/Src/stm32g0xx_hal_flash.c **** 
 433:Drivers/STM32G0xx_HAL_Driver/Src/stm32g0xx_hal_flash.c ****   if (READ_BIT(FLASH->CR, FLASH_CR_LOCK) != 0x00U)
 434:Drivers/STM32G0xx_HAL_Driver/Src/stm32g0xx_hal_flash.c ****   {
 435:Drivers/STM32G0xx_HAL_Driver/Src/stm32g0xx_hal_flash.c ****     /* Authorize the FLASH Registers access */
 436:Drivers/STM32G0xx_HAL_Driver/Src/stm32g0xx_hal_flash.c ****     WRITE_REG(FLASH->KEYR, FLASH_KEY1);
 437:Drivers/STM32G0xx_HAL_Driver/Src/stm32g0xx_hal_flash.c ****     WRITE_REG(FLASH->KEYR, FLASH_KEY2);
 438:Drivers/STM32G0xx_HAL_Driver/Src/stm32g0xx_hal_flash.c **** 
 439:Drivers/STM32G0xx_HAL_Driver/Src/stm32g0xx_hal_flash.c ****     /* verify Flash is unlock */
 440:Drivers/STM32G0xx_HAL_Driver/Src/stm32g0xx_hal_flash.c ****     if (READ_BIT(FLASH->CR, FLASH_CR_LOCK) != 0x00U)
 441:Drivers/STM32G0xx_HAL_Driver/Src/stm32g0xx_hal_flash.c ****     {
 442:Drivers/STM32G0xx_HAL_Driver/Src/stm32g0xx_hal_flash.c ****       status = HAL_ERROR;
 443:Drivers/STM32G0xx_HAL_Driver/Src/stm32g0xx_hal_flash.c ****     }
 444:Drivers/STM32G0xx_HAL_Driver/Src/stm32g0xx_hal_flash.c ****   }
 445:Drivers/STM32G0xx_HAL_Driver/Src/stm32g0xx_hal_flash.c **** 
 446:Drivers/STM32G0xx_HAL_Driver/Src/stm32g0xx_hal_flash.c ****   return status;
 447:Drivers/STM32G0xx_HAL_Driver/Src/stm32g0xx_hal_flash.c **** }
 448:Drivers/STM32G0xx_HAL_Driver/Src/stm32g0xx_hal_flash.c **** 
 449:Drivers/STM32G0xx_HAL_Driver/Src/stm32g0xx_hal_flash.c **** /**
 450:Drivers/STM32G0xx_HAL_Driver/Src/stm32g0xx_hal_flash.c ****   * @brief  Lock the FLASH control register access.
 451:Drivers/STM32G0xx_HAL_Driver/Src/stm32g0xx_hal_flash.c ****   * @retval HAL Status
 452:Drivers/STM32G0xx_HAL_Driver/Src/stm32g0xx_hal_flash.c ****   */
 453:Drivers/STM32G0xx_HAL_Driver/Src/stm32g0xx_hal_flash.c **** HAL_StatusTypeDef HAL_FLASH_Lock(void)
 454:Drivers/STM32G0xx_HAL_Driver/Src/stm32g0xx_hal_flash.c **** {
 455:Drivers/STM32G0xx_HAL_Driver/Src/stm32g0xx_hal_flash.c ****   HAL_StatusTypeDef status = HAL_ERROR;
 456:Drivers/STM32G0xx_HAL_Driver/Src/stm32g0xx_hal_flash.c **** 
 457:Drivers/STM32G0xx_HAL_Driver/Src/stm32g0xx_hal_flash.c ****   /* Set the LOCK Bit to lock the FLASH Registers access */
 458:Drivers/STM32G0xx_HAL_Driver/Src/stm32g0xx_hal_flash.c ****   SET_BIT(FLASH->CR, FLASH_CR_LOCK);
 459:Drivers/STM32G0xx_HAL_Driver/Src/stm32g0xx_hal_flash.c **** 
 460:Drivers/STM32G0xx_HAL_Driver/Src/stm32g0xx_hal_flash.c ****   /* verify Flash is locked */
 461:Drivers/STM32G0xx_HAL_Driver/Src/stm32g0xx_hal_flash.c ****   if (READ_BIT(FLASH->CR, FLASH_CR_LOCK) != 0x00u)
 462:Drivers/STM32G0xx_HAL_Driver/Src/stm32g0xx_hal_flash.c ****   {
 463:Drivers/STM32G0xx_HAL_Driver/Src/stm32g0xx_hal_flash.c ****     status = HAL_OK;
 464:Drivers/STM32G0xx_HAL_Driver/Src/stm32g0xx_hal_flash.c ****   }
 465:Drivers/STM32G0xx_HAL_Driver/Src/stm32g0xx_hal_flash.c **** 
 466:Drivers/STM32G0xx_HAL_Driver/Src/stm32g0xx_hal_flash.c ****   return status;
 467:Drivers/STM32G0xx_HAL_Driver/Src/stm32g0xx_hal_flash.c **** }
 468:Drivers/STM32G0xx_HAL_Driver/Src/stm32g0xx_hal_flash.c **** 
 469:Drivers/STM32G0xx_HAL_Driver/Src/stm32g0xx_hal_flash.c **** /**
 470:Drivers/STM32G0xx_HAL_Driver/Src/stm32g0xx_hal_flash.c ****   * @brief  Unlock the FLASH Option Bytes Registers access.
 471:Drivers/STM32G0xx_HAL_Driver/Src/stm32g0xx_hal_flash.c ****   * @retval HAL Status
 472:Drivers/STM32G0xx_HAL_Driver/Src/stm32g0xx_hal_flash.c ****   */
 473:Drivers/STM32G0xx_HAL_Driver/Src/stm32g0xx_hal_flash.c **** HAL_StatusTypeDef HAL_FLASH_OB_Unlock(void)
 474:Drivers/STM32G0xx_HAL_Driver/Src/stm32g0xx_hal_flash.c **** {
 475:Drivers/STM32G0xx_HAL_Driver/Src/stm32g0xx_hal_flash.c ****   HAL_StatusTypeDef status = HAL_ERROR;
 476:Drivers/STM32G0xx_HAL_Driver/Src/stm32g0xx_hal_flash.c **** 
 477:Drivers/STM32G0xx_HAL_Driver/Src/stm32g0xx_hal_flash.c ****   if (READ_BIT(FLASH->CR, FLASH_CR_OPTLOCK) != 0x00U)
 478:Drivers/STM32G0xx_HAL_Driver/Src/stm32g0xx_hal_flash.c ****   {
 479:Drivers/STM32G0xx_HAL_Driver/Src/stm32g0xx_hal_flash.c ****     /* Authorizes the Option Byte register programming */
 480:Drivers/STM32G0xx_HAL_Driver/Src/stm32g0xx_hal_flash.c ****     WRITE_REG(FLASH->OPTKEYR, FLASH_OPTKEY1);
 481:Drivers/STM32G0xx_HAL_Driver/Src/stm32g0xx_hal_flash.c ****     WRITE_REG(FLASH->OPTKEYR, FLASH_OPTKEY2);
 482:Drivers/STM32G0xx_HAL_Driver/Src/stm32g0xx_hal_flash.c **** 
 483:Drivers/STM32G0xx_HAL_Driver/Src/stm32g0xx_hal_flash.c ****     /* verify option bytes are unlocked */
 484:Drivers/STM32G0xx_HAL_Driver/Src/stm32g0xx_hal_flash.c ****     if (READ_BIT(FLASH->CR, FLASH_CR_OPTLOCK) == 0x00U)
 485:Drivers/STM32G0xx_HAL_Driver/Src/stm32g0xx_hal_flash.c ****     {
 486:Drivers/STM32G0xx_HAL_Driver/Src/stm32g0xx_hal_flash.c ****       status = HAL_OK;
 487:Drivers/STM32G0xx_HAL_Driver/Src/stm32g0xx_hal_flash.c ****     }
 488:Drivers/STM32G0xx_HAL_Driver/Src/stm32g0xx_hal_flash.c ****   }
ARM GAS  /tmp/ccvtvpVm.s 			page 10


 489:Drivers/STM32G0xx_HAL_Driver/Src/stm32g0xx_hal_flash.c **** 
 490:Drivers/STM32G0xx_HAL_Driver/Src/stm32g0xx_hal_flash.c ****   return status;
 491:Drivers/STM32G0xx_HAL_Driver/Src/stm32g0xx_hal_flash.c **** }
 492:Drivers/STM32G0xx_HAL_Driver/Src/stm32g0xx_hal_flash.c **** 
 493:Drivers/STM32G0xx_HAL_Driver/Src/stm32g0xx_hal_flash.c **** /**
 494:Drivers/STM32G0xx_HAL_Driver/Src/stm32g0xx_hal_flash.c ****   * @brief  Lock the FLASH Option Bytes Registers access.
 495:Drivers/STM32G0xx_HAL_Driver/Src/stm32g0xx_hal_flash.c ****   * @retval HAL Status
 496:Drivers/STM32G0xx_HAL_Driver/Src/stm32g0xx_hal_flash.c ****   */
 497:Drivers/STM32G0xx_HAL_Driver/Src/stm32g0xx_hal_flash.c **** HAL_StatusTypeDef HAL_FLASH_OB_Lock(void)
 498:Drivers/STM32G0xx_HAL_Driver/Src/stm32g0xx_hal_flash.c **** {
 499:Drivers/STM32G0xx_HAL_Driver/Src/stm32g0xx_hal_flash.c ****   HAL_StatusTypeDef status = HAL_ERROR;
 500:Drivers/STM32G0xx_HAL_Driver/Src/stm32g0xx_hal_flash.c **** 
 501:Drivers/STM32G0xx_HAL_Driver/Src/stm32g0xx_hal_flash.c ****   /* Set the OPTLOCK Bit to lock the FLASH Option Byte Registers access */
 502:Drivers/STM32G0xx_HAL_Driver/Src/stm32g0xx_hal_flash.c ****   SET_BIT(FLASH->CR, FLASH_CR_OPTLOCK);
 503:Drivers/STM32G0xx_HAL_Driver/Src/stm32g0xx_hal_flash.c **** 
 504:Drivers/STM32G0xx_HAL_Driver/Src/stm32g0xx_hal_flash.c ****   /* verify option bytes are locked */
 505:Drivers/STM32G0xx_HAL_Driver/Src/stm32g0xx_hal_flash.c ****   if (READ_BIT(FLASH->CR, FLASH_CR_OPTLOCK) != 0x00u)
 506:Drivers/STM32G0xx_HAL_Driver/Src/stm32g0xx_hal_flash.c ****   {
 507:Drivers/STM32G0xx_HAL_Driver/Src/stm32g0xx_hal_flash.c ****     status = HAL_OK;
 508:Drivers/STM32G0xx_HAL_Driver/Src/stm32g0xx_hal_flash.c ****   }
 509:Drivers/STM32G0xx_HAL_Driver/Src/stm32g0xx_hal_flash.c **** 
 510:Drivers/STM32G0xx_HAL_Driver/Src/stm32g0xx_hal_flash.c ****   return status;
 511:Drivers/STM32G0xx_HAL_Driver/Src/stm32g0xx_hal_flash.c **** }
 512:Drivers/STM32G0xx_HAL_Driver/Src/stm32g0xx_hal_flash.c **** 
 513:Drivers/STM32G0xx_HAL_Driver/Src/stm32g0xx_hal_flash.c **** /**
 514:Drivers/STM32G0xx_HAL_Driver/Src/stm32g0xx_hal_flash.c ****   * @brief  Launch the option byte loading.
 515:Drivers/STM32G0xx_HAL_Driver/Src/stm32g0xx_hal_flash.c ****   * @retval HAL Status
 516:Drivers/STM32G0xx_HAL_Driver/Src/stm32g0xx_hal_flash.c ****   */
 517:Drivers/STM32G0xx_HAL_Driver/Src/stm32g0xx_hal_flash.c **** HAL_StatusTypeDef HAL_FLASH_OB_Launch(void)
 518:Drivers/STM32G0xx_HAL_Driver/Src/stm32g0xx_hal_flash.c **** {
 519:Drivers/STM32G0xx_HAL_Driver/Src/stm32g0xx_hal_flash.c ****   /* Set the bit to force the option byte reloading */
 520:Drivers/STM32G0xx_HAL_Driver/Src/stm32g0xx_hal_flash.c ****   SET_BIT(FLASH->CR, FLASH_CR_OBL_LAUNCH);
 521:Drivers/STM32G0xx_HAL_Driver/Src/stm32g0xx_hal_flash.c **** 
 522:Drivers/STM32G0xx_HAL_Driver/Src/stm32g0xx_hal_flash.c ****   /* We should not reach here : Option byte launch generates Option byte reset
 523:Drivers/STM32G0xx_HAL_Driver/Src/stm32g0xx_hal_flash.c ****      so return error */
 524:Drivers/STM32G0xx_HAL_Driver/Src/stm32g0xx_hal_flash.c ****   return HAL_ERROR;
 525:Drivers/STM32G0xx_HAL_Driver/Src/stm32g0xx_hal_flash.c **** }
 526:Drivers/STM32G0xx_HAL_Driver/Src/stm32g0xx_hal_flash.c **** 
 527:Drivers/STM32G0xx_HAL_Driver/Src/stm32g0xx_hal_flash.c **** /**
 528:Drivers/STM32G0xx_HAL_Driver/Src/stm32g0xx_hal_flash.c ****   * @}
 529:Drivers/STM32G0xx_HAL_Driver/Src/stm32g0xx_hal_flash.c ****   */
 530:Drivers/STM32G0xx_HAL_Driver/Src/stm32g0xx_hal_flash.c **** 
 531:Drivers/STM32G0xx_HAL_Driver/Src/stm32g0xx_hal_flash.c **** /** @defgroup FLASH_Exported_Functions_Group3 Peripheral State and Errors functions
 532:Drivers/STM32G0xx_HAL_Driver/Src/stm32g0xx_hal_flash.c ****  *  @brief   Peripheral Errors functions
 533:Drivers/STM32G0xx_HAL_Driver/Src/stm32g0xx_hal_flash.c ****  *
 534:Drivers/STM32G0xx_HAL_Driver/Src/stm32g0xx_hal_flash.c **** @verbatim
 535:Drivers/STM32G0xx_HAL_Driver/Src/stm32g0xx_hal_flash.c ****  ===============================================================================
 536:Drivers/STM32G0xx_HAL_Driver/Src/stm32g0xx_hal_flash.c ****                 ##### Peripheral Errors functions #####
 537:Drivers/STM32G0xx_HAL_Driver/Src/stm32g0xx_hal_flash.c ****  ===============================================================================
 538:Drivers/STM32G0xx_HAL_Driver/Src/stm32g0xx_hal_flash.c ****     [..]
 539:Drivers/STM32G0xx_HAL_Driver/Src/stm32g0xx_hal_flash.c ****     This subsection permits to get in run-time Errors of the FLASH peripheral.
 540:Drivers/STM32G0xx_HAL_Driver/Src/stm32g0xx_hal_flash.c **** 
 541:Drivers/STM32G0xx_HAL_Driver/Src/stm32g0xx_hal_flash.c **** @endverbatim
 542:Drivers/STM32G0xx_HAL_Driver/Src/stm32g0xx_hal_flash.c ****   * @{
 543:Drivers/STM32G0xx_HAL_Driver/Src/stm32g0xx_hal_flash.c ****   */
 544:Drivers/STM32G0xx_HAL_Driver/Src/stm32g0xx_hal_flash.c **** 
 545:Drivers/STM32G0xx_HAL_Driver/Src/stm32g0xx_hal_flash.c **** /**
ARM GAS  /tmp/ccvtvpVm.s 			page 11


 546:Drivers/STM32G0xx_HAL_Driver/Src/stm32g0xx_hal_flash.c ****   * @brief  Get the specific FLASH error flag.
 547:Drivers/STM32G0xx_HAL_Driver/Src/stm32g0xx_hal_flash.c ****   * @retval FLASH_ErrorCode The returned value can be
 548:Drivers/STM32G0xx_HAL_Driver/Src/stm32g0xx_hal_flash.c ****   *            @arg @ref HAL_FLASH_ERROR_NONE No error set
 549:Drivers/STM32G0xx_HAL_Driver/Src/stm32g0xx_hal_flash.c ****   *            @arg @ref HAL_FLASH_ERROR_OP FLASH Operation error
 550:Drivers/STM32G0xx_HAL_Driver/Src/stm32g0xx_hal_flash.c ****   *            @arg @ref HAL_FLASH_ERROR_PROG FLASH Programming error
 551:Drivers/STM32G0xx_HAL_Driver/Src/stm32g0xx_hal_flash.c ****   *            @arg @ref HAL_FLASH_ERROR_WRP FLASH Write protection error
 552:Drivers/STM32G0xx_HAL_Driver/Src/stm32g0xx_hal_flash.c ****   *            @arg @ref HAL_FLASH_ERROR_PGA FLASH Programming alignment error
 553:Drivers/STM32G0xx_HAL_Driver/Src/stm32g0xx_hal_flash.c ****   *            @arg @ref HAL_FLASH_ERROR_SIZ FLASH Size error
 554:Drivers/STM32G0xx_HAL_Driver/Src/stm32g0xx_hal_flash.c ****   *            @arg @ref HAL_FLASH_ERROR_PGS FLASH Programming sequence error
 555:Drivers/STM32G0xx_HAL_Driver/Src/stm32g0xx_hal_flash.c ****   *            @arg @ref HAL_FLASH_ERROR_MIS FLASH Fast programming data miss error
 556:Drivers/STM32G0xx_HAL_Driver/Src/stm32g0xx_hal_flash.c ****   *            @arg @ref HAL_FLASH_ERROR_FAST FLASH Fast programming error
 557:Drivers/STM32G0xx_HAL_Driver/Src/stm32g0xx_hal_flash.c ****   *            @arg @ref HAL_FLASH_ERROR_RD FLASH Read Protection error (PCROP)(*)
 558:Drivers/STM32G0xx_HAL_Driver/Src/stm32g0xx_hal_flash.c ****   *            @arg @ref HAL_FLASH_ERROR_OPTV FLASH Option validity error
 559:Drivers/STM32G0xx_HAL_Driver/Src/stm32g0xx_hal_flash.c ****   *            @arg @ref HAL_FLASH_ERROR_ECCD FLASH two ECC errors have been detected
 560:Drivers/STM32G0xx_HAL_Driver/Src/stm32g0xx_hal_flash.c ****   * @note (*) availability depends on devices
 561:Drivers/STM32G0xx_HAL_Driver/Src/stm32g0xx_hal_flash.c ****   */
 562:Drivers/STM32G0xx_HAL_Driver/Src/stm32g0xx_hal_flash.c **** uint32_t HAL_FLASH_GetError(void)
 563:Drivers/STM32G0xx_HAL_Driver/Src/stm32g0xx_hal_flash.c **** {
 564:Drivers/STM32G0xx_HAL_Driver/Src/stm32g0xx_hal_flash.c ****   return pFlash.ErrorCode;
 565:Drivers/STM32G0xx_HAL_Driver/Src/stm32g0xx_hal_flash.c **** }
 566:Drivers/STM32G0xx_HAL_Driver/Src/stm32g0xx_hal_flash.c **** 
 567:Drivers/STM32G0xx_HAL_Driver/Src/stm32g0xx_hal_flash.c **** /**
 568:Drivers/STM32G0xx_HAL_Driver/Src/stm32g0xx_hal_flash.c ****   * @}
 569:Drivers/STM32G0xx_HAL_Driver/Src/stm32g0xx_hal_flash.c ****   */
 570:Drivers/STM32G0xx_HAL_Driver/Src/stm32g0xx_hal_flash.c **** 
 571:Drivers/STM32G0xx_HAL_Driver/Src/stm32g0xx_hal_flash.c **** /**
 572:Drivers/STM32G0xx_HAL_Driver/Src/stm32g0xx_hal_flash.c ****   * @}
 573:Drivers/STM32G0xx_HAL_Driver/Src/stm32g0xx_hal_flash.c ****   */
 574:Drivers/STM32G0xx_HAL_Driver/Src/stm32g0xx_hal_flash.c **** 
 575:Drivers/STM32G0xx_HAL_Driver/Src/stm32g0xx_hal_flash.c **** /* Private functions ---------------------------------------------------------*/
 576:Drivers/STM32G0xx_HAL_Driver/Src/stm32g0xx_hal_flash.c **** 
 577:Drivers/STM32G0xx_HAL_Driver/Src/stm32g0xx_hal_flash.c **** /** @addtogroup FLASH_Private_Functions
 578:Drivers/STM32G0xx_HAL_Driver/Src/stm32g0xx_hal_flash.c ****   * @{
 579:Drivers/STM32G0xx_HAL_Driver/Src/stm32g0xx_hal_flash.c ****   */
 580:Drivers/STM32G0xx_HAL_Driver/Src/stm32g0xx_hal_flash.c **** 
 581:Drivers/STM32G0xx_HAL_Driver/Src/stm32g0xx_hal_flash.c **** /**
 582:Drivers/STM32G0xx_HAL_Driver/Src/stm32g0xx_hal_flash.c ****   * @brief  Wait for a FLASH operation to complete.
 583:Drivers/STM32G0xx_HAL_Driver/Src/stm32g0xx_hal_flash.c ****   * @param  Timeout maximum flash operation timeout
 584:Drivers/STM32G0xx_HAL_Driver/Src/stm32g0xx_hal_flash.c ****   * @retval HAL_StatusTypeDef HAL Status
 585:Drivers/STM32G0xx_HAL_Driver/Src/stm32g0xx_hal_flash.c ****   */
 586:Drivers/STM32G0xx_HAL_Driver/Src/stm32g0xx_hal_flash.c **** HAL_StatusTypeDef FLASH_WaitForLastOperation(uint32_t Timeout)
 587:Drivers/STM32G0xx_HAL_Driver/Src/stm32g0xx_hal_flash.c **** {
 588:Drivers/STM32G0xx_HAL_Driver/Src/stm32g0xx_hal_flash.c ****   uint32_t error;
 589:Drivers/STM32G0xx_HAL_Driver/Src/stm32g0xx_hal_flash.c ****   uint32_t eccerr;
 590:Drivers/STM32G0xx_HAL_Driver/Src/stm32g0xx_hal_flash.c ****   /* Wait for the FLASH operation to complete by polling on BUSY flag to be reset.
 591:Drivers/STM32G0xx_HAL_Driver/Src/stm32g0xx_hal_flash.c ****      Even if the FLASH operation fails, the BUSY flag will be reset and an error
 592:Drivers/STM32G0xx_HAL_Driver/Src/stm32g0xx_hal_flash.c ****      flag will be set */
 593:Drivers/STM32G0xx_HAL_Driver/Src/stm32g0xx_hal_flash.c ****   uint32_t timeout = HAL_GetTick() + Timeout;
 594:Drivers/STM32G0xx_HAL_Driver/Src/stm32g0xx_hal_flash.c **** 
 595:Drivers/STM32G0xx_HAL_Driver/Src/stm32g0xx_hal_flash.c ****   /* Wait if any operation is ongoing */
 596:Drivers/STM32G0xx_HAL_Driver/Src/stm32g0xx_hal_flash.c ****   while (__HAL_FLASH_GET_FLAG(FLASH_FLAG_BSY) != 0x00U)
 597:Drivers/STM32G0xx_HAL_Driver/Src/stm32g0xx_hal_flash.c ****   {
 598:Drivers/STM32G0xx_HAL_Driver/Src/stm32g0xx_hal_flash.c ****     if (HAL_GetTick() >= timeout)
 599:Drivers/STM32G0xx_HAL_Driver/Src/stm32g0xx_hal_flash.c ****     {
 600:Drivers/STM32G0xx_HAL_Driver/Src/stm32g0xx_hal_flash.c ****       return HAL_TIMEOUT;
 601:Drivers/STM32G0xx_HAL_Driver/Src/stm32g0xx_hal_flash.c ****     }
 602:Drivers/STM32G0xx_HAL_Driver/Src/stm32g0xx_hal_flash.c ****   }
ARM GAS  /tmp/ccvtvpVm.s 			page 12


 603:Drivers/STM32G0xx_HAL_Driver/Src/stm32g0xx_hal_flash.c **** 
 604:Drivers/STM32G0xx_HAL_Driver/Src/stm32g0xx_hal_flash.c ****   /* check flash errors. Only ECC correction can be checked here as ECCD
 605:Drivers/STM32G0xx_HAL_Driver/Src/stm32g0xx_hal_flash.c ****       generates NMI */
 606:Drivers/STM32G0xx_HAL_Driver/Src/stm32g0xx_hal_flash.c ****   error = (FLASH->SR & FLASH_FLAG_SR_ERROR);
 607:Drivers/STM32G0xx_HAL_Driver/Src/stm32g0xx_hal_flash.c **** 
 608:Drivers/STM32G0xx_HAL_Driver/Src/stm32g0xx_hal_flash.c ****   /* Clear SR register */
 609:Drivers/STM32G0xx_HAL_Driver/Src/stm32g0xx_hal_flash.c ****   FLASH->SR = FLASH_FLAG_SR_CLEAR;
 610:Drivers/STM32G0xx_HAL_Driver/Src/stm32g0xx_hal_flash.c **** 
 611:Drivers/STM32G0xx_HAL_Driver/Src/stm32g0xx_hal_flash.c ****   /* Update error with ECC error value */
 612:Drivers/STM32G0xx_HAL_Driver/Src/stm32g0xx_hal_flash.c ****   eccerr = (FLASH->ECCR & FLASH_FLAG_ECCC);
 613:Drivers/STM32G0xx_HAL_Driver/Src/stm32g0xx_hal_flash.c **** 
 614:Drivers/STM32G0xx_HAL_Driver/Src/stm32g0xx_hal_flash.c ****   if(eccerr != 0x00u)
 615:Drivers/STM32G0xx_HAL_Driver/Src/stm32g0xx_hal_flash.c ****   {
 616:Drivers/STM32G0xx_HAL_Driver/Src/stm32g0xx_hal_flash.c ****     FLASH->ECCR |= eccerr;
 617:Drivers/STM32G0xx_HAL_Driver/Src/stm32g0xx_hal_flash.c ****     error |= eccerr;
 618:Drivers/STM32G0xx_HAL_Driver/Src/stm32g0xx_hal_flash.c ****   }
 619:Drivers/STM32G0xx_HAL_Driver/Src/stm32g0xx_hal_flash.c **** 
 620:Drivers/STM32G0xx_HAL_Driver/Src/stm32g0xx_hal_flash.c ****   if (error != 0x00U)
 621:Drivers/STM32G0xx_HAL_Driver/Src/stm32g0xx_hal_flash.c ****   {
 622:Drivers/STM32G0xx_HAL_Driver/Src/stm32g0xx_hal_flash.c ****     /*Save the error code*/
 623:Drivers/STM32G0xx_HAL_Driver/Src/stm32g0xx_hal_flash.c ****     pFlash.ErrorCode = error;
 624:Drivers/STM32G0xx_HAL_Driver/Src/stm32g0xx_hal_flash.c **** 
 625:Drivers/STM32G0xx_HAL_Driver/Src/stm32g0xx_hal_flash.c ****     return HAL_ERROR;
 626:Drivers/STM32G0xx_HAL_Driver/Src/stm32g0xx_hal_flash.c ****   }
 627:Drivers/STM32G0xx_HAL_Driver/Src/stm32g0xx_hal_flash.c **** 
 628:Drivers/STM32G0xx_HAL_Driver/Src/stm32g0xx_hal_flash.c ****   /* Wait for control register to be written */
 629:Drivers/STM32G0xx_HAL_Driver/Src/stm32g0xx_hal_flash.c ****   timeout = HAL_GetTick() + Timeout;
 630:Drivers/STM32G0xx_HAL_Driver/Src/stm32g0xx_hal_flash.c **** 
 631:Drivers/STM32G0xx_HAL_Driver/Src/stm32g0xx_hal_flash.c ****   while (__HAL_FLASH_GET_FLAG(FLASH_FLAG_CFGBSY) != 0x00U)
 632:Drivers/STM32G0xx_HAL_Driver/Src/stm32g0xx_hal_flash.c ****   {
 633:Drivers/STM32G0xx_HAL_Driver/Src/stm32g0xx_hal_flash.c ****     if (HAL_GetTick() >= timeout)
 634:Drivers/STM32G0xx_HAL_Driver/Src/stm32g0xx_hal_flash.c ****     {
 635:Drivers/STM32G0xx_HAL_Driver/Src/stm32g0xx_hal_flash.c ****       return HAL_TIMEOUT;
 636:Drivers/STM32G0xx_HAL_Driver/Src/stm32g0xx_hal_flash.c ****     }
 637:Drivers/STM32G0xx_HAL_Driver/Src/stm32g0xx_hal_flash.c ****   }
 638:Drivers/STM32G0xx_HAL_Driver/Src/stm32g0xx_hal_flash.c **** 
 639:Drivers/STM32G0xx_HAL_Driver/Src/stm32g0xx_hal_flash.c ****   return HAL_OK;
 640:Drivers/STM32G0xx_HAL_Driver/Src/stm32g0xx_hal_flash.c **** }
 641:Drivers/STM32G0xx_HAL_Driver/Src/stm32g0xx_hal_flash.c **** 
 642:Drivers/STM32G0xx_HAL_Driver/Src/stm32g0xx_hal_flash.c **** /**
 643:Drivers/STM32G0xx_HAL_Driver/Src/stm32g0xx_hal_flash.c ****   * @brief  Program double-word (64-bit) at a specified address.
 644:Drivers/STM32G0xx_HAL_Driver/Src/stm32g0xx_hal_flash.c ****   * @param  Address Specifies the address to be programmed.
 645:Drivers/STM32G0xx_HAL_Driver/Src/stm32g0xx_hal_flash.c ****   * @param  Data Specifies the data to be programmed.
 646:Drivers/STM32G0xx_HAL_Driver/Src/stm32g0xx_hal_flash.c ****   * @retval None
 647:Drivers/STM32G0xx_HAL_Driver/Src/stm32g0xx_hal_flash.c ****   */
 648:Drivers/STM32G0xx_HAL_Driver/Src/stm32g0xx_hal_flash.c **** static void FLASH_Program_DoubleWord(uint32_t Address, uint64_t Data)
 649:Drivers/STM32G0xx_HAL_Driver/Src/stm32g0xx_hal_flash.c **** {
 650:Drivers/STM32G0xx_HAL_Driver/Src/stm32g0xx_hal_flash.c ****   /* Set PG bit */
 651:Drivers/STM32G0xx_HAL_Driver/Src/stm32g0xx_hal_flash.c ****   SET_BIT(FLASH->CR, FLASH_CR_PG);
 652:Drivers/STM32G0xx_HAL_Driver/Src/stm32g0xx_hal_flash.c **** 
 653:Drivers/STM32G0xx_HAL_Driver/Src/stm32g0xx_hal_flash.c ****   /* Program first word */
 654:Drivers/STM32G0xx_HAL_Driver/Src/stm32g0xx_hal_flash.c ****   *(uint32_t *)Address = (uint32_t)Data;
 655:Drivers/STM32G0xx_HAL_Driver/Src/stm32g0xx_hal_flash.c **** 
 656:Drivers/STM32G0xx_HAL_Driver/Src/stm32g0xx_hal_flash.c ****   /* Barrier to ensure programming is performed in 2 steps, in right order
 657:Drivers/STM32G0xx_HAL_Driver/Src/stm32g0xx_hal_flash.c ****     (independently of compiler optimization behavior) */
 658:Drivers/STM32G0xx_HAL_Driver/Src/stm32g0xx_hal_flash.c ****   __ISB();
 659:Drivers/STM32G0xx_HAL_Driver/Src/stm32g0xx_hal_flash.c **** 
ARM GAS  /tmp/ccvtvpVm.s 			page 13


 660:Drivers/STM32G0xx_HAL_Driver/Src/stm32g0xx_hal_flash.c ****   /* Program second word */
 661:Drivers/STM32G0xx_HAL_Driver/Src/stm32g0xx_hal_flash.c ****   *(uint32_t *)(Address + 4U) = (uint32_t)(Data >> 32U);
 662:Drivers/STM32G0xx_HAL_Driver/Src/stm32g0xx_hal_flash.c **** }
 663:Drivers/STM32G0xx_HAL_Driver/Src/stm32g0xx_hal_flash.c **** 
 664:Drivers/STM32G0xx_HAL_Driver/Src/stm32g0xx_hal_flash.c **** /**
 665:Drivers/STM32G0xx_HAL_Driver/Src/stm32g0xx_hal_flash.c ****   * @brief  Fast program a 32 row double-word (64-bit) at a specified address.
 666:Drivers/STM32G0xx_HAL_Driver/Src/stm32g0xx_hal_flash.c ****   * @param  Address Specifies the address to be programmed.
 667:Drivers/STM32G0xx_HAL_Driver/Src/stm32g0xx_hal_flash.c ****   * @param  DataAddress Specifies the address where the data are stored.
 668:Drivers/STM32G0xx_HAL_Driver/Src/stm32g0xx_hal_flash.c ****   * @retval None
 669:Drivers/STM32G0xx_HAL_Driver/Src/stm32g0xx_hal_flash.c ****   */
 670:Drivers/STM32G0xx_HAL_Driver/Src/stm32g0xx_hal_flash.c **** static __RAM_FUNC void FLASH_Program_Fast(uint32_t Address, uint32_t DataAddress)
 671:Drivers/STM32G0xx_HAL_Driver/Src/stm32g0xx_hal_flash.c **** {
  27              		.loc 1 671 1 view -0
  28              		.cfi_startproc
  29              		@ args = 0, pretend = 0, frame = 0
  30              		@ frame_needed = 0, uses_anonymous_args = 0
 672:Drivers/STM32G0xx_HAL_Driver/Src/stm32g0xx_hal_flash.c ****   uint8_t index = 0;
  31              		.loc 1 672 3 view .LVU1
 673:Drivers/STM32G0xx_HAL_Driver/Src/stm32g0xx_hal_flash.c ****   uint32_t dest = Address;
  32              		.loc 1 673 3 view .LVU2
 674:Drivers/STM32G0xx_HAL_Driver/Src/stm32g0xx_hal_flash.c ****   uint32_t src = DataAddress;
  33              		.loc 1 674 3 view .LVU3
 675:Drivers/STM32G0xx_HAL_Driver/Src/stm32g0xx_hal_flash.c ****   uint32_t primask_bit;
  34              		.loc 1 675 3 view .LVU4
 676:Drivers/STM32G0xx_HAL_Driver/Src/stm32g0xx_hal_flash.c **** 
 677:Drivers/STM32G0xx_HAL_Driver/Src/stm32g0xx_hal_flash.c ****   /* Set FSTPG bit */
 678:Drivers/STM32G0xx_HAL_Driver/Src/stm32g0xx_hal_flash.c ****   SET_BIT(FLASH->CR, FLASH_CR_FSTPG);
  35              		.loc 1 678 3 view .LVU5
  36 0000 8022     		movs	r2, #128
  37 0002 0C4B     		ldr	r3, .L6
 671:Drivers/STM32G0xx_HAL_Driver/Src/stm32g0xx_hal_flash.c ****   uint8_t index = 0;
  38              		.loc 1 671 1 is_stmt 0 view .LVU6
  39 0004 30B5     		push	{r4, r5, lr}
  40              	.LCFI0:
  41              		.cfi_def_cfa_offset 12
  42              		.cfi_offset 4, -12
  43              		.cfi_offset 5, -8
  44              		.cfi_offset 14, -4
  45              		.loc 1 678 3 view .LVU7
  46 0006 5C69     		ldr	r4, [r3, #20]
  47 0008 D202     		lsls	r2, r2, #11
  48 000a 2243     		orrs	r2, r4
  49 000c 5A61     		str	r2, [r3, #20]
 679:Drivers/STM32G0xx_HAL_Driver/Src/stm32g0xx_hal_flash.c **** 
 680:Drivers/STM32G0xx_HAL_Driver/Src/stm32g0xx_hal_flash.c ****   /* Enter critical section: row programming should not be longer than 7 ms */
 681:Drivers/STM32G0xx_HAL_Driver/Src/stm32g0xx_hal_flash.c ****   primask_bit = __get_PRIMASK();
  50              		.loc 1 681 3 is_stmt 1 view .LVU8
  51              	.LBB10:
  52              	.LBI10:
  53              		.file 2 "Drivers/CMSIS/Include/cmsis_gcc.h"
   1:Drivers/CMSIS/Include/cmsis_gcc.h **** /**************************************************************************//**
   2:Drivers/CMSIS/Include/cmsis_gcc.h ****  * @file     cmsis_gcc.h
   3:Drivers/CMSIS/Include/cmsis_gcc.h ****  * @brief    CMSIS compiler GCC header file
   4:Drivers/CMSIS/Include/cmsis_gcc.h ****  * @version  V5.0.4
   5:Drivers/CMSIS/Include/cmsis_gcc.h ****  * @date     09. April 2018
   6:Drivers/CMSIS/Include/cmsis_gcc.h ****  ******************************************************************************/
   7:Drivers/CMSIS/Include/cmsis_gcc.h **** /*
ARM GAS  /tmp/ccvtvpVm.s 			page 14


   8:Drivers/CMSIS/Include/cmsis_gcc.h ****  * Copyright (c) 2009-2018 Arm Limited. All rights reserved.
   9:Drivers/CMSIS/Include/cmsis_gcc.h ****  *
  10:Drivers/CMSIS/Include/cmsis_gcc.h ****  * SPDX-License-Identifier: Apache-2.0
  11:Drivers/CMSIS/Include/cmsis_gcc.h ****  *
  12:Drivers/CMSIS/Include/cmsis_gcc.h ****  * Licensed under the Apache License, Version 2.0 (the License); you may
  13:Drivers/CMSIS/Include/cmsis_gcc.h ****  * not use this file except in compliance with the License.
  14:Drivers/CMSIS/Include/cmsis_gcc.h ****  * You may obtain a copy of the License at
  15:Drivers/CMSIS/Include/cmsis_gcc.h ****  *
  16:Drivers/CMSIS/Include/cmsis_gcc.h ****  * www.apache.org/licenses/LICENSE-2.0
  17:Drivers/CMSIS/Include/cmsis_gcc.h ****  *
  18:Drivers/CMSIS/Include/cmsis_gcc.h ****  * Unless required by applicable law or agreed to in writing, software
  19:Drivers/CMSIS/Include/cmsis_gcc.h ****  * distributed under the License is distributed on an AS IS BASIS, WITHOUT
  20:Drivers/CMSIS/Include/cmsis_gcc.h ****  * WARRANTIES OR CONDITIONS OF ANY KIND, either express or implied.
  21:Drivers/CMSIS/Include/cmsis_gcc.h ****  * See the License for the specific language governing permissions and
  22:Drivers/CMSIS/Include/cmsis_gcc.h ****  * limitations under the License.
  23:Drivers/CMSIS/Include/cmsis_gcc.h ****  */
  24:Drivers/CMSIS/Include/cmsis_gcc.h **** 
  25:Drivers/CMSIS/Include/cmsis_gcc.h **** #ifndef __CMSIS_GCC_H
  26:Drivers/CMSIS/Include/cmsis_gcc.h **** #define __CMSIS_GCC_H
  27:Drivers/CMSIS/Include/cmsis_gcc.h **** 
  28:Drivers/CMSIS/Include/cmsis_gcc.h **** /* ignore some GCC warnings */
  29:Drivers/CMSIS/Include/cmsis_gcc.h **** #pragma GCC diagnostic push
  30:Drivers/CMSIS/Include/cmsis_gcc.h **** #pragma GCC diagnostic ignored "-Wsign-conversion"
  31:Drivers/CMSIS/Include/cmsis_gcc.h **** #pragma GCC diagnostic ignored "-Wconversion"
  32:Drivers/CMSIS/Include/cmsis_gcc.h **** #pragma GCC diagnostic ignored "-Wunused-parameter"
  33:Drivers/CMSIS/Include/cmsis_gcc.h **** 
  34:Drivers/CMSIS/Include/cmsis_gcc.h **** /* Fallback for __has_builtin */
  35:Drivers/CMSIS/Include/cmsis_gcc.h **** #ifndef __has_builtin
  36:Drivers/CMSIS/Include/cmsis_gcc.h ****   #define __has_builtin(x) (0)
  37:Drivers/CMSIS/Include/cmsis_gcc.h **** #endif
  38:Drivers/CMSIS/Include/cmsis_gcc.h **** 
  39:Drivers/CMSIS/Include/cmsis_gcc.h **** /* CMSIS compiler specific defines */
  40:Drivers/CMSIS/Include/cmsis_gcc.h **** #ifndef   __ASM
  41:Drivers/CMSIS/Include/cmsis_gcc.h ****   #define __ASM                                  __asm
  42:Drivers/CMSIS/Include/cmsis_gcc.h **** #endif
  43:Drivers/CMSIS/Include/cmsis_gcc.h **** #ifndef   __INLINE
  44:Drivers/CMSIS/Include/cmsis_gcc.h ****   #define __INLINE                               inline
  45:Drivers/CMSIS/Include/cmsis_gcc.h **** #endif
  46:Drivers/CMSIS/Include/cmsis_gcc.h **** #ifndef   __STATIC_INLINE
  47:Drivers/CMSIS/Include/cmsis_gcc.h ****   #define __STATIC_INLINE                        static inline
  48:Drivers/CMSIS/Include/cmsis_gcc.h **** #endif
  49:Drivers/CMSIS/Include/cmsis_gcc.h **** #ifndef   __STATIC_FORCEINLINE                 
  50:Drivers/CMSIS/Include/cmsis_gcc.h ****   #define __STATIC_FORCEINLINE                   __attribute__((always_inline)) static inline
  51:Drivers/CMSIS/Include/cmsis_gcc.h **** #endif                                           
  52:Drivers/CMSIS/Include/cmsis_gcc.h **** #ifndef   __NO_RETURN
  53:Drivers/CMSIS/Include/cmsis_gcc.h ****   #define __NO_RETURN                            __attribute__((__noreturn__))
  54:Drivers/CMSIS/Include/cmsis_gcc.h **** #endif
  55:Drivers/CMSIS/Include/cmsis_gcc.h **** #ifndef   __USED
  56:Drivers/CMSIS/Include/cmsis_gcc.h ****   #define __USED                                 __attribute__((used))
  57:Drivers/CMSIS/Include/cmsis_gcc.h **** #endif
  58:Drivers/CMSIS/Include/cmsis_gcc.h **** #ifndef   __WEAK
  59:Drivers/CMSIS/Include/cmsis_gcc.h ****   #define __WEAK                                 __attribute__((weak))
  60:Drivers/CMSIS/Include/cmsis_gcc.h **** #endif
  61:Drivers/CMSIS/Include/cmsis_gcc.h **** #ifndef   __PACKED
  62:Drivers/CMSIS/Include/cmsis_gcc.h ****   #define __PACKED                               __attribute__((packed, aligned(1)))
  63:Drivers/CMSIS/Include/cmsis_gcc.h **** #endif
  64:Drivers/CMSIS/Include/cmsis_gcc.h **** #ifndef   __PACKED_STRUCT
ARM GAS  /tmp/ccvtvpVm.s 			page 15


  65:Drivers/CMSIS/Include/cmsis_gcc.h ****   #define __PACKED_STRUCT                        struct __attribute__((packed, aligned(1)))
  66:Drivers/CMSIS/Include/cmsis_gcc.h **** #endif
  67:Drivers/CMSIS/Include/cmsis_gcc.h **** #ifndef   __PACKED_UNION
  68:Drivers/CMSIS/Include/cmsis_gcc.h ****   #define __PACKED_UNION                         union __attribute__((packed, aligned(1)))
  69:Drivers/CMSIS/Include/cmsis_gcc.h **** #endif
  70:Drivers/CMSIS/Include/cmsis_gcc.h **** #ifndef   __UNALIGNED_UINT32        /* deprecated */
  71:Drivers/CMSIS/Include/cmsis_gcc.h ****   #pragma GCC diagnostic push
  72:Drivers/CMSIS/Include/cmsis_gcc.h ****   #pragma GCC diagnostic ignored "-Wpacked"
  73:Drivers/CMSIS/Include/cmsis_gcc.h ****   #pragma GCC diagnostic ignored "-Wattributes"
  74:Drivers/CMSIS/Include/cmsis_gcc.h ****   struct __attribute__((packed)) T_UINT32 { uint32_t v; };
  75:Drivers/CMSIS/Include/cmsis_gcc.h ****   #pragma GCC diagnostic pop
  76:Drivers/CMSIS/Include/cmsis_gcc.h ****   #define __UNALIGNED_UINT32(x)                  (((struct T_UINT32 *)(x))->v)
  77:Drivers/CMSIS/Include/cmsis_gcc.h **** #endif
  78:Drivers/CMSIS/Include/cmsis_gcc.h **** #ifndef   __UNALIGNED_UINT16_WRITE
  79:Drivers/CMSIS/Include/cmsis_gcc.h ****   #pragma GCC diagnostic push
  80:Drivers/CMSIS/Include/cmsis_gcc.h ****   #pragma GCC diagnostic ignored "-Wpacked"
  81:Drivers/CMSIS/Include/cmsis_gcc.h ****   #pragma GCC diagnostic ignored "-Wattributes"
  82:Drivers/CMSIS/Include/cmsis_gcc.h ****   __PACKED_STRUCT T_UINT16_WRITE { uint16_t v; };
  83:Drivers/CMSIS/Include/cmsis_gcc.h ****   #pragma GCC diagnostic pop
  84:Drivers/CMSIS/Include/cmsis_gcc.h ****   #define __UNALIGNED_UINT16_WRITE(addr, val)    (void)((((struct T_UINT16_WRITE *)(void *)(addr))-
  85:Drivers/CMSIS/Include/cmsis_gcc.h **** #endif
  86:Drivers/CMSIS/Include/cmsis_gcc.h **** #ifndef   __UNALIGNED_UINT16_READ
  87:Drivers/CMSIS/Include/cmsis_gcc.h ****   #pragma GCC diagnostic push
  88:Drivers/CMSIS/Include/cmsis_gcc.h ****   #pragma GCC diagnostic ignored "-Wpacked"
  89:Drivers/CMSIS/Include/cmsis_gcc.h ****   #pragma GCC diagnostic ignored "-Wattributes"
  90:Drivers/CMSIS/Include/cmsis_gcc.h ****   __PACKED_STRUCT T_UINT16_READ { uint16_t v; };
  91:Drivers/CMSIS/Include/cmsis_gcc.h ****   #pragma GCC diagnostic pop
  92:Drivers/CMSIS/Include/cmsis_gcc.h ****   #define __UNALIGNED_UINT16_READ(addr)          (((const struct T_UINT16_READ *)(const void *)(add
  93:Drivers/CMSIS/Include/cmsis_gcc.h **** #endif
  94:Drivers/CMSIS/Include/cmsis_gcc.h **** #ifndef   __UNALIGNED_UINT32_WRITE
  95:Drivers/CMSIS/Include/cmsis_gcc.h ****   #pragma GCC diagnostic push
  96:Drivers/CMSIS/Include/cmsis_gcc.h ****   #pragma GCC diagnostic ignored "-Wpacked"
  97:Drivers/CMSIS/Include/cmsis_gcc.h ****   #pragma GCC diagnostic ignored "-Wattributes"
  98:Drivers/CMSIS/Include/cmsis_gcc.h ****   __PACKED_STRUCT T_UINT32_WRITE { uint32_t v; };
  99:Drivers/CMSIS/Include/cmsis_gcc.h ****   #pragma GCC diagnostic pop
 100:Drivers/CMSIS/Include/cmsis_gcc.h ****   #define __UNALIGNED_UINT32_WRITE(addr, val)    (void)((((struct T_UINT32_WRITE *)(void *)(addr))-
 101:Drivers/CMSIS/Include/cmsis_gcc.h **** #endif
 102:Drivers/CMSIS/Include/cmsis_gcc.h **** #ifndef   __UNALIGNED_UINT32_READ
 103:Drivers/CMSIS/Include/cmsis_gcc.h ****   #pragma GCC diagnostic push
 104:Drivers/CMSIS/Include/cmsis_gcc.h ****   #pragma GCC diagnostic ignored "-Wpacked"
 105:Drivers/CMSIS/Include/cmsis_gcc.h ****   #pragma GCC diagnostic ignored "-Wattributes"
 106:Drivers/CMSIS/Include/cmsis_gcc.h ****   __PACKED_STRUCT T_UINT32_READ { uint32_t v; };
 107:Drivers/CMSIS/Include/cmsis_gcc.h ****   #pragma GCC diagnostic pop
 108:Drivers/CMSIS/Include/cmsis_gcc.h ****   #define __UNALIGNED_UINT32_READ(addr)          (((const struct T_UINT32_READ *)(const void *)(add
 109:Drivers/CMSIS/Include/cmsis_gcc.h **** #endif
 110:Drivers/CMSIS/Include/cmsis_gcc.h **** #ifndef   __ALIGNED
 111:Drivers/CMSIS/Include/cmsis_gcc.h ****   #define __ALIGNED(x)                           __attribute__((aligned(x)))
 112:Drivers/CMSIS/Include/cmsis_gcc.h **** #endif
 113:Drivers/CMSIS/Include/cmsis_gcc.h **** #ifndef   __RESTRICT
 114:Drivers/CMSIS/Include/cmsis_gcc.h ****   #define __RESTRICT                             __restrict
 115:Drivers/CMSIS/Include/cmsis_gcc.h **** #endif
 116:Drivers/CMSIS/Include/cmsis_gcc.h **** 
 117:Drivers/CMSIS/Include/cmsis_gcc.h **** 
 118:Drivers/CMSIS/Include/cmsis_gcc.h **** /* ###########################  Core Function Access  ########################### */
 119:Drivers/CMSIS/Include/cmsis_gcc.h **** /** \ingroup  CMSIS_Core_FunctionInterface
 120:Drivers/CMSIS/Include/cmsis_gcc.h ****     \defgroup CMSIS_Core_RegAccFunctions CMSIS Core Register Access Functions
 121:Drivers/CMSIS/Include/cmsis_gcc.h ****   @{
ARM GAS  /tmp/ccvtvpVm.s 			page 16


 122:Drivers/CMSIS/Include/cmsis_gcc.h ****  */
 123:Drivers/CMSIS/Include/cmsis_gcc.h **** 
 124:Drivers/CMSIS/Include/cmsis_gcc.h **** /**
 125:Drivers/CMSIS/Include/cmsis_gcc.h ****   \brief   Enable IRQ Interrupts
 126:Drivers/CMSIS/Include/cmsis_gcc.h ****   \details Enables IRQ interrupts by clearing the I-bit in the CPSR.
 127:Drivers/CMSIS/Include/cmsis_gcc.h ****            Can only be executed in Privileged modes.
 128:Drivers/CMSIS/Include/cmsis_gcc.h ****  */
 129:Drivers/CMSIS/Include/cmsis_gcc.h **** __STATIC_FORCEINLINE void __enable_irq(void)
 130:Drivers/CMSIS/Include/cmsis_gcc.h **** {
 131:Drivers/CMSIS/Include/cmsis_gcc.h ****   __ASM volatile ("cpsie i" : : : "memory");
 132:Drivers/CMSIS/Include/cmsis_gcc.h **** }
 133:Drivers/CMSIS/Include/cmsis_gcc.h **** 
 134:Drivers/CMSIS/Include/cmsis_gcc.h **** 
 135:Drivers/CMSIS/Include/cmsis_gcc.h **** /**
 136:Drivers/CMSIS/Include/cmsis_gcc.h ****   \brief   Disable IRQ Interrupts
 137:Drivers/CMSIS/Include/cmsis_gcc.h ****   \details Disables IRQ interrupts by setting the I-bit in the CPSR.
 138:Drivers/CMSIS/Include/cmsis_gcc.h ****            Can only be executed in Privileged modes.
 139:Drivers/CMSIS/Include/cmsis_gcc.h ****  */
 140:Drivers/CMSIS/Include/cmsis_gcc.h **** __STATIC_FORCEINLINE void __disable_irq(void)
 141:Drivers/CMSIS/Include/cmsis_gcc.h **** {
 142:Drivers/CMSIS/Include/cmsis_gcc.h ****   __ASM volatile ("cpsid i" : : : "memory");
 143:Drivers/CMSIS/Include/cmsis_gcc.h **** }
 144:Drivers/CMSIS/Include/cmsis_gcc.h **** 
 145:Drivers/CMSIS/Include/cmsis_gcc.h **** 
 146:Drivers/CMSIS/Include/cmsis_gcc.h **** /**
 147:Drivers/CMSIS/Include/cmsis_gcc.h ****   \brief   Get Control Register
 148:Drivers/CMSIS/Include/cmsis_gcc.h ****   \details Returns the content of the Control Register.
 149:Drivers/CMSIS/Include/cmsis_gcc.h ****   \return               Control Register value
 150:Drivers/CMSIS/Include/cmsis_gcc.h ****  */
 151:Drivers/CMSIS/Include/cmsis_gcc.h **** __STATIC_FORCEINLINE uint32_t __get_CONTROL(void)
 152:Drivers/CMSIS/Include/cmsis_gcc.h **** {
 153:Drivers/CMSIS/Include/cmsis_gcc.h ****   uint32_t result;
 154:Drivers/CMSIS/Include/cmsis_gcc.h **** 
 155:Drivers/CMSIS/Include/cmsis_gcc.h ****   __ASM volatile ("MRS %0, control" : "=r" (result) );
 156:Drivers/CMSIS/Include/cmsis_gcc.h ****   return(result);
 157:Drivers/CMSIS/Include/cmsis_gcc.h **** }
 158:Drivers/CMSIS/Include/cmsis_gcc.h **** 
 159:Drivers/CMSIS/Include/cmsis_gcc.h **** 
 160:Drivers/CMSIS/Include/cmsis_gcc.h **** #if (defined (__ARM_FEATURE_CMSE ) && (__ARM_FEATURE_CMSE == 3))
 161:Drivers/CMSIS/Include/cmsis_gcc.h **** /**
 162:Drivers/CMSIS/Include/cmsis_gcc.h ****   \brief   Get Control Register (non-secure)
 163:Drivers/CMSIS/Include/cmsis_gcc.h ****   \details Returns the content of the non-secure Control Register when in secure mode.
 164:Drivers/CMSIS/Include/cmsis_gcc.h ****   \return               non-secure Control Register value
 165:Drivers/CMSIS/Include/cmsis_gcc.h ****  */
 166:Drivers/CMSIS/Include/cmsis_gcc.h **** __STATIC_FORCEINLINE uint32_t __TZ_get_CONTROL_NS(void)
 167:Drivers/CMSIS/Include/cmsis_gcc.h **** {
 168:Drivers/CMSIS/Include/cmsis_gcc.h ****   uint32_t result;
 169:Drivers/CMSIS/Include/cmsis_gcc.h **** 
 170:Drivers/CMSIS/Include/cmsis_gcc.h ****   __ASM volatile ("MRS %0, control_ns" : "=r" (result) );
 171:Drivers/CMSIS/Include/cmsis_gcc.h ****   return(result);
 172:Drivers/CMSIS/Include/cmsis_gcc.h **** }
 173:Drivers/CMSIS/Include/cmsis_gcc.h **** #endif
 174:Drivers/CMSIS/Include/cmsis_gcc.h **** 
 175:Drivers/CMSIS/Include/cmsis_gcc.h **** 
 176:Drivers/CMSIS/Include/cmsis_gcc.h **** /**
 177:Drivers/CMSIS/Include/cmsis_gcc.h ****   \brief   Set Control Register
 178:Drivers/CMSIS/Include/cmsis_gcc.h ****   \details Writes the given value to the Control Register.
ARM GAS  /tmp/ccvtvpVm.s 			page 17


 179:Drivers/CMSIS/Include/cmsis_gcc.h ****   \param [in]    control  Control Register value to set
 180:Drivers/CMSIS/Include/cmsis_gcc.h ****  */
 181:Drivers/CMSIS/Include/cmsis_gcc.h **** __STATIC_FORCEINLINE void __set_CONTROL(uint32_t control)
 182:Drivers/CMSIS/Include/cmsis_gcc.h **** {
 183:Drivers/CMSIS/Include/cmsis_gcc.h ****   __ASM volatile ("MSR control, %0" : : "r" (control) : "memory");
 184:Drivers/CMSIS/Include/cmsis_gcc.h **** }
 185:Drivers/CMSIS/Include/cmsis_gcc.h **** 
 186:Drivers/CMSIS/Include/cmsis_gcc.h **** 
 187:Drivers/CMSIS/Include/cmsis_gcc.h **** #if (defined (__ARM_FEATURE_CMSE ) && (__ARM_FEATURE_CMSE == 3))
 188:Drivers/CMSIS/Include/cmsis_gcc.h **** /**
 189:Drivers/CMSIS/Include/cmsis_gcc.h ****   \brief   Set Control Register (non-secure)
 190:Drivers/CMSIS/Include/cmsis_gcc.h ****   \details Writes the given value to the non-secure Control Register when in secure state.
 191:Drivers/CMSIS/Include/cmsis_gcc.h ****   \param [in]    control  Control Register value to set
 192:Drivers/CMSIS/Include/cmsis_gcc.h ****  */
 193:Drivers/CMSIS/Include/cmsis_gcc.h **** __STATIC_FORCEINLINE void __TZ_set_CONTROL_NS(uint32_t control)
 194:Drivers/CMSIS/Include/cmsis_gcc.h **** {
 195:Drivers/CMSIS/Include/cmsis_gcc.h ****   __ASM volatile ("MSR control_ns, %0" : : "r" (control) : "memory");
 196:Drivers/CMSIS/Include/cmsis_gcc.h **** }
 197:Drivers/CMSIS/Include/cmsis_gcc.h **** #endif
 198:Drivers/CMSIS/Include/cmsis_gcc.h **** 
 199:Drivers/CMSIS/Include/cmsis_gcc.h **** 
 200:Drivers/CMSIS/Include/cmsis_gcc.h **** /**
 201:Drivers/CMSIS/Include/cmsis_gcc.h ****   \brief   Get IPSR Register
 202:Drivers/CMSIS/Include/cmsis_gcc.h ****   \details Returns the content of the IPSR Register.
 203:Drivers/CMSIS/Include/cmsis_gcc.h ****   \return               IPSR Register value
 204:Drivers/CMSIS/Include/cmsis_gcc.h ****  */
 205:Drivers/CMSIS/Include/cmsis_gcc.h **** __STATIC_FORCEINLINE uint32_t __get_IPSR(void)
 206:Drivers/CMSIS/Include/cmsis_gcc.h **** {
 207:Drivers/CMSIS/Include/cmsis_gcc.h ****   uint32_t result;
 208:Drivers/CMSIS/Include/cmsis_gcc.h **** 
 209:Drivers/CMSIS/Include/cmsis_gcc.h ****   __ASM volatile ("MRS %0, ipsr" : "=r" (result) );
 210:Drivers/CMSIS/Include/cmsis_gcc.h ****   return(result);
 211:Drivers/CMSIS/Include/cmsis_gcc.h **** }
 212:Drivers/CMSIS/Include/cmsis_gcc.h **** 
 213:Drivers/CMSIS/Include/cmsis_gcc.h **** 
 214:Drivers/CMSIS/Include/cmsis_gcc.h **** /**
 215:Drivers/CMSIS/Include/cmsis_gcc.h ****   \brief   Get APSR Register
 216:Drivers/CMSIS/Include/cmsis_gcc.h ****   \details Returns the content of the APSR Register.
 217:Drivers/CMSIS/Include/cmsis_gcc.h ****   \return               APSR Register value
 218:Drivers/CMSIS/Include/cmsis_gcc.h ****  */
 219:Drivers/CMSIS/Include/cmsis_gcc.h **** __STATIC_FORCEINLINE uint32_t __get_APSR(void)
 220:Drivers/CMSIS/Include/cmsis_gcc.h **** {
 221:Drivers/CMSIS/Include/cmsis_gcc.h ****   uint32_t result;
 222:Drivers/CMSIS/Include/cmsis_gcc.h **** 
 223:Drivers/CMSIS/Include/cmsis_gcc.h ****   __ASM volatile ("MRS %0, apsr" : "=r" (result) );
 224:Drivers/CMSIS/Include/cmsis_gcc.h ****   return(result);
 225:Drivers/CMSIS/Include/cmsis_gcc.h **** }
 226:Drivers/CMSIS/Include/cmsis_gcc.h **** 
 227:Drivers/CMSIS/Include/cmsis_gcc.h **** 
 228:Drivers/CMSIS/Include/cmsis_gcc.h **** /**
 229:Drivers/CMSIS/Include/cmsis_gcc.h ****   \brief   Get xPSR Register
 230:Drivers/CMSIS/Include/cmsis_gcc.h ****   \details Returns the content of the xPSR Register.
 231:Drivers/CMSIS/Include/cmsis_gcc.h ****   \return               xPSR Register value
 232:Drivers/CMSIS/Include/cmsis_gcc.h ****  */
 233:Drivers/CMSIS/Include/cmsis_gcc.h **** __STATIC_FORCEINLINE uint32_t __get_xPSR(void)
 234:Drivers/CMSIS/Include/cmsis_gcc.h **** {
 235:Drivers/CMSIS/Include/cmsis_gcc.h ****   uint32_t result;
ARM GAS  /tmp/ccvtvpVm.s 			page 18


 236:Drivers/CMSIS/Include/cmsis_gcc.h **** 
 237:Drivers/CMSIS/Include/cmsis_gcc.h ****   __ASM volatile ("MRS %0, xpsr" : "=r" (result) );
 238:Drivers/CMSIS/Include/cmsis_gcc.h ****   return(result);
 239:Drivers/CMSIS/Include/cmsis_gcc.h **** }
 240:Drivers/CMSIS/Include/cmsis_gcc.h **** 
 241:Drivers/CMSIS/Include/cmsis_gcc.h **** 
 242:Drivers/CMSIS/Include/cmsis_gcc.h **** /**
 243:Drivers/CMSIS/Include/cmsis_gcc.h ****   \brief   Get Process Stack Pointer
 244:Drivers/CMSIS/Include/cmsis_gcc.h ****   \details Returns the current value of the Process Stack Pointer (PSP).
 245:Drivers/CMSIS/Include/cmsis_gcc.h ****   \return               PSP Register value
 246:Drivers/CMSIS/Include/cmsis_gcc.h ****  */
 247:Drivers/CMSIS/Include/cmsis_gcc.h **** __STATIC_FORCEINLINE uint32_t __get_PSP(void)
 248:Drivers/CMSIS/Include/cmsis_gcc.h **** {
 249:Drivers/CMSIS/Include/cmsis_gcc.h ****   uint32_t result;
 250:Drivers/CMSIS/Include/cmsis_gcc.h **** 
 251:Drivers/CMSIS/Include/cmsis_gcc.h ****   __ASM volatile ("MRS %0, psp"  : "=r" (result) );
 252:Drivers/CMSIS/Include/cmsis_gcc.h ****   return(result);
 253:Drivers/CMSIS/Include/cmsis_gcc.h **** }
 254:Drivers/CMSIS/Include/cmsis_gcc.h **** 
 255:Drivers/CMSIS/Include/cmsis_gcc.h **** 
 256:Drivers/CMSIS/Include/cmsis_gcc.h **** #if (defined (__ARM_FEATURE_CMSE ) && (__ARM_FEATURE_CMSE == 3))
 257:Drivers/CMSIS/Include/cmsis_gcc.h **** /**
 258:Drivers/CMSIS/Include/cmsis_gcc.h ****   \brief   Get Process Stack Pointer (non-secure)
 259:Drivers/CMSIS/Include/cmsis_gcc.h ****   \details Returns the current value of the non-secure Process Stack Pointer (PSP) when in secure s
 260:Drivers/CMSIS/Include/cmsis_gcc.h ****   \return               PSP Register value
 261:Drivers/CMSIS/Include/cmsis_gcc.h ****  */
 262:Drivers/CMSIS/Include/cmsis_gcc.h **** __STATIC_FORCEINLINE uint32_t __TZ_get_PSP_NS(void)
 263:Drivers/CMSIS/Include/cmsis_gcc.h **** {
 264:Drivers/CMSIS/Include/cmsis_gcc.h ****   uint32_t result;
 265:Drivers/CMSIS/Include/cmsis_gcc.h **** 
 266:Drivers/CMSIS/Include/cmsis_gcc.h ****   __ASM volatile ("MRS %0, psp_ns"  : "=r" (result) );
 267:Drivers/CMSIS/Include/cmsis_gcc.h ****   return(result);
 268:Drivers/CMSIS/Include/cmsis_gcc.h **** }
 269:Drivers/CMSIS/Include/cmsis_gcc.h **** #endif
 270:Drivers/CMSIS/Include/cmsis_gcc.h **** 
 271:Drivers/CMSIS/Include/cmsis_gcc.h **** 
 272:Drivers/CMSIS/Include/cmsis_gcc.h **** /**
 273:Drivers/CMSIS/Include/cmsis_gcc.h ****   \brief   Set Process Stack Pointer
 274:Drivers/CMSIS/Include/cmsis_gcc.h ****   \details Assigns the given value to the Process Stack Pointer (PSP).
 275:Drivers/CMSIS/Include/cmsis_gcc.h ****   \param [in]    topOfProcStack  Process Stack Pointer value to set
 276:Drivers/CMSIS/Include/cmsis_gcc.h ****  */
 277:Drivers/CMSIS/Include/cmsis_gcc.h **** __STATIC_FORCEINLINE void __set_PSP(uint32_t topOfProcStack)
 278:Drivers/CMSIS/Include/cmsis_gcc.h **** {
 279:Drivers/CMSIS/Include/cmsis_gcc.h ****   __ASM volatile ("MSR psp, %0" : : "r" (topOfProcStack) : );
 280:Drivers/CMSIS/Include/cmsis_gcc.h **** }
 281:Drivers/CMSIS/Include/cmsis_gcc.h **** 
 282:Drivers/CMSIS/Include/cmsis_gcc.h **** 
 283:Drivers/CMSIS/Include/cmsis_gcc.h **** #if (defined (__ARM_FEATURE_CMSE ) && (__ARM_FEATURE_CMSE == 3))
 284:Drivers/CMSIS/Include/cmsis_gcc.h **** /**
 285:Drivers/CMSIS/Include/cmsis_gcc.h ****   \brief   Set Process Stack Pointer (non-secure)
 286:Drivers/CMSIS/Include/cmsis_gcc.h ****   \details Assigns the given value to the non-secure Process Stack Pointer (PSP) when in secure sta
 287:Drivers/CMSIS/Include/cmsis_gcc.h ****   \param [in]    topOfProcStack  Process Stack Pointer value to set
 288:Drivers/CMSIS/Include/cmsis_gcc.h ****  */
 289:Drivers/CMSIS/Include/cmsis_gcc.h **** __STATIC_FORCEINLINE void __TZ_set_PSP_NS(uint32_t topOfProcStack)
 290:Drivers/CMSIS/Include/cmsis_gcc.h **** {
 291:Drivers/CMSIS/Include/cmsis_gcc.h ****   __ASM volatile ("MSR psp_ns, %0" : : "r" (topOfProcStack) : );
 292:Drivers/CMSIS/Include/cmsis_gcc.h **** }
ARM GAS  /tmp/ccvtvpVm.s 			page 19


 293:Drivers/CMSIS/Include/cmsis_gcc.h **** #endif
 294:Drivers/CMSIS/Include/cmsis_gcc.h **** 
 295:Drivers/CMSIS/Include/cmsis_gcc.h **** 
 296:Drivers/CMSIS/Include/cmsis_gcc.h **** /**
 297:Drivers/CMSIS/Include/cmsis_gcc.h ****   \brief   Get Main Stack Pointer
 298:Drivers/CMSIS/Include/cmsis_gcc.h ****   \details Returns the current value of the Main Stack Pointer (MSP).
 299:Drivers/CMSIS/Include/cmsis_gcc.h ****   \return               MSP Register value
 300:Drivers/CMSIS/Include/cmsis_gcc.h ****  */
 301:Drivers/CMSIS/Include/cmsis_gcc.h **** __STATIC_FORCEINLINE uint32_t __get_MSP(void)
 302:Drivers/CMSIS/Include/cmsis_gcc.h **** {
 303:Drivers/CMSIS/Include/cmsis_gcc.h ****   uint32_t result;
 304:Drivers/CMSIS/Include/cmsis_gcc.h **** 
 305:Drivers/CMSIS/Include/cmsis_gcc.h ****   __ASM volatile ("MRS %0, msp" : "=r" (result) );
 306:Drivers/CMSIS/Include/cmsis_gcc.h ****   return(result);
 307:Drivers/CMSIS/Include/cmsis_gcc.h **** }
 308:Drivers/CMSIS/Include/cmsis_gcc.h **** 
 309:Drivers/CMSIS/Include/cmsis_gcc.h **** 
 310:Drivers/CMSIS/Include/cmsis_gcc.h **** #if (defined (__ARM_FEATURE_CMSE ) && (__ARM_FEATURE_CMSE == 3))
 311:Drivers/CMSIS/Include/cmsis_gcc.h **** /**
 312:Drivers/CMSIS/Include/cmsis_gcc.h ****   \brief   Get Main Stack Pointer (non-secure)
 313:Drivers/CMSIS/Include/cmsis_gcc.h ****   \details Returns the current value of the non-secure Main Stack Pointer (MSP) when in secure stat
 314:Drivers/CMSIS/Include/cmsis_gcc.h ****   \return               MSP Register value
 315:Drivers/CMSIS/Include/cmsis_gcc.h ****  */
 316:Drivers/CMSIS/Include/cmsis_gcc.h **** __STATIC_FORCEINLINE uint32_t __TZ_get_MSP_NS(void)
 317:Drivers/CMSIS/Include/cmsis_gcc.h **** {
 318:Drivers/CMSIS/Include/cmsis_gcc.h ****   uint32_t result;
 319:Drivers/CMSIS/Include/cmsis_gcc.h **** 
 320:Drivers/CMSIS/Include/cmsis_gcc.h ****   __ASM volatile ("MRS %0, msp_ns" : "=r" (result) );
 321:Drivers/CMSIS/Include/cmsis_gcc.h ****   return(result);
 322:Drivers/CMSIS/Include/cmsis_gcc.h **** }
 323:Drivers/CMSIS/Include/cmsis_gcc.h **** #endif
 324:Drivers/CMSIS/Include/cmsis_gcc.h **** 
 325:Drivers/CMSIS/Include/cmsis_gcc.h **** 
 326:Drivers/CMSIS/Include/cmsis_gcc.h **** /**
 327:Drivers/CMSIS/Include/cmsis_gcc.h ****   \brief   Set Main Stack Pointer
 328:Drivers/CMSIS/Include/cmsis_gcc.h ****   \details Assigns the given value to the Main Stack Pointer (MSP).
 329:Drivers/CMSIS/Include/cmsis_gcc.h ****   \param [in]    topOfMainStack  Main Stack Pointer value to set
 330:Drivers/CMSIS/Include/cmsis_gcc.h ****  */
 331:Drivers/CMSIS/Include/cmsis_gcc.h **** __STATIC_FORCEINLINE void __set_MSP(uint32_t topOfMainStack)
 332:Drivers/CMSIS/Include/cmsis_gcc.h **** {
 333:Drivers/CMSIS/Include/cmsis_gcc.h ****   __ASM volatile ("MSR msp, %0" : : "r" (topOfMainStack) : );
 334:Drivers/CMSIS/Include/cmsis_gcc.h **** }
 335:Drivers/CMSIS/Include/cmsis_gcc.h **** 
 336:Drivers/CMSIS/Include/cmsis_gcc.h **** 
 337:Drivers/CMSIS/Include/cmsis_gcc.h **** #if (defined (__ARM_FEATURE_CMSE ) && (__ARM_FEATURE_CMSE == 3))
 338:Drivers/CMSIS/Include/cmsis_gcc.h **** /**
 339:Drivers/CMSIS/Include/cmsis_gcc.h ****   \brief   Set Main Stack Pointer (non-secure)
 340:Drivers/CMSIS/Include/cmsis_gcc.h ****   \details Assigns the given value to the non-secure Main Stack Pointer (MSP) when in secure state.
 341:Drivers/CMSIS/Include/cmsis_gcc.h ****   \param [in]    topOfMainStack  Main Stack Pointer value to set
 342:Drivers/CMSIS/Include/cmsis_gcc.h ****  */
 343:Drivers/CMSIS/Include/cmsis_gcc.h **** __STATIC_FORCEINLINE void __TZ_set_MSP_NS(uint32_t topOfMainStack)
 344:Drivers/CMSIS/Include/cmsis_gcc.h **** {
 345:Drivers/CMSIS/Include/cmsis_gcc.h ****   __ASM volatile ("MSR msp_ns, %0" : : "r" (topOfMainStack) : );
 346:Drivers/CMSIS/Include/cmsis_gcc.h **** }
 347:Drivers/CMSIS/Include/cmsis_gcc.h **** #endif
 348:Drivers/CMSIS/Include/cmsis_gcc.h **** 
 349:Drivers/CMSIS/Include/cmsis_gcc.h **** 
ARM GAS  /tmp/ccvtvpVm.s 			page 20


 350:Drivers/CMSIS/Include/cmsis_gcc.h **** #if (defined (__ARM_FEATURE_CMSE ) && (__ARM_FEATURE_CMSE == 3))
 351:Drivers/CMSIS/Include/cmsis_gcc.h **** /**
 352:Drivers/CMSIS/Include/cmsis_gcc.h ****   \brief   Get Stack Pointer (non-secure)
 353:Drivers/CMSIS/Include/cmsis_gcc.h ****   \details Returns the current value of the non-secure Stack Pointer (SP) when in secure state.
 354:Drivers/CMSIS/Include/cmsis_gcc.h ****   \return               SP Register value
 355:Drivers/CMSIS/Include/cmsis_gcc.h ****  */
 356:Drivers/CMSIS/Include/cmsis_gcc.h **** __STATIC_FORCEINLINE uint32_t __TZ_get_SP_NS(void)
 357:Drivers/CMSIS/Include/cmsis_gcc.h **** {
 358:Drivers/CMSIS/Include/cmsis_gcc.h ****   uint32_t result;
 359:Drivers/CMSIS/Include/cmsis_gcc.h **** 
 360:Drivers/CMSIS/Include/cmsis_gcc.h ****   __ASM volatile ("MRS %0, sp_ns" : "=r" (result) );
 361:Drivers/CMSIS/Include/cmsis_gcc.h ****   return(result);
 362:Drivers/CMSIS/Include/cmsis_gcc.h **** }
 363:Drivers/CMSIS/Include/cmsis_gcc.h **** 
 364:Drivers/CMSIS/Include/cmsis_gcc.h **** 
 365:Drivers/CMSIS/Include/cmsis_gcc.h **** /**
 366:Drivers/CMSIS/Include/cmsis_gcc.h ****   \brief   Set Stack Pointer (non-secure)
 367:Drivers/CMSIS/Include/cmsis_gcc.h ****   \details Assigns the given value to the non-secure Stack Pointer (SP) when in secure state.
 368:Drivers/CMSIS/Include/cmsis_gcc.h ****   \param [in]    topOfStack  Stack Pointer value to set
 369:Drivers/CMSIS/Include/cmsis_gcc.h ****  */
 370:Drivers/CMSIS/Include/cmsis_gcc.h **** __STATIC_FORCEINLINE void __TZ_set_SP_NS(uint32_t topOfStack)
 371:Drivers/CMSIS/Include/cmsis_gcc.h **** {
 372:Drivers/CMSIS/Include/cmsis_gcc.h ****   __ASM volatile ("MSR sp_ns, %0" : : "r" (topOfStack) : );
 373:Drivers/CMSIS/Include/cmsis_gcc.h **** }
 374:Drivers/CMSIS/Include/cmsis_gcc.h **** #endif
 375:Drivers/CMSIS/Include/cmsis_gcc.h **** 
 376:Drivers/CMSIS/Include/cmsis_gcc.h **** 
 377:Drivers/CMSIS/Include/cmsis_gcc.h **** /**
 378:Drivers/CMSIS/Include/cmsis_gcc.h ****   \brief   Get Priority Mask
 379:Drivers/CMSIS/Include/cmsis_gcc.h ****   \details Returns the current state of the priority mask bit from the Priority Mask Register.
 380:Drivers/CMSIS/Include/cmsis_gcc.h ****   \return               Priority Mask value
 381:Drivers/CMSIS/Include/cmsis_gcc.h ****  */
 382:Drivers/CMSIS/Include/cmsis_gcc.h **** __STATIC_FORCEINLINE uint32_t __get_PRIMASK(void)
  54              		.loc 2 382 31 view .LVU9
  55              	.LBB11:
 383:Drivers/CMSIS/Include/cmsis_gcc.h **** {
 384:Drivers/CMSIS/Include/cmsis_gcc.h ****   uint32_t result;
  56              		.loc 2 384 3 view .LVU10
 385:Drivers/CMSIS/Include/cmsis_gcc.h **** 
 386:Drivers/CMSIS/Include/cmsis_gcc.h ****   __ASM volatile ("MRS %0, primask" : "=r" (result) :: "memory");
  57              		.loc 2 386 3 view .LVU11
  58              		.syntax divided
  59              	@ 386 "Drivers/CMSIS/Include/cmsis_gcc.h" 1
  60 000e EFF31082 		MRS r2, primask
  61              	@ 0 "" 2
  62              	.LVL1:
 387:Drivers/CMSIS/Include/cmsis_gcc.h ****   return(result);
  63              		.loc 2 387 3 view .LVU12
  64              		.loc 2 387 3 is_stmt 0 view .LVU13
  65              		.thumb
  66              		.syntax unified
  67              	.LBE11:
  68              	.LBE10:
 682:Drivers/STM32G0xx_HAL_Driver/Src/stm32g0xx_hal_flash.c ****   __disable_irq();
  69              		.loc 1 682 3 is_stmt 1 view .LVU14
  70              	.LBB12:
  71              	.LBI12:
ARM GAS  /tmp/ccvtvpVm.s 			page 21


 140:Drivers/CMSIS/Include/cmsis_gcc.h **** {
  72              		.loc 2 140 27 view .LVU15
  73              	.LBB13:
 142:Drivers/CMSIS/Include/cmsis_gcc.h **** }
  74              		.loc 2 142 3 view .LVU16
  75              		.syntax divided
  76              	@ 142 "Drivers/CMSIS/Include/cmsis_gcc.h" 1
  77 0012 72B6     		cpsid i
  78              	@ 0 "" 2
 142:Drivers/CMSIS/Include/cmsis_gcc.h **** }
  79              		.loc 2 142 3 is_stmt 0 view .LVU17
  80              		.thumb
  81              		.syntax unified
  82              	.LBE13:
  83              	.LBE12:
 683:Drivers/STM32G0xx_HAL_Driver/Src/stm32g0xx_hal_flash.c **** 
 684:Drivers/STM32G0xx_HAL_Driver/Src/stm32g0xx_hal_flash.c ****   /* Fast Program : 64 words */
 685:Drivers/STM32G0xx_HAL_Driver/Src/stm32g0xx_hal_flash.c ****   while (index < 64U)
  84              		.loc 1 685 9 is_stmt 1 view .LVU18
  85 0014 4C1C     		adds	r4, r1, #1
  86 0016 FF34     		adds	r4, r4, #255
 686:Drivers/STM32G0xx_HAL_Driver/Src/stm32g0xx_hal_flash.c ****   {
 687:Drivers/STM32G0xx_HAL_Driver/Src/stm32g0xx_hal_flash.c ****     *(uint32_t *)dest = *(uint32_t *)src;
  87              		.loc 1 687 23 is_stmt 0 view .LVU19
  88 0018 401A     		subs	r0, r0, r1
  89              	.LVL2:
  90              	.L2:
  91              		.loc 1 687 5 is_stmt 1 view .LVU20
  92              		.loc 1 687 23 is_stmt 0 view .LVU21
  93 001a 0D68     		ldr	r5, [r1]
  94 001c 4550     		str	r5, [r0, r1]
 688:Drivers/STM32G0xx_HAL_Driver/Src/stm32g0xx_hal_flash.c ****     src += 4U;
  95              		.loc 1 688 5 is_stmt 1 view .LVU22
  96              		.loc 1 688 9 is_stmt 0 view .LVU23
  97 001e 0431     		adds	r1, r1, #4
  98              	.LVL3:
 689:Drivers/STM32G0xx_HAL_Driver/Src/stm32g0xx_hal_flash.c ****     dest += 4U;
  99              		.loc 1 689 5 is_stmt 1 view .LVU24
 690:Drivers/STM32G0xx_HAL_Driver/Src/stm32g0xx_hal_flash.c ****     index++;
 100              		.loc 1 690 5 view .LVU25
 685:Drivers/STM32G0xx_HAL_Driver/Src/stm32g0xx_hal_flash.c ****   {
 101              		.loc 1 685 9 view .LVU26
 102 0020 A142     		cmp	r1, r4
 103 0022 FAD1     		bne	.L2
 691:Drivers/STM32G0xx_HAL_Driver/Src/stm32g0xx_hal_flash.c ****   }
 692:Drivers/STM32G0xx_HAL_Driver/Src/stm32g0xx_hal_flash.c **** 
 693:Drivers/STM32G0xx_HAL_Driver/Src/stm32g0xx_hal_flash.c ****   /* wait for BSY1 in order to be sure that flash operation is ended befoire
 694:Drivers/STM32G0xx_HAL_Driver/Src/stm32g0xx_hal_flash.c ****      allowing prefetch in flash. Timeout does not return status, as it will
 695:Drivers/STM32G0xx_HAL_Driver/Src/stm32g0xx_hal_flash.c ****      be anyway done later */
 696:Drivers/STM32G0xx_HAL_Driver/Src/stm32g0xx_hal_flash.c ****   while ((FLASH->SR & FLASH_SR_BSY1) != 0x00U)
 104              		.loc 1 696 21 is_stmt 0 view .LVU27
 105 0024 8021     		movs	r1, #128
 106              	.LVL4:
 107              		.loc 1 696 21 view .LVU28
 108 0026 4902     		lsls	r1, r1, #9
 109              	.L3:
 697:Drivers/STM32G0xx_HAL_Driver/Src/stm32g0xx_hal_flash.c ****   {
ARM GAS  /tmp/ccvtvpVm.s 			page 22


 698:Drivers/STM32G0xx_HAL_Driver/Src/stm32g0xx_hal_flash.c ****   }
 110              		.loc 1 698 3 is_stmt 1 discriminator 1 view .LVU29
 696:Drivers/STM32G0xx_HAL_Driver/Src/stm32g0xx_hal_flash.c ****   {
 111              		.loc 1 696 9 discriminator 1 view .LVU30
 696:Drivers/STM32G0xx_HAL_Driver/Src/stm32g0xx_hal_flash.c ****   {
 112              		.loc 1 696 16 is_stmt 0 discriminator 1 view .LVU31
 113 0028 1869     		ldr	r0, [r3, #16]
 696:Drivers/STM32G0xx_HAL_Driver/Src/stm32g0xx_hal_flash.c ****   {
 114              		.loc 1 696 9 discriminator 1 view .LVU32
 115 002a 0842     		tst	r0, r1
 116 002c FCD1     		bne	.L3
 699:Drivers/STM32G0xx_HAL_Driver/Src/stm32g0xx_hal_flash.c **** 
 700:Drivers/STM32G0xx_HAL_Driver/Src/stm32g0xx_hal_flash.c ****   /* Exit critical section: restore previous priority mask */
 701:Drivers/STM32G0xx_HAL_Driver/Src/stm32g0xx_hal_flash.c ****   __set_PRIMASK(primask_bit);
 117              		.loc 1 701 3 is_stmt 1 view .LVU33
 118              	.LVL5:
 119              	.LBB14:
 120              	.LBI14:
 388:Drivers/CMSIS/Include/cmsis_gcc.h **** }
 389:Drivers/CMSIS/Include/cmsis_gcc.h **** 
 390:Drivers/CMSIS/Include/cmsis_gcc.h **** 
 391:Drivers/CMSIS/Include/cmsis_gcc.h **** #if (defined (__ARM_FEATURE_CMSE ) && (__ARM_FEATURE_CMSE == 3))
 392:Drivers/CMSIS/Include/cmsis_gcc.h **** /**
 393:Drivers/CMSIS/Include/cmsis_gcc.h ****   \brief   Get Priority Mask (non-secure)
 394:Drivers/CMSIS/Include/cmsis_gcc.h ****   \details Returns the current state of the non-secure priority mask bit from the Priority Mask Reg
 395:Drivers/CMSIS/Include/cmsis_gcc.h ****   \return               Priority Mask value
 396:Drivers/CMSIS/Include/cmsis_gcc.h ****  */
 397:Drivers/CMSIS/Include/cmsis_gcc.h **** __STATIC_FORCEINLINE uint32_t __TZ_get_PRIMASK_NS(void)
 398:Drivers/CMSIS/Include/cmsis_gcc.h **** {
 399:Drivers/CMSIS/Include/cmsis_gcc.h ****   uint32_t result;
 400:Drivers/CMSIS/Include/cmsis_gcc.h **** 
 401:Drivers/CMSIS/Include/cmsis_gcc.h ****   __ASM volatile ("MRS %0, primask_ns" : "=r" (result) :: "memory");
 402:Drivers/CMSIS/Include/cmsis_gcc.h ****   return(result);
 403:Drivers/CMSIS/Include/cmsis_gcc.h **** }
 404:Drivers/CMSIS/Include/cmsis_gcc.h **** #endif
 405:Drivers/CMSIS/Include/cmsis_gcc.h **** 
 406:Drivers/CMSIS/Include/cmsis_gcc.h **** 
 407:Drivers/CMSIS/Include/cmsis_gcc.h **** /**
 408:Drivers/CMSIS/Include/cmsis_gcc.h ****   \brief   Set Priority Mask
 409:Drivers/CMSIS/Include/cmsis_gcc.h ****   \details Assigns the given value to the Priority Mask Register.
 410:Drivers/CMSIS/Include/cmsis_gcc.h ****   \param [in]    priMask  Priority Mask
 411:Drivers/CMSIS/Include/cmsis_gcc.h ****  */
 412:Drivers/CMSIS/Include/cmsis_gcc.h **** __STATIC_FORCEINLINE void __set_PRIMASK(uint32_t priMask)
 121              		.loc 2 412 27 view .LVU34
 122              	.LBB15:
 413:Drivers/CMSIS/Include/cmsis_gcc.h **** {
 414:Drivers/CMSIS/Include/cmsis_gcc.h ****   __ASM volatile ("MSR primask, %0" : : "r" (priMask) : "memory");
 123              		.loc 2 414 3 view .LVU35
 124              		.syntax divided
 125              	@ 414 "Drivers/CMSIS/Include/cmsis_gcc.h" 1
 126 002e 82F31088 		MSR primask, r2
 127              	@ 0 "" 2
 128              	.LVL6:
 129              		.loc 2 414 3 is_stmt 0 view .LVU36
 130              		.thumb
 131              		.syntax unified
 132              	.LBE15:
ARM GAS  /tmp/ccvtvpVm.s 			page 23


 133              	.LBE14:
 702:Drivers/STM32G0xx_HAL_Driver/Src/stm32g0xx_hal_flash.c **** }
 134              		.loc 1 702 1 view .LVU37
 135              		@ sp needed
 136              	.LVL7:
 137              		.loc 1 702 1 view .LVU38
 138 0032 30BD     		pop	{r4, r5, pc}
 139              	.L7:
 140              		.align	2
 141              	.L6:
 142 0034 00200240 		.word	1073881088
 143              		.cfi_endproc
 144              	.LFE314:
 146              		.section	.text.HAL_FLASH_EndOfOperationCallback,"ax",%progbits
 147              		.align	1
 148              		.weak	HAL_FLASH_EndOfOperationCallback
 149              		.syntax unified
 150              		.code	16
 151              		.thumb_func
 152              		.fpu softvfp
 154              	HAL_FLASH_EndOfOperationCallback:
 155              	.LVL8:
 156              	.LFB304:
 379:Drivers/STM32G0xx_HAL_Driver/Src/stm32g0xx_hal_flash.c ****   /* Prevent unused argument(s) compilation warning */
 157              		.loc 1 379 1 is_stmt 1 view -0
 158              		.cfi_startproc
 159              		@ args = 0, pretend = 0, frame = 0
 160              		@ frame_needed = 0, uses_anonymous_args = 0
 161              		@ link register save eliminated.
 381:Drivers/STM32G0xx_HAL_Driver/Src/stm32g0xx_hal_flash.c **** 
 162              		.loc 1 381 3 view .LVU40
 386:Drivers/STM32G0xx_HAL_Driver/Src/stm32g0xx_hal_flash.c **** 
 163              		.loc 1 386 1 is_stmt 0 view .LVU41
 164              		@ sp needed
 165 0000 7047     		bx	lr
 166              		.cfi_endproc
 167              	.LFE304:
 169              		.section	.text.HAL_FLASH_OperationErrorCallback,"ax",%progbits
 170              		.align	1
 171              		.weak	HAL_FLASH_OperationErrorCallback
 172              		.syntax unified
 173              		.code	16
 174              		.thumb_func
 175              		.fpu softvfp
 177              	HAL_FLASH_OperationErrorCallback:
 178              	.LFB317:
 179              		.cfi_startproc
 180              		@ args = 0, pretend = 0, frame = 0
 181              		@ frame_needed = 0, uses_anonymous_args = 0
 182              		@ link register save eliminated.
 183              		@ sp needed
 184 0000 7047     		bx	lr
 185              		.cfi_endproc
 186              	.LFE317:
 188              		.section	.text.HAL_FLASH_IRQHandler,"ax",%progbits
 189              		.align	1
 190              		.global	HAL_FLASH_IRQHandler
ARM GAS  /tmp/ccvtvpVm.s 			page 24


 191              		.syntax unified
 192              		.code	16
 193              		.thumb_func
 194              		.fpu softvfp
 196              	HAL_FLASH_IRQHandler:
 197              	.LFB303:
 282:Drivers/STM32G0xx_HAL_Driver/Src/stm32g0xx_hal_flash.c ****   uint32_t param = 0xFFFFFFFFU;
 198              		.loc 1 282 1 is_stmt 1 view -0
 199              		.cfi_startproc
 200              		@ args = 0, pretend = 0, frame = 0
 201              		@ frame_needed = 0, uses_anonymous_args = 0
 283:Drivers/STM32G0xx_HAL_Driver/Src/stm32g0xx_hal_flash.c ****   uint32_t error;
 202              		.loc 1 283 3 view .LVU43
 203              	.LVL9:
 284:Drivers/STM32G0xx_HAL_Driver/Src/stm32g0xx_hal_flash.c **** 
 204              		.loc 1 284 3 view .LVU44
 288:Drivers/STM32G0xx_HAL_Driver/Src/stm32g0xx_hal_flash.c ****   error |= (FLASH->ECCR & FLASH_FLAG_ECCC);
 205              		.loc 1 288 3 view .LVU45
 289:Drivers/STM32G0xx_HAL_Driver/Src/stm32g0xx_hal_flash.c **** 
 206              		.loc 1 289 25 is_stmt 0 view .LVU46
 207 0000 8021     		movs	r1, #128
 282:Drivers/STM32G0xx_HAL_Driver/Src/stm32g0xx_hal_flash.c ****   uint32_t param = 0xFFFFFFFFU;
 208              		.loc 1 282 1 view .LVU47
 209 0002 70B5     		push	{r4, r5, r6, lr}
 210              	.LCFI1:
 211              		.cfi_def_cfa_offset 16
 212              		.cfi_offset 4, -16
 213              		.cfi_offset 5, -12
 214              		.cfi_offset 6, -8
 215              		.cfi_offset 14, -4
 288:Drivers/STM32G0xx_HAL_Driver/Src/stm32g0xx_hal_flash.c ****   error |= (FLASH->ECCR & FLASH_FLAG_ECCC);
 216              		.loc 1 288 17 view .LVU48
 217 0004 294C     		ldr	r4, .L36
 288:Drivers/STM32G0xx_HAL_Driver/Src/stm32g0xx_hal_flash.c ****   error |= (FLASH->ECCR & FLASH_FLAG_ECCC);
 218              		.loc 1 288 9 view .LVU49
 219 0006 2A4A     		ldr	r2, .L36+4
 288:Drivers/STM32G0xx_HAL_Driver/Src/stm32g0xx_hal_flash.c ****   error |= (FLASH->ECCR & FLASH_FLAG_ECCC);
 220              		.loc 1 288 17 view .LVU50
 221 0008 2369     		ldr	r3, [r4, #16]
 289:Drivers/STM32G0xx_HAL_Driver/Src/stm32g0xx_hal_flash.c **** 
 222              		.loc 1 289 25 view .LVU51
 223 000a C905     		lsls	r1, r1, #23
 288:Drivers/STM32G0xx_HAL_Driver/Src/stm32g0xx_hal_flash.c ****   error |= (FLASH->ECCR & FLASH_FLAG_ECCC);
 224              		.loc 1 288 9 view .LVU52
 225 000c 1A40     		ands	r2, r3
 226              	.LVL10:
 289:Drivers/STM32G0xx_HAL_Driver/Src/stm32g0xx_hal_flash.c **** 
 227              		.loc 1 289 3 is_stmt 1 view .LVU53
 289:Drivers/STM32G0xx_HAL_Driver/Src/stm32g0xx_hal_flash.c **** 
 228              		.loc 1 289 18 is_stmt 0 view .LVU54
 229 000e A369     		ldr	r3, [r4, #24]
 291:Drivers/STM32G0xx_HAL_Driver/Src/stm32g0xx_hal_flash.c **** 
 230              		.loc 1 291 3 view .LVU55
 231 0010 284D     		ldr	r5, .L36+8
 289:Drivers/STM32G0xx_HAL_Driver/Src/stm32g0xx_hal_flash.c **** 
 232              		.loc 1 289 25 view .LVU56
 233 0012 0B40     		ands	r3, r1
ARM GAS  /tmp/ccvtvpVm.s 			page 25


 289:Drivers/STM32G0xx_HAL_Driver/Src/stm32g0xx_hal_flash.c **** 
 234              		.loc 1 289 9 view .LVU57
 235 0014 1343     		orrs	r3, r2
 236              	.LVL11:
 291:Drivers/STM32G0xx_HAL_Driver/Src/stm32g0xx_hal_flash.c **** 
 237              		.loc 1 291 3 is_stmt 1 view .LVU58
 238 0016 6169     		ldr	r1, [r4, #20]
 239 0018 AA68     		ldr	r2, [r5, #8]
 240 001a 9143     		bics	r1, r2
 241 001c 6161     		str	r1, [r4, #20]
 295:Drivers/STM32G0xx_HAL_Driver/Src/stm32g0xx_hal_flash.c ****   {
 242              		.loc 1 295 3 view .LVU59
 295:Drivers/STM32G0xx_HAL_Driver/Src/stm32g0xx_hal_flash.c ****   {
 243              		.loc 1 295 32 is_stmt 0 view .LVU60
 244 001e 2649     		ldr	r1, .L36+12
 295:Drivers/STM32G0xx_HAL_Driver/Src/stm32g0xx_hal_flash.c ****   {
 245              		.loc 1 295 6 view .LVU61
 246 0020 0A42     		tst	r2, r1
 247 0022 38D0     		beq	.L11
 298:Drivers/STM32G0xx_HAL_Driver/Src/stm32g0xx_hal_flash.c ****   }
 248              		.loc 1 298 5 is_stmt 1 view .LVU62
 298:Drivers/STM32G0xx_HAL_Driver/Src/stm32g0xx_hal_flash.c ****   }
 249              		.loc 1 298 11 is_stmt 0 view .LVU63
 250 0024 EE68     		ldr	r6, [r5, #12]
 251              	.LVL12:
 252              	.L12:
 308:Drivers/STM32G0xx_HAL_Driver/Src/stm32g0xx_hal_flash.c **** 
 253              		.loc 1 308 3 is_stmt 1 view .LVU64
 311:Drivers/STM32G0xx_HAL_Driver/Src/stm32g0xx_hal_flash.c ****   {
 254              		.loc 1 311 3 view .LVU65
 311:Drivers/STM32G0xx_HAL_Driver/Src/stm32g0xx_hal_flash.c ****   {
 255              		.loc 1 311 6 is_stmt 0 view .LVU66
 256 0026 002B     		cmp	r3, #0
 257 0028 13D0     		beq	.L13
 314:Drivers/STM32G0xx_HAL_Driver/Src/stm32g0xx_hal_flash.c **** 
 258              		.loc 1 314 5 is_stmt 1 view .LVU67
 314:Drivers/STM32G0xx_HAL_Driver/Src/stm32g0xx_hal_flash.c **** 
 259              		.loc 1 314 22 is_stmt 0 view .LVU68
 260 002a 6A68     		ldr	r2, [r5, #4]
 317:Drivers/STM32G0xx_HAL_Driver/Src/stm32g0xx_hal_flash.c **** 
 261              		.loc 1 317 5 view .LVU69
 262 002c 990F     		lsrs	r1, r3, #30
 314:Drivers/STM32G0xx_HAL_Driver/Src/stm32g0xx_hal_flash.c **** 
 263              		.loc 1 314 22 view .LVU70
 264 002e 1A43     		orrs	r2, r3
 265 0030 6A60     		str	r2, [r5, #4]
 317:Drivers/STM32G0xx_HAL_Driver/Src/stm32g0xx_hal_flash.c **** 
 266              		.loc 1 317 5 is_stmt 1 view .LVU71
 317:Drivers/STM32G0xx_HAL_Driver/Src/stm32g0xx_hal_flash.c **** 
 267              		.loc 1 317 5 view .LVU72
 268 0032 8A07     		lsls	r2, r1, #30
 269 0034 0029     		cmp	r1, #0
 270 0036 02D0     		beq	.L14
 317:Drivers/STM32G0xx_HAL_Driver/Src/stm32g0xx_hal_flash.c **** 
 271              		.loc 1 317 5 discriminator 1 view .LVU73
 272 0038 A169     		ldr	r1, [r4, #24]
 273 003a 0A43     		orrs	r2, r1
ARM GAS  /tmp/ccvtvpVm.s 			page 26


 274 003c A261     		str	r2, [r4, #24]
 275              	.L14:
 317:Drivers/STM32G0xx_HAL_Driver/Src/stm32g0xx_hal_flash.c **** 
 276              		.loc 1 317 5 discriminator 3 view .LVU74
 277 003e 9B00     		lsls	r3, r3, #2
 278              	.LVL13:
 317:Drivers/STM32G0xx_HAL_Driver/Src/stm32g0xx_hal_flash.c **** 
 279              		.loc 1 317 5 is_stmt 0 discriminator 3 view .LVU75
 280 0040 9A08     		lsrs	r2, r3, #2
 281 0042 002B     		cmp	r3, #0
 282 0044 00D0     		beq	.L15
 317:Drivers/STM32G0xx_HAL_Driver/Src/stm32g0xx_hal_flash.c **** 
 283              		.loc 1 317 5 is_stmt 1 discriminator 4 view .LVU76
 284 0046 2261     		str	r2, [r4, #16]
 285              	.L15:
 317:Drivers/STM32G0xx_HAL_Driver/Src/stm32g0xx_hal_flash.c **** 
 286              		.loc 1 317 5 discriminator 6 view .LVU77
 320:Drivers/STM32G0xx_HAL_Driver/Src/stm32g0xx_hal_flash.c **** 
 287              		.loc 1 320 5 discriminator 6 view .LVU78
 320:Drivers/STM32G0xx_HAL_Driver/Src/stm32g0xx_hal_flash.c **** 
 288              		.loc 1 320 29 is_stmt 0 discriminator 6 view .LVU79
 289 0048 0023     		movs	r3, #0
 323:Drivers/STM32G0xx_HAL_Driver/Src/stm32g0xx_hal_flash.c ****   }
 290              		.loc 1 323 5 discriminator 6 view .LVU80
 291 004a 3000     		movs	r0, r6
 320:Drivers/STM32G0xx_HAL_Driver/Src/stm32g0xx_hal_flash.c **** 
 292              		.loc 1 320 29 discriminator 6 view .LVU81
 293 004c AB60     		str	r3, [r5, #8]
 323:Drivers/STM32G0xx_HAL_Driver/Src/stm32g0xx_hal_flash.c ****   }
 294              		.loc 1 323 5 is_stmt 1 discriminator 6 view .LVU82
 295 004e FFF7FEFF 		bl	HAL_FLASH_OperationErrorCallback
 296              	.LVL14:
 297              	.L13:
 327:Drivers/STM32G0xx_HAL_Driver/Src/stm32g0xx_hal_flash.c ****   {
 298              		.loc 1 327 3 view .LVU83
 327:Drivers/STM32G0xx_HAL_Driver/Src/stm32g0xx_hal_flash.c ****   {
 299              		.loc 1 327 7 is_stmt 0 view .LVU84
 300 0052 0123     		movs	r3, #1
 301 0054 2269     		ldr	r2, [r4, #16]
 327:Drivers/STM32G0xx_HAL_Driver/Src/stm32g0xx_hal_flash.c ****   {
 302              		.loc 1 327 6 view .LVU85
 303 0056 1A42     		tst	r2, r3
 304 0058 10D0     		beq	.L16
 330:Drivers/STM32G0xx_HAL_Driver/Src/stm32g0xx_hal_flash.c **** 
 305              		.loc 1 330 5 is_stmt 1 discriminator 4 view .LVU86
 330:Drivers/STM32G0xx_HAL_Driver/Src/stm32g0xx_hal_flash.c **** 
 306              		.loc 1 330 5 discriminator 4 view .LVU87
 330:Drivers/STM32G0xx_HAL_Driver/Src/stm32g0xx_hal_flash.c **** 
 307              		.loc 1 330 5 discriminator 4 view .LVU88
 330:Drivers/STM32G0xx_HAL_Driver/Src/stm32g0xx_hal_flash.c **** 
 308              		.loc 1 330 5 discriminator 4 view .LVU89
 309 005a 2361     		str	r3, [r4, #16]
 330:Drivers/STM32G0xx_HAL_Driver/Src/stm32g0xx_hal_flash.c **** 
 310              		.loc 1 330 5 discriminator 4 view .LVU90
 332:Drivers/STM32G0xx_HAL_Driver/Src/stm32g0xx_hal_flash.c ****     {
 311              		.loc 1 332 5 discriminator 4 view .LVU91
 332:Drivers/STM32G0xx_HAL_Driver/Src/stm32g0xx_hal_flash.c ****     {
ARM GAS  /tmp/ccvtvpVm.s 			page 27


 312              		.loc 1 332 8 is_stmt 0 discriminator 4 view .LVU92
 313 005c AB68     		ldr	r3, [r5, #8]
 314 005e 022B     		cmp	r3, #2
 315 0060 21D1     		bne	.L17
 335:Drivers/STM32G0xx_HAL_Driver/Src/stm32g0xx_hal_flash.c **** 
 316              		.loc 1 335 7 is_stmt 1 view .LVU93
 335:Drivers/STM32G0xx_HAL_Driver/Src/stm32g0xx_hal_flash.c **** 
 317              		.loc 1 335 28 is_stmt 0 view .LVU94
 318 0062 6B69     		ldr	r3, [r5, #20]
 319 0064 013B     		subs	r3, r3, #1
 320 0066 6B61     		str	r3, [r5, #20]
 338:Drivers/STM32G0xx_HAL_Driver/Src/stm32g0xx_hal_flash.c ****       {
 321              		.loc 1 338 7 is_stmt 1 view .LVU95
 338:Drivers/STM32G0xx_HAL_Driver/Src/stm32g0xx_hal_flash.c ****       {
 322              		.loc 1 338 10 is_stmt 0 view .LVU96
 323 0068 002B     		cmp	r3, #0
 324 006a 1CD0     		beq	.L17
 341:Drivers/STM32G0xx_HAL_Driver/Src/stm32g0xx_hal_flash.c ****         FLASH_PageErase(pFlash.Page);
 325              		.loc 1 341 9 is_stmt 1 view .LVU97
 341:Drivers/STM32G0xx_HAL_Driver/Src/stm32g0xx_hal_flash.c ****         FLASH_PageErase(pFlash.Page);
 326              		.loc 1 341 20 is_stmt 0 view .LVU98
 327 006c 2B69     		ldr	r3, [r5, #16]
 328 006e 581C     		adds	r0, r3, #1
 329 0070 2861     		str	r0, [r5, #16]
 342:Drivers/STM32G0xx_HAL_Driver/Src/stm32g0xx_hal_flash.c ****       }
 330              		.loc 1 342 9 is_stmt 1 view .LVU99
 331 0072 FFF7FEFF 		bl	FLASH_PageErase
 332              	.LVL15:
 333              	.L18:
 357:Drivers/STM32G0xx_HAL_Driver/Src/stm32g0xx_hal_flash.c ****   }
 334              		.loc 1 357 5 view .LVU100
 335 0076 3000     		movs	r0, r6
 336 0078 FFF7FEFF 		bl	HAL_FLASH_EndOfOperationCallback
 337              	.LVL16:
 338              	.L16:
 360:Drivers/STM32G0xx_HAL_Driver/Src/stm32g0xx_hal_flash.c ****   {
 339              		.loc 1 360 3 view .LVU101
 360:Drivers/STM32G0xx_HAL_Driver/Src/stm32g0xx_hal_flash.c ****   {
 340              		.loc 1 360 6 is_stmt 0 view .LVU102
 341 007c AA68     		ldr	r2, [r5, #8]
 342 007e 002A     		cmp	r2, #0
 343 0080 08D1     		bne	.L10
 363:Drivers/STM32G0xx_HAL_Driver/Src/stm32g0xx_hal_flash.c **** 
 344              		.loc 1 363 5 is_stmt 1 discriminator 1 view .LVU103
 363:Drivers/STM32G0xx_HAL_Driver/Src/stm32g0xx_hal_flash.c **** 
 345              		.loc 1 363 5 discriminator 1 view .LVU104
 363:Drivers/STM32G0xx_HAL_Driver/Src/stm32g0xx_hal_flash.c **** 
 346              		.loc 1 363 5 discriminator 1 view .LVU105
 347 0082 A369     		ldr	r3, [r4, #24]
 348 0084 0D49     		ldr	r1, .L36+16
 349 0086 0B40     		ands	r3, r1
 350 0088 A361     		str	r3, [r4, #24]
 363:Drivers/STM32G0xx_HAL_Driver/Src/stm32g0xx_hal_flash.c **** 
 351              		.loc 1 363 5 discriminator 1 view .LVU106
 363:Drivers/STM32G0xx_HAL_Driver/Src/stm32g0xx_hal_flash.c **** 
 352              		.loc 1 363 5 discriminator 1 view .LVU107
 353 008a 6369     		ldr	r3, [r4, #20]
ARM GAS  /tmp/ccvtvpVm.s 			page 28


 354 008c 0C49     		ldr	r1, .L36+20
 355 008e 0B40     		ands	r3, r1
 356 0090 6361     		str	r3, [r4, #20]
 363:Drivers/STM32G0xx_HAL_Driver/Src/stm32g0xx_hal_flash.c **** 
 357              		.loc 1 363 5 discriminator 1 view .LVU108
 366:Drivers/STM32G0xx_HAL_Driver/Src/stm32g0xx_hal_flash.c ****   }
 358              		.loc 1 366 5 discriminator 1 view .LVU109
 366:Drivers/STM32G0xx_HAL_Driver/Src/stm32g0xx_hal_flash.c ****   }
 359              		.loc 1 366 5 discriminator 1 view .LVU110
 360 0092 2A70     		strb	r2, [r5]
 366:Drivers/STM32G0xx_HAL_Driver/Src/stm32g0xx_hal_flash.c ****   }
 361              		.loc 1 366 5 discriminator 1 view .LVU111
 362              	.L10:
 368:Drivers/STM32G0xx_HAL_Driver/Src/stm32g0xx_hal_flash.c **** 
 363              		.loc 1 368 1 is_stmt 0 view .LVU112
 364              		@ sp needed
 365              	.LVL17:
 368:Drivers/STM32G0xx_HAL_Driver/Src/stm32g0xx_hal_flash.c **** 
 366              		.loc 1 368 1 view .LVU113
 367 0094 70BD     		pop	{r4, r5, r6, pc}
 368              	.LVL18:
 369              	.L11:
 300:Drivers/STM32G0xx_HAL_Driver/Src/stm32g0xx_hal_flash.c ****   {
 370              		.loc 1 300 8 is_stmt 1 view .LVU114
 300:Drivers/STM32G0xx_HAL_Driver/Src/stm32g0xx_hal_flash.c ****   {
 371              		.loc 1 300 37 is_stmt 0 view .LVU115
 372 0096 0621     		movs	r1, #6
 300:Drivers/STM32G0xx_HAL_Driver/Src/stm32g0xx_hal_flash.c ****   {
 373              		.loc 1 300 11 view .LVU116
 374 0098 0A42     		tst	r2, r1
 375 009a 01D0     		beq	.L20
 303:Drivers/STM32G0xx_HAL_Driver/Src/stm32g0xx_hal_flash.c ****   }
 376              		.loc 1 303 5 is_stmt 1 view .LVU117
 303:Drivers/STM32G0xx_HAL_Driver/Src/stm32g0xx_hal_flash.c ****   }
 377              		.loc 1 303 11 is_stmt 0 view .LVU118
 378 009c 2E69     		ldr	r6, [r5, #16]
 379              	.LVL19:
 303:Drivers/STM32G0xx_HAL_Driver/Src/stm32g0xx_hal_flash.c ****   }
 380              		.loc 1 303 11 view .LVU119
 381 009e C2E7     		b	.L12
 382              	.LVL20:
 383              	.L20:
 283:Drivers/STM32G0xx_HAL_Driver/Src/stm32g0xx_hal_flash.c ****   uint32_t error;
 384              		.loc 1 283 12 view .LVU120
 385 00a0 0126     		movs	r6, #1
 386 00a2 7642     		rsbs	r6, r6, #0
 387 00a4 BFE7     		b	.L12
 388              	.LVL21:
 389              	.L17:
 347:Drivers/STM32G0xx_HAL_Driver/Src/stm32g0xx_hal_flash.c ****       }
 390              		.loc 1 347 9 is_stmt 1 view .LVU121
 347:Drivers/STM32G0xx_HAL_Driver/Src/stm32g0xx_hal_flash.c ****       }
 391              		.loc 1 347 33 is_stmt 0 view .LVU122
 392 00a6 0023     		movs	r3, #0
 393 00a8 AB60     		str	r3, [r5, #8]
 394 00aa E4E7     		b	.L18
 395              	.L37:
ARM GAS  /tmp/ccvtvpVm.s 			page 29


 396              		.align	2
 397              	.L36:
 398 00ac 00200240 		.word	1073881088
 399 00b0 FAC30000 		.word	50170
 400 00b4 00000000 		.word	.LANCHOR0
 401 00b8 01000400 		.word	262145
 402 00bc FFFFFFFE 		.word	-16777217
 403 00c0 FFFFFFFC 		.word	-50331649
 404              		.cfi_endproc
 405              	.LFE303:
 407              		.section	.text.HAL_FLASH_Unlock,"ax",%progbits
 408              		.align	1
 409              		.global	HAL_FLASH_Unlock
 410              		.syntax unified
 411              		.code	16
 412              		.thumb_func
 413              		.fpu softvfp
 415              	HAL_FLASH_Unlock:
 416              	.LFB306:
 430:Drivers/STM32G0xx_HAL_Driver/Src/stm32g0xx_hal_flash.c ****   HAL_StatusTypeDef status = HAL_OK;
 417              		.loc 1 430 1 is_stmt 1 view -0
 418              		.cfi_startproc
 419              		@ args = 0, pretend = 0, frame = 0
 420              		@ frame_needed = 0, uses_anonymous_args = 0
 421              		@ link register save eliminated.
 431:Drivers/STM32G0xx_HAL_Driver/Src/stm32g0xx_hal_flash.c **** 
 422              		.loc 1 431 3 view .LVU124
 423              	.LVL22:
 433:Drivers/STM32G0xx_HAL_Driver/Src/stm32g0xx_hal_flash.c ****   {
 424              		.loc 1 433 3 view .LVU125
 431:Drivers/STM32G0xx_HAL_Driver/Src/stm32g0xx_hal_flash.c **** 
 425              		.loc 1 431 21 is_stmt 0 view .LVU126
 426 0000 0020     		movs	r0, #0
 433:Drivers/STM32G0xx_HAL_Driver/Src/stm32g0xx_hal_flash.c ****   {
 427              		.loc 1 433 7 view .LVU127
 428 0002 054B     		ldr	r3, .L41
 429 0004 5A69     		ldr	r2, [r3, #20]
 433:Drivers/STM32G0xx_HAL_Driver/Src/stm32g0xx_hal_flash.c ****   {
 430              		.loc 1 433 6 view .LVU128
 431 0006 8242     		cmp	r2, r0
 432 0008 05DA     		bge	.L39
 436:Drivers/STM32G0xx_HAL_Driver/Src/stm32g0xx_hal_flash.c ****     WRITE_REG(FLASH->KEYR, FLASH_KEY2);
 433              		.loc 1 436 5 is_stmt 1 view .LVU129
 434 000a 044A     		ldr	r2, .L41+4
 435 000c 9A60     		str	r2, [r3, #8]
 437:Drivers/STM32G0xx_HAL_Driver/Src/stm32g0xx_hal_flash.c **** 
 436              		.loc 1 437 5 view .LVU130
 437 000e 044A     		ldr	r2, .L41+8
 438 0010 9A60     		str	r2, [r3, #8]
 440:Drivers/STM32G0xx_HAL_Driver/Src/stm32g0xx_hal_flash.c ****     {
 439              		.loc 1 440 5 view .LVU131
 440:Drivers/STM32G0xx_HAL_Driver/Src/stm32g0xx_hal_flash.c ****     {
 440              		.loc 1 440 9 is_stmt 0 view .LVU132
 441 0012 5869     		ldr	r0, [r3, #20]
 431:Drivers/STM32G0xx_HAL_Driver/Src/stm32g0xx_hal_flash.c **** 
 442              		.loc 1 431 21 view .LVU133
 443 0014 C00F     		lsrs	r0, r0, #31
ARM GAS  /tmp/ccvtvpVm.s 			page 30


 444              	.L39:
 445              	.LVL23:
 446:Drivers/STM32G0xx_HAL_Driver/Src/stm32g0xx_hal_flash.c **** }
 446              		.loc 1 446 3 is_stmt 1 view .LVU134
 447:Drivers/STM32G0xx_HAL_Driver/Src/stm32g0xx_hal_flash.c **** 
 447              		.loc 1 447 1 is_stmt 0 view .LVU135
 448              		@ sp needed
 449 0016 7047     		bx	lr
 450              	.L42:
 451              		.align	2
 452              	.L41:
 453 0018 00200240 		.word	1073881088
 454 001c 23016745 		.word	1164378403
 455 0020 AB89EFCD 		.word	-839939669
 456              		.cfi_endproc
 457              	.LFE306:
 459              		.section	.text.HAL_FLASH_Lock,"ax",%progbits
 460              		.align	1
 461              		.global	HAL_FLASH_Lock
 462              		.syntax unified
 463              		.code	16
 464              		.thumb_func
 465              		.fpu softvfp
 467              	HAL_FLASH_Lock:
 468              	.LFB307:
 454:Drivers/STM32G0xx_HAL_Driver/Src/stm32g0xx_hal_flash.c ****   HAL_StatusTypeDef status = HAL_ERROR;
 469              		.loc 1 454 1 is_stmt 1 view -0
 470              		.cfi_startproc
 471              		@ args = 0, pretend = 0, frame = 0
 472              		@ frame_needed = 0, uses_anonymous_args = 0
 473              		@ link register save eliminated.
 455:Drivers/STM32G0xx_HAL_Driver/Src/stm32g0xx_hal_flash.c **** 
 474              		.loc 1 455 3 view .LVU137
 475              	.LVL24:
 458:Drivers/STM32G0xx_HAL_Driver/Src/stm32g0xx_hal_flash.c **** 
 476              		.loc 1 458 3 view .LVU138
 477 0000 8022     		movs	r2, #128
 478 0002 044B     		ldr	r3, .L44
 479 0004 1206     		lsls	r2, r2, #24
 480 0006 5969     		ldr	r1, [r3, #20]
 467:Drivers/STM32G0xx_HAL_Driver/Src/stm32g0xx_hal_flash.c **** 
 481              		.loc 1 467 1 is_stmt 0 view .LVU139
 482              		@ sp needed
 458:Drivers/STM32G0xx_HAL_Driver/Src/stm32g0xx_hal_flash.c **** 
 483              		.loc 1 458 3 view .LVU140
 484 0008 0A43     		orrs	r2, r1
 485 000a 5A61     		str	r2, [r3, #20]
 461:Drivers/STM32G0xx_HAL_Driver/Src/stm32g0xx_hal_flash.c ****   {
 486              		.loc 1 461 3 is_stmt 1 view .LVU141
 461:Drivers/STM32G0xx_HAL_Driver/Src/stm32g0xx_hal_flash.c ****   {
 487              		.loc 1 461 7 is_stmt 0 view .LVU142
 488 000c 5869     		ldr	r0, [r3, #20]
 489              	.LVL25:
 466:Drivers/STM32G0xx_HAL_Driver/Src/stm32g0xx_hal_flash.c **** }
 490              		.loc 1 466 3 is_stmt 1 view .LVU143
 461:Drivers/STM32G0xx_HAL_Driver/Src/stm32g0xx_hal_flash.c ****   {
 491              		.loc 1 461 6 is_stmt 0 view .LVU144
ARM GAS  /tmp/ccvtvpVm.s 			page 31


 492 000e C043     		mvns	r0, r0
 493              	.LVL26:
 466:Drivers/STM32G0xx_HAL_Driver/Src/stm32g0xx_hal_flash.c **** }
 494              		.loc 1 466 10 view .LVU145
 495 0010 C00F     		lsrs	r0, r0, #31
 496              	.LVL27:
 467:Drivers/STM32G0xx_HAL_Driver/Src/stm32g0xx_hal_flash.c **** 
 497              		.loc 1 467 1 view .LVU146
 498 0012 7047     		bx	lr
 499              	.L45:
 500              		.align	2
 501              	.L44:
 502 0014 00200240 		.word	1073881088
 503              		.cfi_endproc
 504              	.LFE307:
 506              		.section	.text.HAL_FLASH_OB_Unlock,"ax",%progbits
 507              		.align	1
 508              		.global	HAL_FLASH_OB_Unlock
 509              		.syntax unified
 510              		.code	16
 511              		.thumb_func
 512              		.fpu softvfp
 514              	HAL_FLASH_OB_Unlock:
 515              	.LFB308:
 474:Drivers/STM32G0xx_HAL_Driver/Src/stm32g0xx_hal_flash.c ****   HAL_StatusTypeDef status = HAL_ERROR;
 516              		.loc 1 474 1 is_stmt 1 view -0
 517              		.cfi_startproc
 518              		@ args = 0, pretend = 0, frame = 0
 519              		@ frame_needed = 0, uses_anonymous_args = 0
 520              		@ link register save eliminated.
 475:Drivers/STM32G0xx_HAL_Driver/Src/stm32g0xx_hal_flash.c **** 
 521              		.loc 1 475 3 view .LVU148
 522              	.LVL28:
 477:Drivers/STM32G0xx_HAL_Driver/Src/stm32g0xx_hal_flash.c ****   {
 523              		.loc 1 477 3 view .LVU149
 477:Drivers/STM32G0xx_HAL_Driver/Src/stm32g0xx_hal_flash.c ****   {
 524              		.loc 1 477 7 is_stmt 0 view .LVU150
 525 0000 064B     		ldr	r3, .L50
 475:Drivers/STM32G0xx_HAL_Driver/Src/stm32g0xx_hal_flash.c **** 
 526              		.loc 1 475 21 view .LVU151
 527 0002 0120     		movs	r0, #1
 477:Drivers/STM32G0xx_HAL_Driver/Src/stm32g0xx_hal_flash.c ****   {
 528              		.loc 1 477 7 view .LVU152
 529 0004 5A69     		ldr	r2, [r3, #20]
 477:Drivers/STM32G0xx_HAL_Driver/Src/stm32g0xx_hal_flash.c ****   {
 530              		.loc 1 477 6 view .LVU153
 531 0006 5200     		lsls	r2, r2, #1
 532 0008 06D5     		bpl	.L47
 480:Drivers/STM32G0xx_HAL_Driver/Src/stm32g0xx_hal_flash.c ****     WRITE_REG(FLASH->OPTKEYR, FLASH_OPTKEY2);
 533              		.loc 1 480 5 is_stmt 1 view .LVU154
 534 000a 054A     		ldr	r2, .L50+4
 535 000c DA60     		str	r2, [r3, #12]
 481:Drivers/STM32G0xx_HAL_Driver/Src/stm32g0xx_hal_flash.c **** 
 536              		.loc 1 481 5 view .LVU155
 537 000e 054A     		ldr	r2, .L50+8
 538 0010 DA60     		str	r2, [r3, #12]
 484:Drivers/STM32G0xx_HAL_Driver/Src/stm32g0xx_hal_flash.c ****     {
ARM GAS  /tmp/ccvtvpVm.s 			page 32


 539              		.loc 1 484 5 view .LVU156
 484:Drivers/STM32G0xx_HAL_Driver/Src/stm32g0xx_hal_flash.c ****     {
 540              		.loc 1 484 9 is_stmt 0 view .LVU157
 541 0012 5B69     		ldr	r3, [r3, #20]
 484:Drivers/STM32G0xx_HAL_Driver/Src/stm32g0xx_hal_flash.c ****     {
 542              		.loc 1 484 8 view .LVU158
 543 0014 9B0F     		lsrs	r3, r3, #30
 475:Drivers/STM32G0xx_HAL_Driver/Src/stm32g0xx_hal_flash.c **** 
 544              		.loc 1 475 21 view .LVU159
 545 0016 1840     		ands	r0, r3
 546              	.L47:
 547              	.LVL29:
 490:Drivers/STM32G0xx_HAL_Driver/Src/stm32g0xx_hal_flash.c **** }
 548              		.loc 1 490 3 is_stmt 1 view .LVU160
 491:Drivers/STM32G0xx_HAL_Driver/Src/stm32g0xx_hal_flash.c **** 
 549              		.loc 1 491 1 is_stmt 0 view .LVU161
 550              		@ sp needed
 551 0018 7047     		bx	lr
 552              	.L51:
 553 001a C046     		.align	2
 554              	.L50:
 555 001c 00200240 		.word	1073881088
 556 0020 3B2A1908 		.word	135866939
 557 0024 7F6E5D4C 		.word	1281191551
 558              		.cfi_endproc
 559              	.LFE308:
 561              		.section	.text.HAL_FLASH_OB_Lock,"ax",%progbits
 562              		.align	1
 563              		.global	HAL_FLASH_OB_Lock
 564              		.syntax unified
 565              		.code	16
 566              		.thumb_func
 567              		.fpu softvfp
 569              	HAL_FLASH_OB_Lock:
 570              	.LFB309:
 498:Drivers/STM32G0xx_HAL_Driver/Src/stm32g0xx_hal_flash.c ****   HAL_StatusTypeDef status = HAL_ERROR;
 571              		.loc 1 498 1 is_stmt 1 view -0
 572              		.cfi_startproc
 573              		@ args = 0, pretend = 0, frame = 0
 574              		@ frame_needed = 0, uses_anonymous_args = 0
 575              		@ link register save eliminated.
 499:Drivers/STM32G0xx_HAL_Driver/Src/stm32g0xx_hal_flash.c **** 
 576              		.loc 1 499 3 view .LVU163
 577              	.LVL30:
 502:Drivers/STM32G0xx_HAL_Driver/Src/stm32g0xx_hal_flash.c **** 
 578              		.loc 1 502 3 view .LVU164
 579 0000 8022     		movs	r2, #128
 510:Drivers/STM32G0xx_HAL_Driver/Src/stm32g0xx_hal_flash.c **** }
 580              		.loc 1 510 10 is_stmt 0 view .LVU165
 581 0002 0120     		movs	r0, #1
 502:Drivers/STM32G0xx_HAL_Driver/Src/stm32g0xx_hal_flash.c **** 
 582              		.loc 1 502 3 view .LVU166
 583 0004 044B     		ldr	r3, .L53
 584 0006 D205     		lsls	r2, r2, #23
 585 0008 5969     		ldr	r1, [r3, #20]
 511:Drivers/STM32G0xx_HAL_Driver/Src/stm32g0xx_hal_flash.c **** 
 586              		.loc 1 511 1 view .LVU167
ARM GAS  /tmp/ccvtvpVm.s 			page 33


 587              		@ sp needed
 502:Drivers/STM32G0xx_HAL_Driver/Src/stm32g0xx_hal_flash.c **** 
 588              		.loc 1 502 3 view .LVU168
 589 000a 0A43     		orrs	r2, r1
 590 000c 5A61     		str	r2, [r3, #20]
 505:Drivers/STM32G0xx_HAL_Driver/Src/stm32g0xx_hal_flash.c ****   {
 591              		.loc 1 505 3 is_stmt 1 view .LVU169
 505:Drivers/STM32G0xx_HAL_Driver/Src/stm32g0xx_hal_flash.c ****   {
 592              		.loc 1 505 7 is_stmt 0 view .LVU170
 593 000e 5B69     		ldr	r3, [r3, #20]
 594              	.LVL31:
 510:Drivers/STM32G0xx_HAL_Driver/Src/stm32g0xx_hal_flash.c **** }
 595              		.loc 1 510 3 is_stmt 1 view .LVU171
 505:Drivers/STM32G0xx_HAL_Driver/Src/stm32g0xx_hal_flash.c ****   {
 596              		.loc 1 505 6 is_stmt 0 view .LVU172
 597 0010 9B0F     		lsrs	r3, r3, #30
 598              	.LVL32:
 510:Drivers/STM32G0xx_HAL_Driver/Src/stm32g0xx_hal_flash.c **** }
 599              		.loc 1 510 10 view .LVU173
 600 0012 9843     		bics	r0, r3
 511:Drivers/STM32G0xx_HAL_Driver/Src/stm32g0xx_hal_flash.c **** 
 601              		.loc 1 511 1 view .LVU174
 602 0014 7047     		bx	lr
 603              	.L54:
 604 0016 C046     		.align	2
 605              	.L53:
 606 0018 00200240 		.word	1073881088
 607              		.cfi_endproc
 608              	.LFE309:
 610              		.section	.text.HAL_FLASH_OB_Launch,"ax",%progbits
 611              		.align	1
 612              		.global	HAL_FLASH_OB_Launch
 613              		.syntax unified
 614              		.code	16
 615              		.thumb_func
 616              		.fpu softvfp
 618              	HAL_FLASH_OB_Launch:
 619              	.LFB310:
 518:Drivers/STM32G0xx_HAL_Driver/Src/stm32g0xx_hal_flash.c ****   /* Set the bit to force the option byte reloading */
 620              		.loc 1 518 1 is_stmt 1 view -0
 621              		.cfi_startproc
 622              		@ args = 0, pretend = 0, frame = 0
 623              		@ frame_needed = 0, uses_anonymous_args = 0
 624              		@ link register save eliminated.
 520:Drivers/STM32G0xx_HAL_Driver/Src/stm32g0xx_hal_flash.c **** 
 625              		.loc 1 520 3 view .LVU176
 626 0000 8023     		movs	r3, #128
 627 0002 034A     		ldr	r2, .L56
 628 0004 1B05     		lsls	r3, r3, #20
 629 0006 5169     		ldr	r1, [r2, #20]
 525:Drivers/STM32G0xx_HAL_Driver/Src/stm32g0xx_hal_flash.c **** 
 630              		.loc 1 525 1 is_stmt 0 view .LVU177
 631 0008 0120     		movs	r0, #1
 520:Drivers/STM32G0xx_HAL_Driver/Src/stm32g0xx_hal_flash.c **** 
 632              		.loc 1 520 3 view .LVU178
 633 000a 0B43     		orrs	r3, r1
 525:Drivers/STM32G0xx_HAL_Driver/Src/stm32g0xx_hal_flash.c **** 
ARM GAS  /tmp/ccvtvpVm.s 			page 34


 634              		.loc 1 525 1 view .LVU179
 635              		@ sp needed
 520:Drivers/STM32G0xx_HAL_Driver/Src/stm32g0xx_hal_flash.c **** 
 636              		.loc 1 520 3 view .LVU180
 637 000c 5361     		str	r3, [r2, #20]
 524:Drivers/STM32G0xx_HAL_Driver/Src/stm32g0xx_hal_flash.c **** }
 638              		.loc 1 524 3 is_stmt 1 view .LVU181
 525:Drivers/STM32G0xx_HAL_Driver/Src/stm32g0xx_hal_flash.c **** 
 639              		.loc 1 525 1 is_stmt 0 view .LVU182
 640 000e 7047     		bx	lr
 641              	.L57:
 642              		.align	2
 643              	.L56:
 644 0010 00200240 		.word	1073881088
 645              		.cfi_endproc
 646              	.LFE310:
 648              		.section	.text.HAL_FLASH_GetError,"ax",%progbits
 649              		.align	1
 650              		.global	HAL_FLASH_GetError
 651              		.syntax unified
 652              		.code	16
 653              		.thumb_func
 654              		.fpu softvfp
 656              	HAL_FLASH_GetError:
 657              	.LFB311:
 563:Drivers/STM32G0xx_HAL_Driver/Src/stm32g0xx_hal_flash.c ****   return pFlash.ErrorCode;
 658              		.loc 1 563 1 is_stmt 1 view -0
 659              		.cfi_startproc
 660              		@ args = 0, pretend = 0, frame = 0
 661              		@ frame_needed = 0, uses_anonymous_args = 0
 662              		@ link register save eliminated.
 564:Drivers/STM32G0xx_HAL_Driver/Src/stm32g0xx_hal_flash.c **** }
 663              		.loc 1 564 3 view .LVU184
 564:Drivers/STM32G0xx_HAL_Driver/Src/stm32g0xx_hal_flash.c **** }
 664              		.loc 1 564 16 is_stmt 0 view .LVU185
 665 0000 014B     		ldr	r3, .L59
 565:Drivers/STM32G0xx_HAL_Driver/Src/stm32g0xx_hal_flash.c **** 
 666              		.loc 1 565 1 view .LVU186
 667              		@ sp needed
 564:Drivers/STM32G0xx_HAL_Driver/Src/stm32g0xx_hal_flash.c **** }
 668              		.loc 1 564 16 view .LVU187
 669 0002 5868     		ldr	r0, [r3, #4]
 565:Drivers/STM32G0xx_HAL_Driver/Src/stm32g0xx_hal_flash.c **** 
 670              		.loc 1 565 1 view .LVU188
 671 0004 7047     		bx	lr
 672              	.L60:
 673 0006 C046     		.align	2
 674              	.L59:
 675 0008 00000000 		.word	.LANCHOR0
 676              		.cfi_endproc
 677              	.LFE311:
 679              		.section	.text.FLASH_WaitForLastOperation,"ax",%progbits
 680              		.align	1
 681              		.global	FLASH_WaitForLastOperation
 682              		.syntax unified
 683              		.code	16
 684              		.thumb_func
ARM GAS  /tmp/ccvtvpVm.s 			page 35


 685              		.fpu softvfp
 687              	FLASH_WaitForLastOperation:
 688              	.LVL33:
 689              	.LFB312:
 587:Drivers/STM32G0xx_HAL_Driver/Src/stm32g0xx_hal_flash.c ****   uint32_t error;
 690              		.loc 1 587 1 is_stmt 1 view -0
 691              		.cfi_startproc
 692              		@ args = 0, pretend = 0, frame = 0
 693              		@ frame_needed = 0, uses_anonymous_args = 0
 588:Drivers/STM32G0xx_HAL_Driver/Src/stm32g0xx_hal_flash.c ****   uint32_t eccerr;
 694              		.loc 1 588 3 view .LVU190
 589:Drivers/STM32G0xx_HAL_Driver/Src/stm32g0xx_hal_flash.c ****   /* Wait for the FLASH operation to complete by polling on BUSY flag to be reset.
 695              		.loc 1 589 3 view .LVU191
 593:Drivers/STM32G0xx_HAL_Driver/Src/stm32g0xx_hal_flash.c **** 
 696              		.loc 1 593 3 view .LVU192
 587:Drivers/STM32G0xx_HAL_Driver/Src/stm32g0xx_hal_flash.c ****   uint32_t error;
 697              		.loc 1 587 1 is_stmt 0 view .LVU193
 698 0000 F8B5     		push	{r3, r4, r5, r6, r7, lr}
 699              	.LCFI2:
 700              		.cfi_def_cfa_offset 24
 701              		.cfi_offset 3, -24
 702              		.cfi_offset 4, -20
 703              		.cfi_offset 5, -16
 704              		.cfi_offset 6, -12
 705              		.cfi_offset 7, -8
 706              		.cfi_offset 14, -4
 587:Drivers/STM32G0xx_HAL_Driver/Src/stm32g0xx_hal_flash.c ****   uint32_t error;
 707              		.loc 1 587 1 view .LVU194
 708 0002 0400     		movs	r4, r0
 596:Drivers/STM32G0xx_HAL_Driver/Src/stm32g0xx_hal_flash.c ****   {
 709              		.loc 1 596 10 view .LVU195
 710 0004 8027     		movs	r7, #128
 593:Drivers/STM32G0xx_HAL_Driver/Src/stm32g0xx_hal_flash.c **** 
 711              		.loc 1 593 22 view .LVU196
 712 0006 FFF7FEFF 		bl	HAL_GetTick
 713              	.LVL34:
 596:Drivers/STM32G0xx_HAL_Driver/Src/stm32g0xx_hal_flash.c ****   {
 714              		.loc 1 596 10 view .LVU197
 715 000a 7F02     		lsls	r7, r7, #9
 593:Drivers/STM32G0xx_HAL_Driver/Src/stm32g0xx_hal_flash.c **** 
 716              		.loc 1 593 12 view .LVU198
 717 000c 0519     		adds	r5, r0, r4
 718              	.LVL35:
 596:Drivers/STM32G0xx_HAL_Driver/Src/stm32g0xx_hal_flash.c ****   {
 719              		.loc 1 596 3 is_stmt 1 view .LVU199
 720              	.L62:
 596:Drivers/STM32G0xx_HAL_Driver/Src/stm32g0xx_hal_flash.c ****   {
 721              		.loc 1 596 9 view .LVU200
 596:Drivers/STM32G0xx_HAL_Driver/Src/stm32g0xx_hal_flash.c ****   {
 722              		.loc 1 596 10 is_stmt 0 view .LVU201
 723 000e 184B     		ldr	r3, .L72
 724 0010 1A69     		ldr	r2, [r3, #16]
 725 0012 1E00     		movs	r6, r3
 596:Drivers/STM32G0xx_HAL_Driver/Src/stm32g0xx_hal_flash.c ****   {
 726              		.loc 1 596 9 view .LVU202
 727 0014 3A42     		tst	r2, r7
 728 0016 13D1     		bne	.L64
ARM GAS  /tmp/ccvtvpVm.s 			page 36


 606:Drivers/STM32G0xx_HAL_Driver/Src/stm32g0xx_hal_flash.c **** 
 729              		.loc 1 606 3 is_stmt 1 view .LVU203
 606:Drivers/STM32G0xx_HAL_Driver/Src/stm32g0xx_hal_flash.c **** 
 730              		.loc 1 606 17 is_stmt 0 view .LVU204
 731 0018 1969     		ldr	r1, [r3, #16]
 606:Drivers/STM32G0xx_HAL_Driver/Src/stm32g0xx_hal_flash.c **** 
 732              		.loc 1 606 9 view .LVU205
 733 001a 164A     		ldr	r2, .L72+4
 734 001c 0A40     		ands	r2, r1
 735              	.LVL36:
 609:Drivers/STM32G0xx_HAL_Driver/Src/stm32g0xx_hal_flash.c **** 
 736              		.loc 1 609 3 is_stmt 1 view .LVU206
 609:Drivers/STM32G0xx_HAL_Driver/Src/stm32g0xx_hal_flash.c **** 
 737              		.loc 1 609 13 is_stmt 0 view .LVU207
 738 001e 1649     		ldr	r1, .L72+8
 739 0020 1961     		str	r1, [r3, #16]
 612:Drivers/STM32G0xx_HAL_Driver/Src/stm32g0xx_hal_flash.c **** 
 740              		.loc 1 612 3 is_stmt 1 view .LVU208
 612:Drivers/STM32G0xx_HAL_Driver/Src/stm32g0xx_hal_flash.c **** 
 741              		.loc 1 612 18 is_stmt 0 view .LVU209
 742 0022 9D69     		ldr	r5, [r3, #24]
 743              	.LVL37:
 612:Drivers/STM32G0xx_HAL_Driver/Src/stm32g0xx_hal_flash.c **** 
 744              		.loc 1 612 10 view .LVU210
 745 0024 8021     		movs	r1, #128
 746 0026 2800     		movs	r0, r5
 747 0028 C905     		lsls	r1, r1, #23
 748 002a 0840     		ands	r0, r1
 749              	.LVL38:
 614:Drivers/STM32G0xx_HAL_Driver/Src/stm32g0xx_hal_flash.c ****   {
 750              		.loc 1 614 3 is_stmt 1 view .LVU211
 614:Drivers/STM32G0xx_HAL_Driver/Src/stm32g0xx_hal_flash.c ****   {
 751              		.loc 1 614 5 is_stmt 0 view .LVU212
 752 002c 0D42     		tst	r5, r1
 753 002e 0DD0     		beq	.L65
 616:Drivers/STM32G0xx_HAL_Driver/Src/stm32g0xx_hal_flash.c ****     error |= eccerr;
 754              		.loc 1 616 5 is_stmt 1 view .LVU213
 616:Drivers/STM32G0xx_HAL_Driver/Src/stm32g0xx_hal_flash.c ****     error |= eccerr;
 755              		.loc 1 616 17 is_stmt 0 view .LVU214
 756 0030 9969     		ldr	r1, [r3, #24]
 617:Drivers/STM32G0xx_HAL_Driver/Src/stm32g0xx_hal_flash.c ****   }
 757              		.loc 1 617 11 view .LVU215
 758 0032 0243     		orrs	r2, r0
 759              	.LVL39:
 616:Drivers/STM32G0xx_HAL_Driver/Src/stm32g0xx_hal_flash.c ****     error |= eccerr;
 760              		.loc 1 616 17 view .LVU216
 761 0034 0143     		orrs	r1, r0
 762 0036 9961     		str	r1, [r3, #24]
 617:Drivers/STM32G0xx_HAL_Driver/Src/stm32g0xx_hal_flash.c ****   }
 763              		.loc 1 617 5 is_stmt 1 view .LVU217
 764              	.LVL40:
 620:Drivers/STM32G0xx_HAL_Driver/Src/stm32g0xx_hal_flash.c ****   {
 765              		.loc 1 620 3 view .LVU218
 766              	.L66:
 623:Drivers/STM32G0xx_HAL_Driver/Src/stm32g0xx_hal_flash.c **** 
 767              		.loc 1 623 5 view .LVU219
 623:Drivers/STM32G0xx_HAL_Driver/Src/stm32g0xx_hal_flash.c **** 
ARM GAS  /tmp/ccvtvpVm.s 			page 37


 768              		.loc 1 623 22 is_stmt 0 view .LVU220
 769 0038 104B     		ldr	r3, .L72+12
 625:Drivers/STM32G0xx_HAL_Driver/Src/stm32g0xx_hal_flash.c ****   }
 770              		.loc 1 625 12 view .LVU221
 771 003a 0120     		movs	r0, #1
 772              	.LVL41:
 623:Drivers/STM32G0xx_HAL_Driver/Src/stm32g0xx_hal_flash.c **** 
 773              		.loc 1 623 22 view .LVU222
 774 003c 5A60     		str	r2, [r3, #4]
 625:Drivers/STM32G0xx_HAL_Driver/Src/stm32g0xx_hal_flash.c ****   }
 775              		.loc 1 625 5 is_stmt 1 view .LVU223
 625:Drivers/STM32G0xx_HAL_Driver/Src/stm32g0xx_hal_flash.c ****   }
 776              		.loc 1 625 12 is_stmt 0 view .LVU224
 777 003e 04E0     		b	.L63
 778              	.LVL42:
 779              	.L64:
 598:Drivers/STM32G0xx_HAL_Driver/Src/stm32g0xx_hal_flash.c ****     {
 780              		.loc 1 598 5 is_stmt 1 view .LVU225
 598:Drivers/STM32G0xx_HAL_Driver/Src/stm32g0xx_hal_flash.c ****     {
 781              		.loc 1 598 9 is_stmt 0 view .LVU226
 782 0040 FFF7FEFF 		bl	HAL_GetTick
 783              	.LVL43:
 598:Drivers/STM32G0xx_HAL_Driver/Src/stm32g0xx_hal_flash.c ****     {
 784              		.loc 1 598 8 view .LVU227
 785 0044 A842     		cmp	r0, r5
 786 0046 E2D3     		bcc	.L62
 787              	.LVL44:
 788              	.L69:
 600:Drivers/STM32G0xx_HAL_Driver/Src/stm32g0xx_hal_flash.c ****     }
 789              		.loc 1 600 14 view .LVU228
 790 0048 0320     		movs	r0, #3
 791              	.L63:
 640:Drivers/STM32G0xx_HAL_Driver/Src/stm32g0xx_hal_flash.c **** 
 792              		.loc 1 640 1 view .LVU229
 793              		@ sp needed
 794 004a F8BD     		pop	{r3, r4, r5, r6, r7, pc}
 795              	.LVL45:
 796              	.L65:
 620:Drivers/STM32G0xx_HAL_Driver/Src/stm32g0xx_hal_flash.c ****   {
 797              		.loc 1 620 3 is_stmt 1 view .LVU230
 620:Drivers/STM32G0xx_HAL_Driver/Src/stm32g0xx_hal_flash.c ****   {
 798              		.loc 1 620 6 is_stmt 0 view .LVU231
 799 004c 002A     		cmp	r2, #0
 800 004e F3D1     		bne	.L66
 801              	.LVL46:
 802              	.LBB18:
 803              	.LBI18:
 586:Drivers/STM32G0xx_HAL_Driver/Src/stm32g0xx_hal_flash.c **** {
 804              		.loc 1 586 19 is_stmt 1 view .LVU232
 805              	.LBB19:
 629:Drivers/STM32G0xx_HAL_Driver/Src/stm32g0xx_hal_flash.c **** 
 806              		.loc 1 629 3 view .LVU233
 629:Drivers/STM32G0xx_HAL_Driver/Src/stm32g0xx_hal_flash.c **** 
 807              		.loc 1 629 13 is_stmt 0 view .LVU234
 808 0050 FFF7FEFF 		bl	HAL_GetTick
 809              	.LVL47:
 631:Drivers/STM32G0xx_HAL_Driver/Src/stm32g0xx_hal_flash.c ****   {
ARM GAS  /tmp/ccvtvpVm.s 			page 38


 810              		.loc 1 631 10 view .LVU235
 811 0054 8025     		movs	r5, #128
 812              	.LVL48:
 629:Drivers/STM32G0xx_HAL_Driver/Src/stm32g0xx_hal_flash.c **** 
 813              		.loc 1 629 11 view .LVU236
 814 0056 2418     		adds	r4, r4, r0
 815              	.LVL49:
 631:Drivers/STM32G0xx_HAL_Driver/Src/stm32g0xx_hal_flash.c ****   {
 816              		.loc 1 631 3 is_stmt 1 view .LVU237
 631:Drivers/STM32G0xx_HAL_Driver/Src/stm32g0xx_hal_flash.c ****   {
 817              		.loc 1 631 10 is_stmt 0 view .LVU238
 818 0058 ED02     		lsls	r5, r5, #11
 819              	.L68:
 631:Drivers/STM32G0xx_HAL_Driver/Src/stm32g0xx_hal_flash.c ****   {
 820              		.loc 1 631 9 is_stmt 1 view .LVU239
 631:Drivers/STM32G0xx_HAL_Driver/Src/stm32g0xx_hal_flash.c ****   {
 821              		.loc 1 631 10 is_stmt 0 view .LVU240
 822 005a 3369     		ldr	r3, [r6, #16]
 823 005c 1800     		movs	r0, r3
 824 005e 2840     		ands	r0, r5
 631:Drivers/STM32G0xx_HAL_Driver/Src/stm32g0xx_hal_flash.c ****   {
 825              		.loc 1 631 9 view .LVU241
 826 0060 2B42     		tst	r3, r5
 827 0062 F2D0     		beq	.L63
 633:Drivers/STM32G0xx_HAL_Driver/Src/stm32g0xx_hal_flash.c ****     {
 828              		.loc 1 633 5 is_stmt 1 view .LVU242
 633:Drivers/STM32G0xx_HAL_Driver/Src/stm32g0xx_hal_flash.c ****     {
 829              		.loc 1 633 9 is_stmt 0 view .LVU243
 830 0064 FFF7FEFF 		bl	HAL_GetTick
 831              	.LVL50:
 633:Drivers/STM32G0xx_HAL_Driver/Src/stm32g0xx_hal_flash.c ****     {
 832              		.loc 1 633 8 view .LVU244
 833 0068 8442     		cmp	r4, r0
 834 006a F6D8     		bhi	.L68
 835 006c ECE7     		b	.L69
 836              	.L73:
 837 006e C046     		.align	2
 838              	.L72:
 839 0070 00200240 		.word	1073881088
 840 0074 FAC30000 		.word	50170
 841 0078 FBC30000 		.word	50171
 842 007c 00000000 		.word	.LANCHOR0
 843              	.LBE19:
 844              	.LBE18:
 845              		.cfi_endproc
 846              	.LFE312:
 848              		.section	.text.HAL_FLASH_Program,"ax",%progbits
 849              		.align	1
 850              		.global	HAL_FLASH_Program
 851              		.syntax unified
 852              		.code	16
 853              		.thumb_func
 854              		.fpu softvfp
 856              	HAL_FLASH_Program:
 857              	.LVL51:
 858              	.LFB301:
 164:Drivers/STM32G0xx_HAL_Driver/Src/stm32g0xx_hal_flash.c ****   HAL_StatusTypeDef status;
ARM GAS  /tmp/ccvtvpVm.s 			page 39


 859              		.loc 1 164 1 is_stmt 1 view -0
 860              		.cfi_startproc
 861              		@ args = 0, pretend = 0, frame = 8
 862              		@ frame_needed = 0, uses_anonymous_args = 0
 164:Drivers/STM32G0xx_HAL_Driver/Src/stm32g0xx_hal_flash.c ****   HAL_StatusTypeDef status;
 863              		.loc 1 164 1 is_stmt 0 view .LVU246
 864 0000 F7B5     		push	{r0, r1, r2, r4, r5, r6, r7, lr}
 865              	.LCFI3:
 866              		.cfi_def_cfa_offset 32
 867              		.cfi_offset 0, -32
 868              		.cfi_offset 1, -28
 869              		.cfi_offset 2, -24
 870              		.cfi_offset 4, -20
 871              		.cfi_offset 5, -16
 872              		.cfi_offset 6, -12
 873              		.cfi_offset 7, -8
 874              		.cfi_offset 14, -4
 172:Drivers/STM32G0xx_HAL_Driver/Src/stm32g0xx_hal_flash.c **** 
 875              		.loc 1 172 3 view .LVU247
 876 0002 174E     		ldr	r6, .L80
 164:Drivers/STM32G0xx_HAL_Driver/Src/stm32g0xx_hal_flash.c ****   HAL_StatusTypeDef status;
 877              		.loc 1 164 1 view .LVU248
 878 0004 0193     		str	r3, [sp, #4]
 172:Drivers/STM32G0xx_HAL_Driver/Src/stm32g0xx_hal_flash.c **** 
 879              		.loc 1 172 3 view .LVU249
 880 0006 3378     		ldrb	r3, [r6]
 164:Drivers/STM32G0xx_HAL_Driver/Src/stm32g0xx_hal_flash.c ****   HAL_StatusTypeDef status;
 881              		.loc 1 164 1 view .LVU250
 882 0008 0400     		movs	r4, r0
 883 000a 0D00     		movs	r5, r1
 165:Drivers/STM32G0xx_HAL_Driver/Src/stm32g0xx_hal_flash.c **** 
 884              		.loc 1 165 3 is_stmt 1 view .LVU251
 168:Drivers/STM32G0xx_HAL_Driver/Src/stm32g0xx_hal_flash.c ****   assert_param(IS_FLASH_PROGRAM_ADDRESS(Address));
 885              		.loc 1 168 3 view .LVU252
 169:Drivers/STM32G0xx_HAL_Driver/Src/stm32g0xx_hal_flash.c **** 
 886              		.loc 1 169 3 view .LVU253
 172:Drivers/STM32G0xx_HAL_Driver/Src/stm32g0xx_hal_flash.c **** 
 887              		.loc 1 172 3 view .LVU254
 172:Drivers/STM32G0xx_HAL_Driver/Src/stm32g0xx_hal_flash.c **** 
 888              		.loc 1 172 3 view .LVU255
 889 000c 0220     		movs	r0, #2
 890              	.LVL52:
 164:Drivers/STM32G0xx_HAL_Driver/Src/stm32g0xx_hal_flash.c ****   HAL_StatusTypeDef status;
 891              		.loc 1 164 1 is_stmt 0 view .LVU256
 892 000e 0092     		str	r2, [sp]
 172:Drivers/STM32G0xx_HAL_Driver/Src/stm32g0xx_hal_flash.c **** 
 893              		.loc 1 172 3 view .LVU257
 894 0010 012B     		cmp	r3, #1
 895 0012 1ED0     		beq	.L75
 172:Drivers/STM32G0xx_HAL_Driver/Src/stm32g0xx_hal_flash.c **** 
 896              		.loc 1 172 3 is_stmt 1 discriminator 2 view .LVU258
 897 0014 0123     		movs	r3, #1
 178:Drivers/STM32G0xx_HAL_Driver/Src/stm32g0xx_hal_flash.c **** 
 898              		.loc 1 178 12 is_stmt 0 discriminator 2 view .LVU259
 899 0016 FA20     		movs	r0, #250
 172:Drivers/STM32G0xx_HAL_Driver/Src/stm32g0xx_hal_flash.c **** 
 900              		.loc 1 172 3 discriminator 2 view .LVU260
ARM GAS  /tmp/ccvtvpVm.s 			page 40


 901 0018 3370     		strb	r3, [r6]
 172:Drivers/STM32G0xx_HAL_Driver/Src/stm32g0xx_hal_flash.c **** 
 902              		.loc 1 172 3 is_stmt 1 discriminator 2 view .LVU261
 175:Drivers/STM32G0xx_HAL_Driver/Src/stm32g0xx_hal_flash.c **** 
 903              		.loc 1 175 3 discriminator 2 view .LVU262
 175:Drivers/STM32G0xx_HAL_Driver/Src/stm32g0xx_hal_flash.c **** 
 904              		.loc 1 175 20 is_stmt 0 discriminator 2 view .LVU263
 905 001a 0023     		movs	r3, #0
 178:Drivers/STM32G0xx_HAL_Driver/Src/stm32g0xx_hal_flash.c **** 
 906              		.loc 1 178 12 discriminator 2 view .LVU264
 907 001c 8000     		lsls	r0, r0, #2
 175:Drivers/STM32G0xx_HAL_Driver/Src/stm32g0xx_hal_flash.c **** 
 908              		.loc 1 175 20 discriminator 2 view .LVU265
 909 001e 7360     		str	r3, [r6, #4]
 178:Drivers/STM32G0xx_HAL_Driver/Src/stm32g0xx_hal_flash.c **** 
 910              		.loc 1 178 3 is_stmt 1 discriminator 2 view .LVU266
 178:Drivers/STM32G0xx_HAL_Driver/Src/stm32g0xx_hal_flash.c **** 
 911              		.loc 1 178 12 is_stmt 0 discriminator 2 view .LVU267
 912 0020 FFF7FEFF 		bl	FLASH_WaitForLastOperation
 913              	.LVL53:
 180:Drivers/STM32G0xx_HAL_Driver/Src/stm32g0xx_hal_flash.c ****   {
 914              		.loc 1 180 3 is_stmt 1 discriminator 2 view .LVU268
 180:Drivers/STM32G0xx_HAL_Driver/Src/stm32g0xx_hal_flash.c ****   {
 915              		.loc 1 180 6 is_stmt 0 discriminator 2 view .LVU269
 916 0024 0028     		cmp	r0, #0
 917 0026 12D1     		bne	.L76
 182:Drivers/STM32G0xx_HAL_Driver/Src/stm32g0xx_hal_flash.c ****     {
 918              		.loc 1 182 5 is_stmt 1 view .LVU270
 919 0028 0E4F     		ldr	r7, .L80+4
 182:Drivers/STM32G0xx_HAL_Driver/Src/stm32g0xx_hal_flash.c ****     {
 920              		.loc 1 182 8 is_stmt 0 view .LVU271
 921 002a 012C     		cmp	r4, #1
 922 002c 12D1     		bne	.L77
 185:Drivers/STM32G0xx_HAL_Driver/Src/stm32g0xx_hal_flash.c **** 
 923              		.loc 1 185 7 is_stmt 1 view .LVU272
 188:Drivers/STM32G0xx_HAL_Driver/Src/stm32g0xx_hal_flash.c ****     }
 924              		.loc 1 188 7 view .LVU273
 925              	.LVL54:
 926              	.LBB24:
 927              	.LBI24:
 648:Drivers/STM32G0xx_HAL_Driver/Src/stm32g0xx_hal_flash.c **** {
 928              		.loc 1 648 13 view .LVU274
 929              	.LBB25:
 651:Drivers/STM32G0xx_HAL_Driver/Src/stm32g0xx_hal_flash.c **** 
 930              		.loc 1 651 3 view .LVU275
 931 002e 7B69     		ldr	r3, [r7, #20]
 932 0030 2343     		orrs	r3, r4
 933 0032 7B61     		str	r3, [r7, #20]
 654:Drivers/STM32G0xx_HAL_Driver/Src/stm32g0xx_hal_flash.c **** 
 934              		.loc 1 654 3 view .LVU276
 654:Drivers/STM32G0xx_HAL_Driver/Src/stm32g0xx_hal_flash.c **** 
 935              		.loc 1 654 24 is_stmt 0 view .LVU277
 936 0034 009B     		ldr	r3, [sp]
 937 0036 2B60     		str	r3, [r5]
 658:Drivers/STM32G0xx_HAL_Driver/Src/stm32g0xx_hal_flash.c **** 
 938              		.loc 1 658 3 is_stmt 1 view .LVU278
 939              	.LBB26:
ARM GAS  /tmp/ccvtvpVm.s 			page 41


 940              	.LBI26:
 415:Drivers/CMSIS/Include/cmsis_gcc.h **** }
 416:Drivers/CMSIS/Include/cmsis_gcc.h **** 
 417:Drivers/CMSIS/Include/cmsis_gcc.h **** 
 418:Drivers/CMSIS/Include/cmsis_gcc.h **** #if (defined (__ARM_FEATURE_CMSE ) && (__ARM_FEATURE_CMSE == 3))
 419:Drivers/CMSIS/Include/cmsis_gcc.h **** /**
 420:Drivers/CMSIS/Include/cmsis_gcc.h ****   \brief   Set Priority Mask (non-secure)
 421:Drivers/CMSIS/Include/cmsis_gcc.h ****   \details Assigns the given value to the non-secure Priority Mask Register when in secure state.
 422:Drivers/CMSIS/Include/cmsis_gcc.h ****   \param [in]    priMask  Priority Mask
 423:Drivers/CMSIS/Include/cmsis_gcc.h ****  */
 424:Drivers/CMSIS/Include/cmsis_gcc.h **** __STATIC_FORCEINLINE void __TZ_set_PRIMASK_NS(uint32_t priMask)
 425:Drivers/CMSIS/Include/cmsis_gcc.h **** {
 426:Drivers/CMSIS/Include/cmsis_gcc.h ****   __ASM volatile ("MSR primask_ns, %0" : : "r" (priMask) : "memory");
 427:Drivers/CMSIS/Include/cmsis_gcc.h **** }
 428:Drivers/CMSIS/Include/cmsis_gcc.h **** #endif
 429:Drivers/CMSIS/Include/cmsis_gcc.h **** 
 430:Drivers/CMSIS/Include/cmsis_gcc.h **** 
 431:Drivers/CMSIS/Include/cmsis_gcc.h **** #if ((defined (__ARM_ARCH_7M__      ) && (__ARM_ARCH_7M__      == 1)) || \
 432:Drivers/CMSIS/Include/cmsis_gcc.h ****      (defined (__ARM_ARCH_7EM__     ) && (__ARM_ARCH_7EM__     == 1)) || \
 433:Drivers/CMSIS/Include/cmsis_gcc.h ****      (defined (__ARM_ARCH_8M_MAIN__ ) && (__ARM_ARCH_8M_MAIN__ == 1))    )
 434:Drivers/CMSIS/Include/cmsis_gcc.h **** /**
 435:Drivers/CMSIS/Include/cmsis_gcc.h ****   \brief   Enable FIQ
 436:Drivers/CMSIS/Include/cmsis_gcc.h ****   \details Enables FIQ interrupts by clearing the F-bit in the CPSR.
 437:Drivers/CMSIS/Include/cmsis_gcc.h ****            Can only be executed in Privileged modes.
 438:Drivers/CMSIS/Include/cmsis_gcc.h ****  */
 439:Drivers/CMSIS/Include/cmsis_gcc.h **** __STATIC_FORCEINLINE void __enable_fault_irq(void)
 440:Drivers/CMSIS/Include/cmsis_gcc.h **** {
 441:Drivers/CMSIS/Include/cmsis_gcc.h ****   __ASM volatile ("cpsie f" : : : "memory");
 442:Drivers/CMSIS/Include/cmsis_gcc.h **** }
 443:Drivers/CMSIS/Include/cmsis_gcc.h **** 
 444:Drivers/CMSIS/Include/cmsis_gcc.h **** 
 445:Drivers/CMSIS/Include/cmsis_gcc.h **** /**
 446:Drivers/CMSIS/Include/cmsis_gcc.h ****   \brief   Disable FIQ
 447:Drivers/CMSIS/Include/cmsis_gcc.h ****   \details Disables FIQ interrupts by setting the F-bit in the CPSR.
 448:Drivers/CMSIS/Include/cmsis_gcc.h ****            Can only be executed in Privileged modes.
 449:Drivers/CMSIS/Include/cmsis_gcc.h ****  */
 450:Drivers/CMSIS/Include/cmsis_gcc.h **** __STATIC_FORCEINLINE void __disable_fault_irq(void)
 451:Drivers/CMSIS/Include/cmsis_gcc.h **** {
 452:Drivers/CMSIS/Include/cmsis_gcc.h ****   __ASM volatile ("cpsid f" : : : "memory");
 453:Drivers/CMSIS/Include/cmsis_gcc.h **** }
 454:Drivers/CMSIS/Include/cmsis_gcc.h **** 
 455:Drivers/CMSIS/Include/cmsis_gcc.h **** 
 456:Drivers/CMSIS/Include/cmsis_gcc.h **** /**
 457:Drivers/CMSIS/Include/cmsis_gcc.h ****   \brief   Get Base Priority
 458:Drivers/CMSIS/Include/cmsis_gcc.h ****   \details Returns the current value of the Base Priority register.
 459:Drivers/CMSIS/Include/cmsis_gcc.h ****   \return               Base Priority register value
 460:Drivers/CMSIS/Include/cmsis_gcc.h ****  */
 461:Drivers/CMSIS/Include/cmsis_gcc.h **** __STATIC_FORCEINLINE uint32_t __get_BASEPRI(void)
 462:Drivers/CMSIS/Include/cmsis_gcc.h **** {
 463:Drivers/CMSIS/Include/cmsis_gcc.h ****   uint32_t result;
 464:Drivers/CMSIS/Include/cmsis_gcc.h **** 
 465:Drivers/CMSIS/Include/cmsis_gcc.h ****   __ASM volatile ("MRS %0, basepri" : "=r" (result) );
 466:Drivers/CMSIS/Include/cmsis_gcc.h ****   return(result);
 467:Drivers/CMSIS/Include/cmsis_gcc.h **** }
 468:Drivers/CMSIS/Include/cmsis_gcc.h **** 
 469:Drivers/CMSIS/Include/cmsis_gcc.h **** 
 470:Drivers/CMSIS/Include/cmsis_gcc.h **** #if (defined (__ARM_FEATURE_CMSE ) && (__ARM_FEATURE_CMSE == 3))
ARM GAS  /tmp/ccvtvpVm.s 			page 42


 471:Drivers/CMSIS/Include/cmsis_gcc.h **** /**
 472:Drivers/CMSIS/Include/cmsis_gcc.h ****   \brief   Get Base Priority (non-secure)
 473:Drivers/CMSIS/Include/cmsis_gcc.h ****   \details Returns the current value of the non-secure Base Priority register when in secure state.
 474:Drivers/CMSIS/Include/cmsis_gcc.h ****   \return               Base Priority register value
 475:Drivers/CMSIS/Include/cmsis_gcc.h ****  */
 476:Drivers/CMSIS/Include/cmsis_gcc.h **** __STATIC_FORCEINLINE uint32_t __TZ_get_BASEPRI_NS(void)
 477:Drivers/CMSIS/Include/cmsis_gcc.h **** {
 478:Drivers/CMSIS/Include/cmsis_gcc.h ****   uint32_t result;
 479:Drivers/CMSIS/Include/cmsis_gcc.h **** 
 480:Drivers/CMSIS/Include/cmsis_gcc.h ****   __ASM volatile ("MRS %0, basepri_ns" : "=r" (result) );
 481:Drivers/CMSIS/Include/cmsis_gcc.h ****   return(result);
 482:Drivers/CMSIS/Include/cmsis_gcc.h **** }
 483:Drivers/CMSIS/Include/cmsis_gcc.h **** #endif
 484:Drivers/CMSIS/Include/cmsis_gcc.h **** 
 485:Drivers/CMSIS/Include/cmsis_gcc.h **** 
 486:Drivers/CMSIS/Include/cmsis_gcc.h **** /**
 487:Drivers/CMSIS/Include/cmsis_gcc.h ****   \brief   Set Base Priority
 488:Drivers/CMSIS/Include/cmsis_gcc.h ****   \details Assigns the given value to the Base Priority register.
 489:Drivers/CMSIS/Include/cmsis_gcc.h ****   \param [in]    basePri  Base Priority value to set
 490:Drivers/CMSIS/Include/cmsis_gcc.h ****  */
 491:Drivers/CMSIS/Include/cmsis_gcc.h **** __STATIC_FORCEINLINE void __set_BASEPRI(uint32_t basePri)
 492:Drivers/CMSIS/Include/cmsis_gcc.h **** {
 493:Drivers/CMSIS/Include/cmsis_gcc.h ****   __ASM volatile ("MSR basepri, %0" : : "r" (basePri) : "memory");
 494:Drivers/CMSIS/Include/cmsis_gcc.h **** }
 495:Drivers/CMSIS/Include/cmsis_gcc.h **** 
 496:Drivers/CMSIS/Include/cmsis_gcc.h **** 
 497:Drivers/CMSIS/Include/cmsis_gcc.h **** #if (defined (__ARM_FEATURE_CMSE ) && (__ARM_FEATURE_CMSE == 3))
 498:Drivers/CMSIS/Include/cmsis_gcc.h **** /**
 499:Drivers/CMSIS/Include/cmsis_gcc.h ****   \brief   Set Base Priority (non-secure)
 500:Drivers/CMSIS/Include/cmsis_gcc.h ****   \details Assigns the given value to the non-secure Base Priority register when in secure state.
 501:Drivers/CMSIS/Include/cmsis_gcc.h ****   \param [in]    basePri  Base Priority value to set
 502:Drivers/CMSIS/Include/cmsis_gcc.h ****  */
 503:Drivers/CMSIS/Include/cmsis_gcc.h **** __STATIC_FORCEINLINE void __TZ_set_BASEPRI_NS(uint32_t basePri)
 504:Drivers/CMSIS/Include/cmsis_gcc.h **** {
 505:Drivers/CMSIS/Include/cmsis_gcc.h ****   __ASM volatile ("MSR basepri_ns, %0" : : "r" (basePri) : "memory");
 506:Drivers/CMSIS/Include/cmsis_gcc.h **** }
 507:Drivers/CMSIS/Include/cmsis_gcc.h **** #endif
 508:Drivers/CMSIS/Include/cmsis_gcc.h **** 
 509:Drivers/CMSIS/Include/cmsis_gcc.h **** 
 510:Drivers/CMSIS/Include/cmsis_gcc.h **** /**
 511:Drivers/CMSIS/Include/cmsis_gcc.h ****   \brief   Set Base Priority with condition
 512:Drivers/CMSIS/Include/cmsis_gcc.h ****   \details Assigns the given value to the Base Priority register only if BASEPRI masking is disable
 513:Drivers/CMSIS/Include/cmsis_gcc.h ****            or the new value increases the BASEPRI priority level.
 514:Drivers/CMSIS/Include/cmsis_gcc.h ****   \param [in]    basePri  Base Priority value to set
 515:Drivers/CMSIS/Include/cmsis_gcc.h ****  */
 516:Drivers/CMSIS/Include/cmsis_gcc.h **** __STATIC_FORCEINLINE void __set_BASEPRI_MAX(uint32_t basePri)
 517:Drivers/CMSIS/Include/cmsis_gcc.h **** {
 518:Drivers/CMSIS/Include/cmsis_gcc.h ****   __ASM volatile ("MSR basepri_max, %0" : : "r" (basePri) : "memory");
 519:Drivers/CMSIS/Include/cmsis_gcc.h **** }
 520:Drivers/CMSIS/Include/cmsis_gcc.h **** 
 521:Drivers/CMSIS/Include/cmsis_gcc.h **** 
 522:Drivers/CMSIS/Include/cmsis_gcc.h **** /**
 523:Drivers/CMSIS/Include/cmsis_gcc.h ****   \brief   Get Fault Mask
 524:Drivers/CMSIS/Include/cmsis_gcc.h ****   \details Returns the current value of the Fault Mask register.
 525:Drivers/CMSIS/Include/cmsis_gcc.h ****   \return               Fault Mask register value
 526:Drivers/CMSIS/Include/cmsis_gcc.h ****  */
 527:Drivers/CMSIS/Include/cmsis_gcc.h **** __STATIC_FORCEINLINE uint32_t __get_FAULTMASK(void)
ARM GAS  /tmp/ccvtvpVm.s 			page 43


 528:Drivers/CMSIS/Include/cmsis_gcc.h **** {
 529:Drivers/CMSIS/Include/cmsis_gcc.h ****   uint32_t result;
 530:Drivers/CMSIS/Include/cmsis_gcc.h **** 
 531:Drivers/CMSIS/Include/cmsis_gcc.h ****   __ASM volatile ("MRS %0, faultmask" : "=r" (result) );
 532:Drivers/CMSIS/Include/cmsis_gcc.h ****   return(result);
 533:Drivers/CMSIS/Include/cmsis_gcc.h **** }
 534:Drivers/CMSIS/Include/cmsis_gcc.h **** 
 535:Drivers/CMSIS/Include/cmsis_gcc.h **** 
 536:Drivers/CMSIS/Include/cmsis_gcc.h **** #if (defined (__ARM_FEATURE_CMSE ) && (__ARM_FEATURE_CMSE == 3))
 537:Drivers/CMSIS/Include/cmsis_gcc.h **** /**
 538:Drivers/CMSIS/Include/cmsis_gcc.h ****   \brief   Get Fault Mask (non-secure)
 539:Drivers/CMSIS/Include/cmsis_gcc.h ****   \details Returns the current value of the non-secure Fault Mask register when in secure state.
 540:Drivers/CMSIS/Include/cmsis_gcc.h ****   \return               Fault Mask register value
 541:Drivers/CMSIS/Include/cmsis_gcc.h ****  */
 542:Drivers/CMSIS/Include/cmsis_gcc.h **** __STATIC_FORCEINLINE uint32_t __TZ_get_FAULTMASK_NS(void)
 543:Drivers/CMSIS/Include/cmsis_gcc.h **** {
 544:Drivers/CMSIS/Include/cmsis_gcc.h ****   uint32_t result;
 545:Drivers/CMSIS/Include/cmsis_gcc.h **** 
 546:Drivers/CMSIS/Include/cmsis_gcc.h ****   __ASM volatile ("MRS %0, faultmask_ns" : "=r" (result) );
 547:Drivers/CMSIS/Include/cmsis_gcc.h ****   return(result);
 548:Drivers/CMSIS/Include/cmsis_gcc.h **** }
 549:Drivers/CMSIS/Include/cmsis_gcc.h **** #endif
 550:Drivers/CMSIS/Include/cmsis_gcc.h **** 
 551:Drivers/CMSIS/Include/cmsis_gcc.h **** 
 552:Drivers/CMSIS/Include/cmsis_gcc.h **** /**
 553:Drivers/CMSIS/Include/cmsis_gcc.h ****   \brief   Set Fault Mask
 554:Drivers/CMSIS/Include/cmsis_gcc.h ****   \details Assigns the given value to the Fault Mask register.
 555:Drivers/CMSIS/Include/cmsis_gcc.h ****   \param [in]    faultMask  Fault Mask value to set
 556:Drivers/CMSIS/Include/cmsis_gcc.h ****  */
 557:Drivers/CMSIS/Include/cmsis_gcc.h **** __STATIC_FORCEINLINE void __set_FAULTMASK(uint32_t faultMask)
 558:Drivers/CMSIS/Include/cmsis_gcc.h **** {
 559:Drivers/CMSIS/Include/cmsis_gcc.h ****   __ASM volatile ("MSR faultmask, %0" : : "r" (faultMask) : "memory");
 560:Drivers/CMSIS/Include/cmsis_gcc.h **** }
 561:Drivers/CMSIS/Include/cmsis_gcc.h **** 
 562:Drivers/CMSIS/Include/cmsis_gcc.h **** 
 563:Drivers/CMSIS/Include/cmsis_gcc.h **** #if (defined (__ARM_FEATURE_CMSE ) && (__ARM_FEATURE_CMSE == 3))
 564:Drivers/CMSIS/Include/cmsis_gcc.h **** /**
 565:Drivers/CMSIS/Include/cmsis_gcc.h ****   \brief   Set Fault Mask (non-secure)
 566:Drivers/CMSIS/Include/cmsis_gcc.h ****   \details Assigns the given value to the non-secure Fault Mask register when in secure state.
 567:Drivers/CMSIS/Include/cmsis_gcc.h ****   \param [in]    faultMask  Fault Mask value to set
 568:Drivers/CMSIS/Include/cmsis_gcc.h ****  */
 569:Drivers/CMSIS/Include/cmsis_gcc.h **** __STATIC_FORCEINLINE void __TZ_set_FAULTMASK_NS(uint32_t faultMask)
 570:Drivers/CMSIS/Include/cmsis_gcc.h **** {
 571:Drivers/CMSIS/Include/cmsis_gcc.h ****   __ASM volatile ("MSR faultmask_ns, %0" : : "r" (faultMask) : "memory");
 572:Drivers/CMSIS/Include/cmsis_gcc.h **** }
 573:Drivers/CMSIS/Include/cmsis_gcc.h **** #endif
 574:Drivers/CMSIS/Include/cmsis_gcc.h **** 
 575:Drivers/CMSIS/Include/cmsis_gcc.h **** #endif /* ((defined (__ARM_ARCH_7M__      ) && (__ARM_ARCH_7M__      == 1)) || \
 576:Drivers/CMSIS/Include/cmsis_gcc.h ****            (defined (__ARM_ARCH_7EM__     ) && (__ARM_ARCH_7EM__     == 1)) || \
 577:Drivers/CMSIS/Include/cmsis_gcc.h ****            (defined (__ARM_ARCH_8M_MAIN__ ) && (__ARM_ARCH_8M_MAIN__ == 1))    ) */
 578:Drivers/CMSIS/Include/cmsis_gcc.h **** 
 579:Drivers/CMSIS/Include/cmsis_gcc.h **** 
 580:Drivers/CMSIS/Include/cmsis_gcc.h **** #if ((defined (__ARM_ARCH_8M_MAIN__ ) && (__ARM_ARCH_8M_MAIN__ == 1)) || \
 581:Drivers/CMSIS/Include/cmsis_gcc.h ****      (defined (__ARM_ARCH_8M_BASE__ ) && (__ARM_ARCH_8M_BASE__ == 1))    )
 582:Drivers/CMSIS/Include/cmsis_gcc.h **** 
 583:Drivers/CMSIS/Include/cmsis_gcc.h **** /**
 584:Drivers/CMSIS/Include/cmsis_gcc.h ****   \brief   Get Process Stack Pointer Limit
ARM GAS  /tmp/ccvtvpVm.s 			page 44


 585:Drivers/CMSIS/Include/cmsis_gcc.h ****   Devices without ARMv8-M Main Extensions (i.e. Cortex-M23) lack the non-secure
 586:Drivers/CMSIS/Include/cmsis_gcc.h ****   Stack Pointer Limit register hence zero is returned always in non-secure
 587:Drivers/CMSIS/Include/cmsis_gcc.h ****   mode.
 588:Drivers/CMSIS/Include/cmsis_gcc.h ****   
 589:Drivers/CMSIS/Include/cmsis_gcc.h ****   \details Returns the current value of the Process Stack Pointer Limit (PSPLIM).
 590:Drivers/CMSIS/Include/cmsis_gcc.h ****   \return               PSPLIM Register value
 591:Drivers/CMSIS/Include/cmsis_gcc.h ****  */
 592:Drivers/CMSIS/Include/cmsis_gcc.h **** __STATIC_FORCEINLINE uint32_t __get_PSPLIM(void)
 593:Drivers/CMSIS/Include/cmsis_gcc.h **** {
 594:Drivers/CMSIS/Include/cmsis_gcc.h **** #if (!(defined (__ARM_ARCH_8M_MAIN__ ) && (__ARM_ARCH_8M_MAIN__ == 1)) && \
 595:Drivers/CMSIS/Include/cmsis_gcc.h ****     (!defined (__ARM_FEATURE_CMSE) || (__ARM_FEATURE_CMSE < 3)))
 596:Drivers/CMSIS/Include/cmsis_gcc.h ****     // without main extensions, the non-secure PSPLIM is RAZ/WI
 597:Drivers/CMSIS/Include/cmsis_gcc.h ****   return 0U;
 598:Drivers/CMSIS/Include/cmsis_gcc.h **** #else
 599:Drivers/CMSIS/Include/cmsis_gcc.h ****   uint32_t result;
 600:Drivers/CMSIS/Include/cmsis_gcc.h ****   __ASM volatile ("MRS %0, psplim"  : "=r" (result) );
 601:Drivers/CMSIS/Include/cmsis_gcc.h ****   return result;
 602:Drivers/CMSIS/Include/cmsis_gcc.h **** #endif
 603:Drivers/CMSIS/Include/cmsis_gcc.h **** }
 604:Drivers/CMSIS/Include/cmsis_gcc.h **** 
 605:Drivers/CMSIS/Include/cmsis_gcc.h **** #if (defined (__ARM_FEATURE_CMSE) && (__ARM_FEATURE_CMSE == 3))
 606:Drivers/CMSIS/Include/cmsis_gcc.h **** /**
 607:Drivers/CMSIS/Include/cmsis_gcc.h ****   \brief   Get Process Stack Pointer Limit (non-secure)
 608:Drivers/CMSIS/Include/cmsis_gcc.h ****   Devices without ARMv8-M Main Extensions (i.e. Cortex-M23) lack the non-secure
 609:Drivers/CMSIS/Include/cmsis_gcc.h ****   Stack Pointer Limit register hence zero is returned always.
 610:Drivers/CMSIS/Include/cmsis_gcc.h **** 
 611:Drivers/CMSIS/Include/cmsis_gcc.h ****   \details Returns the current value of the non-secure Process Stack Pointer Limit (PSPLIM) when in
 612:Drivers/CMSIS/Include/cmsis_gcc.h ****   \return               PSPLIM Register value
 613:Drivers/CMSIS/Include/cmsis_gcc.h ****  */
 614:Drivers/CMSIS/Include/cmsis_gcc.h **** __STATIC_FORCEINLINE uint32_t __TZ_get_PSPLIM_NS(void)
 615:Drivers/CMSIS/Include/cmsis_gcc.h **** {
 616:Drivers/CMSIS/Include/cmsis_gcc.h **** #if (!(defined (__ARM_ARCH_8M_MAIN__ ) && (__ARM_ARCH_8M_MAIN__ == 1)))
 617:Drivers/CMSIS/Include/cmsis_gcc.h ****   // without main extensions, the non-secure PSPLIM is RAZ/WI
 618:Drivers/CMSIS/Include/cmsis_gcc.h ****   return 0U;
 619:Drivers/CMSIS/Include/cmsis_gcc.h **** #else
 620:Drivers/CMSIS/Include/cmsis_gcc.h ****   uint32_t result;
 621:Drivers/CMSIS/Include/cmsis_gcc.h ****   __ASM volatile ("MRS %0, psplim_ns"  : "=r" (result) );
 622:Drivers/CMSIS/Include/cmsis_gcc.h ****   return result;
 623:Drivers/CMSIS/Include/cmsis_gcc.h **** #endif
 624:Drivers/CMSIS/Include/cmsis_gcc.h **** }
 625:Drivers/CMSIS/Include/cmsis_gcc.h **** #endif
 626:Drivers/CMSIS/Include/cmsis_gcc.h **** 
 627:Drivers/CMSIS/Include/cmsis_gcc.h **** 
 628:Drivers/CMSIS/Include/cmsis_gcc.h **** /**
 629:Drivers/CMSIS/Include/cmsis_gcc.h ****   \brief   Set Process Stack Pointer Limit
 630:Drivers/CMSIS/Include/cmsis_gcc.h ****   Devices without ARMv8-M Main Extensions (i.e. Cortex-M23) lack the non-secure
 631:Drivers/CMSIS/Include/cmsis_gcc.h ****   Stack Pointer Limit register hence the write is silently ignored in non-secure
 632:Drivers/CMSIS/Include/cmsis_gcc.h ****   mode.
 633:Drivers/CMSIS/Include/cmsis_gcc.h ****   
 634:Drivers/CMSIS/Include/cmsis_gcc.h ****   \details Assigns the given value to the Process Stack Pointer Limit (PSPLIM).
 635:Drivers/CMSIS/Include/cmsis_gcc.h ****   \param [in]    ProcStackPtrLimit  Process Stack Pointer Limit value to set
 636:Drivers/CMSIS/Include/cmsis_gcc.h ****  */
 637:Drivers/CMSIS/Include/cmsis_gcc.h **** __STATIC_FORCEINLINE void __set_PSPLIM(uint32_t ProcStackPtrLimit)
 638:Drivers/CMSIS/Include/cmsis_gcc.h **** {
 639:Drivers/CMSIS/Include/cmsis_gcc.h **** #if (!(defined (__ARM_ARCH_8M_MAIN__ ) && (__ARM_ARCH_8M_MAIN__ == 1)) && \
 640:Drivers/CMSIS/Include/cmsis_gcc.h ****     (!defined (__ARM_FEATURE_CMSE) || (__ARM_FEATURE_CMSE < 3)))
 641:Drivers/CMSIS/Include/cmsis_gcc.h ****   // without main extensions, the non-secure PSPLIM is RAZ/WI
ARM GAS  /tmp/ccvtvpVm.s 			page 45


 642:Drivers/CMSIS/Include/cmsis_gcc.h ****   (void)ProcStackPtrLimit;
 643:Drivers/CMSIS/Include/cmsis_gcc.h **** #else
 644:Drivers/CMSIS/Include/cmsis_gcc.h ****   __ASM volatile ("MSR psplim, %0" : : "r" (ProcStackPtrLimit));
 645:Drivers/CMSIS/Include/cmsis_gcc.h **** #endif
 646:Drivers/CMSIS/Include/cmsis_gcc.h **** }
 647:Drivers/CMSIS/Include/cmsis_gcc.h **** 
 648:Drivers/CMSIS/Include/cmsis_gcc.h **** 
 649:Drivers/CMSIS/Include/cmsis_gcc.h **** #if (defined (__ARM_FEATURE_CMSE  ) && (__ARM_FEATURE_CMSE   == 3))
 650:Drivers/CMSIS/Include/cmsis_gcc.h **** /**
 651:Drivers/CMSIS/Include/cmsis_gcc.h ****   \brief   Set Process Stack Pointer (non-secure)
 652:Drivers/CMSIS/Include/cmsis_gcc.h ****   Devices without ARMv8-M Main Extensions (i.e. Cortex-M23) lack the non-secure
 653:Drivers/CMSIS/Include/cmsis_gcc.h ****   Stack Pointer Limit register hence the write is silently ignored.
 654:Drivers/CMSIS/Include/cmsis_gcc.h **** 
 655:Drivers/CMSIS/Include/cmsis_gcc.h ****   \details Assigns the given value to the non-secure Process Stack Pointer Limit (PSPLIM) when in s
 656:Drivers/CMSIS/Include/cmsis_gcc.h ****   \param [in]    ProcStackPtrLimit  Process Stack Pointer Limit value to set
 657:Drivers/CMSIS/Include/cmsis_gcc.h ****  */
 658:Drivers/CMSIS/Include/cmsis_gcc.h **** __STATIC_FORCEINLINE void __TZ_set_PSPLIM_NS(uint32_t ProcStackPtrLimit)
 659:Drivers/CMSIS/Include/cmsis_gcc.h **** {
 660:Drivers/CMSIS/Include/cmsis_gcc.h **** #if (!(defined (__ARM_ARCH_8M_MAIN__ ) && (__ARM_ARCH_8M_MAIN__ == 1)))
 661:Drivers/CMSIS/Include/cmsis_gcc.h ****   // without main extensions, the non-secure PSPLIM is RAZ/WI
 662:Drivers/CMSIS/Include/cmsis_gcc.h ****   (void)ProcStackPtrLimit;
 663:Drivers/CMSIS/Include/cmsis_gcc.h **** #else
 664:Drivers/CMSIS/Include/cmsis_gcc.h ****   __ASM volatile ("MSR psplim_ns, %0\n" : : "r" (ProcStackPtrLimit));
 665:Drivers/CMSIS/Include/cmsis_gcc.h **** #endif
 666:Drivers/CMSIS/Include/cmsis_gcc.h **** }
 667:Drivers/CMSIS/Include/cmsis_gcc.h **** #endif
 668:Drivers/CMSIS/Include/cmsis_gcc.h **** 
 669:Drivers/CMSIS/Include/cmsis_gcc.h **** 
 670:Drivers/CMSIS/Include/cmsis_gcc.h **** /**
 671:Drivers/CMSIS/Include/cmsis_gcc.h ****   \brief   Get Main Stack Pointer Limit
 672:Drivers/CMSIS/Include/cmsis_gcc.h ****   Devices without ARMv8-M Main Extensions (i.e. Cortex-M23) lack the non-secure
 673:Drivers/CMSIS/Include/cmsis_gcc.h ****   Stack Pointer Limit register hence zero is returned always in non-secure
 674:Drivers/CMSIS/Include/cmsis_gcc.h ****   mode.
 675:Drivers/CMSIS/Include/cmsis_gcc.h **** 
 676:Drivers/CMSIS/Include/cmsis_gcc.h ****   \details Returns the current value of the Main Stack Pointer Limit (MSPLIM).
 677:Drivers/CMSIS/Include/cmsis_gcc.h ****   \return               MSPLIM Register value
 678:Drivers/CMSIS/Include/cmsis_gcc.h ****  */
 679:Drivers/CMSIS/Include/cmsis_gcc.h **** __STATIC_FORCEINLINE uint32_t __get_MSPLIM(void)
 680:Drivers/CMSIS/Include/cmsis_gcc.h **** {
 681:Drivers/CMSIS/Include/cmsis_gcc.h **** #if (!(defined (__ARM_ARCH_8M_MAIN__ ) && (__ARM_ARCH_8M_MAIN__ == 1)) && \
 682:Drivers/CMSIS/Include/cmsis_gcc.h ****     (!defined (__ARM_FEATURE_CMSE) || (__ARM_FEATURE_CMSE < 3)))
 683:Drivers/CMSIS/Include/cmsis_gcc.h ****   // without main extensions, the non-secure MSPLIM is RAZ/WI
 684:Drivers/CMSIS/Include/cmsis_gcc.h ****   return 0U;
 685:Drivers/CMSIS/Include/cmsis_gcc.h **** #else
 686:Drivers/CMSIS/Include/cmsis_gcc.h ****   uint32_t result;
 687:Drivers/CMSIS/Include/cmsis_gcc.h ****   __ASM volatile ("MRS %0, msplim" : "=r" (result) );
 688:Drivers/CMSIS/Include/cmsis_gcc.h ****   return result;
 689:Drivers/CMSIS/Include/cmsis_gcc.h **** #endif
 690:Drivers/CMSIS/Include/cmsis_gcc.h **** }
 691:Drivers/CMSIS/Include/cmsis_gcc.h **** 
 692:Drivers/CMSIS/Include/cmsis_gcc.h **** 
 693:Drivers/CMSIS/Include/cmsis_gcc.h **** #if (defined (__ARM_FEATURE_CMSE  ) && (__ARM_FEATURE_CMSE   == 3))
 694:Drivers/CMSIS/Include/cmsis_gcc.h **** /**
 695:Drivers/CMSIS/Include/cmsis_gcc.h ****   \brief   Get Main Stack Pointer Limit (non-secure)
 696:Drivers/CMSIS/Include/cmsis_gcc.h ****   Devices without ARMv8-M Main Extensions (i.e. Cortex-M23) lack the non-secure
 697:Drivers/CMSIS/Include/cmsis_gcc.h ****   Stack Pointer Limit register hence zero is returned always.
 698:Drivers/CMSIS/Include/cmsis_gcc.h **** 
ARM GAS  /tmp/ccvtvpVm.s 			page 46


 699:Drivers/CMSIS/Include/cmsis_gcc.h ****   \details Returns the current value of the non-secure Main Stack Pointer Limit(MSPLIM) when in sec
 700:Drivers/CMSIS/Include/cmsis_gcc.h ****   \return               MSPLIM Register value
 701:Drivers/CMSIS/Include/cmsis_gcc.h ****  */
 702:Drivers/CMSIS/Include/cmsis_gcc.h **** __STATIC_FORCEINLINE uint32_t __TZ_get_MSPLIM_NS(void)
 703:Drivers/CMSIS/Include/cmsis_gcc.h **** {
 704:Drivers/CMSIS/Include/cmsis_gcc.h **** #if (!(defined (__ARM_ARCH_8M_MAIN__ ) && (__ARM_ARCH_8M_MAIN__ == 1)))
 705:Drivers/CMSIS/Include/cmsis_gcc.h ****   // without main extensions, the non-secure MSPLIM is RAZ/WI
 706:Drivers/CMSIS/Include/cmsis_gcc.h ****   return 0U;
 707:Drivers/CMSIS/Include/cmsis_gcc.h **** #else
 708:Drivers/CMSIS/Include/cmsis_gcc.h ****   uint32_t result;
 709:Drivers/CMSIS/Include/cmsis_gcc.h ****   __ASM volatile ("MRS %0, msplim_ns" : "=r" (result) );
 710:Drivers/CMSIS/Include/cmsis_gcc.h ****   return result;
 711:Drivers/CMSIS/Include/cmsis_gcc.h **** #endif
 712:Drivers/CMSIS/Include/cmsis_gcc.h **** }
 713:Drivers/CMSIS/Include/cmsis_gcc.h **** #endif
 714:Drivers/CMSIS/Include/cmsis_gcc.h **** 
 715:Drivers/CMSIS/Include/cmsis_gcc.h **** 
 716:Drivers/CMSIS/Include/cmsis_gcc.h **** /**
 717:Drivers/CMSIS/Include/cmsis_gcc.h ****   \brief   Set Main Stack Pointer Limit
 718:Drivers/CMSIS/Include/cmsis_gcc.h ****   Devices without ARMv8-M Main Extensions (i.e. Cortex-M23) lack the non-secure
 719:Drivers/CMSIS/Include/cmsis_gcc.h ****   Stack Pointer Limit register hence the write is silently ignored in non-secure
 720:Drivers/CMSIS/Include/cmsis_gcc.h ****   mode.
 721:Drivers/CMSIS/Include/cmsis_gcc.h **** 
 722:Drivers/CMSIS/Include/cmsis_gcc.h ****   \details Assigns the given value to the Main Stack Pointer Limit (MSPLIM).
 723:Drivers/CMSIS/Include/cmsis_gcc.h ****   \param [in]    MainStackPtrLimit  Main Stack Pointer Limit value to set
 724:Drivers/CMSIS/Include/cmsis_gcc.h ****  */
 725:Drivers/CMSIS/Include/cmsis_gcc.h **** __STATIC_FORCEINLINE void __set_MSPLIM(uint32_t MainStackPtrLimit)
 726:Drivers/CMSIS/Include/cmsis_gcc.h **** {
 727:Drivers/CMSIS/Include/cmsis_gcc.h **** #if (!(defined (__ARM_ARCH_8M_MAIN__ ) && (__ARM_ARCH_8M_MAIN__ == 1)) && \
 728:Drivers/CMSIS/Include/cmsis_gcc.h ****     (!defined (__ARM_FEATURE_CMSE) || (__ARM_FEATURE_CMSE < 3)))
 729:Drivers/CMSIS/Include/cmsis_gcc.h ****   // without main extensions, the non-secure MSPLIM is RAZ/WI
 730:Drivers/CMSIS/Include/cmsis_gcc.h ****   (void)MainStackPtrLimit;
 731:Drivers/CMSIS/Include/cmsis_gcc.h **** #else
 732:Drivers/CMSIS/Include/cmsis_gcc.h ****   __ASM volatile ("MSR msplim, %0" : : "r" (MainStackPtrLimit));
 733:Drivers/CMSIS/Include/cmsis_gcc.h **** #endif
 734:Drivers/CMSIS/Include/cmsis_gcc.h **** }
 735:Drivers/CMSIS/Include/cmsis_gcc.h **** 
 736:Drivers/CMSIS/Include/cmsis_gcc.h **** 
 737:Drivers/CMSIS/Include/cmsis_gcc.h **** #if (defined (__ARM_FEATURE_CMSE  ) && (__ARM_FEATURE_CMSE   == 3))
 738:Drivers/CMSIS/Include/cmsis_gcc.h **** /**
 739:Drivers/CMSIS/Include/cmsis_gcc.h ****   \brief   Set Main Stack Pointer Limit (non-secure)
 740:Drivers/CMSIS/Include/cmsis_gcc.h ****   Devices without ARMv8-M Main Extensions (i.e. Cortex-M23) lack the non-secure
 741:Drivers/CMSIS/Include/cmsis_gcc.h ****   Stack Pointer Limit register hence the write is silently ignored.
 742:Drivers/CMSIS/Include/cmsis_gcc.h **** 
 743:Drivers/CMSIS/Include/cmsis_gcc.h ****   \details Assigns the given value to the non-secure Main Stack Pointer Limit (MSPLIM) when in secu
 744:Drivers/CMSIS/Include/cmsis_gcc.h ****   \param [in]    MainStackPtrLimit  Main Stack Pointer value to set
 745:Drivers/CMSIS/Include/cmsis_gcc.h ****  */
 746:Drivers/CMSIS/Include/cmsis_gcc.h **** __STATIC_FORCEINLINE void __TZ_set_MSPLIM_NS(uint32_t MainStackPtrLimit)
 747:Drivers/CMSIS/Include/cmsis_gcc.h **** {
 748:Drivers/CMSIS/Include/cmsis_gcc.h **** #if (!(defined (__ARM_ARCH_8M_MAIN__ ) && (__ARM_ARCH_8M_MAIN__ == 1)))
 749:Drivers/CMSIS/Include/cmsis_gcc.h ****   // without main extensions, the non-secure MSPLIM is RAZ/WI
 750:Drivers/CMSIS/Include/cmsis_gcc.h ****   (void)MainStackPtrLimit;
 751:Drivers/CMSIS/Include/cmsis_gcc.h **** #else
 752:Drivers/CMSIS/Include/cmsis_gcc.h ****   __ASM volatile ("MSR msplim_ns, %0" : : "r" (MainStackPtrLimit));
 753:Drivers/CMSIS/Include/cmsis_gcc.h **** #endif
 754:Drivers/CMSIS/Include/cmsis_gcc.h **** }
 755:Drivers/CMSIS/Include/cmsis_gcc.h **** #endif
ARM GAS  /tmp/ccvtvpVm.s 			page 47


 756:Drivers/CMSIS/Include/cmsis_gcc.h **** 
 757:Drivers/CMSIS/Include/cmsis_gcc.h **** #endif /* ((defined (__ARM_ARCH_8M_MAIN__ ) && (__ARM_ARCH_8M_MAIN__ == 1)) || \
 758:Drivers/CMSIS/Include/cmsis_gcc.h ****            (defined (__ARM_ARCH_8M_BASE__ ) && (__ARM_ARCH_8M_BASE__ == 1))    ) */
 759:Drivers/CMSIS/Include/cmsis_gcc.h **** 
 760:Drivers/CMSIS/Include/cmsis_gcc.h **** 
 761:Drivers/CMSIS/Include/cmsis_gcc.h **** /**
 762:Drivers/CMSIS/Include/cmsis_gcc.h ****   \brief   Get FPSCR
 763:Drivers/CMSIS/Include/cmsis_gcc.h ****   \details Returns the current value of the Floating Point Status/Control register.
 764:Drivers/CMSIS/Include/cmsis_gcc.h ****   \return               Floating Point Status/Control register value
 765:Drivers/CMSIS/Include/cmsis_gcc.h ****  */
 766:Drivers/CMSIS/Include/cmsis_gcc.h **** __STATIC_FORCEINLINE uint32_t __get_FPSCR(void)
 767:Drivers/CMSIS/Include/cmsis_gcc.h **** {
 768:Drivers/CMSIS/Include/cmsis_gcc.h **** #if ((defined (__FPU_PRESENT) && (__FPU_PRESENT == 1U)) && \
 769:Drivers/CMSIS/Include/cmsis_gcc.h ****      (defined (__FPU_USED   ) && (__FPU_USED    == 1U))     )
 770:Drivers/CMSIS/Include/cmsis_gcc.h **** #if __has_builtin(__builtin_arm_get_fpscr) 
 771:Drivers/CMSIS/Include/cmsis_gcc.h **** // Re-enable using built-in when GCC has been fixed
 772:Drivers/CMSIS/Include/cmsis_gcc.h **** // || (__GNUC__ > 7) || (__GNUC__ == 7 && __GNUC_MINOR__ >= 2)
 773:Drivers/CMSIS/Include/cmsis_gcc.h ****   /* see https://gcc.gnu.org/ml/gcc-patches/2017-04/msg00443.html */
 774:Drivers/CMSIS/Include/cmsis_gcc.h ****   return __builtin_arm_get_fpscr();
 775:Drivers/CMSIS/Include/cmsis_gcc.h **** #else
 776:Drivers/CMSIS/Include/cmsis_gcc.h ****   uint32_t result;
 777:Drivers/CMSIS/Include/cmsis_gcc.h **** 
 778:Drivers/CMSIS/Include/cmsis_gcc.h ****   __ASM volatile ("VMRS %0, fpscr" : "=r" (result) );
 779:Drivers/CMSIS/Include/cmsis_gcc.h ****   return(result);
 780:Drivers/CMSIS/Include/cmsis_gcc.h **** #endif
 781:Drivers/CMSIS/Include/cmsis_gcc.h **** #else
 782:Drivers/CMSIS/Include/cmsis_gcc.h ****   return(0U);
 783:Drivers/CMSIS/Include/cmsis_gcc.h **** #endif
 784:Drivers/CMSIS/Include/cmsis_gcc.h **** }
 785:Drivers/CMSIS/Include/cmsis_gcc.h **** 
 786:Drivers/CMSIS/Include/cmsis_gcc.h **** 
 787:Drivers/CMSIS/Include/cmsis_gcc.h **** /**
 788:Drivers/CMSIS/Include/cmsis_gcc.h ****   \brief   Set FPSCR
 789:Drivers/CMSIS/Include/cmsis_gcc.h ****   \details Assigns the given value to the Floating Point Status/Control register.
 790:Drivers/CMSIS/Include/cmsis_gcc.h ****   \param [in]    fpscr  Floating Point Status/Control value to set
 791:Drivers/CMSIS/Include/cmsis_gcc.h ****  */
 792:Drivers/CMSIS/Include/cmsis_gcc.h **** __STATIC_FORCEINLINE void __set_FPSCR(uint32_t fpscr)
 793:Drivers/CMSIS/Include/cmsis_gcc.h **** {
 794:Drivers/CMSIS/Include/cmsis_gcc.h **** #if ((defined (__FPU_PRESENT) && (__FPU_PRESENT == 1U)) && \
 795:Drivers/CMSIS/Include/cmsis_gcc.h ****      (defined (__FPU_USED   ) && (__FPU_USED    == 1U))     )
 796:Drivers/CMSIS/Include/cmsis_gcc.h **** #if __has_builtin(__builtin_arm_set_fpscr)
 797:Drivers/CMSIS/Include/cmsis_gcc.h **** // Re-enable using built-in when GCC has been fixed
 798:Drivers/CMSIS/Include/cmsis_gcc.h **** // || (__GNUC__ > 7) || (__GNUC__ == 7 && __GNUC_MINOR__ >= 2)
 799:Drivers/CMSIS/Include/cmsis_gcc.h ****   /* see https://gcc.gnu.org/ml/gcc-patches/2017-04/msg00443.html */
 800:Drivers/CMSIS/Include/cmsis_gcc.h ****   __builtin_arm_set_fpscr(fpscr);
 801:Drivers/CMSIS/Include/cmsis_gcc.h **** #else
 802:Drivers/CMSIS/Include/cmsis_gcc.h ****   __ASM volatile ("VMSR fpscr, %0" : : "r" (fpscr) : "vfpcc", "memory");
 803:Drivers/CMSIS/Include/cmsis_gcc.h **** #endif
 804:Drivers/CMSIS/Include/cmsis_gcc.h **** #else
 805:Drivers/CMSIS/Include/cmsis_gcc.h ****   (void)fpscr;
 806:Drivers/CMSIS/Include/cmsis_gcc.h **** #endif
 807:Drivers/CMSIS/Include/cmsis_gcc.h **** }
 808:Drivers/CMSIS/Include/cmsis_gcc.h **** 
 809:Drivers/CMSIS/Include/cmsis_gcc.h **** 
 810:Drivers/CMSIS/Include/cmsis_gcc.h **** /*@} end of CMSIS_Core_RegAccFunctions */
 811:Drivers/CMSIS/Include/cmsis_gcc.h **** 
 812:Drivers/CMSIS/Include/cmsis_gcc.h **** 
ARM GAS  /tmp/ccvtvpVm.s 			page 48


 813:Drivers/CMSIS/Include/cmsis_gcc.h **** /* ##########################  Core Instruction Access  ######################### */
 814:Drivers/CMSIS/Include/cmsis_gcc.h **** /** \defgroup CMSIS_Core_InstructionInterface CMSIS Core Instruction Interface
 815:Drivers/CMSIS/Include/cmsis_gcc.h ****   Access to dedicated instructions
 816:Drivers/CMSIS/Include/cmsis_gcc.h ****   @{
 817:Drivers/CMSIS/Include/cmsis_gcc.h **** */
 818:Drivers/CMSIS/Include/cmsis_gcc.h **** 
 819:Drivers/CMSIS/Include/cmsis_gcc.h **** /* Define macros for porting to both thumb1 and thumb2.
 820:Drivers/CMSIS/Include/cmsis_gcc.h ****  * For thumb1, use low register (r0-r7), specified by constraint "l"
 821:Drivers/CMSIS/Include/cmsis_gcc.h ****  * Otherwise, use general registers, specified by constraint "r" */
 822:Drivers/CMSIS/Include/cmsis_gcc.h **** #if defined (__thumb__) && !defined (__thumb2__)
 823:Drivers/CMSIS/Include/cmsis_gcc.h **** #define __CMSIS_GCC_OUT_REG(r) "=l" (r)
 824:Drivers/CMSIS/Include/cmsis_gcc.h **** #define __CMSIS_GCC_RW_REG(r) "+l" (r)
 825:Drivers/CMSIS/Include/cmsis_gcc.h **** #define __CMSIS_GCC_USE_REG(r) "l" (r)
 826:Drivers/CMSIS/Include/cmsis_gcc.h **** #else
 827:Drivers/CMSIS/Include/cmsis_gcc.h **** #define __CMSIS_GCC_OUT_REG(r) "=r" (r)
 828:Drivers/CMSIS/Include/cmsis_gcc.h **** #define __CMSIS_GCC_RW_REG(r) "+r" (r)
 829:Drivers/CMSIS/Include/cmsis_gcc.h **** #define __CMSIS_GCC_USE_REG(r) "r" (r)
 830:Drivers/CMSIS/Include/cmsis_gcc.h **** #endif
 831:Drivers/CMSIS/Include/cmsis_gcc.h **** 
 832:Drivers/CMSIS/Include/cmsis_gcc.h **** /**
 833:Drivers/CMSIS/Include/cmsis_gcc.h ****   \brief   No Operation
 834:Drivers/CMSIS/Include/cmsis_gcc.h ****   \details No Operation does nothing. This instruction can be used for code alignment purposes.
 835:Drivers/CMSIS/Include/cmsis_gcc.h ****  */
 836:Drivers/CMSIS/Include/cmsis_gcc.h **** #define __NOP()                             __ASM volatile ("nop")
 837:Drivers/CMSIS/Include/cmsis_gcc.h **** 
 838:Drivers/CMSIS/Include/cmsis_gcc.h **** /**
 839:Drivers/CMSIS/Include/cmsis_gcc.h ****   \brief   Wait For Interrupt
 840:Drivers/CMSIS/Include/cmsis_gcc.h ****   \details Wait For Interrupt is a hint instruction that suspends execution until one of a number o
 841:Drivers/CMSIS/Include/cmsis_gcc.h ****  */
 842:Drivers/CMSIS/Include/cmsis_gcc.h **** #define __WFI()                             __ASM volatile ("wfi")
 843:Drivers/CMSIS/Include/cmsis_gcc.h **** 
 844:Drivers/CMSIS/Include/cmsis_gcc.h **** 
 845:Drivers/CMSIS/Include/cmsis_gcc.h **** /**
 846:Drivers/CMSIS/Include/cmsis_gcc.h ****   \brief   Wait For Event
 847:Drivers/CMSIS/Include/cmsis_gcc.h ****   \details Wait For Event is a hint instruction that permits the processor to enter
 848:Drivers/CMSIS/Include/cmsis_gcc.h ****            a low-power state until one of a number of events occurs.
 849:Drivers/CMSIS/Include/cmsis_gcc.h ****  */
 850:Drivers/CMSIS/Include/cmsis_gcc.h **** #define __WFE()                             __ASM volatile ("wfe")
 851:Drivers/CMSIS/Include/cmsis_gcc.h **** 
 852:Drivers/CMSIS/Include/cmsis_gcc.h **** 
 853:Drivers/CMSIS/Include/cmsis_gcc.h **** /**
 854:Drivers/CMSIS/Include/cmsis_gcc.h ****   \brief   Send Event
 855:Drivers/CMSIS/Include/cmsis_gcc.h ****   \details Send Event is a hint instruction. It causes an event to be signaled to the CPU.
 856:Drivers/CMSIS/Include/cmsis_gcc.h ****  */
 857:Drivers/CMSIS/Include/cmsis_gcc.h **** #define __SEV()                             __ASM volatile ("sev")
 858:Drivers/CMSIS/Include/cmsis_gcc.h **** 
 859:Drivers/CMSIS/Include/cmsis_gcc.h **** 
 860:Drivers/CMSIS/Include/cmsis_gcc.h **** /**
 861:Drivers/CMSIS/Include/cmsis_gcc.h ****   \brief   Instruction Synchronization Barrier
 862:Drivers/CMSIS/Include/cmsis_gcc.h ****   \details Instruction Synchronization Barrier flushes the pipeline in the processor,
 863:Drivers/CMSIS/Include/cmsis_gcc.h ****            so that all instructions following the ISB are fetched from cache or memory,
 864:Drivers/CMSIS/Include/cmsis_gcc.h ****            after the instruction has been completed.
 865:Drivers/CMSIS/Include/cmsis_gcc.h ****  */
 866:Drivers/CMSIS/Include/cmsis_gcc.h **** __STATIC_FORCEINLINE void __ISB(void)
 941              		.loc 2 866 27 view .LVU279
 942              	.LBB27:
 867:Drivers/CMSIS/Include/cmsis_gcc.h **** {
ARM GAS  /tmp/ccvtvpVm.s 			page 49


 868:Drivers/CMSIS/Include/cmsis_gcc.h ****   __ASM volatile ("isb 0xF":::"memory");
 943              		.loc 2 868 3 view .LVU280
 944              		.syntax divided
 945              	@ 868 "Drivers/CMSIS/Include/cmsis_gcc.h" 1
 946 0038 BFF36F8F 		isb 0xF
 947              	@ 0 "" 2
 948              		.thumb
 949              		.syntax unified
 950              	.LBE27:
 951              	.LBE26:
 661:Drivers/STM32G0xx_HAL_Driver/Src/stm32g0xx_hal_flash.c **** }
 952              		.loc 1 661 3 view .LVU281
 661:Drivers/STM32G0xx_HAL_Driver/Src/stm32g0xx_hal_flash.c **** }
 953              		.loc 1 661 33 is_stmt 0 view .LVU282
 954 003c 019B     		ldr	r3, [sp, #4]
 955 003e 6B60     		str	r3, [r5, #4]
 956              	.LVL55:
 957              	.L78:
 661:Drivers/STM32G0xx_HAL_Driver/Src/stm32g0xx_hal_flash.c **** }
 958              		.loc 1 661 33 view .LVU283
 959              	.LBE25:
 960              	.LBE24:
 200:Drivers/STM32G0xx_HAL_Driver/Src/stm32g0xx_hal_flash.c **** 
 961              		.loc 1 200 5 is_stmt 1 view .LVU284
 200:Drivers/STM32G0xx_HAL_Driver/Src/stm32g0xx_hal_flash.c **** 
 962              		.loc 1 200 14 is_stmt 0 view .LVU285
 963 0040 FA20     		movs	r0, #250
 964 0042 8000     		lsls	r0, r0, #2
 965 0044 FFF7FEFF 		bl	FLASH_WaitForLastOperation
 966              	.LVL56:
 203:Drivers/STM32G0xx_HAL_Driver/Src/stm32g0xx_hal_flash.c ****   }
 967              		.loc 1 203 5 is_stmt 1 view .LVU286
 968 0048 7B69     		ldr	r3, [r7, #20]
 969 004a A343     		bics	r3, r4
 970 004c 7B61     		str	r3, [r7, #20]
 971              	.LVL57:
 972              	.L76:
 207:Drivers/STM32G0xx_HAL_Driver/Src/stm32g0xx_hal_flash.c **** 
 973              		.loc 1 207 3 view .LVU287
 207:Drivers/STM32G0xx_HAL_Driver/Src/stm32g0xx_hal_flash.c **** 
 974              		.loc 1 207 3 view .LVU288
 975 004e 0023     		movs	r3, #0
 976 0050 3370     		strb	r3, [r6]
 207:Drivers/STM32G0xx_HAL_Driver/Src/stm32g0xx_hal_flash.c **** 
 977              		.loc 1 207 3 view .LVU289
 210:Drivers/STM32G0xx_HAL_Driver/Src/stm32g0xx_hal_flash.c **** }
 978              		.loc 1 210 3 view .LVU290
 979              	.LVL58:
 980              	.L75:
 211:Drivers/STM32G0xx_HAL_Driver/Src/stm32g0xx_hal_flash.c **** 
 981              		.loc 1 211 1 is_stmt 0 view .LVU291
 982              		@ sp needed
 983              	.LVL59:
 984              	.LVL60:
 211:Drivers/STM32G0xx_HAL_Driver/Src/stm32g0xx_hal_flash.c **** 
 985              		.loc 1 211 1 view .LVU292
 986 0052 FEBD     		pop	{r1, r2, r3, r4, r5, r6, r7, pc}
ARM GAS  /tmp/ccvtvpVm.s 			page 50


 987              	.LVL61:
 988              	.L77:
 193:Drivers/STM32G0xx_HAL_Driver/Src/stm32g0xx_hal_flash.c **** 
 989              		.loc 1 193 7 is_stmt 1 view .LVU293
 196:Drivers/STM32G0xx_HAL_Driver/Src/stm32g0xx_hal_flash.c ****     }
 990              		.loc 1 196 7 view .LVU294
 991 0054 2800     		movs	r0, r5
 992              	.LVL62:
 196:Drivers/STM32G0xx_HAL_Driver/Src/stm32g0xx_hal_flash.c ****     }
 993              		.loc 1 196 7 is_stmt 0 view .LVU295
 994 0056 0099     		ldr	r1, [sp]
 995 0058 FFF7FEFF 		bl	FLASH_Program_Fast
 996              	.LVL63:
 997 005c F0E7     		b	.L78
 998              	.L81:
 999 005e C046     		.align	2
 1000              	.L80:
 1001 0060 00000000 		.word	.LANCHOR0
 1002 0064 00200240 		.word	1073881088
 1003              		.cfi_endproc
 1004              	.LFE301:
 1006              		.section	.text.HAL_FLASH_Program_IT,"ax",%progbits
 1007              		.align	1
 1008              		.global	HAL_FLASH_Program_IT
 1009              		.syntax unified
 1010              		.code	16
 1011              		.thumb_func
 1012              		.fpu softvfp
 1014              	HAL_FLASH_Program_IT:
 1015              	.LVL64:
 1016              	.LFB302:
 225:Drivers/STM32G0xx_HAL_Driver/Src/stm32g0xx_hal_flash.c ****   HAL_StatusTypeDef status;
 1017              		.loc 1 225 1 is_stmt 1 view -0
 1018              		.cfi_startproc
 1019              		@ args = 0, pretend = 0, frame = 8
 1020              		@ frame_needed = 0, uses_anonymous_args = 0
 225:Drivers/STM32G0xx_HAL_Driver/Src/stm32g0xx_hal_flash.c ****   HAL_StatusTypeDef status;
 1021              		.loc 1 225 1 is_stmt 0 view .LVU297
 1022 0000 F7B5     		push	{r0, r1, r2, r4, r5, r6, r7, lr}
 1023              	.LCFI4:
 1024              		.cfi_def_cfa_offset 32
 1025              		.cfi_offset 0, -32
 1026              		.cfi_offset 1, -28
 1027              		.cfi_offset 2, -24
 1028              		.cfi_offset 4, -20
 1029              		.cfi_offset 5, -16
 1030              		.cfi_offset 6, -12
 1031              		.cfi_offset 7, -8
 1032              		.cfi_offset 14, -4
 233:Drivers/STM32G0xx_HAL_Driver/Src/stm32g0xx_hal_flash.c **** 
 1033              		.loc 1 233 3 view .LVU298
 1034 0002 1A4E     		ldr	r6, .L87
 225:Drivers/STM32G0xx_HAL_Driver/Src/stm32g0xx_hal_flash.c ****   HAL_StatusTypeDef status;
 1035              		.loc 1 225 1 view .LVU299
 1036 0004 0193     		str	r3, [sp, #4]
 233:Drivers/STM32G0xx_HAL_Driver/Src/stm32g0xx_hal_flash.c **** 
 1037              		.loc 1 233 3 view .LVU300
ARM GAS  /tmp/ccvtvpVm.s 			page 51


 1038 0006 3378     		ldrb	r3, [r6]
 225:Drivers/STM32G0xx_HAL_Driver/Src/stm32g0xx_hal_flash.c ****   HAL_StatusTypeDef status;
 1039              		.loc 1 225 1 view .LVU301
 1040 0008 0400     		movs	r4, r0
 1041 000a 0D00     		movs	r5, r1
 226:Drivers/STM32G0xx_HAL_Driver/Src/stm32g0xx_hal_flash.c **** 
 1042              		.loc 1 226 3 is_stmt 1 view .LVU302
 229:Drivers/STM32G0xx_HAL_Driver/Src/stm32g0xx_hal_flash.c ****   assert_param(IS_FLASH_PROGRAM_ADDRESS(Address));
 1043              		.loc 1 229 3 view .LVU303
 230:Drivers/STM32G0xx_HAL_Driver/Src/stm32g0xx_hal_flash.c **** 
 1044              		.loc 1 230 3 view .LVU304
 233:Drivers/STM32G0xx_HAL_Driver/Src/stm32g0xx_hal_flash.c **** 
 1045              		.loc 1 233 3 view .LVU305
 233:Drivers/STM32G0xx_HAL_Driver/Src/stm32g0xx_hal_flash.c **** 
 1046              		.loc 1 233 3 view .LVU306
 1047 000c 0227     		movs	r7, #2
 225:Drivers/STM32G0xx_HAL_Driver/Src/stm32g0xx_hal_flash.c ****   HAL_StatusTypeDef status;
 1048              		.loc 1 225 1 is_stmt 0 view .LVU307
 1049 000e 0092     		str	r2, [sp]
 233:Drivers/STM32G0xx_HAL_Driver/Src/stm32g0xx_hal_flash.c **** 
 1050              		.loc 1 233 3 view .LVU308
 1051 0010 012B     		cmp	r3, #1
 1052 0012 0BD0     		beq	.L83
 233:Drivers/STM32G0xx_HAL_Driver/Src/stm32g0xx_hal_flash.c **** 
 1053              		.loc 1 233 3 is_stmt 1 discriminator 2 view .LVU309
 1054 0014 0123     		movs	r3, #1
 239:Drivers/STM32G0xx_HAL_Driver/Src/stm32g0xx_hal_flash.c **** 
 1055              		.loc 1 239 12 is_stmt 0 discriminator 2 view .LVU310
 1056 0016 FA20     		movs	r0, #250
 1057              	.LVL65:
 233:Drivers/STM32G0xx_HAL_Driver/Src/stm32g0xx_hal_flash.c **** 
 1058              		.loc 1 233 3 discriminator 2 view .LVU311
 1059 0018 3370     		strb	r3, [r6]
 233:Drivers/STM32G0xx_HAL_Driver/Src/stm32g0xx_hal_flash.c **** 
 1060              		.loc 1 233 3 is_stmt 1 discriminator 2 view .LVU312
 236:Drivers/STM32G0xx_HAL_Driver/Src/stm32g0xx_hal_flash.c **** 
 1061              		.loc 1 236 3 discriminator 2 view .LVU313
 236:Drivers/STM32G0xx_HAL_Driver/Src/stm32g0xx_hal_flash.c **** 
 1062              		.loc 1 236 20 is_stmt 0 discriminator 2 view .LVU314
 1063 001a 0023     		movs	r3, #0
 239:Drivers/STM32G0xx_HAL_Driver/Src/stm32g0xx_hal_flash.c **** 
 1064              		.loc 1 239 12 discriminator 2 view .LVU315
 1065 001c 8000     		lsls	r0, r0, #2
 236:Drivers/STM32G0xx_HAL_Driver/Src/stm32g0xx_hal_flash.c **** 
 1066              		.loc 1 236 20 discriminator 2 view .LVU316
 1067 001e 7360     		str	r3, [r6, #4]
 239:Drivers/STM32G0xx_HAL_Driver/Src/stm32g0xx_hal_flash.c **** 
 1068              		.loc 1 239 3 is_stmt 1 discriminator 2 view .LVU317
 239:Drivers/STM32G0xx_HAL_Driver/Src/stm32g0xx_hal_flash.c **** 
 1069              		.loc 1 239 12 is_stmt 0 discriminator 2 view .LVU318
 1070 0020 FFF7FEFF 		bl	FLASH_WaitForLastOperation
 1071              	.LVL66:
 239:Drivers/STM32G0xx_HAL_Driver/Src/stm32g0xx_hal_flash.c **** 
 1072              		.loc 1 239 12 discriminator 2 view .LVU319
 1073 0024 071E     		subs	r7, r0, #0
 1074              	.LVL67:
 241:Drivers/STM32G0xx_HAL_Driver/Src/stm32g0xx_hal_flash.c ****   {
ARM GAS  /tmp/ccvtvpVm.s 			page 52


 1075              		.loc 1 241 3 is_stmt 1 discriminator 2 view .LVU320
 241:Drivers/STM32G0xx_HAL_Driver/Src/stm32g0xx_hal_flash.c ****   {
 1076              		.loc 1 241 6 is_stmt 0 discriminator 2 view .LVU321
 1077 0026 03D0     		beq	.L84
 244:Drivers/STM32G0xx_HAL_Driver/Src/stm32g0xx_hal_flash.c ****   }
 1078              		.loc 1 244 5 is_stmt 1 view .LVU322
 244:Drivers/STM32G0xx_HAL_Driver/Src/stm32g0xx_hal_flash.c ****   }
 1079              		.loc 1 244 5 view .LVU323
 1080 0028 0023     		movs	r3, #0
 1081 002a 3370     		strb	r3, [r6]
 244:Drivers/STM32G0xx_HAL_Driver/Src/stm32g0xx_hal_flash.c ****   }
 1082              		.loc 1 244 5 view .LVU324
 1083              	.LVL68:
 1084              	.L83:
 275:Drivers/STM32G0xx_HAL_Driver/Src/stm32g0xx_hal_flash.c **** 
 1085              		.loc 1 275 1 is_stmt 0 view .LVU325
 1086 002c 3800     		movs	r0, r7
 1087              		@ sp needed
 1088              	.LVL69:
 275:Drivers/STM32G0xx_HAL_Driver/Src/stm32g0xx_hal_flash.c **** 
 1089              		.loc 1 275 1 view .LVU326
 1090 002e FEBD     		pop	{r1, r2, r3, r4, r5, r6, r7, pc}
 1091              	.LVL70:
 1092              	.L84:
 249:Drivers/STM32G0xx_HAL_Driver/Src/stm32g0xx_hal_flash.c ****     pFlash.Address = Address;
 1093              		.loc 1 249 5 is_stmt 1 view .LVU327
 253:Drivers/STM32G0xx_HAL_Driver/Src/stm32g0xx_hal_flash.c **** 
 1094              		.loc 1 253 5 is_stmt 0 view .LVU328
 1095 0030 8022     		movs	r2, #128
 1096 0032 0F4B     		ldr	r3, .L87+4
 249:Drivers/STM32G0xx_HAL_Driver/Src/stm32g0xx_hal_flash.c ****     pFlash.Address = Address;
 1097              		.loc 1 249 29 view .LVU329
 1098 0034 B460     		str	r4, [r6, #8]
 250:Drivers/STM32G0xx_HAL_Driver/Src/stm32g0xx_hal_flash.c **** 
 1099              		.loc 1 250 5 is_stmt 1 view .LVU330
 250:Drivers/STM32G0xx_HAL_Driver/Src/stm32g0xx_hal_flash.c **** 
 1100              		.loc 1 250 20 is_stmt 0 view .LVU331
 1101 0036 F560     		str	r5, [r6, #12]
 253:Drivers/STM32G0xx_HAL_Driver/Src/stm32g0xx_hal_flash.c **** 
 1102              		.loc 1 253 5 is_stmt 1 view .LVU332
 253:Drivers/STM32G0xx_HAL_Driver/Src/stm32g0xx_hal_flash.c **** 
 1103              		.loc 1 253 5 view .LVU333
 253:Drivers/STM32G0xx_HAL_Driver/Src/stm32g0xx_hal_flash.c **** 
 1104              		.loc 1 253 5 view .LVU334
 1105 0038 9969     		ldr	r1, [r3, #24]
 1106 003a 5204     		lsls	r2, r2, #17
 1107 003c 0A43     		orrs	r2, r1
 1108 003e 9A61     		str	r2, [r3, #24]
 253:Drivers/STM32G0xx_HAL_Driver/Src/stm32g0xx_hal_flash.c **** 
 1109              		.loc 1 253 5 view .LVU335
 253:Drivers/STM32G0xx_HAL_Driver/Src/stm32g0xx_hal_flash.c **** 
 1110              		.loc 1 253 5 view .LVU336
 1111 0040 C022     		movs	r2, #192
 1112 0042 5969     		ldr	r1, [r3, #20]
 1113 0044 9204     		lsls	r2, r2, #18
 1114 0046 0A43     		orrs	r2, r1
 1115 0048 5A61     		str	r2, [r3, #20]
ARM GAS  /tmp/ccvtvpVm.s 			page 53


 253:Drivers/STM32G0xx_HAL_Driver/Src/stm32g0xx_hal_flash.c **** 
 1116              		.loc 1 253 5 view .LVU337
 255:Drivers/STM32G0xx_HAL_Driver/Src/stm32g0xx_hal_flash.c ****     {
 1117              		.loc 1 255 5 view .LVU338
 255:Drivers/STM32G0xx_HAL_Driver/Src/stm32g0xx_hal_flash.c ****     {
 1118              		.loc 1 255 8 is_stmt 0 view .LVU339
 1119 004a 012C     		cmp	r4, #1
 1120 004c 09D1     		bne	.L85
 258:Drivers/STM32G0xx_HAL_Driver/Src/stm32g0xx_hal_flash.c **** 
 1121              		.loc 1 258 7 is_stmt 1 view .LVU340
 261:Drivers/STM32G0xx_HAL_Driver/Src/stm32g0xx_hal_flash.c ****     }
 1122              		.loc 1 261 7 view .LVU341
 1123              	.LVL71:
 1124              	.LBB32:
 1125              	.LBI32:
 648:Drivers/STM32G0xx_HAL_Driver/Src/stm32g0xx_hal_flash.c **** {
 1126              		.loc 1 648 13 view .LVU342
 1127              	.LBB33:
 651:Drivers/STM32G0xx_HAL_Driver/Src/stm32g0xx_hal_flash.c **** 
 1128              		.loc 1 651 3 view .LVU343
 1129 004e 5869     		ldr	r0, [r3, #20]
 1130              	.LVL72:
 651:Drivers/STM32G0xx_HAL_Driver/Src/stm32g0xx_hal_flash.c **** 
 1131              		.loc 1 651 3 is_stmt 0 view .LVU344
 1132 0050 0443     		orrs	r4, r0
 1133              	.LVL73:
 651:Drivers/STM32G0xx_HAL_Driver/Src/stm32g0xx_hal_flash.c **** 
 1134              		.loc 1 651 3 view .LVU345
 1135 0052 5C61     		str	r4, [r3, #20]
 654:Drivers/STM32G0xx_HAL_Driver/Src/stm32g0xx_hal_flash.c **** 
 1136              		.loc 1 654 3 is_stmt 1 view .LVU346
 654:Drivers/STM32G0xx_HAL_Driver/Src/stm32g0xx_hal_flash.c **** 
 1137              		.loc 1 654 24 is_stmt 0 view .LVU347
 1138 0054 009B     		ldr	r3, [sp]
 1139 0056 2B60     		str	r3, [r5]
 1140              	.LVL74:
 658:Drivers/STM32G0xx_HAL_Driver/Src/stm32g0xx_hal_flash.c **** 
 1141              		.loc 1 658 3 is_stmt 1 view .LVU348
 1142              	.LBB34:
 1143              	.LBI34:
 866:Drivers/CMSIS/Include/cmsis_gcc.h **** {
 1144              		.loc 2 866 27 view .LVU349
 1145              	.LBB35:
 1146              		.loc 2 868 3 view .LVU350
 1147              		.syntax divided
 1148              	@ 868 "Drivers/CMSIS/Include/cmsis_gcc.h" 1
 1149 0058 BFF36F8F 		isb 0xF
 1150              	@ 0 "" 2
 1151              		.thumb
 1152              		.syntax unified
 1153              	.LBE35:
 1154              	.LBE34:
 661:Drivers/STM32G0xx_HAL_Driver/Src/stm32g0xx_hal_flash.c **** }
 1155              		.loc 1 661 3 view .LVU351
 661:Drivers/STM32G0xx_HAL_Driver/Src/stm32g0xx_hal_flash.c **** }
 1156              		.loc 1 661 33 is_stmt 0 view .LVU352
 1157 005c 019B     		ldr	r3, [sp, #4]
ARM GAS  /tmp/ccvtvpVm.s 			page 54


 1158 005e 6B60     		str	r3, [r5, #4]
 662:Drivers/STM32G0xx_HAL_Driver/Src/stm32g0xx_hal_flash.c **** 
 1159              		.loc 1 662 1 view .LVU353
 1160 0060 E4E7     		b	.L83
 1161              	.LVL75:
 1162              	.L85:
 662:Drivers/STM32G0xx_HAL_Driver/Src/stm32g0xx_hal_flash.c **** 
 1163              		.loc 1 662 1 view .LVU354
 1164              	.LBE33:
 1165              	.LBE32:
 266:Drivers/STM32G0xx_HAL_Driver/Src/stm32g0xx_hal_flash.c **** 
 1166              		.loc 1 266 7 is_stmt 1 view .LVU355
 269:Drivers/STM32G0xx_HAL_Driver/Src/stm32g0xx_hal_flash.c ****     }
 1167              		.loc 1 269 7 view .LVU356
 1168 0062 2800     		movs	r0, r5
 1169              	.LVL76:
 269:Drivers/STM32G0xx_HAL_Driver/Src/stm32g0xx_hal_flash.c ****     }
 1170              		.loc 1 269 7 is_stmt 0 view .LVU357
 1171 0064 0099     		ldr	r1, [sp]
 1172 0066 FFF7FEFF 		bl	FLASH_Program_Fast
 1173              	.LVL77:
 1174 006a DFE7     		b	.L83
 1175              	.L88:
 1176              		.align	2
 1177              	.L87:
 1178 006c 00000000 		.word	.LANCHOR0
 1179 0070 00200240 		.word	1073881088
 1180              		.cfi_endproc
 1181              	.LFE302:
 1183              		.global	pFlash
 1184              		.section	.bss.pFlash,"aw",%nobits
 1185              		.align	2
 1186              		.set	.LANCHOR0,. + 0
 1189              	pFlash:
 1190 0000 00000000 		.space	24
 1190      00000000 
 1190      00000000 
 1190      00000000 
 1190      00000000 
 1191              		.text
 1192              	.Letext0:
 1193              		.file 3 "/usr/lib/gcc/arm-none-eabi/9.2.1/include/stdint.h"
 1194              		.file 4 "Drivers/CMSIS/Device/ST/STM32G0xx/Include/system_stm32g0xx.h"
 1195              		.file 5 "Drivers/CMSIS/Device/ST/STM32G0xx/Include/stm32g071xx.h"
 1196              		.file 6 "Drivers/STM32G0xx_HAL_Driver/Inc/stm32g0xx_hal_def.h"
 1197              		.file 7 "Drivers/STM32G0xx_HAL_Driver/Inc/stm32g0xx_hal_flash.h"
 1198              		.file 8 "Drivers/STM32G0xx_HAL_Driver/Inc/stm32g0xx_hal.h"
 1199              		.file 9 "Drivers/STM32G0xx_HAL_Driver/Inc/stm32g0xx_hal_flash_ex.h"
ARM GAS  /tmp/ccvtvpVm.s 			page 55


DEFINED SYMBOLS
                            *ABS*:0000000000000000 stm32g0xx_hal_flash.c
     /tmp/ccvtvpVm.s:16     .RamFunc:0000000000000000 $t
     /tmp/ccvtvpVm.s:23     .RamFunc:0000000000000000 FLASH_Program_Fast
     /tmp/ccvtvpVm.s:142    .RamFunc:0000000000000034 $d
     /tmp/ccvtvpVm.s:147    .text.HAL_FLASH_EndOfOperationCallback:0000000000000000 $t
     /tmp/ccvtvpVm.s:154    .text.HAL_FLASH_EndOfOperationCallback:0000000000000000 HAL_FLASH_EndOfOperationCallback
     /tmp/ccvtvpVm.s:170    .text.HAL_FLASH_OperationErrorCallback:0000000000000000 $t
     /tmp/ccvtvpVm.s:177    .text.HAL_FLASH_OperationErrorCallback:0000000000000000 HAL_FLASH_OperationErrorCallback
     /tmp/ccvtvpVm.s:189    .text.HAL_FLASH_IRQHandler:0000000000000000 $t
     /tmp/ccvtvpVm.s:196    .text.HAL_FLASH_IRQHandler:0000000000000000 HAL_FLASH_IRQHandler
     /tmp/ccvtvpVm.s:398    .text.HAL_FLASH_IRQHandler:00000000000000ac $d
     /tmp/ccvtvpVm.s:408    .text.HAL_FLASH_Unlock:0000000000000000 $t
     /tmp/ccvtvpVm.s:415    .text.HAL_FLASH_Unlock:0000000000000000 HAL_FLASH_Unlock
     /tmp/ccvtvpVm.s:453    .text.HAL_FLASH_Unlock:0000000000000018 $d
     /tmp/ccvtvpVm.s:460    .text.HAL_FLASH_Lock:0000000000000000 $t
     /tmp/ccvtvpVm.s:467    .text.HAL_FLASH_Lock:0000000000000000 HAL_FLASH_Lock
     /tmp/ccvtvpVm.s:502    .text.HAL_FLASH_Lock:0000000000000014 $d
     /tmp/ccvtvpVm.s:507    .text.HAL_FLASH_OB_Unlock:0000000000000000 $t
     /tmp/ccvtvpVm.s:514    .text.HAL_FLASH_OB_Unlock:0000000000000000 HAL_FLASH_OB_Unlock
     /tmp/ccvtvpVm.s:555    .text.HAL_FLASH_OB_Unlock:000000000000001c $d
     /tmp/ccvtvpVm.s:562    .text.HAL_FLASH_OB_Lock:0000000000000000 $t
     /tmp/ccvtvpVm.s:569    .text.HAL_FLASH_OB_Lock:0000000000000000 HAL_FLASH_OB_Lock
     /tmp/ccvtvpVm.s:606    .text.HAL_FLASH_OB_Lock:0000000000000018 $d
     /tmp/ccvtvpVm.s:611    .text.HAL_FLASH_OB_Launch:0000000000000000 $t
     /tmp/ccvtvpVm.s:618    .text.HAL_FLASH_OB_Launch:0000000000000000 HAL_FLASH_OB_Launch
     /tmp/ccvtvpVm.s:644    .text.HAL_FLASH_OB_Launch:0000000000000010 $d
     /tmp/ccvtvpVm.s:649    .text.HAL_FLASH_GetError:0000000000000000 $t
     /tmp/ccvtvpVm.s:656    .text.HAL_FLASH_GetError:0000000000000000 HAL_FLASH_GetError
     /tmp/ccvtvpVm.s:675    .text.HAL_FLASH_GetError:0000000000000008 $d
     /tmp/ccvtvpVm.s:680    .text.FLASH_WaitForLastOperation:0000000000000000 $t
     /tmp/ccvtvpVm.s:687    .text.FLASH_WaitForLastOperation:0000000000000000 FLASH_WaitForLastOperation
     /tmp/ccvtvpVm.s:839    .text.FLASH_WaitForLastOperation:0000000000000070 $d
     /tmp/ccvtvpVm.s:849    .text.HAL_FLASH_Program:0000000000000000 $t
     /tmp/ccvtvpVm.s:856    .text.HAL_FLASH_Program:0000000000000000 HAL_FLASH_Program
     /tmp/ccvtvpVm.s:1001   .text.HAL_FLASH_Program:0000000000000060 $d
     /tmp/ccvtvpVm.s:1007   .text.HAL_FLASH_Program_IT:0000000000000000 $t
     /tmp/ccvtvpVm.s:1014   .text.HAL_FLASH_Program_IT:0000000000000000 HAL_FLASH_Program_IT
     /tmp/ccvtvpVm.s:1178   .text.HAL_FLASH_Program_IT:000000000000006c $d
     /tmp/ccvtvpVm.s:1189   .bss.pFlash:0000000000000000 pFlash
     /tmp/ccvtvpVm.s:1185   .bss.pFlash:0000000000000000 $d

UNDEFINED SYMBOLS
FLASH_PageErase
HAL_GetTick
