Archive member included to satisfy reference by file (symbol)

/usr/lib/gcc/arm-none-eabi/9.2.1/../../../arm-none-eabi/lib/thumb/v6-m/nofp/libc_nano.a(lib_a-atexit.o)
                              /usr/lib/gcc/arm-none-eabi/9.2.1/../../../arm-none-eabi/lib/thumb/v6-m/nofp/crt0.o (atexit)
/usr/lib/gcc/arm-none-eabi/9.2.1/../../../arm-none-eabi/lib/thumb/v6-m/nofp/libc_nano.a(lib_a-exit.o)
                              /usr/lib/gcc/arm-none-eabi/9.2.1/../../../arm-none-eabi/lib/thumb/v6-m/nofp/crt0.o (exit)
/usr/lib/gcc/arm-none-eabi/9.2.1/../../../arm-none-eabi/lib/thumb/v6-m/nofp/libc_nano.a(lib_a-fini.o)
                              /usr/lib/gcc/arm-none-eabi/9.2.1/../../../arm-none-eabi/lib/thumb/v6-m/nofp/crt0.o (__libc_fini_array)
/usr/lib/gcc/arm-none-eabi/9.2.1/../../../arm-none-eabi/lib/thumb/v6-m/nofp/libc_nano.a(lib_a-impure.o)
                              /usr/lib/gcc/arm-none-eabi/9.2.1/../../../arm-none-eabi/lib/thumb/v6-m/nofp/libc_nano.a(lib_a-exit.o) (_global_impure_ptr)
/usr/lib/gcc/arm-none-eabi/9.2.1/../../../arm-none-eabi/lib/thumb/v6-m/nofp/libc_nano.a(lib_a-init.o)
                              /usr/lib/gcc/arm-none-eabi/9.2.1/../../../arm-none-eabi/lib/thumb/v6-m/nofp/crt0.o (__libc_init_array)
/usr/lib/gcc/arm-none-eabi/9.2.1/../../../arm-none-eabi/lib/thumb/v6-m/nofp/libc_nano.a(lib_a-memcpy-stub.o)
                              build/usbpd_pwr_if.o (memcpy)
/usr/lib/gcc/arm-none-eabi/9.2.1/../../../arm-none-eabi/lib/thumb/v6-m/nofp/libc_nano.a(lib_a-memset.o)
                              /usr/lib/gcc/arm-none-eabi/9.2.1/../../../arm-none-eabi/lib/thumb/v6-m/nofp/crt0.o (memset)
/usr/lib/gcc/arm-none-eabi/9.2.1/../../../arm-none-eabi/lib/thumb/v6-m/nofp/libc_nano.a(lib_a-snprintf.o)
                              build/usbpd_dpm_user.o (snprintf)
/usr/lib/gcc/arm-none-eabi/9.2.1/../../../arm-none-eabi/lib/thumb/v6-m/nofp/libc_nano.a(lib_a-strcpy.o)
                              build/usbpd_dpm_user.o (strcpy)
/usr/lib/gcc/arm-none-eabi/9.2.1/../../../arm-none-eabi/lib/thumb/v6-m/nofp/libc_nano.a(lib_a-strlen-stub.o)
                              build/usbpd_dpm_user.o (strlen)
/usr/lib/gcc/arm-none-eabi/9.2.1/../../../arm-none-eabi/lib/thumb/v6-m/nofp/libc_nano.a(lib_a-__atexit.o)
                              /usr/lib/gcc/arm-none-eabi/9.2.1/../../../arm-none-eabi/lib/thumb/v6-m/nofp/libc_nano.a(lib_a-atexit.o) (__register_exitproc)
/usr/lib/gcc/arm-none-eabi/9.2.1/../../../arm-none-eabi/lib/thumb/v6-m/nofp/libc_nano.a(lib_a-__call_atexit.o)
                              /usr/lib/gcc/arm-none-eabi/9.2.1/../../../arm-none-eabi/lib/thumb/v6-m/nofp/libc_nano.a(lib_a-__atexit.o) (__call_exitprocs)
/usr/lib/gcc/arm-none-eabi/9.2.1/../../../arm-none-eabi/lib/thumb/v6-m/nofp/libc_nano.a(lib_a-nano-svfprintf.o)
                              /usr/lib/gcc/arm-none-eabi/9.2.1/../../../arm-none-eabi/lib/thumb/v6-m/nofp/libc_nano.a(lib_a-snprintf.o) (_svfprintf_r)
/usr/lib/gcc/arm-none-eabi/9.2.1/../../../arm-none-eabi/lib/thumb/v6-m/nofp/libc_nano.a(lib_a-nano-vfprintf_i.o)
                              /usr/lib/gcc/arm-none-eabi/9.2.1/../../../arm-none-eabi/lib/thumb/v6-m/nofp/libc_nano.a(lib_a-nano-svfprintf.o) (_printf_i)
/usr/lib/gcc/arm-none-eabi/9.2.1/../../../arm-none-eabi/lib/thumb/v6-m/nofp/libc_nano.a(lib_a-memchr-stub.o)
                              /usr/lib/gcc/arm-none-eabi/9.2.1/../../../arm-none-eabi/lib/thumb/v6-m/nofp/libc_nano.a(lib_a-nano-svfprintf.o) (memchr)
/usr/lib/gcc/arm-none-eabi/9.2.1/../../../arm-none-eabi/lib/thumb/v6-m/nofp/libc_nano.a(lib_a-memmove.o)
                              /usr/lib/gcc/arm-none-eabi/9.2.1/../../../arm-none-eabi/lib/thumb/v6-m/nofp/libc_nano.a(lib_a-nano-svfprintf.o) (memmove)
/usr/lib/gcc/arm-none-eabi/9.2.1/../../../arm-none-eabi/lib/thumb/v6-m/nofp/libc_nano.a(lib_a-nano-freer.o)
                              /usr/lib/gcc/arm-none-eabi/9.2.1/../../../arm-none-eabi/lib/thumb/v6-m/nofp/libc_nano.a(lib_a-nano-svfprintf.o) (_free_r)
/usr/lib/gcc/arm-none-eabi/9.2.1/../../../arm-none-eabi/lib/thumb/v6-m/nofp/libc_nano.a(lib_a-nano-mallocr.o)
                              /usr/lib/gcc/arm-none-eabi/9.2.1/../../../arm-none-eabi/lib/thumb/v6-m/nofp/libc_nano.a(lib_a-nano-svfprintf.o) (_malloc_r)
/usr/lib/gcc/arm-none-eabi/9.2.1/../../../arm-none-eabi/lib/thumb/v6-m/nofp/libc_nano.a(lib_a-nano-reallocr.o)
                              /usr/lib/gcc/arm-none-eabi/9.2.1/../../../arm-none-eabi/lib/thumb/v6-m/nofp/libc_nano.a(lib_a-nano-svfprintf.o) (_realloc_r)
/usr/lib/gcc/arm-none-eabi/9.2.1/../../../arm-none-eabi/lib/thumb/v6-m/nofp/libc_nano.a(lib_a-sbrkr.o)
                              /usr/lib/gcc/arm-none-eabi/9.2.1/../../../arm-none-eabi/lib/thumb/v6-m/nofp/libc_nano.a(lib_a-nano-mallocr.o) (_sbrk_r)
/usr/lib/gcc/arm-none-eabi/9.2.1/../../../arm-none-eabi/lib/thumb/v6-m/nofp/libc_nano.a(lib_a-mlock.o)
                              /usr/lib/gcc/arm-none-eabi/9.2.1/../../../arm-none-eabi/lib/thumb/v6-m/nofp/libc_nano.a(lib_a-nano-freer.o) (__malloc_lock)
/usr/lib/gcc/arm-none-eabi/9.2.1/../../../arm-none-eabi/lib/thumb/v6-m/nofp/libc_nano.a(lib_a-nano-msizer.o)
                              /usr/lib/gcc/arm-none-eabi/9.2.1/../../../arm-none-eabi/lib/thumb/v6-m/nofp/libc_nano.a(lib_a-nano-reallocr.o) (_malloc_usable_size_r)
/usr/lib/gcc/arm-none-eabi/9.2.1/../../../arm-none-eabi/lib/thumb/v6-m/nofp/libc_nano.a(lib_a-reent.o)
                              /usr/lib/gcc/arm-none-eabi/9.2.1/../../../arm-none-eabi/lib/thumb/v6-m/nofp/libc_nano.a(lib_a-sbrkr.o) (errno)
/usr/lib/gcc/arm-none-eabi/9.2.1/../../../arm-none-eabi/lib/thumb/v6-m/nofp/libnosys.a(sbrk.o)
                              /usr/lib/gcc/arm-none-eabi/9.2.1/../../../arm-none-eabi/lib/thumb/v6-m/nofp/libc_nano.a(lib_a-sbrkr.o) (_sbrk)
/usr/lib/gcc/arm-none-eabi/9.2.1/../../../arm-none-eabi/lib/thumb/v6-m/nofp/libnosys.a(_exit.o)
                              /usr/lib/gcc/arm-none-eabi/9.2.1/../../../arm-none-eabi/lib/thumb/v6-m/nofp/libc_nano.a(lib_a-exit.o) (_exit)
Middlewares/ST/STM32_USBPD_Library/Core/lib/USBPDCORE_PD3_FULL_CM0PLUS_wc32.a(usbpd_cad.o)
                              build/usbpd_dpm_core.o (USBPD_CAD_Init)
Middlewares/ST/STM32_USBPD_Library/Core/lib/USBPDCORE_PD3_FULL_CM0PLUS_wc32.a(usbpd_pe.o)
                              Middlewares/ST/STM32_USBPD_Library/Core/lib/USBPDCORE_PD3_FULL_CM0PLUS_wc32.a(usbpd_cad.o) (Crc)
Middlewares/ST/STM32_USBPD_Library/Core/lib/USBPDCORE_PD3_FULL_CM0PLUS_wc32.a(usbpd_prl.o)
                              Middlewares/ST/STM32_USBPD_Library/Core/lib/USBPDCORE_PD3_FULL_CM0PLUS_wc32.a(usbpd_pe.o) (USBDPD_PRL_BistCarrierEyeMode)
/usr/lib/gcc/arm-none-eabi/9.2.1/thumb/v6-m/nofp/libgcc.a(_thumb1_case_uqi.o)
                              build/stm32g0xx_hal_dma.o (__gnu_thumb1_case_uqi)
/usr/lib/gcc/arm-none-eabi/9.2.1/thumb/v6-m/nofp/libgcc.a(_thumb1_case_shi.o)
                              build/usbpd_cad_hw_if.o (__gnu_thumb1_case_shi)
/usr/lib/gcc/arm-none-eabi/9.2.1/thumb/v6-m/nofp/libgcc.a(_thumb1_case_uhi.o)
                              build/stm32g0xx_hal_uart.o (__gnu_thumb1_case_uhi)
/usr/lib/gcc/arm-none-eabi/9.2.1/thumb/v6-m/nofp/libgcc.a(_udivsi3.o)
                              build/stm32g0xx_hal_adc.o (__aeabi_uidiv)
/usr/lib/gcc/arm-none-eabi/9.2.1/thumb/v6-m/nofp/libgcc.a(_divsi3.o)
                              build/stm32g0xx_hal_rcc.o (__aeabi_idiv)
/usr/lib/gcc/arm-none-eabi/9.2.1/thumb/v6-m/nofp/libgcc.a(_dvmd_tls.o)
                              /usr/lib/gcc/arm-none-eabi/9.2.1/thumb/v6-m/nofp/libgcc.a(_udivsi3.o) (__aeabi_idiv0)
/usr/lib/gcc/arm-none-eabi/9.2.1/thumb/v6-m/nofp/libgcc.a(_aeabi_ldivmod.o)
                              build/stm32g0xx_hal_uart.o (__aeabi_ldivmod)
/usr/lib/gcc/arm-none-eabi/9.2.1/thumb/v6-m/nofp/libgcc.a(_aeabi_uldivmod.o)
                              build/stm32g0xx_hal_uart.o (__aeabi_uldivmod)
/usr/lib/gcc/arm-none-eabi/9.2.1/thumb/v6-m/nofp/libgcc.a(_udivmoddi4.o)
                              /usr/lib/gcc/arm-none-eabi/9.2.1/thumb/v6-m/nofp/libgcc.a(_aeabi_uldivmod.o) (__udivmoddi4)
/usr/lib/gcc/arm-none-eabi/9.2.1/thumb/v6-m/nofp/libgcc.a(bpabi.o)
                              /usr/lib/gcc/arm-none-eabi/9.2.1/thumb/v6-m/nofp/libgcc.a(_aeabi_ldivmod.o) (__gnu_ldivmod_helper)
/usr/lib/gcc/arm-none-eabi/9.2.1/thumb/v6-m/nofp/libgcc.a(_clzdi2.o)
                              /usr/lib/gcc/arm-none-eabi/9.2.1/thumb/v6-m/nofp/libgcc.a(_udivmoddi4.o) (__clzdi2)
/usr/lib/gcc/arm-none-eabi/9.2.1/thumb/v6-m/nofp/libgcc.a(_muldi3.o)
                              /usr/lib/gcc/arm-none-eabi/9.2.1/thumb/v6-m/nofp/libgcc.a(bpabi.o) (__aeabi_lmul)
/usr/lib/gcc/arm-none-eabi/9.2.1/thumb/v6-m/nofp/libgcc.a(_divdi3.o)
                              /usr/lib/gcc/arm-none-eabi/9.2.1/thumb/v6-m/nofp/libgcc.a(bpabi.o) (__divdi3)
/usr/lib/gcc/arm-none-eabi/9.2.1/thumb/v6-m/nofp/libgcc.a(_clzsi2.o)
                              /usr/lib/gcc/arm-none-eabi/9.2.1/thumb/v6-m/nofp/libgcc.a(_clzdi2.o) (__clzsi2)
/usr/lib/gcc/arm-none-eabi/9.2.1/../../../arm-none-eabi/lib/thumb/v6-m/nofp/libc_nano.a(lib_a-aeabi_memclr.o)
                              Middlewares/ST/STM32_USBPD_Library/Core/lib/USBPDCORE_PD3_FULL_CM0PLUS_wc32.a(usbpd_pe.o) (__aeabi_memclr4)
/usr/lib/gcc/arm-none-eabi/9.2.1/../../../arm-none-eabi/lib/thumb/v6-m/nofp/libc_nano.a(lib_a-aeabi_memcpy.o)
                              Middlewares/ST/STM32_USBPD_Library/Core/lib/USBPDCORE_PD3_FULL_CM0PLUS_wc32.a(usbpd_pe.o) (__aeabi_memcpy4)
/usr/lib/gcc/arm-none-eabi/9.2.1/../../../arm-none-eabi/lib/thumb/v6-m/nofp/libc_nano.a(lib_a-aeabi_memset.o)
                              Middlewares/ST/STM32_USBPD_Library/Core/lib/USBPDCORE_PD3_FULL_CM0PLUS_wc32.a(usbpd_prl.o) (__aeabi_memset)
/usr/lib/gcc/arm-none-eabi/9.2.1/../../../arm-none-eabi/lib/thumb/v6-m/nofp/libc_nano.a(lib_a-malloc.o)
                              Middlewares/ST/STM32_USBPD_Library/Core/lib/USBPDCORE_PD3_FULL_CM0PLUS_wc32.a(usbpd_cad.o) (malloc)

Allocating common symbols
Common symbol       size              file

defaultTaskHandle   0x4               build/main.o
errno               0x4               /usr/lib/gcc/arm-none-eabi/9.2.1/../../../arm-none-eabi/lib/thumb/v6-m/nofp/libc_nano.a(lib_a-reent.o)
uwTick              0x4               build/stm32g0xx_hal.o
xQueueRegistry      0x40              build/queue.o
hlpuart1            0x8c              build/main.o
hadc1               0x64              build/main.o
Ports               0x40              build/usbpd_phy_hw_if.o
adc                 0x2               build/main.o
hdma_adc1           0x5c              build/main.o
Processed           0x100             build/gui_api.o
hdma_lpuart1_tx     0x5c              build/main.o
GUI_TimerMeasReport
                    0x2               build/gui_api.o
GUI_USER_Params     0x6               build/gui_api.o
GUIMsgBox           0x4               build/gui_api.o
PtrDataRx           0x100             build/gui_api.o
DPM_Params          0x4               build/usbpd_dpm_core.o
vin                 0x4               build/main.o
GUI_OriginalSettings
                    0x1               build/gui_api.o
GUI_SaveInformation
                    0x58              build/gui_api.o

Discarded input sections

 .text          0x0000000000000000        0x0 /usr/lib/gcc/arm-none-eabi/9.2.1/thumb/v6-m/nofp/crti.o
 .data          0x0000000000000000        0x0 /usr/lib/gcc/arm-none-eabi/9.2.1/thumb/v6-m/nofp/crti.o
 .bss           0x0000000000000000        0x0 /usr/lib/gcc/arm-none-eabi/9.2.1/thumb/v6-m/nofp/crti.o
 .data          0x0000000000000000        0x4 /usr/lib/gcc/arm-none-eabi/9.2.1/thumb/v6-m/nofp/crtbegin.o
 .text          0x0000000000000000       0x74 /usr/lib/gcc/arm-none-eabi/9.2.1/../../../arm-none-eabi/lib/thumb/v6-m/nofp/crt0.o
 .data          0x0000000000000000        0x0 /usr/lib/gcc/arm-none-eabi/9.2.1/../../../arm-none-eabi/lib/thumb/v6-m/nofp/crt0.o
 .bss           0x0000000000000000        0x0 /usr/lib/gcc/arm-none-eabi/9.2.1/../../../arm-none-eabi/lib/thumb/v6-m/nofp/crt0.o
 .ARM.extab     0x0000000000000000        0x0 /usr/lib/gcc/arm-none-eabi/9.2.1/../../../arm-none-eabi/lib/thumb/v6-m/nofp/crt0.o
 .ARM.exidx     0x0000000000000000       0x10 /usr/lib/gcc/arm-none-eabi/9.2.1/../../../arm-none-eabi/lib/thumb/v6-m/nofp/crt0.o
 .debug_line    0x0000000000000000       0x8c /usr/lib/gcc/arm-none-eabi/9.2.1/../../../arm-none-eabi/lib/thumb/v6-m/nofp/crt0.o
 .debug_info    0x0000000000000000       0x26 /usr/lib/gcc/arm-none-eabi/9.2.1/../../../arm-none-eabi/lib/thumb/v6-m/nofp/crt0.o
 .debug_abbrev  0x0000000000000000       0x14 /usr/lib/gcc/arm-none-eabi/9.2.1/../../../arm-none-eabi/lib/thumb/v6-m/nofp/crt0.o
 .debug_aranges
                0x0000000000000000       0x20 /usr/lib/gcc/arm-none-eabi/9.2.1/../../../arm-none-eabi/lib/thumb/v6-m/nofp/crt0.o
 .debug_str     0x0000000000000000       0x94 /usr/lib/gcc/arm-none-eabi/9.2.1/../../../arm-none-eabi/lib/thumb/v6-m/nofp/crt0.o
 .ARM.attributes
                0x0000000000000000       0x1b /usr/lib/gcc/arm-none-eabi/9.2.1/../../../arm-none-eabi/lib/thumb/v6-m/nofp/crt0.o
 .text          0x0000000000000000        0x0 build/main.o
 .data          0x0000000000000000        0x0 build/main.o
 .bss           0x0000000000000000        0x0 build/main.o
 .text          0x0000000000000000        0x0 build/stm32g0xx_it.o
 .data          0x0000000000000000        0x0 build/stm32g0xx_it.o
 .bss           0x0000000000000000        0x0 build/stm32g0xx_it.o
 .text          0x0000000000000000        0x0 build/stm32g0xx_hal_msp.o
 .data          0x0000000000000000        0x0 build/stm32g0xx_hal_msp.o
 .bss           0x0000000000000000        0x0 build/stm32g0xx_hal_msp.o
 .text.HAL_ADC_MspDeInit
                0x0000000000000000       0x34 build/stm32g0xx_hal_msp.o
 .text.HAL_UART_MspDeInit
                0x0000000000000000       0x3c build/stm32g0xx_hal_msp.o
 .text          0x0000000000000000        0x0 build/stm32g0xx_hal_gpio.o
 .data          0x0000000000000000        0x0 build/stm32g0xx_hal_gpio.o
 .bss           0x0000000000000000        0x0 build/stm32g0xx_hal_gpio.o
 .text.HAL_GPIO_DeInit
                0x0000000000000000       0xe4 build/stm32g0xx_hal_gpio.o
 .text.HAL_GPIO_ReadPin
                0x0000000000000000        0xc build/stm32g0xx_hal_gpio.o
 .text.HAL_GPIO_TogglePin
                0x0000000000000000        0xe build/stm32g0xx_hal_gpio.o
 .text.HAL_GPIO_LockPin
                0x0000000000000000       0x28 build/stm32g0xx_hal_gpio.o
 .text.HAL_GPIO_EXTI_Rising_Callback
                0x0000000000000000        0x2 build/stm32g0xx_hal_gpio.o
 .text.HAL_GPIO_EXTI_Falling_Callback
                0x0000000000000000        0x2 build/stm32g0xx_hal_gpio.o
 .text.HAL_GPIO_EXTI_IRQHandler
                0x0000000000000000       0x28 build/stm32g0xx_hal_gpio.o
 .text          0x0000000000000000        0x0 build/stm32g0xx_hal_adc.o
 .data          0x0000000000000000        0x0 build/stm32g0xx_hal_adc.o
 .bss           0x0000000000000000        0x0 build/stm32g0xx_hal_adc.o
 .text.LL_ADC_SetAnalogWDMonitChannels
                0x0000000000000000       0x30 build/stm32g0xx_hal_adc.o
 .text.HAL_ADC_MspInit
                0x0000000000000000        0x2 build/stm32g0xx_hal_adc.o
 .text.HAL_ADC_MspDeInit
                0x0000000000000000        0x2 build/stm32g0xx_hal_adc.o
 .text.HAL_ADC_PollForConversion
                0x0000000000000000       0xbc build/stm32g0xx_hal_adc.o
 .text.HAL_ADC_PollForEvent
                0x0000000000000000       0x9e build/stm32g0xx_hal_adc.o
 .text.HAL_ADC_GetValue
                0x0000000000000000        0x6 build/stm32g0xx_hal_adc.o
 .text.HAL_ADC_ConvCpltCallback
                0x0000000000000000        0x2 build/stm32g0xx_hal_adc.o
 .text.HAL_ADC_ConvHalfCpltCallback
                0x0000000000000000        0x2 build/stm32g0xx_hal_adc.o
 .text.ADC_DMAHalfConvCplt
                0x0000000000000000        0xa build/stm32g0xx_hal_adc.o
 .text.HAL_ADC_LevelOutOfWindowCallback
                0x0000000000000000        0x2 build/stm32g0xx_hal_adc.o
 .text.HAL_ADC_ErrorCallback
                0x0000000000000000        0x2 build/stm32g0xx_hal_adc.o
 .text.ADC_DMAError
                0x0000000000000000       0x1a build/stm32g0xx_hal_adc.o
 .text.ADC_DMAConvCplt
                0x0000000000000000       0x80 build/stm32g0xx_hal_adc.o
 .text.HAL_ADC_IRQHandler
                0x0000000000000000      0x158 build/stm32g0xx_hal_adc.o
 .text.HAL_ADC_AnalogWDGConfig
                0x0000000000000000      0x2d8 build/stm32g0xx_hal_adc.o
 .text.HAL_ADC_GetState
                0x0000000000000000        0x4 build/stm32g0xx_hal_adc.o
 .text.HAL_ADC_GetError
                0x0000000000000000        0x4 build/stm32g0xx_hal_adc.o
 .text.ADC_ConversionStop
                0x0000000000000000       0x58 build/stm32g0xx_hal_adc.o
 .text.HAL_ADC_Start_IT
                0x0000000000000000       0x80 build/stm32g0xx_hal_adc.o
 .text.HAL_ADC_Start_DMA
                0x0000000000000000       0xb0 build/stm32g0xx_hal_adc.o
 .text.HAL_ADC_DeInit
                0x0000000000000000       0x94 build/stm32g0xx_hal_adc.o
 .text.HAL_ADC_Stop
                0x0000000000000000       0x3c build/stm32g0xx_hal_adc.o
 .text.HAL_ADC_Stop_IT
                0x0000000000000000       0x48 build/stm32g0xx_hal_adc.o
 .text.HAL_ADC_Stop_DMA
                0x0000000000000000       0x78 build/stm32g0xx_hal_adc.o
 .text          0x0000000000000000        0x0 build/stm32g0xx_hal_adc_ex.o
 .data          0x0000000000000000        0x0 build/stm32g0xx_hal_adc_ex.o
 .bss           0x0000000000000000        0x0 build/stm32g0xx_hal_adc_ex.o
 .text.HAL_ADCEx_Calibration_GetValue
                0x0000000000000000        0xc build/stm32g0xx_hal_adc_ex.o
 .text.HAL_ADCEx_Calibration_SetValue
                0x0000000000000000       0x54 build/stm32g0xx_hal_adc_ex.o
 .text.HAL_ADCEx_LevelOutOfWindow2Callback
                0x0000000000000000        0x2 build/stm32g0xx_hal_adc_ex.o
 .text.HAL_ADCEx_LevelOutOfWindow3Callback
                0x0000000000000000        0x2 build/stm32g0xx_hal_adc_ex.o
 .text.HAL_ADCEx_EndOfSamplingCallback
                0x0000000000000000        0x2 build/stm32g0xx_hal_adc_ex.o
 .text.HAL_ADCEx_ChannelConfigReadyCallback
                0x0000000000000000        0x2 build/stm32g0xx_hal_adc_ex.o
 .text.HAL_ADCEx_DisableVoltageRegulator
                0x0000000000000000       0x20 build/stm32g0xx_hal_adc_ex.o
 .text          0x0000000000000000        0x0 build/stm32g0xx_ll_adc.o
 .data          0x0000000000000000        0x0 build/stm32g0xx_ll_adc.o
 .bss           0x0000000000000000        0x0 build/stm32g0xx_ll_adc.o
 .text.LL_ADC_CommonDeInit
                0x0000000000000000       0x20 build/stm32g0xx_ll_adc.o
 .text.LL_ADC_CommonInit
                0x0000000000000000       0x2c build/stm32g0xx_ll_adc.o
 .text.LL_ADC_CommonStructInit
                0x0000000000000000        0x8 build/stm32g0xx_ll_adc.o
 .text.LL_ADC_DeInit
                0x0000000000000000      0x12c build/stm32g0xx_ll_adc.o
 .text.LL_ADC_Init
                0x0000000000000000       0x38 build/stm32g0xx_ll_adc.o
 .text.LL_ADC_StructInit
                0x0000000000000000       0x10 build/stm32g0xx_ll_adc.o
 .text.LL_ADC_REG_Init
                0x0000000000000000       0x4c build/stm32g0xx_ll_adc.o
 .text.LL_ADC_REG_StructInit
                0x0000000000000000       0x16 build/stm32g0xx_ll_adc.o
 .debug_info    0x0000000000000000      0xcd3 build/stm32g0xx_ll_adc.o
 .debug_abbrev  0x0000000000000000      0x2aa build/stm32g0xx_ll_adc.o
 .debug_loc     0x0000000000000000      0x43e build/stm32g0xx_ll_adc.o
 .debug_aranges
                0x0000000000000000       0x58 build/stm32g0xx_ll_adc.o
 .debug_ranges  0x0000000000000000      0x148 build/stm32g0xx_ll_adc.o
 .debug_line    0x0000000000000000      0x600 build/stm32g0xx_ll_adc.o
 .debug_str     0x0000000000000000      0x700 build/stm32g0xx_ll_adc.o
 .comment       0x0000000000000000       0x5a build/stm32g0xx_ll_adc.o
 .debug_frame   0x0000000000000000       0xc0 build/stm32g0xx_ll_adc.o
 .ARM.attributes
                0x0000000000000000       0x2c build/stm32g0xx_ll_adc.o
 .text          0x0000000000000000        0x0 build/stm32g0xx_hal_rcc.o
 .data          0x0000000000000000        0x0 build/stm32g0xx_hal_rcc.o
 .bss           0x0000000000000000        0x0 build/stm32g0xx_hal_rcc.o
 .text.HAL_RCC_DeInit
                0x0000000000000000       0xb4 build/stm32g0xx_hal_rcc.o
 .text.HAL_RCC_MCOConfig
                0x0000000000000000       0x50 build/stm32g0xx_hal_rcc.o
 .text.HAL_RCC_GetHCLKFreq
                0x0000000000000000        0xc build/stm32g0xx_hal_rcc.o
 .text.HAL_RCC_GetOscConfig
                0x0000000000000000       0xb0 build/stm32g0xx_hal_rcc.o
 .text.HAL_RCC_GetClockConfig
                0x0000000000000000       0x34 build/stm32g0xx_hal_rcc.o
 .text.HAL_RCC_EnableCSS
                0x0000000000000000       0x14 build/stm32g0xx_hal_rcc.o
 .text.HAL_RCC_EnableLSECSS
                0x0000000000000000       0x10 build/stm32g0xx_hal_rcc.o
 .text.HAL_RCC_DisableLSECSS
                0x0000000000000000       0x10 build/stm32g0xx_hal_rcc.o
 .text.HAL_RCC_CSSCallback
                0x0000000000000000        0x2 build/stm32g0xx_hal_rcc.o
 .text.HAL_RCC_LSECSSCallback
                0x0000000000000000        0x2 build/stm32g0xx_hal_rcc.o
 .text.HAL_RCC_NMI_IRQHandler
                0x0000000000000000       0x24 build/stm32g0xx_hal_rcc.o
 .text          0x0000000000000000        0x0 build/stm32g0xx_hal_rcc_ex.o
 .data          0x0000000000000000        0x0 build/stm32g0xx_hal_rcc_ex.o
 .bss           0x0000000000000000        0x0 build/stm32g0xx_hal_rcc_ex.o
 .text.HAL_RCCEx_GetPeriphCLKConfig
                0x0000000000000000       0x80 build/stm32g0xx_hal_rcc_ex.o
 .text.HAL_RCCEx_GetPeriphCLKFreq
                0x0000000000000000      0x368 build/stm32g0xx_hal_rcc_ex.o
 .text.HAL_RCCEx_EnableLSCO
                0x0000000000000000       0x94 build/stm32g0xx_hal_rcc_ex.o
 .text.HAL_RCCEx_DisableLSCO
                0x0000000000000000       0x60 build/stm32g0xx_hal_rcc_ex.o
 .text          0x0000000000000000        0x0 build/stm32g0xx_ll_rcc.o
 .data          0x0000000000000000        0x0 build/stm32g0xx_ll_rcc.o
 .bss           0x0000000000000000        0x0 build/stm32g0xx_ll_rcc.o
 .text.LL_RCC_PLL_IsReady
                0x0000000000000000       0x10 build/stm32g0xx_ll_rcc.o
 .text.LL_RCC_DeInit
                0x0000000000000000       0x5c build/stm32g0xx_ll_rcc.o
 .text.LL_RCC_GetCECClockFreq
                0x0000000000000000       0x34 build/stm32g0xx_ll_rcc.o
 .text.LL_RCC_GetRTCClockFreq
                0x0000000000000000       0x50 build/stm32g0xx_ll_rcc.o
 .text.LL_RCC_GetSystemClocksFreq
                0x0000000000000000       0x18 build/stm32g0xx_ll_rcc.o
 .text.LL_RCC_GetUSARTClockFreq
                0x0000000000000000       0x98 build/stm32g0xx_ll_rcc.o
 .text.LL_RCC_GetI2CClockFreq
                0x0000000000000000       0x50 build/stm32g0xx_ll_rcc.o
 .text.LL_RCC_GetLPTIMClockFreq
                0x0000000000000000       0x98 build/stm32g0xx_ll_rcc.o
 .text.RCC_PLL_GetFreqDomain_ADC
                0x0000000000000000       0x48 build/stm32g0xx_ll_rcc.o
 .text.LL_RCC_GetADCClockFreq
                0x0000000000000000       0x48 build/stm32g0xx_ll_rcc.o
 .text.LL_RCC_GetI2SClockFreq
                0x0000000000000000       0x50 build/stm32g0xx_ll_rcc.o
 .text.RCC_PLL_GetFreqDomain_I2S1
                0x0000000000000000        0x8 build/stm32g0xx_ll_rcc.o
 .text.RCC_PLL_GetFreqDomain_TIM1
                0x0000000000000000       0x4c build/stm32g0xx_ll_rcc.o
 .text.LL_RCC_GetTIMClockFreq
                0x0000000000000000       0x64 build/stm32g0xx_ll_rcc.o
 .text.RCC_PLL_GetFreqDomain_TIM15
                0x0000000000000000        0x8 build/stm32g0xx_ll_rcc.o
 .text          0x0000000000000000        0x0 build/stm32g0xx_hal_flash.o
 .data          0x0000000000000000        0x0 build/stm32g0xx_hal_flash.o
 .bss           0x0000000000000000        0x0 build/stm32g0xx_hal_flash.o
 .text.HAL_FLASH_EndOfOperationCallback
                0x0000000000000000        0x2 build/stm32g0xx_hal_flash.o
 .text.HAL_FLASH_OperationErrorCallback
                0x0000000000000000        0x2 build/stm32g0xx_hal_flash.o
 .text.HAL_FLASH_IRQHandler
                0x0000000000000000       0xc4 build/stm32g0xx_hal_flash.o
 .text.HAL_FLASH_OB_Unlock
                0x0000000000000000       0x28 build/stm32g0xx_hal_flash.o
 .text.HAL_FLASH_OB_Lock
                0x0000000000000000       0x1c build/stm32g0xx_hal_flash.o
 .text.HAL_FLASH_OB_Launch
                0x0000000000000000       0x14 build/stm32g0xx_hal_flash.o
 .text.HAL_FLASH_GetError
                0x0000000000000000        0xc build/stm32g0xx_hal_flash.o
 .text.HAL_FLASH_Program_IT
                0x0000000000000000       0x74 build/stm32g0xx_hal_flash.o
 .text          0x0000000000000000        0x0 build/stm32g0xx_hal_flash_ex.o
 .data          0x0000000000000000        0x0 build/stm32g0xx_hal_flash_ex.o
 .bss           0x0000000000000000        0x0 build/stm32g0xx_hal_flash_ex.o
 .text.HAL_FLASHEx_OBProgram
                0x0000000000000000      0x144 build/stm32g0xx_hal_flash_ex.o
 .text.HAL_FLASHEx_OBGetConfig
                0x0000000000000000       0xac build/stm32g0xx_hal_flash_ex.o
 .text.HAL_FLASHEx_EnableDebugger
                0x0000000000000000       0x14 build/stm32g0xx_hal_flash_ex.o
 .text.HAL_FLASHEx_DisableDebugger
                0x0000000000000000       0x14 build/stm32g0xx_hal_flash_ex.o
 .text.HAL_FLASHEx_FlashEmptyCheck
                0x0000000000000000       0x10 build/stm32g0xx_hal_flash_ex.o
 .text.HAL_FLASHEx_ForceFlashEmpty
                0x0000000000000000       0x18 build/stm32g0xx_hal_flash_ex.o
 .text.HAL_FLASHEx_EnableSecMemProtection
                0x0000000000000000       0x14 build/stm32g0xx_hal_flash_ex.o
 .text.HAL_FLASHEx_Erase_IT
                0x0000000000000000       0x68 build/stm32g0xx_hal_flash_ex.o
 .text.FLASH_FlushCaches
                0x0000000000000000       0x3c build/stm32g0xx_hal_flash_ex.o
 .text          0x0000000000000000        0x0 build/stm32g0xx_hal_dma.o
 .data          0x0000000000000000        0x0 build/stm32g0xx_hal_dma.o
 .bss           0x0000000000000000        0x0 build/stm32g0xx_hal_dma.o
 .text.DMA_SetConfig
                0x0000000000000000       0x40 build/stm32g0xx_hal_dma.o
 .text.HAL_DMA_DeInit
                0x0000000000000000       0x88 build/stm32g0xx_hal_dma.o
 .text.HAL_DMA_Start
                0x0000000000000000       0x4a build/stm32g0xx_hal_dma.o
 .text.HAL_DMA_Start_IT
                0x0000000000000000       0x90 build/stm32g0xx_hal_dma.o
 .text.HAL_DMA_Abort
                0x0000000000000000       0x7c build/stm32g0xx_hal_dma.o
 .text.HAL_DMA_PollForTransfer
                0x0000000000000000      0x11c build/stm32g0xx_hal_dma.o
 .text.HAL_DMA_RegisterCallback
                0x0000000000000000       0x40 build/stm32g0xx_hal_dma.o
 .text.HAL_DMA_UnRegisterCallback
                0x0000000000000000       0x4e build/stm32g0xx_hal_dma.o
 .text.HAL_DMA_GetState
                0x0000000000000000        0x8 build/stm32g0xx_hal_dma.o
 .text.HAL_DMA_GetError
                0x0000000000000000        0x4 build/stm32g0xx_hal_dma.o
 .text          0x0000000000000000        0x0 build/stm32g0xx_hal_dma_ex.o
 .data          0x0000000000000000        0x0 build/stm32g0xx_hal_dma_ex.o
 .bss           0x0000000000000000        0x0 build/stm32g0xx_hal_dma_ex.o
 .text.HAL_DMAEx_ConfigMuxSync
                0x0000000000000000       0x44 build/stm32g0xx_hal_dma_ex.o
 .text.HAL_DMAEx_ConfigMuxRequestGenerator
                0x0000000000000000       0x36 build/stm32g0xx_hal_dma_ex.o
 .text.HAL_DMAEx_EnableMuxRequestGenerator
                0x0000000000000000       0x20 build/stm32g0xx_hal_dma_ex.o
 .text.HAL_DMAEx_DisableMuxRequestGenerator
                0x0000000000000000       0x24 build/stm32g0xx_hal_dma_ex.o
 .text.HAL_DMAEx_MUX_IRQHandler
                0x0000000000000000       0x64 build/stm32g0xx_hal_dma_ex.o
 .debug_info    0x0000000000000000      0x72e build/stm32g0xx_hal_dma_ex.o
 .debug_abbrev  0x0000000000000000      0x1cb build/stm32g0xx_hal_dma_ex.o
 .debug_loc     0x0000000000000000      0x1dc build/stm32g0xx_hal_dma_ex.o
 .debug_aranges
                0x0000000000000000       0x40 build/stm32g0xx_hal_dma_ex.o
 .debug_ranges  0x0000000000000000       0x30 build/stm32g0xx_hal_dma_ex.o
 .debug_line    0x0000000000000000      0x3cf build/stm32g0xx_hal_dma_ex.o
 .debug_str     0x0000000000000000      0x6b6 build/stm32g0xx_hal_dma_ex.o
 .comment       0x0000000000000000       0x5a build/stm32g0xx_hal_dma_ex.o
 .debug_frame   0x0000000000000000       0x80 build/stm32g0xx_hal_dma_ex.o
 .ARM.attributes
                0x0000000000000000       0x2c build/stm32g0xx_hal_dma_ex.o
 .text          0x0000000000000000        0x0 build/stm32g0xx_hal_pwr.o
 .data          0x0000000000000000        0x0 build/stm32g0xx_hal_pwr.o
 .bss           0x0000000000000000        0x0 build/stm32g0xx_hal_pwr.o
 .text.HAL_PWR_DeInit
                0x0000000000000000       0x20 build/stm32g0xx_hal_pwr.o
 .text.HAL_PWR_EnableBkUpAccess
                0x0000000000000000       0x14 build/stm32g0xx_hal_pwr.o
 .text.HAL_PWR_DisableBkUpAccess
                0x0000000000000000       0x14 build/stm32g0xx_hal_pwr.o
 .text.HAL_PWR_ConfigPVD
                0x0000000000000000       0x84 build/stm32g0xx_hal_pwr.o
 .text.HAL_PWR_EnablePVD
                0x0000000000000000       0x10 build/stm32g0xx_hal_pwr.o
 .text.HAL_PWR_DisablePVD
                0x0000000000000000       0x10 build/stm32g0xx_hal_pwr.o
 .text.HAL_PWR_EnableWakeUpPin
                0x0000000000000000       0x1c build/stm32g0xx_hal_pwr.o
 .text.HAL_PWR_DisableWakeUpPin
                0x0000000000000000       0x14 build/stm32g0xx_hal_pwr.o
 .text.HAL_PWR_EnterSLEEPMode
                0x0000000000000000       0x48 build/stm32g0xx_hal_pwr.o
 .text.HAL_PWR_EnterSTOPMode
                0x0000000000000000       0x44 build/stm32g0xx_hal_pwr.o
 .text.HAL_PWR_EnterSTANDBYMode
                0x0000000000000000       0x28 build/stm32g0xx_hal_pwr.o
 .text.HAL_PWR_EnableSleepOnExit
                0x0000000000000000       0x10 build/stm32g0xx_hal_pwr.o
 .text.HAL_PWR_DisableSleepOnExit
                0x0000000000000000       0x10 build/stm32g0xx_hal_pwr.o
 .text.HAL_PWR_EnableSEVOnPend
                0x0000000000000000       0x10 build/stm32g0xx_hal_pwr.o
 .text.HAL_PWR_DisableSEVOnPend
                0x0000000000000000       0x10 build/stm32g0xx_hal_pwr.o
 .text.HAL_PWR_PVD_Rising_Callback
                0x0000000000000000        0x2 build/stm32g0xx_hal_pwr.o
 .text.HAL_PWR_PVD_Falling_Callback
                0x0000000000000000        0x2 build/stm32g0xx_hal_pwr.o
 .text.HAL_PWR_PVD_IRQHandler
                0x0000000000000000       0x28 build/stm32g0xx_hal_pwr.o
 .debug_info    0x0000000000000000      0x9f0 build/stm32g0xx_hal_pwr.o
 .debug_abbrev  0x0000000000000000      0x1f7 build/stm32g0xx_hal_pwr.o
 .debug_loc     0x0000000000000000      0x1e7 build/stm32g0xx_hal_pwr.o
 .debug_aranges
                0x0000000000000000       0xa0 build/stm32g0xx_hal_pwr.o
 .debug_ranges  0x0000000000000000       0x90 build/stm32g0xx_hal_pwr.o
 .debug_line    0x0000000000000000      0x451 build/stm32g0xx_hal_pwr.o
 .debug_str     0x0000000000000000      0x693 build/stm32g0xx_hal_pwr.o
 .comment       0x0000000000000000       0x5a build/stm32g0xx_hal_pwr.o
 .debug_frame   0x0000000000000000      0x158 build/stm32g0xx_hal_pwr.o
 .ARM.attributes
                0x0000000000000000       0x2c build/stm32g0xx_hal_pwr.o
 .text          0x0000000000000000        0x0 build/stm32g0xx_hal_pwr_ex.o
 .data          0x0000000000000000        0x0 build/stm32g0xx_hal_pwr_ex.o
 .bss           0x0000000000000000        0x0 build/stm32g0xx_hal_pwr_ex.o
 .text.HAL_PWREx_EnableBatteryCharging
                0x0000000000000000       0x1c build/stm32g0xx_hal_pwr_ex.o
 .text.HAL_PWREx_DisableBatteryCharging
                0x0000000000000000       0x14 build/stm32g0xx_hal_pwr_ex.o
 .text.HAL_PWREx_EnablePORMonitorSampling
                0x0000000000000000       0x14 build/stm32g0xx_hal_pwr_ex.o
 .text.HAL_PWREx_DisablePORMonitorSampling
                0x0000000000000000       0x14 build/stm32g0xx_hal_pwr_ex.o
 .text.HAL_PWREx_EnableInternalWakeUpLine
                0x0000000000000000       0x14 build/stm32g0xx_hal_pwr_ex.o
 .text.HAL_PWREx_DisableInternalWakeUpLine
                0x0000000000000000       0x14 build/stm32g0xx_hal_pwr_ex.o
 .text.HAL_PWREx_EnableGPIOPullUp
                0x0000000000000000       0x7c build/stm32g0xx_hal_pwr_ex.o
 .text.HAL_PWREx_DisableGPIOPullUp
                0x0000000000000000       0x54 build/stm32g0xx_hal_pwr_ex.o
 .text.HAL_PWREx_EnableGPIOPullDown
                0x0000000000000000       0x7c build/stm32g0xx_hal_pwr_ex.o
 .text.HAL_PWREx_DisableGPIOPullDown
                0x0000000000000000       0x54 build/stm32g0xx_hal_pwr_ex.o
 .text.HAL_PWREx_EnablePullUpPullDownConfig
                0x0000000000000000       0x14 build/stm32g0xx_hal_pwr_ex.o
 .text.HAL_PWREx_DisablePullUpPullDownConfig
                0x0000000000000000       0x14 build/stm32g0xx_hal_pwr_ex.o
 .text.HAL_PWREx_EnableSRAMRetention
                0x0000000000000000       0x14 build/stm32g0xx_hal_pwr_ex.o
 .text.HAL_PWREx_DisableSRAMRetention
                0x0000000000000000       0x14 build/stm32g0xx_hal_pwr_ex.o
 .text.HAL_PWREx_EnableFlashPowerDown
                0x0000000000000000       0x10 build/stm32g0xx_hal_pwr_ex.o
 .text.HAL_PWREx_DisableFlashPowerDown
                0x0000000000000000       0x10 build/stm32g0xx_hal_pwr_ex.o
 .text.HAL_PWREx_GetVoltageRange
                0x0000000000000000       0x10 build/stm32g0xx_hal_pwr_ex.o
 .text.HAL_PWREx_EnableLowPowerRunMode
                0x0000000000000000       0x14 build/stm32g0xx_hal_pwr_ex.o
 .text.HAL_PWREx_DisableLowPowerRunMode
                0x0000000000000000       0x4c build/stm32g0xx_hal_pwr_ex.o
 .text.HAL_PWREx_EnterSHUTDOWNMode
                0x0000000000000000       0x24 build/stm32g0xx_hal_pwr_ex.o
 .text          0x0000000000000000        0x0 build/stm32g0xx_hal_cortex.o
 .data          0x0000000000000000        0x0 build/stm32g0xx_hal_cortex.o
 .bss           0x0000000000000000        0x0 build/stm32g0xx_hal_cortex.o
 .text.HAL_NVIC_DisableIRQ
                0x0000000000000000       0x20 build/stm32g0xx_hal_cortex.o
 .text.HAL_NVIC_GetPriority
                0x0000000000000000       0x3c build/stm32g0xx_hal_cortex.o
 .text.HAL_NVIC_SetPendingIRQ
                0x0000000000000000       0x18 build/stm32g0xx_hal_cortex.o
 .text.HAL_NVIC_GetPendingIRQ
                0x0000000000000000       0x1c build/stm32g0xx_hal_cortex.o
 .text.HAL_NVIC_ClearPendingIRQ
                0x0000000000000000       0x1c build/stm32g0xx_hal_cortex.o
 .text.HAL_SYSTICK_CLKSourceConfig
                0x0000000000000000       0x1c build/stm32g0xx_hal_cortex.o
 .text.HAL_SYSTICK_Callback
                0x0000000000000000        0x2 build/stm32g0xx_hal_cortex.o
 .text.HAL_SYSTICK_IRQHandler
                0x0000000000000000        0x8 build/stm32g0xx_hal_cortex.o
 .text.HAL_MPU_Enable
                0x0000000000000000       0x18 build/stm32g0xx_hal_cortex.o
 .text.HAL_MPU_Disable
                0x0000000000000000       0x10 build/stm32g0xx_hal_cortex.o
 .text.HAL_MPU_ConfigRegion
                0x0000000000000000       0x50 build/stm32g0xx_hal_cortex.o
 .text          0x0000000000000000        0x0 build/stm32g0xx_hal.o
 .data          0x0000000000000000        0x0 build/stm32g0xx_hal.o
 .bss           0x0000000000000000        0x0 build/stm32g0xx_hal.o
 .text.HAL_MspInit
                0x0000000000000000        0x2 build/stm32g0xx_hal.o
 .text.HAL_MspDeInit
                0x0000000000000000        0x2 build/stm32g0xx_hal.o
 .text.HAL_DeInit
                0x0000000000000000       0x28 build/stm32g0xx_hal.o
 .text.HAL_IncTick
                0x0000000000000000       0x18 build/stm32g0xx_hal.o
 .text.HAL_GetTickPrio
                0x0000000000000000        0xc build/stm32g0xx_hal.o
 .text.HAL_SetTickFreq
                0x0000000000000000       0x28 build/stm32g0xx_hal.o
 .text.HAL_GetTickFreq
                0x0000000000000000        0xc build/stm32g0xx_hal.o
 .text.HAL_SuspendTick
                0x0000000000000000       0x10 build/stm32g0xx_hal.o
 .text.HAL_ResumeTick
                0x0000000000000000       0x10 build/stm32g0xx_hal.o
 .text.HAL_GetHalVersion
                0x0000000000000000        0x8 build/stm32g0xx_hal.o
 .text.HAL_GetREVID
                0x0000000000000000        0xc build/stm32g0xx_hal.o
 .text.HAL_GetDEVID
                0x0000000000000000       0x10 build/stm32g0xx_hal.o
 .text.HAL_GetUIDw0
                0x0000000000000000        0xc build/stm32g0xx_hal.o
 .text.HAL_GetUIDw1
                0x0000000000000000        0xc build/stm32g0xx_hal.o
 .text.HAL_GetUIDw2
                0x0000000000000000        0xc build/stm32g0xx_hal.o
 .text.HAL_DBGMCU_EnableDBGStopMode
                0x0000000000000000       0x10 build/stm32g0xx_hal.o
 .text.HAL_DBGMCU_DisableDBGStopMode
                0x0000000000000000       0x10 build/stm32g0xx_hal.o
 .text.HAL_DBGMCU_EnableDBGStandbyMode
                0x0000000000000000       0x10 build/stm32g0xx_hal.o
 .text.HAL_DBGMCU_DisableDBGStandbyMode
                0x0000000000000000       0x10 build/stm32g0xx_hal.o
 .text.HAL_SYSCFG_VREFBUF_VoltageScalingConfig
                0x0000000000000000       0x14 build/stm32g0xx_hal.o
 .text.HAL_SYSCFG_VREFBUF_HighImpedanceConfig
                0x0000000000000000       0x14 build/stm32g0xx_hal.o
 .text.HAL_SYSCFG_VREFBUF_TrimmingConfig
                0x0000000000000000       0x14 build/stm32g0xx_hal.o
 .text.HAL_SYSCFG_EnableVREFBUF
                0x0000000000000000       0x30 build/stm32g0xx_hal.o
 .text.HAL_SYSCFG_DisableVREFBUF
                0x0000000000000000       0x10 build/stm32g0xx_hal.o
 .text.HAL_SYSCFG_EnableIOAnalogSwitchBooster
                0x0000000000000000       0x14 build/stm32g0xx_hal.o
 .text.HAL_SYSCFG_DisableIOAnalogSwitchBooster
                0x0000000000000000       0x14 build/stm32g0xx_hal.o
 .text.HAL_SYSCFG_EnableRemap
                0x0000000000000000       0x10 build/stm32g0xx_hal.o
 .text.HAL_SYSCFG_DisableRemap
                0x0000000000000000       0x10 build/stm32g0xx_hal.o
 .text.HAL_SYSCFG_StrobeDBattpinsConfig
                0x0000000000000000       0x18 build/stm32g0xx_hal.o
 .text          0x0000000000000000        0x0 build/stm32g0xx_hal_exti.o
 .data          0x0000000000000000        0x0 build/stm32g0xx_hal_exti.o
 .bss           0x0000000000000000        0x0 build/stm32g0xx_hal_exti.o
 .text.HAL_EXTI_SetConfigLine
                0x0000000000000000       0xc8 build/stm32g0xx_hal_exti.o
 .text.HAL_EXTI_GetConfigLine
                0x0000000000000000       0xa8 build/stm32g0xx_hal_exti.o
 .text.HAL_EXTI_ClearConfigLine
                0x0000000000000000       0x90 build/stm32g0xx_hal_exti.o
 .text.HAL_EXTI_RegisterCallback
                0x0000000000000000       0x24 build/stm32g0xx_hal_exti.o
 .text.HAL_EXTI_GetHandle
                0x0000000000000000        0xe build/stm32g0xx_hal_exti.o
 .text.HAL_EXTI_IRQHandler
                0x0000000000000000       0x48 build/stm32g0xx_hal_exti.o
 .text.HAL_EXTI_GetPending
                0x0000000000000000       0x30 build/stm32g0xx_hal_exti.o
 .text.HAL_EXTI_ClearPending
                0x0000000000000000       0x30 build/stm32g0xx_hal_exti.o
 .text.HAL_EXTI_GenerateSWI
                0x0000000000000000       0x20 build/stm32g0xx_hal_exti.o
 .debug_info    0x0000000000000000      0x8fa build/stm32g0xx_hal_exti.o
 .debug_abbrev  0x0000000000000000      0x209 build/stm32g0xx_hal_exti.o
 .debug_loc     0x0000000000000000      0xa81 build/stm32g0xx_hal_exti.o
 .debug_aranges
                0x0000000000000000       0x60 build/stm32g0xx_hal_exti.o
 .debug_ranges  0x0000000000000000       0x50 build/stm32g0xx_hal_exti.o
 .debug_line    0x0000000000000000      0x79f build/stm32g0xx_hal_exti.o
 .debug_str     0x0000000000000000      0x511 build/stm32g0xx_hal_exti.o
 .comment       0x0000000000000000       0x5a build/stm32g0xx_hal_exti.o
 .debug_frame   0x0000000000000000       0xf8 build/stm32g0xx_hal_exti.o
 .ARM.attributes
                0x0000000000000000       0x2c build/stm32g0xx_hal_exti.o
 .text          0x0000000000000000        0x0 build/stm32g0xx_ll_utils.o
 .data          0x0000000000000000        0x0 build/stm32g0xx_ll_utils.o
 .bss           0x0000000000000000        0x0 build/stm32g0xx_ll_utils.o
 .text.UTILS_SetFlashLatency.part.0
                0x0000000000000000       0x38 build/stm32g0xx_ll_utils.o
 .text.UTILS_EnablePLLAndSwitchSystem
                0x0000000000000000       0xb4 build/stm32g0xx_ll_utils.o
 .text.LL_Init1msTick
                0x0000000000000000       0x20 build/stm32g0xx_ll_utils.o
 .text.LL_mDelay
                0x0000000000000000       0x2c build/stm32g0xx_ll_utils.o
 .text.LL_SetSystemCoreClock
                0x0000000000000000        0xc build/stm32g0xx_ll_utils.o
 .text.LL_PLL_ConfigSystemClock_HSI
                0x0000000000000000       0x70 build/stm32g0xx_ll_utils.o
 .text.LL_PLL_ConfigSystemClock_HSE
                0x0000000000000000       0x8c build/stm32g0xx_ll_utils.o
 .debug_info    0x0000000000000000      0xe5e build/stm32g0xx_ll_utils.o
 .debug_abbrev  0x0000000000000000      0x35d build/stm32g0xx_ll_utils.o
 .debug_loc     0x0000000000000000      0x82c build/stm32g0xx_ll_utils.o
 .debug_aranges
                0x0000000000000000       0x50 build/stm32g0xx_ll_utils.o
 .debug_ranges  0x0000000000000000      0x208 build/stm32g0xx_ll_utils.o
 .debug_line    0x0000000000000000      0x7d5 build/stm32g0xx_ll_utils.o
 .debug_str     0x0000000000000000      0x73e build/stm32g0xx_ll_utils.o
 .comment       0x0000000000000000       0x5a build/stm32g0xx_ll_utils.o
 .debug_frame   0x0000000000000000       0xc0 build/stm32g0xx_ll_utils.o
 .ARM.attributes
                0x0000000000000000       0x2c build/stm32g0xx_ll_utils.o
 .text          0x0000000000000000        0x0 build/stm32g0xx_ll_exti.o
 .data          0x0000000000000000        0x0 build/stm32g0xx_ll_exti.o
 .bss           0x0000000000000000        0x0 build/stm32g0xx_ll_exti.o
 .text.LL_EXTI_DeInit
                0x0000000000000000       0x34 build/stm32g0xx_ll_exti.o
 .text.LL_EXTI_Init
                0x0000000000000000      0x104 build/stm32g0xx_ll_exti.o
 .text.LL_EXTI_StructInit
                0x0000000000000000        0xe build/stm32g0xx_ll_exti.o
 .debug_info    0x0000000000000000      0x81c build/stm32g0xx_ll_exti.o
 .debug_abbrev  0x0000000000000000      0x20e build/stm32g0xx_ll_exti.o
 .debug_loc     0x0000000000000000      0x1f7 build/stm32g0xx_ll_exti.o
 .debug_aranges
                0x0000000000000000       0x30 build/stm32g0xx_ll_exti.o
 .debug_ranges  0x0000000000000000       0x80 build/stm32g0xx_ll_exti.o
 .debug_line    0x0000000000000000      0x40f build/stm32g0xx_ll_exti.o
 .debug_str     0x0000000000000000      0x4ea build/stm32g0xx_ll_exti.o
 .comment       0x0000000000000000       0x5a build/stm32g0xx_ll_exti.o
 .debug_frame   0x0000000000000000       0x4c build/stm32g0xx_ll_exti.o
 .ARM.attributes
                0x0000000000000000       0x2c build/stm32g0xx_ll_exti.o
 .text          0x0000000000000000        0x0 build/stm32g0xx_hal_tim.o
 .data          0x0000000000000000        0x0 build/stm32g0xx_hal_tim.o
 .bss           0x0000000000000000        0x0 build/stm32g0xx_hal_tim.o
 .debug_info    0x0000000000000000      0x1a8 build/stm32g0xx_hal_tim.o
 .debug_abbrev  0x0000000000000000       0xb7 build/stm32g0xx_hal_tim.o
 .debug_aranges
                0x0000000000000000       0x18 build/stm32g0xx_hal_tim.o
 .debug_line    0x0000000000000000       0xf6 build/stm32g0xx_hal_tim.o
 .debug_str     0x0000000000000000      0x27b build/stm32g0xx_hal_tim.o
 .comment       0x0000000000000000       0x5a build/stm32g0xx_hal_tim.o
 .ARM.attributes
                0x0000000000000000       0x32 build/stm32g0xx_hal_tim.o
 .text          0x0000000000000000        0x0 build/stm32g0xx_hal_tim_ex.o
 .data          0x0000000000000000        0x0 build/stm32g0xx_hal_tim_ex.o
 .bss           0x0000000000000000        0x0 build/stm32g0xx_hal_tim_ex.o
 .debug_info    0x0000000000000000      0x1a8 build/stm32g0xx_hal_tim_ex.o
 .debug_abbrev  0x0000000000000000       0xb7 build/stm32g0xx_hal_tim_ex.o
 .debug_aranges
                0x0000000000000000       0x18 build/stm32g0xx_hal_tim_ex.o
 .debug_line    0x0000000000000000       0xf6 build/stm32g0xx_hal_tim_ex.o
 .debug_str     0x0000000000000000      0x27e build/stm32g0xx_hal_tim_ex.o
 .comment       0x0000000000000000       0x5a build/stm32g0xx_hal_tim_ex.o
 .ARM.attributes
                0x0000000000000000       0x32 build/stm32g0xx_hal_tim_ex.o
 .text          0x0000000000000000        0x0 build/stm32g0xx_ll_ucpd.o
 .data          0x0000000000000000        0x0 build/stm32g0xx_ll_ucpd.o
 .bss           0x0000000000000000        0x0 build/stm32g0xx_ll_ucpd.o
 .text.LL_UCPD_DeInit
                0x0000000000000000       0x5c build/stm32g0xx_ll_ucpd.o
 .text          0x0000000000000000        0x0 build/stm32g0xx_ll_gpio.o
 .data          0x0000000000000000        0x0 build/stm32g0xx_ll_gpio.o
 .bss           0x0000000000000000        0x0 build/stm32g0xx_ll_gpio.o
 .text.LL_GPIO_DeInit
                0x0000000000000000       0x6c build/stm32g0xx_ll_gpio.o
 .text.LL_GPIO_Init
                0x0000000000000000       0xa2 build/stm32g0xx_ll_gpio.o
 .text.LL_GPIO_StructInit
                0x0000000000000000       0x18 build/stm32g0xx_ll_gpio.o
 .debug_info    0x0000000000000000      0x984 build/stm32g0xx_ll_gpio.o
 .debug_abbrev  0x0000000000000000      0x243 build/stm32g0xx_ll_gpio.o
 .debug_loc     0x0000000000000000      0x3c9 build/stm32g0xx_ll_gpio.o
 .debug_aranges
                0x0000000000000000       0x30 build/stm32g0xx_ll_gpio.o
 .debug_ranges  0x0000000000000000       0x50 build/stm32g0xx_ll_gpio.o
 .debug_line    0x0000000000000000      0x3c2 build/stm32g0xx_ll_gpio.o
 .debug_str     0x0000000000000000      0x4d9 build/stm32g0xx_ll_gpio.o
 .comment       0x0000000000000000       0x5a build/stm32g0xx_ll_gpio.o
 .debug_frame   0x0000000000000000       0x54 build/stm32g0xx_ll_gpio.o
 .ARM.attributes
                0x0000000000000000       0x2c build/stm32g0xx_ll_gpio.o
 .text          0x0000000000000000        0x0 build/stm32g0xx_ll_dma.o
 .data          0x0000000000000000        0x0 build/stm32g0xx_ll_dma.o
 .bss           0x0000000000000000        0x0 build/stm32g0xx_ll_dma.o
 .text.LL_DMA_DeInit
                0x0000000000000000       0xf4 build/stm32g0xx_ll_dma.o
 .text.LL_DMA_StructInit
                0x0000000000000000       0x1a build/stm32g0xx_ll_dma.o
 .text          0x0000000000000000        0x0 build/system_stm32g0xx.o
 .data          0x0000000000000000        0x0 build/system_stm32g0xx.o
 .bss           0x0000000000000000        0x0 build/system_stm32g0xx.o
 .text.SystemCoreClockUpdate
                0x0000000000000000       0x94 build/system_stm32g0xx.o
 .text          0x0000000000000000        0x0 build/app_freertos.o
 .data          0x0000000000000000        0x0 build/app_freertos.o
 .bss           0x0000000000000000        0x0 build/app_freertos.o
 .debug_info    0x0000000000000000      0x1e9 build/app_freertos.o
 .debug_abbrev  0x0000000000000000       0xc8 build/app_freertos.o
 .debug_aranges
                0x0000000000000000       0x18 build/app_freertos.o
 .debug_line    0x0000000000000000      0x124 build/app_freertos.o
 .debug_str     0x0000000000000000      0x279 build/app_freertos.o
 .comment       0x0000000000000000       0x5a build/app_freertos.o
 .ARM.attributes
                0x0000000000000000       0x32 build/app_freertos.o
 .text          0x0000000000000000        0x0 build/usbpd.o
 .data          0x0000000000000000        0x0 build/usbpd.o
 .bss           0x0000000000000000        0x0 build/usbpd.o
 .text          0x0000000000000000        0x0 build/usbpd_dpm_user.o
 .data          0x0000000000000000        0x0 build/usbpd_dpm_user.o
 .bss           0x0000000000000000        0x0 build/usbpd_dpm_user.o
 .text.USBPD_DPM_WaitForTime
                0x0000000000000000        0x8 build/usbpd_dpm_user.o
 .text.USBPD_DPM_UserExecute
                0x0000000000000000        0x2 build/usbpd_dpm_user.o
 .text.USBPD_DPM_SetupNewPower
                0x0000000000000000        0x8 build/usbpd_dpm_user.o
 .rodata.USBPD_DPM_EvaluateRequest.str1.1
                0x0000000000000000       0x27 build/usbpd_dpm_user.o
 .text.USBPD_DPM_EvaluateRequest
                0x0000000000000000       0x2c build/usbpd_dpm_user.o
 .rodata.USBPD_DPM_PowerRoleSwap.str1.1
                0x0000000000000000       0x25 build/usbpd_dpm_user.o
 .text.USBPD_DPM_PowerRoleSwap
                0x0000000000000000       0x2c build/usbpd_dpm_user.o
 .text.USBPD_DPM_EvaluateVconnSwap
                0x0000000000000000        0x4 build/usbpd_dpm_user.o
 .text.USBPD_DPM_PE_VconnPwr
                0x0000000000000000        0x4 build/usbpd_dpm_user.o
 .text.USBPD_DPM_RequestVDM_DiscoveryIdentify
                0x0000000000000000       0x12 build/usbpd_dpm_user.o
 .text.USBPD_DPM_RequestVDM_DiscoverySVID
                0x0000000000000000        0x8 build/usbpd_dpm_user.o
 .text.USBPD_DPM_RequestVDM_DiscoveryMode
                0x0000000000000000        0x8 build/usbpd_dpm_user.o
 .text.USBPD_DPM_RequestVDM_EnterMode
                0x0000000000000000        0x8 build/usbpd_dpm_user.o
 .text.USBPD_DPM_RequestVDM_ExitMode
                0x0000000000000000        0x8 build/usbpd_dpm_user.o
 .text.USBPD_DPM_RequestDisplayPortStatus
                0x0000000000000000        0xc build/usbpd_dpm_user.o
 .text.USBPD_DPM_RequestDisplayPortConfig
                0x0000000000000000        0xc build/usbpd_dpm_user.o
 .text.USBPD_DPM_RequestAttention
                0x0000000000000000        0x8 build/usbpd_dpm_user.o
 .text          0x0000000000000000        0x0 build/usbpd_pwr_user.o
 .data          0x0000000000000000        0x0 build/usbpd_pwr_user.o
 .bss           0x0000000000000000        0x0 build/usbpd_pwr_user.o
 .text.BSP_PWR_VBUSDeInit
                0x0000000000000000        0x4 build/usbpd_pwr_user.o
 .rodata.BSP_PWR_VBUSOn.str1.1
                0x0000000000000000       0x1c build/usbpd_pwr_user.o
 .text.BSP_PWR_VBUSOn
                0x0000000000000000       0x1c build/usbpd_pwr_user.o
 .rodata.BSP_PWR_VBUSOff.str1.1
                0x0000000000000000       0x1d build/usbpd_pwr_user.o
 .text.BSP_PWR_VBUSOff
                0x0000000000000000       0x1c build/usbpd_pwr_user.o
 .text.BSP_PWR_VBUSSetVoltage_Fixed
                0x0000000000000000        0x4 build/usbpd_pwr_user.o
 .text.BSP_PWR_VBUSSetVoltage_Variable
                0x0000000000000000        0x4 build/usbpd_pwr_user.o
 .text.BSP_PWR_VBUSSetVoltage_Battery
                0x0000000000000000        0x4 build/usbpd_pwr_user.o
 .text.BSP_PWR_VBUSSetVoltage_APDO
                0x0000000000000000        0x4 build/usbpd_pwr_user.o
 .text.BSP_PWR_VCONNInit
                0x0000000000000000        0x4 build/usbpd_pwr_user.o
 .text.BSP_PWR_VCONNDeInit
                0x0000000000000000        0x4 build/usbpd_pwr_user.o
 .text.BSP_PWR_VCONNOn
                0x0000000000000000        0x4 build/usbpd_pwr_user.o
 .text.BSP_PWR_VCONNOff
                0x0000000000000000        0x4 build/usbpd_pwr_user.o
 .text.BSP_PWR_SetVBUSDisconnectionThreshold
                0x0000000000000000        0x2 build/usbpd_pwr_user.o
 .text.BSP_PWR_RegisterVBUSDetectCallback
                0x0000000000000000        0x4 build/usbpd_pwr_user.o
 .rodata.BSP_PWR_VBUSIsOn.str1.1
                0x0000000000000000       0x1e build/usbpd_pwr_user.o
 .text.BSP_PWR_VBUSIsOn
                0x0000000000000000       0x1c build/usbpd_pwr_user.o
 .text.BSP_PWR_VCONNIsOn
                0x0000000000000000        0x4 build/usbpd_pwr_user.o
 .text          0x0000000000000000        0x0 build/usbpd_pwr_if.o
 .data          0x0000000000000000        0x0 build/usbpd_pwr_if.o
 .bss           0x0000000000000000        0x0 build/usbpd_pwr_if.o
 .text.USBPD_PWR_IF_Init
                0x0000000000000000        0x4 build/usbpd_pwr_if.o
 .rodata.USBPD_PWR_IF_SetProfile.str1.1
                0x0000000000000000       0x25 build/usbpd_pwr_if.o
 .text.USBPD_PWR_IF_SetProfile
                0x0000000000000000       0x1c build/usbpd_pwr_if.o
 .text.USBPD_PWR_IF_VBUSEnable
                0x0000000000000000       0x10 build/usbpd_pwr_if.o
 .text.USBPD_PWR_IF_VBUSDisable
                0x0000000000000000       0x12 build/usbpd_pwr_if.o
 .text.USBPD_PWR_IF_VBUSIsEnabled
                0x0000000000000000       0x10 build/usbpd_pwr_if.o
 .text.USBPD_PWR_IF_ReadVA
                0x0000000000000000        0x4 build/usbpd_pwr_if.o
 .text.USBPD_PWR_IF_Enable_VConn
                0x0000000000000000        0x4 build/usbpd_pwr_if.o
 .text.USBPD_PWR_IF_Disable_VConn
                0x0000000000000000        0x4 build/usbpd_pwr_if.o
 .text.USBPD_PWR_IF_GetPortPDOs
                0x0000000000000000       0x20 build/usbpd_pwr_if.o
 .text.USBPD_PWR_IF_SearchRequestedPDO
                0x0000000000000000        0x4 build/usbpd_pwr_if.o
 .text.USBPD_PWR_IF_Alarm
                0x0000000000000000        0x2 build/usbpd_pwr_if.o
 .bss.PORT0_PDO_ListSRC
                0x0000000000000000       0x1c build/usbpd_pwr_if.o
 .data.USBPD_NbPDO
                0x0000000000000000        0x4 build/usbpd_pwr_if.o
 .text          0x0000000000000000        0x0 build/usbpd_vdm_user.o
 .data          0x0000000000000000        0x0 build/usbpd_vdm_user.o
 .bss           0x0000000000000000        0x0 build/usbpd_vdm_user.o
 .text.USBPD_VDM_DiscoverIdentity
                0x0000000000000000        0x4 build/usbpd_vdm_user.o
 .text.USBPD_VDM_DiscoverSVIDs
                0x0000000000000000        0x4 build/usbpd_vdm_user.o
 .text.USBPD_VDM_DiscoverModes
                0x0000000000000000        0x4 build/usbpd_vdm_user.o
 .text.USBPD_VDM_ModeEnter
                0x0000000000000000        0x4 build/usbpd_vdm_user.o
 .text.USBPD_VDM_SendAttention
                0x0000000000000000        0x2 build/usbpd_vdm_user.o
 .text.USBPD_VDM_ReceiveAttention
                0x0000000000000000        0x2 build/usbpd_vdm_user.o
 .text.USBPD_VDM_ReceiveSpecific
                0x0000000000000000        0x4 build/usbpd_vdm_user.o
 .text.USBPD_VDM_InformIdentity
                0x0000000000000000        0x2 build/usbpd_vdm_user.o
 .text.USBPD_VDM_InformModeEnter
                0x0000000000000000        0x2 build/usbpd_vdm_user.o
 .text.USBPD_VDM_InformSpecific
                0x0000000000000000        0x2 build/usbpd_vdm_user.o
 .text.USBPD_VDM_SendUVDM
                0x0000000000000000        0x2 build/usbpd_vdm_user.o
 .text.USBPD_VDM_ReceiveUVDM
                0x0000000000000000        0x4 build/usbpd_vdm_user.o
 .text.USBPD_VDM_SendSpecific
                0x0000000000000000        0x2 build/usbpd_vdm_user.o
 .text.USBPD_VDM_InformModeExit
                0x0000000000000000        0x2 build/usbpd_vdm_user.o
 .text.USBPD_VDM_InformSVID
                0x0000000000000000        0x2 build/usbpd_vdm_user.o
 .text.USBPD_VDM_ModeExit
                0x0000000000000000        0x4 build/usbpd_vdm_user.o
 .text.USBPD_VDM_InformMode
                0x0000000000000000        0x2 build/usbpd_vdm_user.o
 .text.USBPD_VDM_UserInit
                0x0000000000000000        0x4 build/usbpd_vdm_user.o
 .text.USBPD_VDM_UserReset
                0x0000000000000000        0x2 build/usbpd_vdm_user.o
 .rodata.vdmCallbacks
                0x0000000000000000       0x44 build/usbpd_vdm_user.o
 .debug_info    0x0000000000000000     0x22f4 build/usbpd_vdm_user.o
 .debug_abbrev  0x0000000000000000      0x41a build/usbpd_vdm_user.o
 .debug_loc     0x0000000000000000      0x103 build/usbpd_vdm_user.o
 .debug_aranges
                0x0000000000000000       0x88 build/usbpd_vdm_user.o
 .debug_ranges  0x0000000000000000       0x78 build/usbpd_vdm_user.o
 .debug_line    0x0000000000000000      0x350 build/usbpd_vdm_user.o
 .debug_str     0x0000000000000000     0x169d build/usbpd_vdm_user.o
 .comment       0x0000000000000000       0x5a build/usbpd_vdm_user.o
 .debug_frame   0x0000000000000000      0x140 build/usbpd_vdm_user.o
 .ARM.attributes
                0x0000000000000000       0x2c build/usbpd_vdm_user.o
 .text          0x0000000000000000        0x0 build/usbpd_dpm_core.o
 .data          0x0000000000000000        0x0 build/usbpd_dpm_core.o
 .bss           0x0000000000000000        0x0 build/usbpd_dpm_core.o
 .text.USBPD_DPM_Run
                0x0000000000000000        0x8 build/usbpd_dpm_core.o
 .text          0x0000000000000000        0x0 build/stm32g0xx_ll_tim.o
 .data          0x0000000000000000        0x0 build/stm32g0xx_ll_tim.o
 .bss           0x0000000000000000        0x0 build/stm32g0xx_ll_tim.o
 .text.LL_TIM_DeInit
                0x0000000000000000      0x100 build/stm32g0xx_ll_tim.o
 .text.LL_TIM_StructInit
                0x0000000000000000       0x12 build/stm32g0xx_ll_tim.o
 .text.LL_TIM_Init
                0x0000000000000000       0xa0 build/stm32g0xx_ll_tim.o
 .text.LL_TIM_OC_StructInit
                0x0000000000000000       0x14 build/stm32g0xx_ll_tim.o
 .text.LL_TIM_OC_Init
                0x0000000000000000      0x2e8 build/stm32g0xx_ll_tim.o
 .text.LL_TIM_IC_StructInit
                0x0000000000000000       0x10 build/stm32g0xx_ll_tim.o
 .text.LL_TIM_IC_Init
                0x0000000000000000       0xe0 build/stm32g0xx_ll_tim.o
 .text.LL_TIM_ENCODER_StructInit
                0x0000000000000000       0x1c build/stm32g0xx_ll_tim.o
 .text.LL_TIM_ENCODER_Init
                0x0000000000000000       0x60 build/stm32g0xx_ll_tim.o
 .text.LL_TIM_HALLSENSOR_StructInit
                0x0000000000000000        0xc build/stm32g0xx_ll_tim.o
 .text.LL_TIM_HALLSENSOR_Init
                0x0000000000000000       0x60 build/stm32g0xx_ll_tim.o
 .text.LL_TIM_BDTR_StructInit
                0x0000000000000000       0x1e build/stm32g0xx_ll_tim.o
 .text.LL_TIM_BDTR_Init
                0x0000000000000000       0xa8 build/stm32g0xx_ll_tim.o
 .debug_info    0x0000000000000000     0x198c build/stm32g0xx_ll_tim.o
 .debug_abbrev  0x0000000000000000      0x2c6 build/stm32g0xx_ll_tim.o
 .debug_loc     0x0000000000000000     0x14dc build/stm32g0xx_ll_tim.o
 .debug_aranges
                0x0000000000000000       0x80 build/stm32g0xx_ll_tim.o
 .debug_ranges  0x0000000000000000      0x130 build/stm32g0xx_ll_tim.o
 .debug_line    0x0000000000000000      0xc6e build/stm32g0xx_ll_tim.o
 .debug_str     0x0000000000000000      0xa48 build/stm32g0xx_ll_tim.o
 .comment       0x0000000000000000       0x5a build/stm32g0xx_ll_tim.o
 .debug_frame   0x0000000000000000      0x128 build/stm32g0xx_ll_tim.o
 .ARM.attributes
                0x0000000000000000       0x2c build/stm32g0xx_ll_tim.o
 .text          0x0000000000000000        0x0 build/croutine.o
 .data          0x0000000000000000        0x0 build/croutine.o
 .bss           0x0000000000000000        0x0 build/croutine.o
 .debug_info    0x0000000000000000       0x8c build/croutine.o
 .debug_abbrev  0x0000000000000000       0x48 build/croutine.o
 .debug_aranges
                0x0000000000000000       0x18 build/croutine.o
 .debug_line    0x0000000000000000       0x6a build/croutine.o
 .debug_str     0x0000000000000000      0x1c5 build/croutine.o
 .comment       0x0000000000000000       0x5a build/croutine.o
 .ARM.attributes
                0x0000000000000000       0x32 build/croutine.o
 .text          0x0000000000000000        0x0 build/event_groups.o
 .data          0x0000000000000000        0x0 build/event_groups.o
 .bss           0x0000000000000000        0x0 build/event_groups.o
 .text.xEventGroupCreate
                0x0000000000000000       0x18 build/event_groups.o
 .text.xEventGroupWaitBits
                0x0000000000000000       0xd4 build/event_groups.o
 .text.xEventGroupClearBits
                0x0000000000000000       0x2a build/event_groups.o
 .text.xEventGroupGetBitsFromISR
                0x0000000000000000       0x12 build/event_groups.o
 .text.xEventGroupSetBits
                0x0000000000000000       0x7a build/event_groups.o
 .text.xEventGroupSync
                0x0000000000000000       0xa2 build/event_groups.o
 .text.vEventGroupDelete
                0x0000000000000000       0x34 build/event_groups.o
 .text.vEventGroupSetBitsCallback
                0x0000000000000000        0x8 build/event_groups.o
 .text.vEventGroupClearBitsCallback
                0x0000000000000000        0x8 build/event_groups.o
 .debug_info    0x0000000000000000     0x1511 build/event_groups.o
 .debug_abbrev  0x0000000000000000      0x35b build/event_groups.o
 .debug_loc     0x0000000000000000      0xc0a build/event_groups.o
 .debug_aranges
                0x0000000000000000       0x60 build/event_groups.o
 .debug_ranges  0x0000000000000000       0xb8 build/event_groups.o
 .debug_line    0x0000000000000000      0x7ca build/event_groups.o
 .debug_str     0x0000000000000000      0xa27 build/event_groups.o
 .comment       0x0000000000000000       0x5a build/event_groups.o
 .debug_frame   0x0000000000000000      0x114 build/event_groups.o
 .ARM.attributes
                0x0000000000000000       0x2c build/event_groups.o
 .text          0x0000000000000000        0x0 build/list.o
 .data          0x0000000000000000        0x0 build/list.o
 .bss           0x0000000000000000        0x0 build/list.o
 .text          0x0000000000000000        0x0 build/queue.o
 .data          0x0000000000000000        0x0 build/queue.o
 .bss           0x0000000000000000        0x0 build/queue.o
 .text.xQueueCreateMutex
                0x0000000000000000       0x30 build/queue.o
 .text.xQueueGiveFromISR
                0x0000000000000000       0x78 build/queue.o
 .text.xQueueSemaphoreTake
                0x0000000000000000      0x14c build/queue.o
 .text.xQueuePeek
                0x0000000000000000      0x10a build/queue.o
 .text.xQueuePeekFromISR
                0x0000000000000000       0x4a build/queue.o
 .text.uxQueueMessagesWaiting
                0x0000000000000000       0x18 build/queue.o
 .text.uxQueueSpacesAvailable
                0x0000000000000000       0x1c build/queue.o
 .text.uxQueueMessagesWaitingFromISR
                0x0000000000000000        0xc build/queue.o
 .text.xQueueIsQueueEmptyFromISR
                0x0000000000000000       0x10 build/queue.o
 .text.xQueueIsQueueFullFromISR
                0x0000000000000000       0x14 build/queue.o
 .text.vQueueAddToRegistry
                0x0000000000000000       0x24 build/queue.o
 .text.pcQueueGetName
                0x0000000000000000       0x24 build/queue.o
 .text.vQueueUnregisterQueue
                0x0000000000000000       0x28 build/queue.o
 .text.vQueueDelete
                0x0000000000000000       0x16 build/queue.o
 COMMON         0x0000000000000000       0x40 build/queue.o
 .text          0x0000000000000000        0x0 build/stream_buffer.o
 .data          0x0000000000000000        0x0 build/stream_buffer.o
 .bss           0x0000000000000000        0x0 build/stream_buffer.o
 .text.prvBytesInBuffer
                0x0000000000000000       0x12 build/stream_buffer.o
 .text.prvReadBytesFromBuffer
                0x0000000000000000       0x70 build/stream_buffer.o
 .text.prvReadMessageFromBuffer
                0x0000000000000000       0x46 build/stream_buffer.o
 .text.prvInitialiseNewStreamBuffer
                0x0000000000000000       0x3a build/stream_buffer.o
 .text.prvWriteBytesToBuffer.part.0
                0x0000000000000000       0x54 build/stream_buffer.o
 .text.prvWriteMessageToBuffer
                0x0000000000000000       0x46 build/stream_buffer.o
 .text.xStreamBufferGenericCreate
                0x0000000000000000       0x3a build/stream_buffer.o
 .text.vStreamBufferDelete
                0x0000000000000000       0x20 build/stream_buffer.o
 .text.xStreamBufferReset
                0x0000000000000000       0x2e build/stream_buffer.o
 .text.xStreamBufferSetTriggerLevel
                0x0000000000000000       0x1c build/stream_buffer.o
 .text.xStreamBufferSpacesAvailable
                0x0000000000000000       0x1c build/stream_buffer.o
 .text.xStreamBufferBytesAvailable
                0x0000000000000000       0x10 build/stream_buffer.o
 .text.xStreamBufferSend
                0x0000000000000000       0xd4 build/stream_buffer.o
 .text.xStreamBufferSendFromISR
                0x0000000000000000       0x76 build/stream_buffer.o
 .text.xStreamBufferReceive
                0x0000000000000000       0xae build/stream_buffer.o
 .text.xStreamBufferReceiveFromISR
                0x0000000000000000       0x6e build/stream_buffer.o
 .text.xStreamBufferIsEmpty
                0x0000000000000000       0x14 build/stream_buffer.o
 .text.xStreamBufferIsFull
                0x0000000000000000       0x20 build/stream_buffer.o
 .text.xStreamBufferSendCompletedFromISR
                0x0000000000000000       0x38 build/stream_buffer.o
 .text.xStreamBufferReceiveCompletedFromISR
                0x0000000000000000       0x38 build/stream_buffer.o
 .debug_info    0x0000000000000000     0x1e5a build/stream_buffer.o
 .debug_abbrev  0x0000000000000000      0x41d build/stream_buffer.o
 .debug_loc     0x0000000000000000     0x16c7 build/stream_buffer.o
 .debug_aranges
                0x0000000000000000       0xb8 build/stream_buffer.o
 .debug_ranges  0x0000000000000000       0xf8 build/stream_buffer.o
 .debug_line    0x0000000000000000      0xfe1 build/stream_buffer.o
 .debug_str     0x0000000000000000      0xbef build/stream_buffer.o
 .comment       0x0000000000000000       0x5a build/stream_buffer.o
 .debug_frame   0x0000000000000000      0x24c build/stream_buffer.o
 .ARM.attributes
                0x0000000000000000       0x2c build/stream_buffer.o
 .text          0x0000000000000000        0x0 build/tasks.o
 .data          0x0000000000000000        0x0 build/tasks.o
 .bss           0x0000000000000000        0x0 build/tasks.o
 .text.uxTaskPriorityGet
                0x0000000000000000       0x20 build/tasks.o
 .text.uxTaskPriorityGetFromISR
                0x0000000000000000       0x20 build/tasks.o
 .text.vTaskPrioritySet
                0x0000000000000000       0xa0 build/tasks.o
 .text.vTaskResume
                0x0000000000000000       0x74 build/tasks.o
 .text.xTaskResumeFromISR
                0x0000000000000000       0x84 build/tasks.o
 .text.vTaskEndScheduler
                0x0000000000000000       0x14 build/tasks.o
 .text.xTaskGetTickCount
                0x0000000000000000        0xc build/tasks.o
 .text.xTaskGetTickCountFromISR
                0x0000000000000000        0xc build/tasks.o
 .text.uxTaskGetNumberOfTasks
                0x0000000000000000        0xc build/tasks.o
 .text.pcTaskGetName
                0x0000000000000000       0x18 build/tasks.o
 .text.vTaskSuspend
                0x0000000000000000       0x9c build/tasks.o
 .text.vTaskPlaceOnUnorderedEventList
                0x0000000000000000       0x40 build/tasks.o
 .text.vTaskRemoveFromUnorderedEventList
                0x0000000000000000       0x70 build/tasks.o
 .text.vTaskSetTimeOutState
                0x0000000000000000       0x28 build/tasks.o
 .text.xTaskGetCurrentTaskHandle
                0x0000000000000000        0xc build/tasks.o
 .text.xTaskPriorityInherit
                0x0000000000000000       0x7c build/tasks.o
 .text.vTaskPriorityDisinheritAfterTimeout
                0x0000000000000000       0x78 build/tasks.o
 .text.uxTaskResetEventItemValue
                0x0000000000000000       0x18 build/tasks.o
 .text.pvTaskIncrementMutexHeldCount
                0x0000000000000000       0x18 build/tasks.o
 .text.ulTaskNotifyTake
                0x0000000000000000       0x5c build/tasks.o
 .text.xTaskNotifyWait
                0x0000000000000000       0x78 build/tasks.o
 .text.xTaskGenericNotify
                0x0000000000000000       0xa8 build/tasks.o
 .text.xTaskGenericNotifyFromISR
                0x0000000000000000       0xd4 build/tasks.o
 .text.vTaskNotifyGiveFromISR
                0x0000000000000000       0xa0 build/tasks.o
 .text.xTaskNotifyStateClear
                0x0000000000000000       0x28 build/tasks.o
 .text          0x0000000000000000        0x0 build/timers.o
 .data          0x0000000000000000        0x0 build/timers.o
 .bss           0x0000000000000000        0x0 build/timers.o
 .debug_info    0x0000000000000000      0xa09 build/timers.o
 .debug_abbrev  0x0000000000000000      0x18f build/timers.o
 .debug_aranges
                0x0000000000000000       0x18 build/timers.o
 .debug_line    0x0000000000000000       0xcf build/timers.o
 .debug_str     0x0000000000000000      0x5ac build/timers.o
 .comment       0x0000000000000000       0x5a build/timers.o
 .ARM.attributes
                0x0000000000000000       0x32 build/timers.o
 .text          0x0000000000000000        0x0 build/cmsis_os.o
 .data          0x0000000000000000        0x0 build/cmsis_os.o
 .bss           0x0000000000000000        0x0 build/cmsis_os.o
 .text.osKernelRunning
                0x0000000000000000        0xe build/cmsis_os.o
 .text.osKernelSysTick
                0x0000000000000000       0x16 build/cmsis_os.o
 .text.osThreadGetId
                0x0000000000000000        0x8 build/cmsis_os.o
 .text.osThreadYield
                0x0000000000000000        0xa build/cmsis_os.o
 .text.osThreadSetPriority
                0x0000000000000000       0x14 build/cmsis_os.o
 .text.osThreadGetPriority
                0x0000000000000000       0x22 build/cmsis_os.o
 .text.osTimerCreate
                0x0000000000000000        0x4 build/cmsis_os.o
 .text.osTimerStart
                0x0000000000000000        0x4 build/cmsis_os.o
 .text.osTimerStop
                0x0000000000000000        0x4 build/cmsis_os.o
 .text.osTimerDelete
                0x0000000000000000        0x4 build/cmsis_os.o
 .text.osSignalSet
                0x0000000000000000       0x4c build/cmsis_os.o
 .text.osSignalWait
                0x0000000000000000       0x4c build/cmsis_os.o
 .text.osMutexCreate
                0x0000000000000000        0xa build/cmsis_os.o
 .text.osMutexWait
                0x0000000000000000       0x48 build/cmsis_os.o
 .text.osMutexRelease
                0x0000000000000000       0x40 build/cmsis_os.o
 .text.osMutexDelete
                0x0000000000000000       0x16 build/cmsis_os.o
 .text.osSemaphoreCreate
                0x0000000000000000       0x24 build/cmsis_os.o
 .text.osSemaphoreWait
                0x0000000000000000       0x48 build/cmsis_os.o
 .text.osSemaphoreRelease
                0x0000000000000000        0x8 build/cmsis_os.o
 .text.osSemaphoreDelete
                0x0000000000000000        0x8 build/cmsis_os.o
 .text.osPoolCreate
                0x0000000000000000       0x68 build/cmsis_os.o
 .text.osPoolAlloc
                0x0000000000000000       0x62 build/cmsis_os.o
 .text.osPoolCAlloc
                0x0000000000000000       0x16 build/cmsis_os.o
 .text.osPoolFree
                0x0000000000000000       0x32 build/cmsis_os.o
 .text.osMailCreate
                0x0000000000000000       0x62 build/cmsis_os.o
 .text.osMailAlloc
                0x0000000000000000        0xe build/cmsis_os.o
 .text.osMailCAlloc
                0x0000000000000000       0x20 build/cmsis_os.o
 .text.osMailPut
                0x0000000000000000       0x54 build/cmsis_os.o
 .text.osMailGet
                0x0000000000000000       0x6c build/cmsis_os.o
 .text.osMailFree
                0x0000000000000000       0x12 build/cmsis_os.o
 .text.osSystickHandler
                0x0000000000000000       0x10 build/cmsis_os.o
 .text.osThreadSuspend
                0x0000000000000000        0xa build/cmsis_os.o
 .text.osThreadResume
                0x0000000000000000       0x28 build/cmsis_os.o
 .text.osThreadSuspendAll
                0x0000000000000000        0xa build/cmsis_os.o
 .text.osThreadResumeAll
                0x0000000000000000       0x12 build/cmsis_os.o
 .text.osDelayUntil
                0x0000000000000000        0x4 build/cmsis_os.o
 .text.osAbortDelay
                0x0000000000000000        0x4 build/cmsis_os.o
 .text.osThreadList
                0x0000000000000000        0x4 build/cmsis_os.o
 .text.osMessagePeek
                0x0000000000000000       0x3a build/cmsis_os.o
 .text.osMessageWaiting
                0x0000000000000000       0x16 build/cmsis_os.o
 .text.osMessageAvailableSpace
                0x0000000000000000        0x8 build/cmsis_os.o
 .text.osMessageDelete
                0x0000000000000000        0x8 build/cmsis_os.o
 .text.osRecursiveMutexCreate
                0x0000000000000000        0x4 build/cmsis_os.o
 .text.osRecursiveMutexRelease
                0x0000000000000000        0x4 build/cmsis_os.o
 .text.osRecursiveMutexWait
                0x0000000000000000        0x4 build/cmsis_os.o
 .text.osSemaphoreGetCount
                0x0000000000000000        0x8 build/cmsis_os.o
 .text          0x0000000000000000        0x0 build/heap_4.o
 .data          0x0000000000000000        0x0 build/heap_4.o
 .bss           0x0000000000000000        0x0 build/heap_4.o
 .text.xPortGetFreeHeapSize
                0x0000000000000000        0xc build/heap_4.o
 .text.xPortGetMinimumEverFreeHeapSize
                0x0000000000000000        0xc build/heap_4.o
 .text.vPortInitialiseBlocks
                0x0000000000000000        0x2 build/heap_4.o
 .text          0x0000000000000000        0x0 build/port.o
 .data          0x0000000000000000        0x0 build/port.o
 .bss           0x0000000000000000        0x0 build/port.o
 .text.vPortEndScheduler
                0x0000000000000000       0x18 build/port.o
 .text.xPortSysTickHandler
                0x0000000000000000       0x24 build/port.o
 .text          0x0000000000000000        0x0 build/usbpd_trace.o
 .data          0x0000000000000000        0x0 build/usbpd_trace.o
 .bss           0x0000000000000000        0x0 build/usbpd_trace.o
 .text          0x0000000000000000        0x0 build/usbpd_cad_hw_if.o
 .data          0x0000000000000000        0x0 build/usbpd_cad_hw_if.o
 .bss           0x0000000000000000        0x0 build/usbpd_cad_hw_if.o
 .text          0x0000000000000000        0x0 build/usbpd_hw.o
 .data          0x0000000000000000        0x0 build/usbpd_hw.o
 .bss           0x0000000000000000        0x0 build/usbpd_hw.o
 .text.USBPD_HW_GetRpResistorValue
                0x0000000000000000        0x6 build/usbpd_hw.o
 .text          0x0000000000000000        0x0 build/usbpd_hw_if_it.o
 .data          0x0000000000000000        0x0 build/usbpd_hw_if_it.o
 .bss           0x0000000000000000        0x0 build/usbpd_hw_if_it.o
 .text.USBPD_PORT1_IRQHandler
                0x0000000000000000        0xa build/usbpd_hw_if_it.o
 .text          0x0000000000000000        0x0 build/usbpd_phy.o
 .data          0x0000000000000000        0x0 build/usbpd_phy.o
 .bss           0x0000000000000000        0x0 build/usbpd_phy.o
 .text          0x0000000000000000        0x0 build/usbpd_phy_hw_if.o
 .data          0x0000000000000000        0x0 build/usbpd_phy_hw_if.o
 .bss           0x0000000000000000        0x0 build/usbpd_phy_hw_if.o
 .text.USBPDM1_Set_CC
                0x0000000000000000       0x24 build/usbpd_phy_hw_if.o
 .text.USBPDM1_RX_EnableInterrupt
                0x0000000000000000       0x20 build/usbpd_phy_hw_if.o
 .text          0x0000000000000000        0x0 build/usbpd_pwr_hw_if.o
 .data          0x0000000000000000        0x0 build/usbpd_pwr_hw_if.o
 .bss           0x0000000000000000        0x0 build/usbpd_pwr_hw_if.o
 .text.HW_IF_PWR_SetVoltage
                0x0000000000000000        0x4 build/usbpd_pwr_hw_if.o
 .text.HW_IF_PWR_VBUSIsEnabled
                0x0000000000000000        0x4 build/usbpd_pwr_hw_if.o
 .text          0x0000000000000000        0x0 build/usbpd_timersserver.o
 .data          0x0000000000000000        0x0 build/usbpd_timersserver.o
 .bss           0x0000000000000000        0x0 build/usbpd_timersserver.o
 .text          0x0000000000000000        0x0 build/stm32g0xx_hal_uart.o
 .data          0x0000000000000000        0x0 build/stm32g0xx_hal_uart.o
 .bss           0x0000000000000000        0x0 build/stm32g0xx_hal_uart.o
 .text.UART_TxISR_8BIT
                0x0000000000000000       0x3c build/stm32g0xx_hal_uart.o
 .text.UART_TxISR_16BIT
                0x0000000000000000       0x40 build/stm32g0xx_hal_uart.o
 .text.UART_TxISR_16BIT_FIFOEN
                0x0000000000000000       0x5c build/stm32g0xx_hal_uart.o
 .text.UART_TxISR_8BIT_FIFOEN
                0x0000000000000000       0x58 build/stm32g0xx_hal_uart.o
 .text.HAL_UART_MspInit
                0x0000000000000000        0x2 build/stm32g0xx_hal_uart.o
 .text.HAL_UART_MspDeInit
                0x0000000000000000        0x2 build/stm32g0xx_hal_uart.o
 .text.HAL_UART_DeInit
                0x0000000000000000       0x3c build/stm32g0xx_hal_uart.o
 .text.HAL_UART_Transmit_IT
                0x0000000000000000       0xb8 build/stm32g0xx_hal_uart.o
 .text.HAL_UART_Receive_IT
                0x0000000000000000      0x114 build/stm32g0xx_hal_uart.o
 .text.HAL_UART_Transmit_DMA
                0x0000000000000000       0xb4 build/stm32g0xx_hal_uart.o
 .text.HAL_UART_Receive_DMA
                0x0000000000000000       0xc0 build/stm32g0xx_hal_uart.o
 .text.HAL_UART_DMAPause
                0x0000000000000000       0x5c build/stm32g0xx_hal_uart.o
 .text.HAL_UART_DMAResume
                0x0000000000000000       0x54 build/stm32g0xx_hal_uart.o
 .text.HAL_UART_DMAStop
                0x0000000000000000       0x98 build/stm32g0xx_hal_uart.o
 .text.HAL_UART_Abort
                0x0000000000000000       0xbc build/stm32g0xx_hal_uart.o
 .text.HAL_UART_AbortTransmit
                0x0000000000000000       0x74 build/stm32g0xx_hal_uart.o
 .text.HAL_UART_AbortReceive
                0x0000000000000000       0x70 build/stm32g0xx_hal_uart.o
 .text.UART_DMATransmitCplt
                0x0000000000000000       0x34 build/stm32g0xx_hal_uart.o
 .text.HAL_UART_TxHalfCpltCallback
                0x0000000000000000        0x2 build/stm32g0xx_hal_uart.o
 .text.UART_DMATxHalfCplt
                0x0000000000000000        0xa build/stm32g0xx_hal_uart.o
 .text.HAL_UART_RxCpltCallback
                0x0000000000000000        0x2 build/stm32g0xx_hal_uart.o
 .text.UART_RxISR_8BIT
                0x0000000000000000       0x64 build/stm32g0xx_hal_uart.o
 .text.UART_RxISR_16BIT
                0x0000000000000000       0x60 build/stm32g0xx_hal_uart.o
 .text.UART_RxISR_8BIT_FIFOEN
                0x0000000000000000       0xac build/stm32g0xx_hal_uart.o
 .text.UART_RxISR_16BIT_FIFOEN
                0x0000000000000000       0xac build/stm32g0xx_hal_uart.o
 .text.UART_DMAReceiveCplt
                0x0000000000000000       0x48 build/stm32g0xx_hal_uart.o
 .text.HAL_UART_RxHalfCpltCallback
                0x0000000000000000        0x2 build/stm32g0xx_hal_uart.o
 .text.UART_DMARxHalfCplt
                0x0000000000000000        0xa build/stm32g0xx_hal_uart.o
 .text.UART_DMAError
                0x0000000000000000       0x68 build/stm32g0xx_hal_uart.o
 .text.HAL_UART_AbortCpltCallback
                0x0000000000000000        0x2 build/stm32g0xx_hal_uart.o
 .text.HAL_UART_Abort_IT
                0x0000000000000000       0xf0 build/stm32g0xx_hal_uart.o
 .text.UART_DMARxAbortCallback
                0x0000000000000000       0x42 build/stm32g0xx_hal_uart.o
 .text.UART_DMATxAbortCallback
                0x0000000000000000       0x4a build/stm32g0xx_hal_uart.o
 .text.HAL_UART_AbortTransmitCpltCallback
                0x0000000000000000        0x2 build/stm32g0xx_hal_uart.o
 .text.HAL_UART_AbortTransmit_IT
                0x0000000000000000       0x80 build/stm32g0xx_hal_uart.o
 .text.UART_DMATxOnlyAbortCallback
                0x0000000000000000       0x2c build/stm32g0xx_hal_uart.o
 .text.HAL_UART_AbortReceiveCpltCallback
                0x0000000000000000        0x2 build/stm32g0xx_hal_uart.o
 .text.HAL_UART_AbortReceive_IT
                0x0000000000000000       0x88 build/stm32g0xx_hal_uart.o
 .text.UART_DMARxOnlyAbortCallback
                0x0000000000000000       0x28 build/stm32g0xx_hal_uart.o
 .text.HAL_MultiProcessor_EnterMuteMode
                0x0000000000000000        0xc build/stm32g0xx_hal_uart.o
 .text.HAL_HalfDuplex_EnableTransmitter
                0x0000000000000000       0x32 build/stm32g0xx_hal_uart.o
 .text.HAL_HalfDuplex_EnableReceiver
                0x0000000000000000       0x32 build/stm32g0xx_hal_uart.o
 .text.HAL_LIN_SendBreak
                0x0000000000000000       0x2a build/stm32g0xx_hal_uart.o
 .text.HAL_UART_GetState
                0x0000000000000000        0xc build/stm32g0xx_hal_uart.o
 .text.HAL_UART_GetError
                0x0000000000000000        0x6 build/stm32g0xx_hal_uart.o
 .text.HAL_UART_Transmit
                0x0000000000000000       0xdc build/stm32g0xx_hal_uart.o
 .text.HAL_UART_Receive
                0x0000000000000000      0x10c build/stm32g0xx_hal_uart.o
 .text.HAL_HalfDuplex_Init
                0x0000000000000000       0x70 build/stm32g0xx_hal_uart.o
 .text.HAL_LIN_Init
                0x0000000000000000       0x90 build/stm32g0xx_hal_uart.o
 .text.HAL_MultiProcessor_Init
                0x0000000000000000       0x90 build/stm32g0xx_hal_uart.o
 .text.HAL_MultiProcessor_EnableMuteMode
                0x0000000000000000       0x32 build/stm32g0xx_hal_uart.o
 .text.HAL_MultiProcessor_DisableMuteMode
                0x0000000000000000       0x34 build/stm32g0xx_hal_uart.o
 .text          0x0000000000000000        0x0 build/stm32g0xx_hal_uart_ex.o
 .data          0x0000000000000000        0x0 build/stm32g0xx_hal_uart_ex.o
 .bss           0x0000000000000000        0x0 build/stm32g0xx_hal_uart_ex.o
 .text.HAL_RS485Ex_Init
                0x0000000000000000       0x88 build/stm32g0xx_hal_uart_ex.o
 .text.HAL_MultiProcessorEx_AddressLength_Set
                0x0000000000000000       0x34 build/stm32g0xx_hal_uart_ex.o
 .text.HAL_UARTEx_StopModeWakeUpSourceConfig
                0x0000000000000000       0x8c build/stm32g0xx_hal_uart_ex.o
 .text.HAL_UARTEx_EnableStopMode
                0x0000000000000000       0x20 build/stm32g0xx_hal_uart_ex.o
 .text.HAL_UARTEx_DisableStopMode
                0x0000000000000000       0x20 build/stm32g0xx_hal_uart_ex.o
 .text.HAL_UARTEx_EnableFifoMode
                0x0000000000000000       0x3c build/stm32g0xx_hal_uart_ex.o
 .text          0x0000000000000000        0x0 build/stm32g0xx_ll_usart.o
 .data          0x0000000000000000        0x0 build/stm32g0xx_ll_usart.o
 .bss           0x0000000000000000        0x0 build/stm32g0xx_ll_usart.o
 .text.LL_USART_DeInit
                0x0000000000000000       0x94 build/stm32g0xx_ll_usart.o
 .text.LL_USART_Init
                0x0000000000000000       0xf0 build/stm32g0xx_ll_usart.o
 .text.LL_USART_StructInit
                0x0000000000000000       0x1a build/stm32g0xx_ll_usart.o
 .text.LL_USART_ClockInit
                0x0000000000000000       0x48 build/stm32g0xx_ll_usart.o
 .text.LL_USART_ClockStructInit
                0x0000000000000000        0xc build/stm32g0xx_ll_usart.o
 .rodata.USART_PRESCALER_TAB
                0x0000000000000000       0x30 build/stm32g0xx_ll_usart.o
 .debug_info    0x0000000000000000      0xbc8 build/stm32g0xx_ll_usart.o
 .debug_abbrev  0x0000000000000000      0x31a build/stm32g0xx_ll_usart.o
 .debug_loc     0x0000000000000000      0x4e6 build/stm32g0xx_ll_usart.o
 .debug_aranges
                0x0000000000000000       0x40 build/stm32g0xx_ll_usart.o
 .debug_ranges  0x0000000000000000       0x98 build/stm32g0xx_ll_usart.o
 .debug_line    0x0000000000000000      0x4fd build/stm32g0xx_ll_usart.o
 .debug_str     0x0000000000000000      0x694 build/stm32g0xx_ll_usart.o
 .comment       0x0000000000000000       0x5a build/stm32g0xx_ll_usart.o
 .debug_frame   0x0000000000000000       0x7c build/stm32g0xx_ll_usart.o
 .ARM.attributes
                0x0000000000000000       0x2c build/stm32g0xx_ll_usart.o
 .text          0x0000000000000000        0x0 build/stm32g0xx_ll_lpuart.o
 .data          0x0000000000000000        0x0 build/stm32g0xx_ll_lpuart.o
 .bss           0x0000000000000000        0x0 build/stm32g0xx_ll_lpuart.o
 .text.LL_LPUART_DeInit
                0x0000000000000000       0x30 build/stm32g0xx_ll_lpuart.o
 .text.LL_LPUART_StructInit
                0x0000000000000000       0x18 build/stm32g0xx_ll_lpuart.o
 .text          0x0000000000000000        0x0 build/data_struct_tlv.o
 .data          0x0000000000000000        0x0 build/data_struct_tlv.o
 .bss           0x0000000000000000        0x0 build/data_struct_tlv.o
 .text.TLV_UpdateSizeTag
                0x0000000000000000       0x14 build/data_struct_tlv.o
 .text          0x0000000000000000        0x0 build/bsp_gui.o
 .data          0x0000000000000000        0x0 build/bsp_gui.o
 .bss           0x0000000000000000        0x0 build/bsp_gui.o
 .text          0x0000000000000000        0x0 build/gui_api.o
 .data          0x0000000000000000        0x0 build/gui_api.o
 .bss           0x0000000000000000        0x0 build/gui_api.o
 .text.GUI_IsRunning
                0x0000000000000000       0x14 build/gui_api.o
 .text          0x0000000000000000        0x0 build/tracer_emb.o
 .data          0x0000000000000000        0x0 build/tracer_emb.o
 .bss           0x0000000000000000        0x0 build/tracer_emb.o
 .text.TRACER_EMB_ReadData
                0x0000000000000000        0x8 build/tracer_emb.o
 .text.TRACER_EMB_WakeUpProcess
                0x0000000000000000        0x2 build/tracer_emb.o
 .text          0x0000000000000000        0x0 build/tracer_emb_hw.o
 .data          0x0000000000000000        0x0 build/tracer_emb_hw.o
 .bss           0x0000000000000000        0x0 build/tracer_emb_hw.o
 .text.HW_TRACER_EMB_DeInit
                0x0000000000000000       0x14 build/tracer_emb_hw.o
 .text.HW_TRACER_EMB_ReadData
                0x0000000000000000        0xc build/tracer_emb_hw.o
 .text          0x0000000000000000       0x14 build/startup_stm32g071xx.o
 .data          0x0000000000000000        0x0 build/startup_stm32g071xx.o
 .bss           0x0000000000000000        0x0 build/startup_stm32g071xx.o
 .text          0x0000000000000000       0x10 /usr/lib/gcc/arm-none-eabi/9.2.1/../../../arm-none-eabi/lib/thumb/v6-m/nofp/libc_nano.a(lib_a-atexit.o)
 .data          0x0000000000000000        0x0 /usr/lib/gcc/arm-none-eabi/9.2.1/../../../arm-none-eabi/lib/thumb/v6-m/nofp/libc_nano.a(lib_a-atexit.o)
 .bss           0x0000000000000000        0x0 /usr/lib/gcc/arm-none-eabi/9.2.1/../../../arm-none-eabi/lib/thumb/v6-m/nofp/libc_nano.a(lib_a-atexit.o)
 .debug_info    0x0000000000000000      0x995 /usr/lib/gcc/arm-none-eabi/9.2.1/../../../arm-none-eabi/lib/thumb/v6-m/nofp/libc_nano.a(lib_a-atexit.o)
 .debug_abbrev  0x0000000000000000      0x1f1 /usr/lib/gcc/arm-none-eabi/9.2.1/../../../arm-none-eabi/lib/thumb/v6-m/nofp/libc_nano.a(lib_a-atexit.o)
 .debug_loc     0x0000000000000000       0x32 /usr/lib/gcc/arm-none-eabi/9.2.1/../../../arm-none-eabi/lib/thumb/v6-m/nofp/libc_nano.a(lib_a-atexit.o)
 .debug_aranges
                0x0000000000000000       0x20 /usr/lib/gcc/arm-none-eabi/9.2.1/../../../arm-none-eabi/lib/thumb/v6-m/nofp/libc_nano.a(lib_a-atexit.o)
 .debug_line    0x0000000000000000      0x152 /usr/lib/gcc/arm-none-eabi/9.2.1/../../../arm-none-eabi/lib/thumb/v6-m/nofp/libc_nano.a(lib_a-atexit.o)
 .debug_str     0x0000000000000000      0x626 /usr/lib/gcc/arm-none-eabi/9.2.1/../../../arm-none-eabi/lib/thumb/v6-m/nofp/libc_nano.a(lib_a-atexit.o)
 .comment       0x0000000000000000       0x4f /usr/lib/gcc/arm-none-eabi/9.2.1/../../../arm-none-eabi/lib/thumb/v6-m/nofp/libc_nano.a(lib_a-atexit.o)
 .debug_frame   0x0000000000000000       0x28 /usr/lib/gcc/arm-none-eabi/9.2.1/../../../arm-none-eabi/lib/thumb/v6-m/nofp/libc_nano.a(lib_a-atexit.o)
 .ARM.attributes
                0x0000000000000000       0x2c /usr/lib/gcc/arm-none-eabi/9.2.1/../../../arm-none-eabi/lib/thumb/v6-m/nofp/libc_nano.a(lib_a-atexit.o)
 .text          0x0000000000000000       0x2c /usr/lib/gcc/arm-none-eabi/9.2.1/../../../arm-none-eabi/lib/thumb/v6-m/nofp/libc_nano.a(lib_a-exit.o)
 .data          0x0000000000000000        0x0 /usr/lib/gcc/arm-none-eabi/9.2.1/../../../arm-none-eabi/lib/thumb/v6-m/nofp/libc_nano.a(lib_a-exit.o)
 .bss           0x0000000000000000        0x0 /usr/lib/gcc/arm-none-eabi/9.2.1/../../../arm-none-eabi/lib/thumb/v6-m/nofp/libc_nano.a(lib_a-exit.o)
 .debug_info    0x0000000000000000      0x9e7 /usr/lib/gcc/arm-none-eabi/9.2.1/../../../arm-none-eabi/lib/thumb/v6-m/nofp/libc_nano.a(lib_a-exit.o)
 .debug_abbrev  0x0000000000000000      0x1f6 /usr/lib/gcc/arm-none-eabi/9.2.1/../../../arm-none-eabi/lib/thumb/v6-m/nofp/libc_nano.a(lib_a-exit.o)
 .debug_loc     0x0000000000000000       0x22 /usr/lib/gcc/arm-none-eabi/9.2.1/../../../arm-none-eabi/lib/thumb/v6-m/nofp/libc_nano.a(lib_a-exit.o)
 .debug_aranges
                0x0000000000000000       0x20 /usr/lib/gcc/arm-none-eabi/9.2.1/../../../arm-none-eabi/lib/thumb/v6-m/nofp/libc_nano.a(lib_a-exit.o)
 .debug_line    0x0000000000000000      0x16a /usr/lib/gcc/arm-none-eabi/9.2.1/../../../arm-none-eabi/lib/thumb/v6-m/nofp/libc_nano.a(lib_a-exit.o)
 .debug_str     0x0000000000000000      0x627 /usr/lib/gcc/arm-none-eabi/9.2.1/../../../arm-none-eabi/lib/thumb/v6-m/nofp/libc_nano.a(lib_a-exit.o)
 .comment       0x0000000000000000       0x4f /usr/lib/gcc/arm-none-eabi/9.2.1/../../../arm-none-eabi/lib/thumb/v6-m/nofp/libc_nano.a(lib_a-exit.o)
 .debug_frame   0x0000000000000000       0x28 /usr/lib/gcc/arm-none-eabi/9.2.1/../../../arm-none-eabi/lib/thumb/v6-m/nofp/libc_nano.a(lib_a-exit.o)
 .ARM.attributes
                0x0000000000000000       0x2c /usr/lib/gcc/arm-none-eabi/9.2.1/../../../arm-none-eabi/lib/thumb/v6-m/nofp/libc_nano.a(lib_a-exit.o)
 .text          0x0000000000000000       0x28 /usr/lib/gcc/arm-none-eabi/9.2.1/../../../arm-none-eabi/lib/thumb/v6-m/nofp/libc_nano.a(lib_a-fini.o)
 .data          0x0000000000000000        0x0 /usr/lib/gcc/arm-none-eabi/9.2.1/../../../arm-none-eabi/lib/thumb/v6-m/nofp/libc_nano.a(lib_a-fini.o)
 .bss           0x0000000000000000        0x0 /usr/lib/gcc/arm-none-eabi/9.2.1/../../../arm-none-eabi/lib/thumb/v6-m/nofp/libc_nano.a(lib_a-fini.o)
 .debug_info    0x0000000000000000      0x102 /usr/lib/gcc/arm-none-eabi/9.2.1/../../../arm-none-eabi/lib/thumb/v6-m/nofp/libc_nano.a(lib_a-fini.o)
 .debug_abbrev  0x0000000000000000       0xcc /usr/lib/gcc/arm-none-eabi/9.2.1/../../../arm-none-eabi/lib/thumb/v6-m/nofp/libc_nano.a(lib_a-fini.o)
 .debug_loc     0x0000000000000000       0x46 /usr/lib/gcc/arm-none-eabi/9.2.1/../../../arm-none-eabi/lib/thumb/v6-m/nofp/libc_nano.a(lib_a-fini.o)
 .debug_aranges
                0x0000000000000000       0x20 /usr/lib/gcc/arm-none-eabi/9.2.1/../../../arm-none-eabi/lib/thumb/v6-m/nofp/libc_nano.a(lib_a-fini.o)
 .debug_line    0x0000000000000000       0xd4 /usr/lib/gcc/arm-none-eabi/9.2.1/../../../arm-none-eabi/lib/thumb/v6-m/nofp/libc_nano.a(lib_a-fini.o)
 .debug_str     0x0000000000000000      0x1f8 /usr/lib/gcc/arm-none-eabi/9.2.1/../../../arm-none-eabi/lib/thumb/v6-m/nofp/libc_nano.a(lib_a-fini.o)
 .comment       0x0000000000000000       0x4f /usr/lib/gcc/arm-none-eabi/9.2.1/../../../arm-none-eabi/lib/thumb/v6-m/nofp/libc_nano.a(lib_a-fini.o)
 .debug_frame   0x0000000000000000       0x2c /usr/lib/gcc/arm-none-eabi/9.2.1/../../../arm-none-eabi/lib/thumb/v6-m/nofp/libc_nano.a(lib_a-fini.o)
 .ARM.attributes
                0x0000000000000000       0x2c /usr/lib/gcc/arm-none-eabi/9.2.1/../../../arm-none-eabi/lib/thumb/v6-m/nofp/libc_nano.a(lib_a-fini.o)
 .text          0x0000000000000000        0x0 /usr/lib/gcc/arm-none-eabi/9.2.1/../../../arm-none-eabi/lib/thumb/v6-m/nofp/libc_nano.a(lib_a-impure.o)
 .bss           0x0000000000000000        0x0 /usr/lib/gcc/arm-none-eabi/9.2.1/../../../arm-none-eabi/lib/thumb/v6-m/nofp/libc_nano.a(lib_a-impure.o)
 .rodata        0x0000000000000000        0x4 /usr/lib/gcc/arm-none-eabi/9.2.1/../../../arm-none-eabi/lib/thumb/v6-m/nofp/libc_nano.a(lib_a-impure.o)
 .data          0x0000000000000000        0x0 /usr/lib/gcc/arm-none-eabi/9.2.1/../../../arm-none-eabi/lib/thumb/v6-m/nofp/libc_nano.a(lib_a-init.o)
 .bss           0x0000000000000000        0x0 /usr/lib/gcc/arm-none-eabi/9.2.1/../../../arm-none-eabi/lib/thumb/v6-m/nofp/libc_nano.a(lib_a-init.o)
 .data          0x0000000000000000        0x0 /usr/lib/gcc/arm-none-eabi/9.2.1/../../../arm-none-eabi/lib/thumb/v6-m/nofp/libc_nano.a(lib_a-memcpy-stub.o)
 .bss           0x0000000000000000        0x0 /usr/lib/gcc/arm-none-eabi/9.2.1/../../../arm-none-eabi/lib/thumb/v6-m/nofp/libc_nano.a(lib_a-memcpy-stub.o)
 .data          0x0000000000000000        0x0 /usr/lib/gcc/arm-none-eabi/9.2.1/../../../arm-none-eabi/lib/thumb/v6-m/nofp/libc_nano.a(lib_a-memset.o)
 .bss           0x0000000000000000        0x0 /usr/lib/gcc/arm-none-eabi/9.2.1/../../../arm-none-eabi/lib/thumb/v6-m/nofp/libc_nano.a(lib_a-memset.o)
 .data          0x0000000000000000        0x0 /usr/lib/gcc/arm-none-eabi/9.2.1/../../../arm-none-eabi/lib/thumb/v6-m/nofp/libc_nano.a(lib_a-snprintf.o)
 .bss           0x0000000000000000        0x0 /usr/lib/gcc/arm-none-eabi/9.2.1/../../../arm-none-eabi/lib/thumb/v6-m/nofp/libc_nano.a(lib_a-snprintf.o)
 .data          0x0000000000000000        0x0 /usr/lib/gcc/arm-none-eabi/9.2.1/../../../arm-none-eabi/lib/thumb/v6-m/nofp/libc_nano.a(lib_a-strcpy.o)
 .bss           0x0000000000000000        0x0 /usr/lib/gcc/arm-none-eabi/9.2.1/../../../arm-none-eabi/lib/thumb/v6-m/nofp/libc_nano.a(lib_a-strcpy.o)
 .data          0x0000000000000000        0x0 /usr/lib/gcc/arm-none-eabi/9.2.1/../../../arm-none-eabi/lib/thumb/v6-m/nofp/libc_nano.a(lib_a-strlen-stub.o)
 .bss           0x0000000000000000        0x0 /usr/lib/gcc/arm-none-eabi/9.2.1/../../../arm-none-eabi/lib/thumb/v6-m/nofp/libc_nano.a(lib_a-strlen-stub.o)
 .text          0x0000000000000000       0xdc /usr/lib/gcc/arm-none-eabi/9.2.1/../../../arm-none-eabi/lib/thumb/v6-m/nofp/libc_nano.a(lib_a-__atexit.o)
 .data          0x0000000000000000        0x4 /usr/lib/gcc/arm-none-eabi/9.2.1/../../../arm-none-eabi/lib/thumb/v6-m/nofp/libc_nano.a(lib_a-__atexit.o)
 .bss           0x0000000000000000       0x8c /usr/lib/gcc/arm-none-eabi/9.2.1/../../../arm-none-eabi/lib/thumb/v6-m/nofp/libc_nano.a(lib_a-__atexit.o)
 .debug_info    0x0000000000000000      0xa3c /usr/lib/gcc/arm-none-eabi/9.2.1/../../../arm-none-eabi/lib/thumb/v6-m/nofp/libc_nano.a(lib_a-__atexit.o)
 .debug_abbrev  0x0000000000000000      0x261 /usr/lib/gcc/arm-none-eabi/9.2.1/../../../arm-none-eabi/lib/thumb/v6-m/nofp/libc_nano.a(lib_a-__atexit.o)
 .debug_loc     0x0000000000000000      0x1db /usr/lib/gcc/arm-none-eabi/9.2.1/../../../arm-none-eabi/lib/thumb/v6-m/nofp/libc_nano.a(lib_a-__atexit.o)
 .debug_aranges
                0x0000000000000000       0x20 /usr/lib/gcc/arm-none-eabi/9.2.1/../../../arm-none-eabi/lib/thumb/v6-m/nofp/libc_nano.a(lib_a-__atexit.o)
 .debug_line    0x0000000000000000      0x247 /usr/lib/gcc/arm-none-eabi/9.2.1/../../../arm-none-eabi/lib/thumb/v6-m/nofp/libc_nano.a(lib_a-__atexit.o)
 .debug_str     0x0000000000000000      0x679 /usr/lib/gcc/arm-none-eabi/9.2.1/../../../arm-none-eabi/lib/thumb/v6-m/nofp/libc_nano.a(lib_a-__atexit.o)
 .comment       0x0000000000000000       0x4f /usr/lib/gcc/arm-none-eabi/9.2.1/../../../arm-none-eabi/lib/thumb/v6-m/nofp/libc_nano.a(lib_a-__atexit.o)
 .debug_frame   0x0000000000000000       0x3c /usr/lib/gcc/arm-none-eabi/9.2.1/../../../arm-none-eabi/lib/thumb/v6-m/nofp/libc_nano.a(lib_a-__atexit.o)
 .ARM.attributes
                0x0000000000000000       0x2c /usr/lib/gcc/arm-none-eabi/9.2.1/../../../arm-none-eabi/lib/thumb/v6-m/nofp/libc_nano.a(lib_a-__atexit.o)
 .text          0x0000000000000000       0xbc /usr/lib/gcc/arm-none-eabi/9.2.1/../../../arm-none-eabi/lib/thumb/v6-m/nofp/libc_nano.a(lib_a-__call_atexit.o)
 .data          0x0000000000000000        0x0 /usr/lib/gcc/arm-none-eabi/9.2.1/../../../arm-none-eabi/lib/thumb/v6-m/nofp/libc_nano.a(lib_a-__call_atexit.o)
 .bss           0x0000000000000000        0x4 /usr/lib/gcc/arm-none-eabi/9.2.1/../../../arm-none-eabi/lib/thumb/v6-m/nofp/libc_nano.a(lib_a-__call_atexit.o)
 .debug_info    0x0000000000000000      0xa10 /usr/lib/gcc/arm-none-eabi/9.2.1/../../../arm-none-eabi/lib/thumb/v6-m/nofp/libc_nano.a(lib_a-__call_atexit.o)
 .debug_abbrev  0x0000000000000000      0x237 /usr/lib/gcc/arm-none-eabi/9.2.1/../../../arm-none-eabi/lib/thumb/v6-m/nofp/libc_nano.a(lib_a-__call_atexit.o)
 .debug_loc     0x0000000000000000      0x165 /usr/lib/gcc/arm-none-eabi/9.2.1/../../../arm-none-eabi/lib/thumb/v6-m/nofp/libc_nano.a(lib_a-__call_atexit.o)
 .debug_aranges
                0x0000000000000000       0x20 /usr/lib/gcc/arm-none-eabi/9.2.1/../../../arm-none-eabi/lib/thumb/v6-m/nofp/libc_nano.a(lib_a-__call_atexit.o)
 .debug_ranges  0x0000000000000000       0x20 /usr/lib/gcc/arm-none-eabi/9.2.1/../../../arm-none-eabi/lib/thumb/v6-m/nofp/libc_nano.a(lib_a-__call_atexit.o)
 .debug_line    0x0000000000000000      0x242 /usr/lib/gcc/arm-none-eabi/9.2.1/../../../arm-none-eabi/lib/thumb/v6-m/nofp/libc_nano.a(lib_a-__call_atexit.o)
 .debug_str     0x0000000000000000      0x624 /usr/lib/gcc/arm-none-eabi/9.2.1/../../../arm-none-eabi/lib/thumb/v6-m/nofp/libc_nano.a(lib_a-__call_atexit.o)
 .comment       0x0000000000000000       0x4f /usr/lib/gcc/arm-none-eabi/9.2.1/../../../arm-none-eabi/lib/thumb/v6-m/nofp/libc_nano.a(lib_a-__call_atexit.o)
 .debug_frame   0x0000000000000000       0x3c /usr/lib/gcc/arm-none-eabi/9.2.1/../../../arm-none-eabi/lib/thumb/v6-m/nofp/libc_nano.a(lib_a-__call_atexit.o)
 .ARM.attributes
                0x0000000000000000       0x2c /usr/lib/gcc/arm-none-eabi/9.2.1/../../../arm-none-eabi/lib/thumb/v6-m/nofp/libc_nano.a(lib_a-__call_atexit.o)
 .data          0x0000000000000000        0x0 /usr/lib/gcc/arm-none-eabi/9.2.1/../../../arm-none-eabi/lib/thumb/v6-m/nofp/libc_nano.a(lib_a-nano-svfprintf.o)
 .bss           0x0000000000000000        0x0 /usr/lib/gcc/arm-none-eabi/9.2.1/../../../arm-none-eabi/lib/thumb/v6-m/nofp/libc_nano.a(lib_a-nano-svfprintf.o)
 .data          0x0000000000000000        0x0 /usr/lib/gcc/arm-none-eabi/9.2.1/../../../arm-none-eabi/lib/thumb/v6-m/nofp/libc_nano.a(lib_a-nano-vfprintf_i.o)
 .bss           0x0000000000000000        0x0 /usr/lib/gcc/arm-none-eabi/9.2.1/../../../arm-none-eabi/lib/thumb/v6-m/nofp/libc_nano.a(lib_a-nano-vfprintf_i.o)
 .data          0x0000000000000000        0x0 /usr/lib/gcc/arm-none-eabi/9.2.1/../../../arm-none-eabi/lib/thumb/v6-m/nofp/libc_nano.a(lib_a-memchr-stub.o)
 .bss           0x0000000000000000        0x0 /usr/lib/gcc/arm-none-eabi/9.2.1/../../../arm-none-eabi/lib/thumb/v6-m/nofp/libc_nano.a(lib_a-memchr-stub.o)
 .data          0x0000000000000000        0x0 /usr/lib/gcc/arm-none-eabi/9.2.1/../../../arm-none-eabi/lib/thumb/v6-m/nofp/libc_nano.a(lib_a-memmove.o)
 .bss           0x0000000000000000        0x0 /usr/lib/gcc/arm-none-eabi/9.2.1/../../../arm-none-eabi/lib/thumb/v6-m/nofp/libc_nano.a(lib_a-memmove.o)
 .data          0x0000000000000000        0x0 /usr/lib/gcc/arm-none-eabi/9.2.1/../../../arm-none-eabi/lib/thumb/v6-m/nofp/libc_nano.a(lib_a-nano-freer.o)
 .bss           0x0000000000000000        0x0 /usr/lib/gcc/arm-none-eabi/9.2.1/../../../arm-none-eabi/lib/thumb/v6-m/nofp/libc_nano.a(lib_a-nano-freer.o)
 .data          0x0000000000000000        0x0 /usr/lib/gcc/arm-none-eabi/9.2.1/../../../arm-none-eabi/lib/thumb/v6-m/nofp/libc_nano.a(lib_a-nano-mallocr.o)
 .data          0x0000000000000000        0x0 /usr/lib/gcc/arm-none-eabi/9.2.1/../../../arm-none-eabi/lib/thumb/v6-m/nofp/libc_nano.a(lib_a-nano-reallocr.o)
 .bss           0x0000000000000000        0x0 /usr/lib/gcc/arm-none-eabi/9.2.1/../../../arm-none-eabi/lib/thumb/v6-m/nofp/libc_nano.a(lib_a-nano-reallocr.o)
 .data          0x0000000000000000        0x0 /usr/lib/gcc/arm-none-eabi/9.2.1/../../../arm-none-eabi/lib/thumb/v6-m/nofp/libc_nano.a(lib_a-sbrkr.o)
 .bss           0x0000000000000000        0x0 /usr/lib/gcc/arm-none-eabi/9.2.1/../../../arm-none-eabi/lib/thumb/v6-m/nofp/libc_nano.a(lib_a-sbrkr.o)
 .data          0x0000000000000000        0x0 /usr/lib/gcc/arm-none-eabi/9.2.1/../../../arm-none-eabi/lib/thumb/v6-m/nofp/libc_nano.a(lib_a-mlock.o)
 .bss           0x0000000000000000        0x0 /usr/lib/gcc/arm-none-eabi/9.2.1/../../../arm-none-eabi/lib/thumb/v6-m/nofp/libc_nano.a(lib_a-mlock.o)
 .data          0x0000000000000000        0x0 /usr/lib/gcc/arm-none-eabi/9.2.1/../../../arm-none-eabi/lib/thumb/v6-m/nofp/libc_nano.a(lib_a-nano-msizer.o)
 .bss           0x0000000000000000        0x0 /usr/lib/gcc/arm-none-eabi/9.2.1/../../../arm-none-eabi/lib/thumb/v6-m/nofp/libc_nano.a(lib_a-nano-msizer.o)
 .text          0x0000000000000000       0xf8 /usr/lib/gcc/arm-none-eabi/9.2.1/../../../arm-none-eabi/lib/thumb/v6-m/nofp/libc_nano.a(lib_a-reent.o)
 .data          0x0000000000000000        0x0 /usr/lib/gcc/arm-none-eabi/9.2.1/../../../arm-none-eabi/lib/thumb/v6-m/nofp/libc_nano.a(lib_a-reent.o)
 .bss           0x0000000000000000        0x0 /usr/lib/gcc/arm-none-eabi/9.2.1/../../../arm-none-eabi/lib/thumb/v6-m/nofp/libc_nano.a(lib_a-reent.o)
 .data          0x0000000000000000        0x0 /usr/lib/gcc/arm-none-eabi/9.2.1/../../../arm-none-eabi/lib/thumb/v6-m/nofp/libnosys.a(sbrk.o)
 .text          0x0000000000000000        0x4 /usr/lib/gcc/arm-none-eabi/9.2.1/../../../arm-none-eabi/lib/thumb/v6-m/nofp/libnosys.a(_exit.o)
 .data          0x0000000000000000        0x0 /usr/lib/gcc/arm-none-eabi/9.2.1/../../../arm-none-eabi/lib/thumb/v6-m/nofp/libnosys.a(_exit.o)
 .bss           0x0000000000000000        0x0 /usr/lib/gcc/arm-none-eabi/9.2.1/../../../arm-none-eabi/lib/thumb/v6-m/nofp/libnosys.a(_exit.o)
 .debug_info    0x0000000000000000       0xa3 /usr/lib/gcc/arm-none-eabi/9.2.1/../../../arm-none-eabi/lib/thumb/v6-m/nofp/libnosys.a(_exit.o)
 .debug_abbrev  0x0000000000000000       0x6a /usr/lib/gcc/arm-none-eabi/9.2.1/../../../arm-none-eabi/lib/thumb/v6-m/nofp/libnosys.a(_exit.o)
 .debug_loc     0x0000000000000000       0x15 /usr/lib/gcc/arm-none-eabi/9.2.1/../../../arm-none-eabi/lib/thumb/v6-m/nofp/libnosys.a(_exit.o)
 .debug_aranges
                0x0000000000000000       0x20 /usr/lib/gcc/arm-none-eabi/9.2.1/../../../arm-none-eabi/lib/thumb/v6-m/nofp/libnosys.a(_exit.o)
 .debug_line    0x0000000000000000       0x6e /usr/lib/gcc/arm-none-eabi/9.2.1/../../../arm-none-eabi/lib/thumb/v6-m/nofp/libnosys.a(_exit.o)
 .debug_str     0x0000000000000000      0x198 /usr/lib/gcc/arm-none-eabi/9.2.1/../../../arm-none-eabi/lib/thumb/v6-m/nofp/libnosys.a(_exit.o)
 .comment       0x0000000000000000       0x4f /usr/lib/gcc/arm-none-eabi/9.2.1/../../../arm-none-eabi/lib/thumb/v6-m/nofp/libnosys.a(_exit.o)
 .debug_frame   0x0000000000000000       0x20 /usr/lib/gcc/arm-none-eabi/9.2.1/../../../arm-none-eabi/lib/thumb/v6-m/nofp/libnosys.a(_exit.o)
 .ARM.attributes
                0x0000000000000000       0x2c /usr/lib/gcc/arm-none-eabi/9.2.1/../../../arm-none-eabi/lib/thumb/v6-m/nofp/libnosys.a(_exit.o)
 .iar.stackusage
                0x0000000000000000       0x42 Middlewares/ST/STM32_USBPD_Library/Core/lib/USBPDCORE_PD3_FULL_CM0PLUS_wc32.a(usbpd_cad.o)
 .iar.fraginfo  0x0000000000000000        0xe Middlewares/ST/STM32_USBPD_Library/Core/lib/USBPDCORE_PD3_FULL_CM0PLUS_wc32.a(usbpd_cad.o)
 .iar.stackusage
                0x0000000000000000      0x313 Middlewares/ST/STM32_USBPD_Library/Core/lib/USBPDCORE_PD3_FULL_CM0PLUS_wc32.a(usbpd_pe.o)
 .iar.fraginfo  0x0000000000000000       0x86 Middlewares/ST/STM32_USBPD_Library/Core/lib/USBPDCORE_PD3_FULL_CM0PLUS_wc32.a(usbpd_pe.o)
 .iar.stackusage
                0x0000000000000000      0x118 Middlewares/ST/STM32_USBPD_Library/Core/lib/USBPDCORE_PD3_FULL_CM0PLUS_wc32.a(usbpd_prl.o)
 .iar.fraginfo  0x0000000000000000       0x3d Middlewares/ST/STM32_USBPD_Library/Core/lib/USBPDCORE_PD3_FULL_CM0PLUS_wc32.a(usbpd_prl.o)
 .data          0x0000000000000000        0x0 /usr/lib/gcc/arm-none-eabi/9.2.1/thumb/v6-m/nofp/libgcc.a(_thumb1_case_uqi.o)
 .bss           0x0000000000000000        0x0 /usr/lib/gcc/arm-none-eabi/9.2.1/thumb/v6-m/nofp/libgcc.a(_thumb1_case_uqi.o)
 .data          0x0000000000000000        0x0 /usr/lib/gcc/arm-none-eabi/9.2.1/thumb/v6-m/nofp/libgcc.a(_thumb1_case_shi.o)
 .bss           0x0000000000000000        0x0 /usr/lib/gcc/arm-none-eabi/9.2.1/thumb/v6-m/nofp/libgcc.a(_thumb1_case_shi.o)
 .data          0x0000000000000000        0x0 /usr/lib/gcc/arm-none-eabi/9.2.1/thumb/v6-m/nofp/libgcc.a(_thumb1_case_uhi.o)
 .bss           0x0000000000000000        0x0 /usr/lib/gcc/arm-none-eabi/9.2.1/thumb/v6-m/nofp/libgcc.a(_thumb1_case_uhi.o)
 .data          0x0000000000000000        0x0 /usr/lib/gcc/arm-none-eabi/9.2.1/thumb/v6-m/nofp/libgcc.a(_udivsi3.o)
 .bss           0x0000000000000000        0x0 /usr/lib/gcc/arm-none-eabi/9.2.1/thumb/v6-m/nofp/libgcc.a(_udivsi3.o)
 .data          0x0000000000000000        0x0 /usr/lib/gcc/arm-none-eabi/9.2.1/thumb/v6-m/nofp/libgcc.a(_divsi3.o)
 .bss           0x0000000000000000        0x0 /usr/lib/gcc/arm-none-eabi/9.2.1/thumb/v6-m/nofp/libgcc.a(_divsi3.o)
 .data          0x0000000000000000        0x0 /usr/lib/gcc/arm-none-eabi/9.2.1/thumb/v6-m/nofp/libgcc.a(_dvmd_tls.o)
 .bss           0x0000000000000000        0x0 /usr/lib/gcc/arm-none-eabi/9.2.1/thumb/v6-m/nofp/libgcc.a(_dvmd_tls.o)
 .text          0x0000000000000000       0x48 /usr/lib/gcc/arm-none-eabi/9.2.1/thumb/v6-m/nofp/libgcc.a(_aeabi_ldivmod.o)
 .data          0x0000000000000000        0x0 /usr/lib/gcc/arm-none-eabi/9.2.1/thumb/v6-m/nofp/libgcc.a(_aeabi_ldivmod.o)
 .bss           0x0000000000000000        0x0 /usr/lib/gcc/arm-none-eabi/9.2.1/thumb/v6-m/nofp/libgcc.a(_aeabi_ldivmod.o)
 .debug_line    0x0000000000000000       0x6b /usr/lib/gcc/arm-none-eabi/9.2.1/thumb/v6-m/nofp/libgcc.a(_aeabi_ldivmod.o)
 .debug_info    0x0000000000000000       0x26 /usr/lib/gcc/arm-none-eabi/9.2.1/thumb/v6-m/nofp/libgcc.a(_aeabi_ldivmod.o)
 .debug_abbrev  0x0000000000000000       0x14 /usr/lib/gcc/arm-none-eabi/9.2.1/thumb/v6-m/nofp/libgcc.a(_aeabi_ldivmod.o)
 .debug_aranges
                0x0000000000000000       0x20 /usr/lib/gcc/arm-none-eabi/9.2.1/thumb/v6-m/nofp/libgcc.a(_aeabi_ldivmod.o)
 .debug_str     0x0000000000000000       0xa3 /usr/lib/gcc/arm-none-eabi/9.2.1/thumb/v6-m/nofp/libgcc.a(_aeabi_ldivmod.o)
 .ARM.attributes
                0x0000000000000000       0x1e /usr/lib/gcc/arm-none-eabi/9.2.1/thumb/v6-m/nofp/libgcc.a(_aeabi_ldivmod.o)
 .data          0x0000000000000000        0x0 /usr/lib/gcc/arm-none-eabi/9.2.1/thumb/v6-m/nofp/libgcc.a(_aeabi_uldivmod.o)
 .bss           0x0000000000000000        0x0 /usr/lib/gcc/arm-none-eabi/9.2.1/thumb/v6-m/nofp/libgcc.a(_aeabi_uldivmod.o)
 .data          0x0000000000000000        0x0 /usr/lib/gcc/arm-none-eabi/9.2.1/thumb/v6-m/nofp/libgcc.a(_udivmoddi4.o)
 .bss           0x0000000000000000        0x0 /usr/lib/gcc/arm-none-eabi/9.2.1/thumb/v6-m/nofp/libgcc.a(_udivmoddi4.o)
 .ARM.extab     0x0000000000000000        0x0 /usr/lib/gcc/arm-none-eabi/9.2.1/thumb/v6-m/nofp/libgcc.a(_udivmoddi4.o)
 .text          0x0000000000000000       0x3c /usr/lib/gcc/arm-none-eabi/9.2.1/thumb/v6-m/nofp/libgcc.a(bpabi.o)
 .data          0x0000000000000000        0x0 /usr/lib/gcc/arm-none-eabi/9.2.1/thumb/v6-m/nofp/libgcc.a(bpabi.o)
 .bss           0x0000000000000000        0x0 /usr/lib/gcc/arm-none-eabi/9.2.1/thumb/v6-m/nofp/libgcc.a(bpabi.o)
 .debug_info    0x0000000000000000       0xce /usr/lib/gcc/arm-none-eabi/9.2.1/thumb/v6-m/nofp/libgcc.a(bpabi.o)
 .debug_abbrev  0x0000000000000000       0xa9 /usr/lib/gcc/arm-none-eabi/9.2.1/thumb/v6-m/nofp/libgcc.a(bpabi.o)
 .debug_loc     0x0000000000000000       0xcc /usr/lib/gcc/arm-none-eabi/9.2.1/thumb/v6-m/nofp/libgcc.a(bpabi.o)
 .debug_aranges
                0x0000000000000000       0x20 /usr/lib/gcc/arm-none-eabi/9.2.1/thumb/v6-m/nofp/libgcc.a(bpabi.o)
 .debug_line    0x0000000000000000       0x89 /usr/lib/gcc/arm-none-eabi/9.2.1/thumb/v6-m/nofp/libgcc.a(bpabi.o)
 .debug_str     0x0000000000000000      0x1b2 /usr/lib/gcc/arm-none-eabi/9.2.1/thumb/v6-m/nofp/libgcc.a(bpabi.o)
 .comment       0x0000000000000000       0x5a /usr/lib/gcc/arm-none-eabi/9.2.1/thumb/v6-m/nofp/libgcc.a(bpabi.o)
 .debug_frame   0x0000000000000000       0x38 /usr/lib/gcc/arm-none-eabi/9.2.1/thumb/v6-m/nofp/libgcc.a(bpabi.o)
 .ARM.attributes
                0x0000000000000000       0x2c /usr/lib/gcc/arm-none-eabi/9.2.1/thumb/v6-m/nofp/libgcc.a(bpabi.o)
 .data          0x0000000000000000        0x0 /usr/lib/gcc/arm-none-eabi/9.2.1/thumb/v6-m/nofp/libgcc.a(_clzdi2.o)
 .bss           0x0000000000000000        0x0 /usr/lib/gcc/arm-none-eabi/9.2.1/thumb/v6-m/nofp/libgcc.a(_clzdi2.o)
 .text          0x0000000000000000       0x50 /usr/lib/gcc/arm-none-eabi/9.2.1/thumb/v6-m/nofp/libgcc.a(_muldi3.o)
 .data          0x0000000000000000        0x0 /usr/lib/gcc/arm-none-eabi/9.2.1/thumb/v6-m/nofp/libgcc.a(_muldi3.o)
 .bss           0x0000000000000000        0x0 /usr/lib/gcc/arm-none-eabi/9.2.1/thumb/v6-m/nofp/libgcc.a(_muldi3.o)
 .debug_info    0x0000000000000000      0xa96 /usr/lib/gcc/arm-none-eabi/9.2.1/thumb/v6-m/nofp/libgcc.a(_muldi3.o)
 .debug_abbrev  0x0000000000000000      0x1a3 /usr/lib/gcc/arm-none-eabi/9.2.1/thumb/v6-m/nofp/libgcc.a(_muldi3.o)
 .debug_loc     0x0000000000000000      0x17f /usr/lib/gcc/arm-none-eabi/9.2.1/thumb/v6-m/nofp/libgcc.a(_muldi3.o)
 .debug_aranges
                0x0000000000000000       0x20 /usr/lib/gcc/arm-none-eabi/9.2.1/thumb/v6-m/nofp/libgcc.a(_muldi3.o)
 .debug_ranges  0x0000000000000000       0x40 /usr/lib/gcc/arm-none-eabi/9.2.1/thumb/v6-m/nofp/libgcc.a(_muldi3.o)
 .debug_line    0x0000000000000000      0x1b6 /usr/lib/gcc/arm-none-eabi/9.2.1/thumb/v6-m/nofp/libgcc.a(_muldi3.o)
 .debug_str     0x0000000000000000     0x11cb /usr/lib/gcc/arm-none-eabi/9.2.1/thumb/v6-m/nofp/libgcc.a(_muldi3.o)
 .comment       0x0000000000000000       0x5a /usr/lib/gcc/arm-none-eabi/9.2.1/thumb/v6-m/nofp/libgcc.a(_muldi3.o)
 .debug_frame   0x0000000000000000       0x34 /usr/lib/gcc/arm-none-eabi/9.2.1/thumb/v6-m/nofp/libgcc.a(_muldi3.o)
 .ARM.attributes
                0x0000000000000000       0x2c /usr/lib/gcc/arm-none-eabi/9.2.1/thumb/v6-m/nofp/libgcc.a(_muldi3.o)
 .text          0x0000000000000000      0x1cc /usr/lib/gcc/arm-none-eabi/9.2.1/thumb/v6-m/nofp/libgcc.a(_divdi3.o)
 .data          0x0000000000000000        0x0 /usr/lib/gcc/arm-none-eabi/9.2.1/thumb/v6-m/nofp/libgcc.a(_divdi3.o)
 .bss           0x0000000000000000        0x0 /usr/lib/gcc/arm-none-eabi/9.2.1/thumb/v6-m/nofp/libgcc.a(_divdi3.o)
 .ARM.extab     0x0000000000000000        0x0 /usr/lib/gcc/arm-none-eabi/9.2.1/thumb/v6-m/nofp/libgcc.a(_divdi3.o)
 .ARM.exidx     0x0000000000000000        0x8 /usr/lib/gcc/arm-none-eabi/9.2.1/thumb/v6-m/nofp/libgcc.a(_divdi3.o)
 .debug_info    0x0000000000000000      0xb2a /usr/lib/gcc/arm-none-eabi/9.2.1/thumb/v6-m/nofp/libgcc.a(_divdi3.o)
 .debug_abbrev  0x0000000000000000      0x1fc /usr/lib/gcc/arm-none-eabi/9.2.1/thumb/v6-m/nofp/libgcc.a(_divdi3.o)
 .debug_loc     0x0000000000000000      0x5a9 /usr/lib/gcc/arm-none-eabi/9.2.1/thumb/v6-m/nofp/libgcc.a(_divdi3.o)
 .debug_aranges
                0x0000000000000000       0x20 /usr/lib/gcc/arm-none-eabi/9.2.1/thumb/v6-m/nofp/libgcc.a(_divdi3.o)
 .debug_ranges  0x0000000000000000       0x18 /usr/lib/gcc/arm-none-eabi/9.2.1/thumb/v6-m/nofp/libgcc.a(_divdi3.o)
 .debug_line    0x0000000000000000      0x289 /usr/lib/gcc/arm-none-eabi/9.2.1/thumb/v6-m/nofp/libgcc.a(_divdi3.o)
 .debug_str     0x0000000000000000     0x11c5 /usr/lib/gcc/arm-none-eabi/9.2.1/thumb/v6-m/nofp/libgcc.a(_divdi3.o)
 .comment       0x0000000000000000       0x5a /usr/lib/gcc/arm-none-eabi/9.2.1/thumb/v6-m/nofp/libgcc.a(_divdi3.o)
 .debug_frame   0x0000000000000000       0x3c /usr/lib/gcc/arm-none-eabi/9.2.1/thumb/v6-m/nofp/libgcc.a(_divdi3.o)
 .ARM.attributes
                0x0000000000000000       0x2c /usr/lib/gcc/arm-none-eabi/9.2.1/thumb/v6-m/nofp/libgcc.a(_divdi3.o)
 .data          0x0000000000000000        0x0 /usr/lib/gcc/arm-none-eabi/9.2.1/thumb/v6-m/nofp/libgcc.a(_clzsi2.o)
 .bss           0x0000000000000000        0x0 /usr/lib/gcc/arm-none-eabi/9.2.1/thumb/v6-m/nofp/libgcc.a(_clzsi2.o)
 .data          0x0000000000000000        0x0 /usr/lib/gcc/arm-none-eabi/9.2.1/../../../arm-none-eabi/lib/thumb/v6-m/nofp/libc_nano.a(lib_a-aeabi_memclr.o)
 .bss           0x0000000000000000        0x0 /usr/lib/gcc/arm-none-eabi/9.2.1/../../../arm-none-eabi/lib/thumb/v6-m/nofp/libc_nano.a(lib_a-aeabi_memclr.o)
 .data          0x0000000000000000        0x0 /usr/lib/gcc/arm-none-eabi/9.2.1/../../../arm-none-eabi/lib/thumb/v6-m/nofp/libc_nano.a(lib_a-aeabi_memcpy.o)
 .bss           0x0000000000000000        0x0 /usr/lib/gcc/arm-none-eabi/9.2.1/../../../arm-none-eabi/lib/thumb/v6-m/nofp/libc_nano.a(lib_a-aeabi_memcpy.o)
 .data          0x0000000000000000        0x0 /usr/lib/gcc/arm-none-eabi/9.2.1/../../../arm-none-eabi/lib/thumb/v6-m/nofp/libc_nano.a(lib_a-aeabi_memset.o)
 .bss           0x0000000000000000        0x0 /usr/lib/gcc/arm-none-eabi/9.2.1/../../../arm-none-eabi/lib/thumb/v6-m/nofp/libc_nano.a(lib_a-aeabi_memset.o)
 .data          0x0000000000000000        0x0 /usr/lib/gcc/arm-none-eabi/9.2.1/../../../arm-none-eabi/lib/thumb/v6-m/nofp/libc_nano.a(lib_a-malloc.o)
 .bss           0x0000000000000000        0x0 /usr/lib/gcc/arm-none-eabi/9.2.1/../../../arm-none-eabi/lib/thumb/v6-m/nofp/libc_nano.a(lib_a-malloc.o)
 .text          0x0000000000000000        0x0 /usr/lib/gcc/arm-none-eabi/9.2.1/thumb/v6-m/nofp/crtend.o
 .data          0x0000000000000000        0x0 /usr/lib/gcc/arm-none-eabi/9.2.1/thumb/v6-m/nofp/crtend.o
 .bss           0x0000000000000000        0x0 /usr/lib/gcc/arm-none-eabi/9.2.1/thumb/v6-m/nofp/crtend.o
 .eh_frame      0x0000000000000000        0x4 /usr/lib/gcc/arm-none-eabi/9.2.1/thumb/v6-m/nofp/crtend.o
 .text          0x0000000000000000        0x0 /usr/lib/gcc/arm-none-eabi/9.2.1/thumb/v6-m/nofp/crtn.o
 .data          0x0000000000000000        0x0 /usr/lib/gcc/arm-none-eabi/9.2.1/thumb/v6-m/nofp/crtn.o
 .bss           0x0000000000000000        0x0 /usr/lib/gcc/arm-none-eabi/9.2.1/thumb/v6-m/nofp/crtn.o

Memory Configuration

Name             Origin             Length             Attributes
RAM              0x0000000020000000 0x0000000000009000 xrw
FLASH            0x0000000008000000 0x0000000000010000 xr
*default*        0x0000000000000000 0xffffffffffffffff

Linker script and memory map

LOAD /usr/lib/gcc/arm-none-eabi/9.2.1/thumb/v6-m/nofp/crti.o
LOAD /usr/lib/gcc/arm-none-eabi/9.2.1/thumb/v6-m/nofp/crtbegin.o
LOAD /usr/lib/gcc/arm-none-eabi/9.2.1/../../../arm-none-eabi/lib/thumb/v6-m/nofp/crt0.o
LOAD build/main.o
LOAD build/stm32g0xx_it.o
LOAD build/stm32g0xx_hal_msp.o
LOAD build/stm32g0xx_hal_gpio.o
LOAD build/stm32g0xx_hal_adc.o
LOAD build/stm32g0xx_hal_adc_ex.o
LOAD build/stm32g0xx_ll_adc.o
LOAD build/stm32g0xx_hal_rcc.o
LOAD build/stm32g0xx_hal_rcc_ex.o
LOAD build/stm32g0xx_ll_rcc.o
LOAD build/stm32g0xx_hal_flash.o
LOAD build/stm32g0xx_hal_flash_ex.o
LOAD build/stm32g0xx_hal_dma.o
LOAD build/stm32g0xx_hal_dma_ex.o
LOAD build/stm32g0xx_hal_pwr.o
LOAD build/stm32g0xx_hal_pwr_ex.o
LOAD build/stm32g0xx_hal_cortex.o
LOAD build/stm32g0xx_hal.o
LOAD build/stm32g0xx_hal_exti.o
LOAD build/stm32g0xx_ll_utils.o
LOAD build/stm32g0xx_ll_exti.o
LOAD build/stm32g0xx_hal_tim.o
LOAD build/stm32g0xx_hal_tim_ex.o
LOAD build/stm32g0xx_ll_ucpd.o
LOAD build/stm32g0xx_ll_gpio.o
LOAD build/stm32g0xx_ll_dma.o
LOAD build/system_stm32g0xx.o
LOAD build/app_freertos.o
LOAD build/usbpd.o
LOAD build/usbpd_dpm_user.o
LOAD build/usbpd_pwr_user.o
LOAD build/usbpd_pwr_if.o
LOAD build/usbpd_vdm_user.o
LOAD build/usbpd_dpm_core.o
LOAD build/stm32g0xx_ll_tim.o
LOAD build/croutine.o
LOAD build/event_groups.o
LOAD build/list.o
LOAD build/queue.o
LOAD build/stream_buffer.o
LOAD build/tasks.o
LOAD build/timers.o
LOAD build/cmsis_os.o
LOAD build/heap_4.o
LOAD build/port.o
LOAD build/usbpd_trace.o
LOAD build/usbpd_cad_hw_if.o
LOAD build/usbpd_hw.o
LOAD build/usbpd_hw_if_it.o
LOAD build/usbpd_phy.o
LOAD build/usbpd_phy_hw_if.o
LOAD build/usbpd_pwr_hw_if.o
LOAD build/usbpd_timersserver.o
LOAD build/stm32g0xx_hal_uart.o
LOAD build/stm32g0xx_hal_uart_ex.o
LOAD build/stm32g0xx_ll_usart.o
LOAD build/stm32g0xx_ll_lpuart.o
LOAD build/data_struct_tlv.o
LOAD build/bsp_gui.o
LOAD build/gui_api.o
LOAD build/tracer_emb.o
LOAD build/tracer_emb_hw.o
LOAD build/startup_stm32g071xx.o
LOAD /usr/lib/gcc/arm-none-eabi/9.2.1/../../../arm-none-eabi/lib/thumb/v6-m/nofp/libc_nano.a
LOAD /usr/lib/gcc/arm-none-eabi/9.2.1/../../../arm-none-eabi/lib/thumb/v6-m/nofp/libm.a
LOAD /usr/lib/gcc/arm-none-eabi/9.2.1/../../../arm-none-eabi/lib/thumb/v6-m/nofp/libnosys.a
LOAD Middlewares/ST/STM32_USBPD_Library/Core/lib/USBPDCORE_PD3_FULL_CM0PLUS_wc32.a
START GROUP
LOAD /usr/lib/gcc/arm-none-eabi/9.2.1/thumb/v6-m/nofp/libgcc.a
LOAD /usr/lib/gcc/arm-none-eabi/9.2.1/../../../arm-none-eabi/lib/thumb/v6-m/nofp/libc_nano.a
END GROUP
START GROUP
LOAD /usr/lib/gcc/arm-none-eabi/9.2.1/thumb/v6-m/nofp/libgcc.a
LOAD /usr/lib/gcc/arm-none-eabi/9.2.1/../../../arm-none-eabi/lib/thumb/v6-m/nofp/libc_nano.a
END GROUP
LOAD /usr/lib/gcc/arm-none-eabi/9.2.1/thumb/v6-m/nofp/crtend.o
LOAD /usr/lib/gcc/arm-none-eabi/9.2.1/thumb/v6-m/nofp/crtn.o
                0x0000000020009000                _estack = 0x20009000
                0x0000000000000200                _Min_Heap_Size = 0x200
                0x0000000000000400                _Min_Stack_Size = 0x400

.isr_vector     0x0000000008000000       0xbc
                0x0000000008000000                . = ALIGN (0x4)
 *(.isr_vector)
 .isr_vector    0x0000000008000000       0xbc build/startup_stm32g071xx.o
                0x0000000008000000                g_pfnVectors
                0x00000000080000bc                . = ALIGN (0x4)

.text           0x00000000080000c0     0xf854
                0x00000000080000c0                . = ALIGN (0x4)
 *(.text)
 .text          0x00000000080000c0       0x98 /usr/lib/gcc/arm-none-eabi/9.2.1/thumb/v6-m/nofp/crtbegin.o
 .text          0x0000000008000158       0x44 /usr/lib/gcc/arm-none-eabi/9.2.1/../../../arm-none-eabi/lib/thumb/v6-m/nofp/libc_nano.a(lib_a-init.o)
                0x0000000008000158                __libc_init_array
 .text          0x000000000800019c       0xa8 /usr/lib/gcc/arm-none-eabi/9.2.1/../../../arm-none-eabi/lib/thumb/v6-m/nofp/libc_nano.a(lib_a-memcpy-stub.o)
                0x000000000800019c                memcpy
 .text          0x0000000008000244       0xa8 /usr/lib/gcc/arm-none-eabi/9.2.1/../../../arm-none-eabi/lib/thumb/v6-m/nofp/libc_nano.a(lib_a-memset.o)
                0x0000000008000244                memset
 .text          0x00000000080002ec       0xfc /usr/lib/gcc/arm-none-eabi/9.2.1/../../../arm-none-eabi/lib/thumb/v6-m/nofp/libc_nano.a(lib_a-snprintf.o)
                0x00000000080002ec                _sniprintf_r
                0x00000000080002ec                _snprintf_r
                0x0000000008000368                snprintf
                0x0000000008000368                sniprintf
 .text          0x00000000080003e8       0x10 /usr/lib/gcc/arm-none-eabi/9.2.1/../../../arm-none-eabi/lib/thumb/v6-m/nofp/libc_nano.a(lib_a-strcpy.o)
                0x00000000080003e8                strcpy
 .text          0x00000000080003f8       0x68 /usr/lib/gcc/arm-none-eabi/9.2.1/../../../arm-none-eabi/lib/thumb/v6-m/nofp/libc_nano.a(lib_a-strlen-stub.o)
                0x00000000080003f8                strlen
 .text          0x0000000008000460      0x480 /usr/lib/gcc/arm-none-eabi/9.2.1/../../../arm-none-eabi/lib/thumb/v6-m/nofp/libc_nano.a(lib_a-nano-svfprintf.o)
                0x0000000008000460                __ssputs_r
                0x0000000008000530                __ssprint_r
                0x0000000008000644                _svfprintf_r
                0x0000000008000644                _svfiprintf_r
 .text          0x00000000080008e0      0x3d8 /usr/lib/gcc/arm-none-eabi/9.2.1/../../../arm-none-eabi/lib/thumb/v6-m/nofp/libc_nano.a(lib_a-nano-vfprintf_i.o)
                0x00000000080008e0                _printf_common
                0x0000000008000a10                _printf_i
 .text          0x0000000008000cb8       0x80 /usr/lib/gcc/arm-none-eabi/9.2.1/../../../arm-none-eabi/lib/thumb/v6-m/nofp/libc_nano.a(lib_a-memchr-stub.o)
                0x0000000008000cb8                memchr
 .text          0x0000000008000d38       0xbc /usr/lib/gcc/arm-none-eabi/9.2.1/../../../arm-none-eabi/lib/thumb/v6-m/nofp/libc_nano.a(lib_a-memmove.o)
                0x0000000008000d38                memmove
 .text          0x0000000008000df4       0xac /usr/lib/gcc/arm-none-eabi/9.2.1/../../../arm-none-eabi/lib/thumb/v6-m/nofp/libc_nano.a(lib_a-nano-freer.o)
                0x0000000008000df4                _free_r
 .text          0x0000000008000ea0       0xcc /usr/lib/gcc/arm-none-eabi/9.2.1/../../../arm-none-eabi/lib/thumb/v6-m/nofp/libc_nano.a(lib_a-nano-mallocr.o)
                0x0000000008000ea0                _malloc_r
 .text          0x0000000008000f6c       0x50 /usr/lib/gcc/arm-none-eabi/9.2.1/../../../arm-none-eabi/lib/thumb/v6-m/nofp/libc_nano.a(lib_a-nano-reallocr.o)
                0x0000000008000f6c                _realloc_r
 .text          0x0000000008000fbc       0x24 /usr/lib/gcc/arm-none-eabi/9.2.1/../../../arm-none-eabi/lib/thumb/v6-m/nofp/libc_nano.a(lib_a-sbrkr.o)
                0x0000000008000fbc                _sbrk_r
 .text          0x0000000008000fe0        0x8 /usr/lib/gcc/arm-none-eabi/9.2.1/../../../arm-none-eabi/lib/thumb/v6-m/nofp/libc_nano.a(lib_a-mlock.o)
                0x0000000008000fe0                __malloc_lock
                0x0000000008000fe4                __malloc_unlock
 .text          0x0000000008000fe8       0x14 /usr/lib/gcc/arm-none-eabi/9.2.1/../../../arm-none-eabi/lib/thumb/v6-m/nofp/libc_nano.a(lib_a-nano-msizer.o)
                0x0000000008000fe8                _malloc_usable_size_r
 .text          0x0000000008000ffc       0x1c /usr/lib/gcc/arm-none-eabi/9.2.1/../../../arm-none-eabi/lib/thumb/v6-m/nofp/libnosys.a(sbrk.o)
                0x0000000008000ffc                _sbrk
 .text          0x0000000008001018      0x15e Middlewares/ST/STM32_USBPD_Library/Core/lib/USBPDCORE_PD3_FULL_CM0PLUS_wc32.a(usbpd_cad.o)
                0x0000000008001018                USBPD_CAD_Init
                0x000000000800108c                USBPD_CAD_PortEnable
                0x000000000800109c                USBPD_CAD_Process
                0x000000000800113c                USBPD_CAD_AssertRd
                0x000000000800114c                USBPD_CAD_AssertRp
                0x000000000800115c                USBPD_CAD_EnterErrorRecovery
                0x0000000008001164                USBPD_CAD_SetRpResistor
                0x0000000008001172                USBPD_CAD_GetMemoryConsumption
 *fill*         0x0000000008001176        0x2 
 .text          0x0000000008001178     0x656c Middlewares/ST/STM32_USBPD_Library/Core/lib/USBPDCORE_PD3_FULL_CM0PLUS_wc32.a(usbpd_pe.o)
                0x0000000008001178                USBPD_PE_Init
                0x0000000008001230                USBPD_PE_SetTrace
                0x0000000008001238                USBPD_PE_CheckLIB
                0x0000000008001246                USBPD_PE_GetMemoryConsumption
                0x000000000800125c                USBPD_PE_TimerCounter
                0x00000000080012c2                USBPD_PE_IsCableConnected
                0x0000000008001314                USBPD_PE_StateMachine_SRC
                0x000000000800279c                USBPD_PE_StateMachine_SNK
                0x0000000008003bc8                USBPD_PE_StateMachine_DRP
                0x0000000008003be8                USBPD_PE_InitVDM_Callback
                0x0000000008003c00                USBPD_PE_SVDM_RequestIdentity
                0x0000000008003c88                USBPD_PE_SVDM_RequestSVID
                0x0000000008003cec                USBPD_PE_SVDM_RequestMode
                0x0000000008003d54                USBPD_PE_SVDM_RequestModeEnter
                0x0000000008003dd6                USBPD_PE_SVDM_RequestModeExit
                0x0000000008003e5c                USBPD_PE_SVDM_RequestAttention
                0x0000000008003eb8                USBPD_PE_SVDM_RequestSpecific
                0x0000000008003f20                USBPD_PE_UVDM_RequestMessage
                0x0000000008003f6e                USBPD_PE_Request_HardReset
                0x0000000008003f94                USBPD_PE_Request_CtrlMessage
                0x00000000080041b8                USBPD_PE_Request_DataMessage
                0x000000000800426c                USBPD_PE_Send_Request
                0x00000000080042c4                USBPD_PE_SendExtendedMessage
                0x00000000080058c6                PE_Get_DataRole
                0x00000000080058d8                PE_Get_SpecRevision
                0x0000000008006246                PE_PRL_HardResetReceived
                0x0000000008006298                PE_PRL_BistCompleted
                0x000000000800629a                PE_Reset
                0x0000000008006434                PE_ResetDuringSwap
                0x00000000080076dc                USBPD_PE_ExecFastRoleSwapSignalling
 .text          0x00000000080076e4      0xbc0 Middlewares/ST/STM32_USBPD_Library/Core/lib/USBPDCORE_PD3_FULL_CM0PLUS_wc32.a(usbpd_prl.o)
                0x00000000080076e4                USBPD_PRL_TimerCounter
                0x0000000008007708                USBPD_PRL_Init
                0x00000000080077a8                USBPD_PRL_GetMemoryConsumption
                0x00000000080077ac                USBPD_PRL_SetHeader
                0x00000000080077e6                USBPD_PRL_SetHeaderPowerRole
                0x00000000080077fc                USBPD_PRL_SetHeaderDataRole
                0x0000000008007816                USBPD_PRL_SetHeaderSpecification
                0x0000000008007830                USBPD_PRL_SRCSetSinkNG
                0x0000000008007838                USBPD_PRL_SRCReleaseSinkNG
                0x000000000800784e                USBPD_PRL_IsResistor_SinkTxOK
                0x0000000008007856                USBPD_PRL_FastRoleSwapSignalling
                0x000000000800785e                USBPD_PRL_CableCapable
                0x0000000008007888                USBPD_PRL_SendMessage
                0x0000000008007b1c                USBPD_PRL_ResetRequestReset
                0x0000000008007b30                USBPD_PRL_ResetRequestProcess
                0x0000000008007bdc                USBDPD_PRL_BistCarrierEyeMode
                0x0000000008007bec                USBDPD_PRL_BistCarrierEyeModeExit
                0x0000000008007bfe                USBPD_PRL_Reset
                0x0000000008007c4a                USBPD_PRL_DeInit
                0x0000000008007c4c                USBPD_PRL_EnableRX
                0x0000000008007c68                USBPD_PRL_DisableRX
                0x000000000800815c                USBPD_PRL_PowerSinkReset
                0x00000000080081d8                USBPD_PRL_PrepareExtendedTxChunkSending
                0x000000000800822a                USBPD_PRL_PrepareChunkRequest
 .text          0x00000000080082a4       0x14 /usr/lib/gcc/arm-none-eabi/9.2.1/thumb/v6-m/nofp/libgcc.a(_thumb1_case_uqi.o)
                0x00000000080082a4                __gnu_thumb1_case_uqi
 .text          0x00000000080082b8       0x14 /usr/lib/gcc/arm-none-eabi/9.2.1/thumb/v6-m/nofp/libgcc.a(_thumb1_case_shi.o)
                0x00000000080082b8                __gnu_thumb1_case_shi
 .text          0x00000000080082cc       0x14 /usr/lib/gcc/arm-none-eabi/9.2.1/thumb/v6-m/nofp/libgcc.a(_thumb1_case_uhi.o)
                0x00000000080082cc                __gnu_thumb1_case_uhi
 .text          0x00000000080082e0      0x114 /usr/lib/gcc/arm-none-eabi/9.2.1/thumb/v6-m/nofp/libgcc.a(_udivsi3.o)
                0x00000000080082e0                __udivsi3
                0x00000000080082e0                __aeabi_uidiv
                0x00000000080083ec                __aeabi_uidivmod
 .text          0x00000000080083f4      0x1d4 /usr/lib/gcc/arm-none-eabi/9.2.1/thumb/v6-m/nofp/libgcc.a(_divsi3.o)
                0x00000000080083f4                __aeabi_idiv
                0x00000000080083f4                __divsi3
                0x00000000080085c0                __aeabi_idivmod
 .text          0x00000000080085c8        0x4 /usr/lib/gcc/arm-none-eabi/9.2.1/thumb/v6-m/nofp/libgcc.a(_dvmd_tls.o)
                0x00000000080085c8                __aeabi_ldiv0
                0x00000000080085c8                __aeabi_idiv0
 .text          0x00000000080085cc       0x40 /usr/lib/gcc/arm-none-eabi/9.2.1/thumb/v6-m/nofp/libgcc.a(_aeabi_uldivmod.o)
                0x00000000080085cc                __aeabi_uldivmod
 .text          0x000000000800860c      0x198 /usr/lib/gcc/arm-none-eabi/9.2.1/thumb/v6-m/nofp/libgcc.a(_udivmoddi4.o)
                0x000000000800860c                __udivmoddi4
 .text          0x00000000080087a4       0x18 /usr/lib/gcc/arm-none-eabi/9.2.1/thumb/v6-m/nofp/libgcc.a(_clzdi2.o)
                0x00000000080087a4                __clzdi2
 .text          0x00000000080087bc       0x3c /usr/lib/gcc/arm-none-eabi/9.2.1/thumb/v6-m/nofp/libgcc.a(_clzsi2.o)
                0x00000000080087bc                __clzsi2
 .text          0x00000000080087f8        0xc /usr/lib/gcc/arm-none-eabi/9.2.1/../../../arm-none-eabi/lib/thumb/v6-m/nofp/libc_nano.a(lib_a-aeabi_memclr.o)
                0x00000000080087f8                __aeabi_memclr8
                0x00000000080087f8                __aeabi_memclr
                0x00000000080087f8                __aeabi_memclr4
 .text          0x0000000008008804        0x8 /usr/lib/gcc/arm-none-eabi/9.2.1/../../../arm-none-eabi/lib/thumb/v6-m/nofp/libc_nano.a(lib_a-aeabi_memcpy.o)
                0x0000000008008804                __aeabi_memcpy
                0x0000000008008804                __aeabi_memcpy4
                0x0000000008008804                __aeabi_memcpy8
 .text          0x000000000800880c       0x10 /usr/lib/gcc/arm-none-eabi/9.2.1/../../../arm-none-eabi/lib/thumb/v6-m/nofp/libc_nano.a(lib_a-aeabi_memset.o)
                0x000000000800880c                __aeabi_memset
                0x000000000800880c                __aeabi_memset8
                0x000000000800880c                __aeabi_memset4
 .text          0x000000000800881c       0x28 /usr/lib/gcc/arm-none-eabi/9.2.1/../../../arm-none-eabi/lib/thumb/v6-m/nofp/libc_nano.a(lib_a-malloc.o)
                0x000000000800881c                malloc
                0x0000000008008830                free
 *(.text*)
 .text.StartDefaultTask
                0x0000000008008844        0xa build/main.o
                0x0000000008008844                StartDefaultTask
 *fill*         0x000000000800884e        0x2 
 .text.SystemClock_Config
                0x0000000008008850       0x8c build/main.o
                0x0000000008008850                SystemClock_Config
 .text.startup.main
                0x00000000080088dc      0x290 build/main.o
                0x00000000080088dc                main
 .text.Error_Handler
                0x0000000008008b6c        0x2 build/main.o
                0x0000000008008b6c                Error_Handler
 .text.NMI_Handler
                0x0000000008008b6e        0x2 build/stm32g0xx_it.o
                0x0000000008008b6e                NMI_Handler
 .text.HardFault_Handler
                0x0000000008008b70        0x2 build/stm32g0xx_it.o
                0x0000000008008b70                HardFault_Handler
 .text.SysTick_Handler
                0x0000000008008b72        0xc build/stm32g0xx_it.o
                0x0000000008008b72                SysTick_Handler
 .text.UCPD1_2_IRQHandler
                0x0000000008008b7e        0x8 build/stm32g0xx_it.o
                0x0000000008008b7e                UCPD1_2_IRQHandler
 *fill*         0x0000000008008b86        0x2 
 .text.DMA1_Channel1_IRQHandler
                0x0000000008008b88       0x10 build/stm32g0xx_it.o
                0x0000000008008b88                DMA1_Channel1_IRQHandler
 .text.DMA1_Channel2_3_IRQHandler
                0x0000000008008b98        0x8 build/stm32g0xx_it.o
                0x0000000008008b98                DMA1_Channel2_3_IRQHandler
 .text.DMA1_Ch4_7_DMAMUX1_OVR_IRQHandler
                0x0000000008008ba0       0x10 build/stm32g0xx_it.o
                0x0000000008008ba0                DMA1_Ch4_7_DMAMUX1_OVR_IRQHandler
 .text.USART3_4_LPUART1_IRQHandler
                0x0000000008008bb0       0x14 build/stm32g0xx_it.o
                0x0000000008008bb0                USART3_4_LPUART1_IRQHandler
 .text.HAL_MspInit
                0x0000000008008bc4       0x48 build/stm32g0xx_hal_msp.o
                0x0000000008008bc4                HAL_MspInit
 .text.HAL_ADC_MspInit
                0x0000000008008c0c       0x9c build/stm32g0xx_hal_msp.o
                0x0000000008008c0c                HAL_ADC_MspInit
 .text.HAL_UART_MspInit
                0x0000000008008ca8       0xac build/stm32g0xx_hal_msp.o
                0x0000000008008ca8                HAL_UART_MspInit
 .text.HAL_GPIO_Init
                0x0000000008008d54      0x158 build/stm32g0xx_hal_gpio.o
                0x0000000008008d54                HAL_GPIO_Init
 .text.HAL_GPIO_WritePin
                0x0000000008008eac        0xc build/stm32g0xx_hal_gpio.o
                0x0000000008008eac                HAL_GPIO_WritePin
 .text.LL_ADC_REG_IsConversionOngoing
                0x0000000008008eb8        0x8 build/stm32g0xx_hal_adc.o
 .text.HAL_ADC_Init
                0x0000000008008ec0      0x258 build/stm32g0xx_hal_adc.o
                0x0000000008008ec0                HAL_ADC_Init
 .text.HAL_ADC_ConfigChannel
                0x0000000008009118      0x244 build/stm32g0xx_hal_adc.o
                0x0000000008009118                HAL_ADC_ConfigChannel
 .text.ADC_Enable
                0x000000000800935c       0x7c build/stm32g0xx_hal_adc.o
                0x000000000800935c                ADC_Enable
 .text.HAL_ADC_Start
                0x00000000080093d8       0x5c build/stm32g0xx_hal_adc.o
                0x00000000080093d8                HAL_ADC_Start
 .text.ADC_Disable
                0x0000000008009434       0x70 build/stm32g0xx_hal_adc.o
                0x0000000008009434                ADC_Disable
 .text.HAL_ADCEx_Calibration_Start
                0x00000000080094a4       0x9c build/stm32g0xx_hal_adc_ex.o
                0x00000000080094a4                HAL_ADCEx_Calibration_Start
 .text.HAL_RCC_OscConfig
                0x0000000008009540      0x44c build/stm32g0xx_hal_rcc.o
                0x0000000008009540                HAL_RCC_OscConfig
 .text.HAL_RCC_GetSysClockFreq
                0x000000000800998c       0x88 build/stm32g0xx_hal_rcc.o
                0x000000000800998c                HAL_RCC_GetSysClockFreq
 .text.HAL_RCC_ClockConfig
                0x0000000008009a14      0x15c build/stm32g0xx_hal_rcc.o
                0x0000000008009a14                HAL_RCC_ClockConfig
 .text.HAL_RCC_GetPCLK1Freq
                0x0000000008009b70       0x28 build/stm32g0xx_hal_rcc.o
                0x0000000008009b70                HAL_RCC_GetPCLK1Freq
 .text.HAL_RCCEx_PeriphCLKConfig
                0x0000000008009b98      0x20c build/stm32g0xx_hal_rcc_ex.o
                0x0000000008009b98                HAL_RCCEx_PeriphCLKConfig
 .text.LL_RCC_HSI_IsReady
                0x0000000008009da4       0x10 build/stm32g0xx_ll_rcc.o
 .text.LL_RCC_LSE_IsReady
                0x0000000008009db4       0x10 build/stm32g0xx_ll_rcc.o
 .text.RCC_GetHCLKClockFreq
                0x0000000008009dc4       0x20 build/stm32g0xx_ll_rcc.o
                0x0000000008009dc4                RCC_GetHCLKClockFreq
 .text.RCC_GetPCLK1ClockFreq
                0x0000000008009de4       0x20 build/stm32g0xx_ll_rcc.o
                0x0000000008009de4                RCC_GetPCLK1ClockFreq
 .text.RCC_PLL_GetFreqDomain_SYS
                0x0000000008009e04       0x40 build/stm32g0xx_ll_rcc.o
                0x0000000008009e04                RCC_PLL_GetFreqDomain_SYS
 .text.RCC_GetSystemClockFreq
                0x0000000008009e44       0x34 build/stm32g0xx_ll_rcc.o
                0x0000000008009e44                RCC_GetSystemClockFreq
 .text.LL_RCC_GetLPUARTClockFreq
                0x0000000008009e78       0x5c build/stm32g0xx_ll_rcc.o
                0x0000000008009e78                LL_RCC_GetLPUARTClockFreq
 .text.HAL_FLASH_Unlock
                0x0000000008009ed4       0x24 build/stm32g0xx_hal_flash.o
                0x0000000008009ed4                HAL_FLASH_Unlock
 .text.HAL_FLASH_Lock
                0x0000000008009ef8       0x18 build/stm32g0xx_hal_flash.o
                0x0000000008009ef8                HAL_FLASH_Lock
 .text.FLASH_WaitForLastOperation
                0x0000000008009f10       0x80 build/stm32g0xx_hal_flash.o
                0x0000000008009f10                FLASH_WaitForLastOperation
 .text.HAL_FLASH_Program
                0x0000000008009f90       0x68 build/stm32g0xx_hal_flash.o
                0x0000000008009f90                HAL_FLASH_Program
 .text.FLASH_PageErase
                0x0000000008009ff8       0x20 build/stm32g0xx_hal_flash_ex.o
                0x0000000008009ff8                FLASH_PageErase
 .text.HAL_FLASHEx_Erase
                0x000000000800a018       0x90 build/stm32g0xx_hal_flash_ex.o
                0x000000000800a018                HAL_FLASHEx_Erase
 .text.DMA_CalcDMAMUXChannelBaseAndMask
                0x000000000800a0a8       0x34 build/stm32g0xx_hal_dma.o
 .text.HAL_DMA_Init
                0x000000000800a0dc       0xb8 build/stm32g0xx_hal_dma.o
                0x000000000800a0dc                HAL_DMA_Init
 .text.HAL_DMA_Abort_IT
                0x000000000800a194       0x7c build/stm32g0xx_hal_dma.o
                0x000000000800a194                HAL_DMA_Abort_IT
 .text.HAL_DMA_IRQHandler
                0x000000000800a210       0xa8 build/stm32g0xx_hal_dma.o
                0x000000000800a210                HAL_DMA_IRQHandler
 .text.HAL_PWREx_ControlVoltageScaling
                0x000000000800a2b8       0x58 build/stm32g0xx_hal_pwr_ex.o
                0x000000000800a2b8                HAL_PWREx_ControlVoltageScaling
 .text.HAL_NVIC_SetPriority
                0x000000000800a310       0x54 build/stm32g0xx_hal_cortex.o
                0x000000000800a310                HAL_NVIC_SetPriority
 .text.HAL_NVIC_EnableIRQ
                0x000000000800a364       0x18 build/stm32g0xx_hal_cortex.o
                0x000000000800a364                HAL_NVIC_EnableIRQ
 .text.HAL_NVIC_SystemReset
                0x000000000800a37c       0x1c build/stm32g0xx_hal_cortex.o
                0x000000000800a37c                HAL_NVIC_SystemReset
 .text.HAL_SYSTICK_Config
                0x000000000800a398       0x34 build/stm32g0xx_hal_cortex.o
                0x000000000800a398                HAL_SYSTICK_Config
 .text.HAL_InitTick
                0x000000000800a3cc       0x50 build/stm32g0xx_hal.o
                0x000000000800a3cc                HAL_InitTick
 .text.HAL_Init
                0x000000000800a41c       0x28 build/stm32g0xx_hal.o
                0x000000000800a41c                HAL_Init
 .text.HAL_GetTick
                0x000000000800a444        0xc build/stm32g0xx_hal.o
                0x000000000800a444                HAL_GetTick
 .text.HAL_Delay
                0x000000000800a450       0x24 build/stm32g0xx_hal.o
                0x000000000800a450                HAL_Delay
 .text.LL_UCPD_Init
                0x000000000800a474       0x70 build/stm32g0xx_ll_ucpd.o
                0x000000000800a474                LL_UCPD_Init
 .text.LL_UCPD_StructInit
                0x000000000800a4e4       0x12 build/stm32g0xx_ll_ucpd.o
                0x000000000800a4e4                LL_UCPD_StructInit
 *fill*         0x000000000800a4f6        0x2 
 .text.LL_DMA_Init
                0x000000000800a4f8       0x68 build/stm32g0xx_ll_dma.o
                0x000000000800a4f8                LL_DMA_Init
 .text.SystemInit
                0x000000000800a560       0x10 build/system_stm32g0xx.o
                0x000000000800a560                SystemInit
 .text.GetHWBoardVersionName
                0x000000000800a570        0x8 build/usbpd.o
 .text.GetPDTypeName
                0x000000000800a578        0x8 build/usbpd.o
 .text.MX_USBPD_Init
                0x000000000800a580       0x44 build/usbpd.o
                0x000000000800a580                MX_USBPD_Init
 .text.USBPD_DPM_UserInit
                0x000000000800a5c4        0x4 build/usbpd_dpm_user.o
                0x000000000800a5c4                USBPD_DPM_UserInit
 .text.USBPD_DPM_SetNotification_GUI
                0x000000000800a5c8       0x1c build/usbpd_dpm_user.o
                0x000000000800a5c8                USBPD_DPM_SetNotification_GUI
 .text.USBPD_DPM_UserCableDetection
                0x000000000800a5e4       0x58 build/usbpd_dpm_user.o
                0x000000000800a5e4                USBPD_DPM_UserCableDetection
 .text.USBPD_DPM_UserTimerCounter
                0x000000000800a63c        0x2 build/usbpd_dpm_user.o
                0x000000000800a63c                USBPD_DPM_UserTimerCounter
 *fill*         0x000000000800a63e        0x2 
 .text.USBPD_DPM_HardReset
                0x000000000800a640       0x2c build/usbpd_dpm_user.o
                0x000000000800a640                USBPD_DPM_HardReset
 .text.USBPD_DPM_EvaluatePowerRoleSwap
                0x000000000800a66c        0x4 build/usbpd_dpm_user.o
                0x000000000800a66c                USBPD_DPM_EvaluatePowerRoleSwap
 .text.USBPD_DPM_Notification
                0x000000000800a670       0x14 build/usbpd_dpm_user.o
                0x000000000800a670                USBPD_DPM_Notification
 .text.USBPD_DPM_GetDataInfo
                0x000000000800a684       0x30 build/usbpd_dpm_user.o
                0x000000000800a684                USBPD_DPM_GetDataInfo
 .text.USBPD_DPM_SetDataInfo
                0x000000000800a6b4       0x4c build/usbpd_dpm_user.o
                0x000000000800a6b4                USBPD_DPM_SetDataInfo
 .text.USBPD_DPM_SNK_EvaluateCapabilities
                0x000000000800a700       0x10 build/usbpd_dpm_user.o
                0x000000000800a700                USBPD_DPM_SNK_EvaluateCapabilities
 .text.USBPD_DPM_ExtendedMessageReceived
                0x000000000800a710        0x2 build/usbpd_dpm_user.o
                0x000000000800a710                USBPD_DPM_ExtendedMessageReceived
 .text.USBPD_DPM_EvaluateDataRoleSwap
                0x000000000800a712        0x4 build/usbpd_dpm_user.o
                0x000000000800a712                USBPD_DPM_EvaluateDataRoleSwap
 .text.USBPD_DPM_IsPowerReady
                0x000000000800a716        0xe build/usbpd_dpm_user.o
                0x000000000800a716                USBPD_DPM_IsPowerReady
 .text.USBPD_DPM_RequestHardReset
                0x000000000800a724        0x8 build/usbpd_dpm_user.o
                0x000000000800a724                USBPD_DPM_RequestHardReset
 .text.USBPD_DPM_RequestCableReset
                0x000000000800a72c        0x4 build/usbpd_dpm_user.o
                0x000000000800a72c                USBPD_DPM_RequestCableReset
 .text.USBPD_DPM_RequestGotoMin
                0x000000000800a730        0xc build/usbpd_dpm_user.o
                0x000000000800a730                USBPD_DPM_RequestGotoMin
 .text.USBPD_DPM_RequestPing
                0x000000000800a73c        0xc build/usbpd_dpm_user.o
                0x000000000800a73c                USBPD_DPM_RequestPing
 .text.USBPD_DPM_RequestMessageRequest
                0x000000000800a748       0x2c build/usbpd_dpm_user.o
                0x000000000800a748                USBPD_DPM_RequestMessageRequest
 .text.USBPD_DPM_RequestGetSourceCapability
                0x000000000800a774        0xc build/usbpd_dpm_user.o
                0x000000000800a774                USBPD_DPM_RequestGetSourceCapability
 .text.USBPD_DPM_RequestGetSinkCapability
                0x000000000800a780        0xc build/usbpd_dpm_user.o
                0x000000000800a780                USBPD_DPM_RequestGetSinkCapability
 .text.USBPD_DPM_RequestDataRoleSwap
                0x000000000800a78c        0xc build/usbpd_dpm_user.o
                0x000000000800a78c                USBPD_DPM_RequestDataRoleSwap
 .text.USBPD_DPM_RequestPowerRoleSwap
                0x000000000800a798        0xc build/usbpd_dpm_user.o
                0x000000000800a798                USBPD_DPM_RequestPowerRoleSwap
 .text.USBPD_DPM_RequestVconnSwap
                0x000000000800a7a4        0xc build/usbpd_dpm_user.o
                0x000000000800a7a4                USBPD_DPM_RequestVconnSwap
 .text.USBPD_DPM_RequestSoftReset
                0x000000000800a7b0        0xc build/usbpd_dpm_user.o
                0x000000000800a7b0                USBPD_DPM_RequestSoftReset
 .text.USBPD_DPM_RequestSourceCapability
                0x000000000800a7bc        0xc build/usbpd_dpm_user.o
                0x000000000800a7bc                USBPD_DPM_RequestSourceCapability
 .text.USBPD_DPM_RequestAlert
                0x000000000800a7c8        0xe build/usbpd_dpm_user.o
                0x000000000800a7c8                USBPD_DPM_RequestAlert
 .text.USBPD_DPM_RequestGetSourceCapabilityExt
                0x000000000800a7d6        0xc build/usbpd_dpm_user.o
                0x000000000800a7d6                USBPD_DPM_RequestGetSourceCapabilityExt
 .text.USBPD_DPM_RequestGetSinkCapabilityExt
                0x000000000800a7e2        0xc build/usbpd_dpm_user.o
                0x000000000800a7e2                USBPD_DPM_RequestGetSinkCapabilityExt
 .text.USBPD_DPM_RequestGetManufacturerInfo
                0x000000000800a7ee       0x10 build/usbpd_dpm_user.o
                0x000000000800a7ee                USBPD_DPM_RequestGetManufacturerInfo
 .text.USBPD_DPM_RequestGetPPS_Status
                0x000000000800a7fe        0xc build/usbpd_dpm_user.o
                0x000000000800a7fe                USBPD_DPM_RequestGetPPS_Status
 .text.USBPD_DPM_RequestGetStatus
                0x000000000800a80a        0xc build/usbpd_dpm_user.o
                0x000000000800a80a                USBPD_DPM_RequestGetStatus
 .text.USBPD_DPM_RequestFastRoleSwap
                0x000000000800a816        0xc build/usbpd_dpm_user.o
                0x000000000800a816                USBPD_DPM_RequestFastRoleSwap
 .text.USBPD_DPM_RequestGetCountryCodes
                0x000000000800a822        0xc build/usbpd_dpm_user.o
                0x000000000800a822                USBPD_DPM_RequestGetCountryCodes
 .text.USBPD_DPM_RequestGetCountryInfo
                0x000000000800a82e       0x10 build/usbpd_dpm_user.o
                0x000000000800a82e                USBPD_DPM_RequestGetCountryInfo
 .text.USBPD_DPM_RequestGetBatteryCapability
                0x000000000800a83e       0x12 build/usbpd_dpm_user.o
                0x000000000800a83e                USBPD_DPM_RequestGetBatteryCapability
 .text.USBPD_DPM_RequestGetBatteryStatus
                0x000000000800a850       0x12 build/usbpd_dpm_user.o
                0x000000000800a850                USBPD_DPM_RequestGetBatteryStatus
 .text.USBPD_DPM_RequestSecurityRequest
                0x000000000800a862        0x4 build/usbpd_dpm_user.o
                0x000000000800a862                USBPD_DPM_RequestSecurityRequest
 *fill*         0x000000000800a866        0x2 
 .text.BSP_PWR_VBUSInit
                0x000000000800a868       0x1c build/usbpd_pwr_user.o
                0x000000000800a868                BSP_PWR_VBUSInit
 .text.BSP_PWR_VBUSGetVoltage
                0x000000000800a884       0x30 build/usbpd_pwr_user.o
                0x000000000800a884                BSP_PWR_VBUSGetVoltage
 .text.BSP_PWR_VBUSGetCurrent
                0x000000000800a8b4        0x4 build/usbpd_pwr_user.o
                0x000000000800a8b4                BSP_PWR_VBUSGetCurrent
 .text.USBPD_PWR_IF_SupplyReady
                0x000000000800a8b8        0x4 build/usbpd_pwr_if.o
                0x000000000800a8b8                USBPD_PWR_IF_SupplyReady
 .text.USBPD_PE_TaskWakeUp
                0x000000000800a8bc       0x1c build/usbpd_dpm_core.o
 .text.USBPD_DPM_CADTaskWakeUp
                0x000000000800a8d8       0x18 build/usbpd_dpm_core.o
 .text.USBPD_PE_Task
                0x000000000800a8f0       0x24 build/usbpd_dpm_core.o
                0x000000000800a8f0                USBPD_PE_Task
 .text.USBPD_CAD_Task
                0x000000000800a914       0x1c build/usbpd_dpm_core.o
                0x000000000800a914                USBPD_CAD_Task
 .text.USBPD_TRACE_TX_Task
                0x000000000800a930       0x1c build/usbpd_dpm_core.o
                0x000000000800a930                USBPD_TRACE_TX_Task
 .text.DPM_ManageAttachedState
                0x000000000800a94c       0x58 build/usbpd_dpm_core.o
 .text.USBPD_DPM_CADCallback
                0x000000000800a9a4       0x70 build/usbpd_dpm_core.o
                0x000000000800a9a4                USBPD_DPM_CADCallback
 .text.USBPD_DPM_InitCore
                0x000000000800aa14       0x7c build/usbpd_dpm_core.o
                0x000000000800aa14                USBPD_DPM_InitCore
 .text.USBPD_DPM_InitOS
                0x000000000800aa90       0x70 build/usbpd_dpm_core.o
                0x000000000800aa90                USBPD_DPM_InitOS
 .text.USBPD_DPM_TimerCounter
                0x000000000800ab00       0x24 build/usbpd_dpm_core.o
                0x000000000800ab00                USBPD_DPM_TimerCounter
 .text.USBPD_DPM_TraceWakeUp
                0x000000000800ab24       0x1c build/usbpd_dpm_core.o
                0x000000000800ab24                USBPD_DPM_TraceWakeUp
 .text.vListInitialise
                0x000000000800ab40       0x16 build/list.o
                0x000000000800ab40                vListInitialise
 .text.vListInitialiseItem
                0x000000000800ab56        0x6 build/list.o
                0x000000000800ab56                vListInitialiseItem
 .text.vListInsertEnd
                0x000000000800ab5c       0x18 build/list.o
                0x000000000800ab5c                vListInsertEnd
 .text.vListInsert
                0x000000000800ab74       0x2e build/list.o
                0x000000000800ab74                vListInsert
 .text.uxListRemove
                0x000000000800aba2       0x20 build/list.o
                0x000000000800aba2                uxListRemove
 .text.prvIsQueueEmpty
                0x000000000800abc2       0x14 build/queue.o
 .text.prvCopyDataToQueue
                0x000000000800abd6       0x76 build/queue.o
 .text.prvCopyDataFromQueue
                0x000000000800ac4c       0x24 build/queue.o
 .text.prvUnlockQueue
                0x000000000800ac70       0x6a build/queue.o
 .text.xQueueGenericReset
                0x000000000800acda       0x68 build/queue.o
                0x000000000800acda                xQueueGenericReset
 .text.xQueueGenericCreate
                0x000000000800ad42       0x36 build/queue.o
                0x000000000800ad42                xQueueGenericCreate
 .text.xQueueGenericSend
                0x000000000800ad78      0x120 build/queue.o
                0x000000000800ad78                xQueueGenericSend
 .text.xQueueGenericSendFromISR
                0x000000000800ae98       0x92 build/queue.o
                0x000000000800ae98                xQueueGenericSendFromISR
 .text.xQueueReceive
                0x000000000800af2a      0x10a build/queue.o
                0x000000000800af2a                xQueueReceive
 .text.xQueueReceiveFromISR
                0x000000000800b034       0x80 build/queue.o
                0x000000000800b034                xQueueReceiveFromISR
 .text.prvResetNextTaskUnblockTime
                0x000000000800b0b4       0x28 build/tasks.o
 .text.prvAddCurrentTaskToDelayedList
                0x000000000800b0dc       0x70 build/tasks.o
 .text.prvIdleTask
                0x000000000800b14c       0x58 build/tasks.o
 .text.xTaskCreate
                0x000000000800b1a4      0x1b4 build/tasks.o
                0x000000000800b1a4                xTaskCreate
 .text.vTaskDelete
                0x000000000800b358       0xa0 build/tasks.o
                0x000000000800b358                vTaskDelete
 .text.vTaskStartScheduler
                0x000000000800b3f8       0x54 build/tasks.o
                0x000000000800b3f8                vTaskStartScheduler
 .text.vTaskSuspendAll
                0x000000000800b44c       0x10 build/tasks.o
                0x000000000800b44c                vTaskSuspendAll
 .text.xTaskIncrementTick
                0x000000000800b45c      0x100 build/tasks.o
                0x000000000800b45c                xTaskIncrementTick
 .text.xTaskResumeAll
                0x000000000800b55c       0xd0 build/tasks.o
                0x000000000800b55c                xTaskResumeAll
 .text.vTaskDelay
                0x000000000800b62c       0x34 build/tasks.o
                0x000000000800b62c                vTaskDelay
 .text.vTaskSwitchContext
                0x000000000800b660       0x6c build/tasks.o
                0x000000000800b660                vTaskSwitchContext
 .text.vTaskPlaceOnEventList
                0x000000000800b6cc       0x24 build/tasks.o
                0x000000000800b6cc                vTaskPlaceOnEventList
 .text.xTaskRemoveFromEventList
                0x000000000800b6f0       0x78 build/tasks.o
                0x000000000800b6f0                xTaskRemoveFromEventList
 .text.vTaskInternalSetTimeOutState
                0x000000000800b768       0x18 build/tasks.o
                0x000000000800b768                vTaskInternalSetTimeOutState
 .text.xTaskCheckForTimeOut
                0x000000000800b780       0x64 build/tasks.o
                0x000000000800b780                xTaskCheckForTimeOut
 .text.vTaskMissedYield
                0x000000000800b7e4        0xc build/tasks.o
                0x000000000800b7e4                vTaskMissedYield
 .text.xTaskGetSchedulerState
                0x000000000800b7f0       0x20 build/tasks.o
                0x000000000800b7f0                xTaskGetSchedulerState
 .text.xTaskPriorityDisinherit
                0x000000000800b810       0x6c build/tasks.o
                0x000000000800b810                xTaskPriorityDisinherit
 .text.osKernelStart
                0x000000000800b87c        0xa build/cmsis_os.o
                0x000000000800b87c                osKernelStart
 .text.osThreadCreate
                0x000000000800b886       0x34 build/cmsis_os.o
                0x000000000800b886                osThreadCreate
 .text.osThreadTerminate
                0x000000000800b8ba        0xa build/cmsis_os.o
                0x000000000800b8ba                osThreadTerminate
 .text.osDelay  0x000000000800b8c4       0x10 build/cmsis_os.o
                0x000000000800b8c4                osDelay
 .text.osMessageCreate
                0x000000000800b8d4        0xc build/cmsis_os.o
                0x000000000800b8d4                osMessageCreate
 .text.osMessagePut
                0x000000000800b8e0       0x50 build/cmsis_os.o
                0x000000000800b8e0                osMessagePut
 .text.osMessageGet
                0x000000000800b930       0x70 build/cmsis_os.o
                0x000000000800b930                osMessageGet
 .text.prvInsertBlockIntoFreeList
                0x000000000800b9a0       0x48 build/heap_4.o
 .text.pvPortMalloc
                0x000000000800b9e8       0xf8 build/heap_4.o
                0x000000000800b9e8                pvPortMalloc
 .text.vPortFree
                0x000000000800bae0       0x48 build/heap_4.o
                0x000000000800bae0                vPortFree
 .text.prvTaskExitError
                0x000000000800bb28       0x24 build/port.o
 *fill*         0x000000000800bb4c        0x4 
 .text.vPortStartFirstTask
                0x000000000800bb50       0x34 build/port.o
 .text.pxPortInitialiseStack
                0x000000000800bb84       0x20 build/port.o
                0x000000000800bb84                pxPortInitialiseStack
 .text.SVC_Handler
                0x000000000800bba4        0x2 build/port.o
                0x000000000800bba4                SVC_Handler
 *fill*         0x000000000800bba6        0x2 
 .text.xPortStartScheduler
                0x000000000800bba8       0x64 build/port.o
                0x000000000800bba8                xPortStartScheduler
 .text.vPortYield
                0x000000000800bc0c       0x18 build/port.o
                0x000000000800bc0c                vPortYield
 .text.vPortEnterCritical
                0x000000000800bc24       0x18 build/port.o
                0x000000000800bc24                vPortEnterCritical
 .text.vPortExitCritical
                0x000000000800bc3c       0x1c build/port.o
                0x000000000800bc3c                vPortExitCritical
 .text.ulSetInterruptMaskFromISR
                0x000000000800bc58        0x8 build/port.o
                0x000000000800bc58                ulSetInterruptMaskFromISR
 .text.vClearInterruptMaskFromISR
                0x000000000800bc60        0x6 build/port.o
                0x000000000800bc60                vClearInterruptMaskFromISR
 *fill*         0x000000000800bc66        0xa 
 .text.PendSV_Handler
                0x000000000800bc70       0x44 build/port.o
                0x000000000800bc70                PendSV_Handler
 .text.USBPD_TRACE_Add
                0x000000000800bcb4      0x124 build/usbpd_trace.o
                0x000000000800bcb4                USBPD_TRACE_Add
 .text.USBPD_TRACE_Init
                0x000000000800bdd8       0x14 build/usbpd_trace.o
                0x000000000800bdd8                USBPD_TRACE_Init
 .text.USBPD_TRACE_TX_Process
                0x000000000800bdec        0x8 build/usbpd_trace.o
                0x000000000800bdec                USBPD_TRACE_TX_Process
 .text.CAD_Check_HW
                0x000000000800bdf4       0xd0 build/usbpd_cad_hw_if.o
 .text.CAD_Init
                0x000000000800bec4       0x88 build/usbpd_cad_hw_if.o
                0x000000000800bec4                CAD_Init
 .text.CAD_Enter_ErrorRecovery
                0x000000000800bf4c       0x2c build/usbpd_cad_hw_if.o
                0x000000000800bf4c                CAD_Enter_ErrorRecovery
 .text.CAD_Set_ResistorRp
                0x000000000800bf78        0x4 build/usbpd_cad_hw_if.o
                0x000000000800bf78                CAD_Set_ResistorRp
 .text.CAD_StateMachine
                0x000000000800bf7c      0x358 build/usbpd_cad_hw_if.o
                0x000000000800bf7c                CAD_StateMachine
 .text.USBPD_HW_GetUSPDInstance
                0x000000000800c2d4        0x8 build/usbpd_hw.o
                0x000000000800c2d4                USBPD_HW_GetUSPDInstance
 .text.USBPD_HW_Init_DMARxInstance
                0x000000000800c2dc       0x58 build/usbpd_hw.o
                0x000000000800c2dc                USBPD_HW_Init_DMARxInstance
 .text.USBPD_HW_DeInit_DMARxInstance
                0x000000000800c334        0x2 build/usbpd_hw.o
                0x000000000800c334                USBPD_HW_DeInit_DMARxInstance
 *fill*         0x000000000800c336        0x2 
 .text.USBPD_HW_Init_DMATxInstance
                0x000000000800c338       0x58 build/usbpd_hw.o
                0x000000000800c338                USBPD_HW_Init_DMATxInstance
 .text.USBPD_HW_DeInit_DMATxInstance
                0x000000000800c390        0x2 build/usbpd_hw.o
                0x000000000800c390                USBPD_HW_DeInit_DMATxInstance
 .text.USBPD_HW_SetFRSSignalling
                0x000000000800c392        0x2 build/usbpd_hw.o
                0x000000000800c392                USBPD_HW_SetFRSSignalling
 .text.PORTx_IRQHandler
                0x000000000800c394      0x140 build/usbpd_hw_if_it.o
                0x000000000800c394                PORTx_IRQHandler
 .text.USBPD_PORT0_IRQHandler
                0x000000000800c4d4        0xa build/usbpd_hw_if_it.o
                0x000000000800c4d4                USBPD_PORT0_IRQHandler
 *fill*         0x000000000800c4de        0x2 
 .text.PHY_ResetCompleted
                0x000000000800c4e0       0x18 build/usbpd_phy.o
                0x000000000800c4e0                PHY_ResetCompleted
 .text.PHY_BistCompleted
                0x000000000800c4f8       0x18 build/usbpd_phy.o
                0x000000000800c4f8                PHY_BistCompleted
 .text.PHY_TxCompleted
                0x000000000800c510       0x18 build/usbpd_phy.o
                0x000000000800c510                PHY_TxCompleted
 .text.PHY_Rx_Reset
                0x000000000800c528        0x4 build/usbpd_phy.o
                0x000000000800c528                PHY_Rx_Reset
 .text.PHY_Rx_HardReset
                0x000000000800c52c       0x18 build/usbpd_phy.o
                0x000000000800c52c                PHY_Rx_HardReset
 .text.PHY_Rx_Completed
                0x000000000800c544       0x5c build/usbpd_phy.o
                0x000000000800c544                PHY_Rx_Completed
 .text.USBPD_PHY_Init
                0x000000000800c5a0       0x54 build/usbpd_phy.o
                0x000000000800c5a0                USBPD_PHY_Init
 .text.USBPD_PHY_GetRetryTimerValue
                0x000000000800c5f4        0x8 build/usbpd_phy.o
                0x000000000800c5f4                USBPD_PHY_GetRetryTimerValue
 .text.USBPD_PHY_Reset
                0x000000000800c5fc        0x2 build/usbpd_phy.o
                0x000000000800c5fc                USBPD_PHY_Reset
 .text.USBPD_PHY_ResetRequest
                0x000000000800c5fe        0xc build/usbpd_phy.o
                0x000000000800c5fe                USBPD_PHY_ResetRequest
 .text.USBPD_PHY_SendMessage
                0x000000000800c60a        0x8 build/usbpd_phy.o
                0x000000000800c60a                USBPD_PHY_SendMessage
 .text.USBPD_PHY_Send_BIST_Pattern
                0x000000000800c612        0xa build/usbpd_phy.o
                0x000000000800c612                USBPD_PHY_Send_BIST_Pattern
 .text.USBPD_PHY_ExitTransmit
                0x000000000800c61c        0xe build/usbpd_phy.o
                0x000000000800c61c                USBPD_PHY_ExitTransmit
 .text.USBPD_PHY_SetResistor_SinkTxNG
                0x000000000800c62a        0x8 build/usbpd_phy.o
                0x000000000800c62a                USBPD_PHY_SetResistor_SinkTxNG
 .text.USBPD_PHY_SetResistor_SinkTxOK
                0x000000000800c632        0x8 build/usbpd_phy.o
                0x000000000800c632                USBPD_PHY_SetResistor_SinkTxOK
 *fill*         0x000000000800c63a        0x2 
 .text.USBPD_PHY_SOPSupported
                0x000000000800c63c       0x10 build/usbpd_phy.o
                0x000000000800c63c                USBPD_PHY_SOPSupported
 .text.USBPD_PHY_IsResistor_SinkTxOk
                0x000000000800c64c        0x8 build/usbpd_phy.o
                0x000000000800c64c                USBPD_PHY_IsResistor_SinkTxOk
 .text.USBPD_PHY_FastRoleSwapSignalling
                0x000000000800c654        0x8 build/usbpd_phy.o
                0x000000000800c654                USBPD_PHY_FastRoleSwapSignalling
 .text.USBPD_PHY_EnableRX
                0x000000000800c65c        0x8 build/usbpd_phy.o
                0x000000000800c65c                USBPD_PHY_EnableRX
 .text.USBPD_PHY_DisableRX
                0x000000000800c664        0x8 build/usbpd_phy.o
                0x000000000800c664                USBPD_PHY_DisableRX
 .text.LL_APB2_GRP1_EnableClock.constprop.0
                0x000000000800c66c       0x1c build/usbpd_phy_hw_if.o
 .text.USBPD_HW_IF_GlobalHwInit
                0x000000000800c688       0x30 build/usbpd_phy_hw_if.o
                0x000000000800c688                USBPD_HW_IF_GlobalHwInit
 .text.USBPD_HW_IF_StopBISTMode2
                0x000000000800c6b8       0x28 build/usbpd_phy_hw_if.o
                0x000000000800c6b8                USBPD_HW_IF_StopBISTMode2
 .text.USBPD_HW_IF_SendBuffer
                0x000000000800c6e0       0xac build/usbpd_phy_hw_if.o
                0x000000000800c6e0                USBPD_HW_IF_SendBuffer
 .text.USBPD_HW_IF_Send_BIST_Pattern
                0x000000000800c78c       0x24 build/usbpd_phy_hw_if.o
                0x000000000800c78c                USBPD_HW_IF_Send_BIST_Pattern
 .text.USBPDM1_AssertRp
                0x000000000800c7b0       0xa0 build/usbpd_phy_hw_if.o
                0x000000000800c7b0                USBPDM1_AssertRp
 .text.USBPDM1_DeAssertRp
                0x000000000800c850        0x2 build/usbpd_phy_hw_if.o
                0x000000000800c850                USBPDM1_DeAssertRp
 *fill*         0x000000000800c852        0x2 
 .text.USBPDM1_AssertRd
                0x000000000800c854       0x8c build/usbpd_phy_hw_if.o
                0x000000000800c854                USBPDM1_AssertRd
 .text.USBPDM1_EnterErrorRecovery
                0x000000000800c8e0       0x50 build/usbpd_phy_hw_if.o
                0x000000000800c8e0                USBPDM1_EnterErrorRecovery
 .text.USBPDM1_DeAssertRd
                0x000000000800c930        0x2 build/usbpd_phy_hw_if.o
                0x000000000800c930                USBPDM1_DeAssertRd
 *fill*         0x000000000800c932        0x2 
 .text.USBPD_HW_IF_EnableRX
                0x000000000800c934       0x14 build/usbpd_phy_hw_if.o
                0x000000000800c934                USBPD_HW_IF_EnableRX
 .text.USBPD_HW_IF_DisableRX
                0x000000000800c948       0x14 build/usbpd_phy_hw_if.o
                0x000000000800c948                USBPD_HW_IF_DisableRX
 .text.HW_SignalAttachement
                0x000000000800c95c       0xf4 build/usbpd_phy_hw_if.o
                0x000000000800c95c                HW_SignalAttachement
 .text.HW_SignalDetachment
                0x000000000800ca50       0x5c build/usbpd_phy_hw_if.o
                0x000000000800ca50                HW_SignalDetachment
 .text.USBPD_HW_IF_SetResistor_SinkTxNG
                0x000000000800caac       0x20 build/usbpd_phy_hw_if.o
                0x000000000800caac                USBPD_HW_IF_SetResistor_SinkTxNG
 .text.USBPD_HW_IF_SetResistor_SinkTxOK
                0x000000000800cacc       0x18 build/usbpd_phy_hw_if.o
                0x000000000800cacc                USBPD_HW_IF_SetResistor_SinkTxOK
 .text.USBPD_HW_IF_IsResistor_SinkTxOk
                0x000000000800cae4       0x34 build/usbpd_phy_hw_if.o
                0x000000000800cae4                USBPD_HW_IF_IsResistor_SinkTxOk
 .text.USBPD_HW_IF_FastRoleSwapSignalling
                0x000000000800cb18       0x18 build/usbpd_phy_hw_if.o
                0x000000000800cb18                USBPD_HW_IF_FastRoleSwapSignalling
 .text.HW_IF_PWR_GetVoltage
                0x000000000800cb30        0x8 build/usbpd_pwr_hw_if.o
                0x000000000800cb30                HW_IF_PWR_GetVoltage
 .text.HW_IF_PWR_GetCurrent
                0x000000000800cb38        0x8 build/usbpd_pwr_hw_if.o
                0x000000000800cb38                HW_IF_PWR_GetCurrent
 .text.USBPD_TIM_Init
                0x000000000800cb40       0xd8 build/usbpd_timersserver.o
                0x000000000800cb40                USBPD_TIM_Init
 .text.USBPD_TIM_Start
                0x000000000800cc18       0x5c build/usbpd_timersserver.o
                0x000000000800cc18                USBPD_TIM_Start
 .text.USBPD_TIM_IsExpired
                0x000000000800cc74       0x2c build/usbpd_timersserver.o
                0x000000000800cc74                USBPD_TIM_IsExpired
 .text.UART_EndRxTransfer
                0x000000000800cca0       0x28 build/stm32g0xx_hal_uart.o
 .text.HAL_UART_TxCpltCallback
                0x000000000800ccc8        0x2 build/stm32g0xx_hal_uart.o
                0x000000000800ccc8                HAL_UART_TxCpltCallback
 .text.HAL_UART_ErrorCallback
                0x000000000800ccca        0x2 build/stm32g0xx_hal_uart.o
                0x000000000800ccca                HAL_UART_ErrorCallback
 .text.HAL_UART_IRQHandler
                0x000000000800cccc      0x1a0 build/stm32g0xx_hal_uart.o
                0x000000000800cccc                HAL_UART_IRQHandler
 .text.UART_DMAAbortOnError
                0x000000000800ce6c       0x16 build/stm32g0xx_hal_uart.o
 *fill*         0x000000000800ce82        0x2 
 .text.UART_SetConfig
                0x000000000800ce84      0x764 build/stm32g0xx_hal_uart.o
                0x000000000800ce84                UART_SetConfig
 .text.UART_AdvFeatureConfig
                0x000000000800d5e8       0xd0 build/stm32g0xx_hal_uart.o
                0x000000000800d5e8                UART_AdvFeatureConfig
 .text.UART_WaitOnFlagUntilTimeout
                0x000000000800d6b8       0x64 build/stm32g0xx_hal_uart.o
                0x000000000800d6b8                UART_WaitOnFlagUntilTimeout
 .text.UART_CheckIdleState
                0x000000000800d71c       0x68 build/stm32g0xx_hal_uart.o
                0x000000000800d71c                UART_CheckIdleState
 .text.HAL_UART_Init
                0x000000000800d784       0x68 build/stm32g0xx_hal_uart.o
                0x000000000800d784                HAL_UART_Init
 .text.UARTEx_SetNbDataToProcess
                0x000000000800d7ec       0x68 build/stm32g0xx_hal_uart_ex.o
 .text.HAL_UARTEx_WakeupCallback
                0x000000000800d854        0x2 build/stm32g0xx_hal_uart_ex.o
                0x000000000800d854                HAL_UARTEx_WakeupCallback
 .text.HAL_UARTEx_RxFifoFullCallback
                0x000000000800d856        0x2 build/stm32g0xx_hal_uart_ex.o
                0x000000000800d856                HAL_UARTEx_RxFifoFullCallback
 .text.HAL_UARTEx_TxFifoEmptyCallback
                0x000000000800d858        0x2 build/stm32g0xx_hal_uart_ex.o
                0x000000000800d858                HAL_UARTEx_TxFifoEmptyCallback
 *fill*         0x000000000800d85a        0x2 
 .text.HAL_UARTEx_DisableFifoMode
                0x000000000800d85c       0x38 build/stm32g0xx_hal_uart_ex.o
                0x000000000800d85c                HAL_UARTEx_DisableFifoMode
 .text.HAL_UARTEx_SetTxFifoThreshold
                0x000000000800d894       0x44 build/stm32g0xx_hal_uart_ex.o
                0x000000000800d894                HAL_UARTEx_SetTxFifoThreshold
 .text.HAL_UARTEx_SetRxFifoThreshold
                0x000000000800d8d8       0x48 build/stm32g0xx_hal_uart_ex.o
                0x000000000800d8d8                HAL_UARTEx_SetRxFifoThreshold
 .text.LL_LPUART_Init
                0x000000000800d920       0xac build/stm32g0xx_ll_lpuart.o
                0x000000000800d920                LL_LPUART_Init
 .text.TLV_init_encode
                0x000000000800d9cc       0x48 build/data_struct_tlv.o
                0x000000000800d9cc                TLV_init_encode
 .text.TLV_add  0x000000000800da14       0xa4 build/data_struct_tlv.o
                0x000000000800da14                TLV_add
 .text.TLV_addValue
                0x000000000800dab8       0x7c build/data_struct_tlv.o
                0x000000000800dab8                TLV_addValue
 .text.TLV_deinit_encode
                0x000000000800db34        0xc build/data_struct_tlv.o
                0x000000000800db34                TLV_deinit_encode
 .text.TLV_init_decode
                0x000000000800db40       0x28 build/data_struct_tlv.o
                0x000000000800db40                TLV_init_decode
 .text.TLV_get  0x000000000800db68       0x46 build/data_struct_tlv.o
                0x000000000800db68                TLV_get
 .text.TLV_deinit_decode
                0x000000000800dbae        0x8 build/data_struct_tlv.o
                0x000000000800dbae                TLV_deinit_decode
 .text.TLV_get_string_length
                0x000000000800dbb6       0x1e build/data_struct_tlv.o
                0x000000000800dbb6                TLV_get_string_length
 .text.SaveSettingsInFlash
                0x000000000800dbd4       0x3a build/bsp_gui.o
 *fill*         0x000000000800dc0e        0x2 
 .text.BSP_GUI_LoadDataFromFlash
                0x000000000800dc10       0xc0 build/bsp_gui.o
                0x000000000800dc10                BSP_GUI_LoadDataFromFlash
 .text.BSP_GUI_SaveDataInFlash
                0x000000000800dcd0       0xe4 build/bsp_gui.o
                0x000000000800dcd0                BSP_GUI_SaveDataInFlash
 .text.GUI_SaveInfo
                0x000000000800ddb4       0xb0 build/gui_api.o
                0x000000000800ddb4                GUI_SaveInfo
 .text.GUI_PostNotificationMessage
                0x000000000800de64       0x58 build/gui_api.o
                0x000000000800de64                GUI_PostNotificationMessage
 .text.Send_DpmConfigSetCnf.constprop.0
                0x000000000800debc      0x3d4 build/gui_api.o
 .text.Send_DpmRegisterReadCnf.isra.0.constprop.0
                0x000000000800e290       0x28 build/gui_api.o
 .text.Send_DpmConfigGetRej.isra.0.constprop.0
                0x000000000800e2b8       0x2c build/gui_api.o
 .text.GUI_Init
                0x000000000800e2e4       0x8c build/gui_api.o
                0x000000000800e2e4                GUI_Init
 .text.GUI_Start
                0x000000000800e370       0x10 build/gui_api.o
                0x000000000800e370                GUI_Start
 .text.GUI_TimerCounter
                0x000000000800e380       0x24 build/gui_api.o
                0x000000000800e380                GUI_TimerCounter
 .text.GUI_GetMessage
                0x000000000800e3a4      0x124 build/gui_api.o
                0x000000000800e3a4                GUI_GetMessage
 .text.GUI_CALLBACK_RX
                0x000000000800e4c8       0x20 build/gui_api.o
 .text.GUI_SendNotification
                0x000000000800e4e8      0x430 build/gui_api.o
                0x000000000800e4e8                GUI_SendNotification
 .text.GUI_FormatAndSendNotification
                0x000000000800e918       0x26 build/gui_api.o
                0x000000000800e918                GUI_FormatAndSendNotification
 *fill*         0x000000000800e93e        0x2 
 .text.GUI_SendAnswer
                0x000000000800e940      0x97c build/gui_api.o
                0x000000000800e940                GUI_SendAnswer
 .text.GUI_RXProcess
                0x000000000800f2bc       0x58 build/gui_api.o
                0x000000000800f2bc                GUI_RXProcess
 .text.TaskGUI  0x000000000800f314       0xa8 build/gui_api.o
 .text.TRACER_EMB_WakeUpProcess
                0x000000000800f3bc        0x8 build/gui_api.o
                0x000000000800f3bc                TRACER_EMB_WakeUpProcess
 .text.TRACER_EMB_IRQHandlerDMA
                0x000000000800f3c4        0x8 build/tracer_emb.o
                0x000000000800f3c4                TRACER_EMB_IRQHandlerDMA
 .text.TRACER_EMB_IRQHandlerUSART
                0x000000000800f3cc        0x8 build/tracer_emb.o
                0x000000000800f3cc                TRACER_EMB_IRQHandlerUSART
 .text.TRACER_EMB_WriteData
                0x000000000800f3d4       0x10 build/tracer_emb.o
                0x000000000800f3d4                TRACER_EMB_WriteData
 .text.TRACER_EMB_StartRX
                0x000000000800f3e4        0xc build/tracer_emb.o
                0x000000000800f3e4                TRACER_EMB_StartRX
 .text.TRACER_EMB_Lock
                0x000000000800f3f0       0x18 build/tracer_emb.o
                0x000000000800f3f0                TRACER_EMB_Lock
 .text.TRACER_EMB_UnLock
                0x000000000800f408       0x18 build/tracer_emb.o
                0x000000000800f408                TRACER_EMB_UnLock
 .text.TRACER_EMB_AllocateBufer
                0x000000000800f420       0x4c build/tracer_emb.o
                0x000000000800f420                TRACER_EMB_AllocateBufer
 .text.TRACER_EMB_LowPowerInit
                0x000000000800f46c        0x2 build/tracer_emb.o
                0x000000000800f46c                TRACER_EMB_LowPowerInit
 *fill*         0x000000000800f46e        0x2 
 .text.TRACER_EMB_Init
                0x000000000800f470       0x20 build/tracer_emb.o
                0x000000000800f470                TRACER_EMB_Init
 .text.TRACER_EMB_LowPowerSendData
                0x000000000800f490        0x2 build/tracer_emb.o
                0x000000000800f490                TRACER_EMB_LowPowerSendData
 *fill*         0x000000000800f492        0x2 
 .text.TRACER_EMB_TX_Process
                0x000000000800f494       0x6c build/tracer_emb.o
                0x000000000800f494                TRACER_EMB_TX_Process
 .text.TRACER_EMB_LowPowerSendDataComplete
                0x000000000800f500        0x2 build/tracer_emb.o
                0x000000000800f500                TRACER_EMB_LowPowerSendDataComplete
 *fill*         0x000000000800f502        0x2 
 .text.TRACER_EMB_CALLBACK_TX
                0x000000000800f504       0x30 build/tracer_emb.o
                0x000000000800f504                TRACER_EMB_CALLBACK_TX
 .text.TRACER_EMB_Add
                0x000000000800f534       0x40 build/tracer_emb.o
                0x000000000800f534                TRACER_EMB_Add
 .text.LL_APB1_GRP1_EnableClock.constprop.0
                0x000000000800f574       0x20 build/tracer_emb_hw.o
 .text.HW_TRACER_EMB_Init
                0x000000000800f594      0x174 build/tracer_emb_hw.o
                0x000000000800f594                HW_TRACER_EMB_Init
 .text.HW_TRACER_EMB_RegisterRxCallback
                0x000000000800f708       0x10 build/tracer_emb_hw.o
                0x000000000800f708                HW_TRACER_EMB_RegisterRxCallback
 .text.HW_TRACER_EMB_StartRX
                0x000000000800f718       0x44 build/tracer_emb_hw.o
                0x000000000800f718                HW_TRACER_EMB_StartRX
 .text.HW_TRACER_EMB_IRQHandlerDMA
                0x000000000800f75c       0x24 build/tracer_emb_hw.o
                0x000000000800f75c                HW_TRACER_EMB_IRQHandlerDMA
 .text.HW_TRACER_EMB_IRQHandlerUSART
                0x000000000800f780       0xd8 build/tracer_emb_hw.o
                0x000000000800f780                HW_TRACER_EMB_IRQHandlerUSART
 .text.HW_TRACER_EMB_SendData
                0x000000000800f858       0x50 build/tracer_emb_hw.o
                0x000000000800f858                HW_TRACER_EMB_SendData
 .text.Reset_Handler
                0x000000000800f8a8       0x50 build/startup_stm32g071xx.o
                0x000000000800f8a8                Reset_Handler
 .text.Default_Handler
                0x000000000800f8f8        0x2 build/startup_stm32g071xx.o
                0x000000000800f8f8                TIM1_CC_IRQHandler
                0x000000000800f8f8                ADC1_COMP_IRQHandler
                0x000000000800f8f8                PVD_IRQHandler
                0x000000000800f8f8                I2C1_IRQHandler
                0x000000000800f8f8                TIM7_LPTIM2_IRQHandler
                0x000000000800f8f8                RTC_TAMP_IRQHandler
                0x000000000800f8f8                SPI1_IRQHandler
                0x000000000800f8f8                EXTI2_3_IRQHandler
                0x000000000800f8f8                I2C2_IRQHandler
                0x000000000800f8f8                TIM17_IRQHandler
                0x000000000800f8f8                TIM16_IRQHandler
                0x000000000800f8f8                TIM3_IRQHandler
                0x000000000800f8f8                EXTI4_15_IRQHandler
                0x000000000800f8f8                RCC_IRQHandler
                0x000000000800f8f8                Default_Handler
                0x000000000800f8f8                CEC_IRQHandler
                0x000000000800f8f8                TIM14_IRQHandler
                0x000000000800f8f8                TIM15_IRQHandler
                0x000000000800f8f8                EXTI0_1_IRQHandler
                0x000000000800f8f8                SPI2_IRQHandler
                0x000000000800f8f8                TIM6_DAC_LPTIM1_IRQHandler
                0x000000000800f8f8                WWDG_IRQHandler
                0x000000000800f8f8                TIM2_IRQHandler
                0x000000000800f8f8                USART2_IRQHandler
                0x000000000800f8f8                FLASH_IRQHandler
                0x000000000800f8f8                USART1_IRQHandler
                0x000000000800f8f8                TIM1_BRK_UP_TRG_COM_IRQHandler
 *(.glue_7)
 .glue_7        0x000000000800f8fa        0x0 linker stubs
 *(.glue_7t)
 .glue_7t       0x000000000800f8fa        0x0 linker stubs
 *(.eh_frame)
 *fill*         0x000000000800f8fa        0x2 
 .eh_frame      0x000000000800f8fc        0x0 /usr/lib/gcc/arm-none-eabi/9.2.1/thumb/v6-m/nofp/crtbegin.o
 *(.init)
 .init          0x000000000800f8fc        0x4 /usr/lib/gcc/arm-none-eabi/9.2.1/thumb/v6-m/nofp/crti.o
                0x000000000800f8fc                _init
 .init          0x000000000800f900        0x8 /usr/lib/gcc/arm-none-eabi/9.2.1/thumb/v6-m/nofp/crtn.o
 *(.fini)
 .fini          0x000000000800f908        0x4 /usr/lib/gcc/arm-none-eabi/9.2.1/thumb/v6-m/nofp/crti.o
                0x000000000800f908                _fini
 .fini          0x000000000800f90c        0x8 /usr/lib/gcc/arm-none-eabi/9.2.1/thumb/v6-m/nofp/crtn.o
                0x000000000800f914                . = ALIGN (0x4)
                0x000000000800f914                _etext = .

.vfp11_veneer   0x000000000800f914        0x0
 .vfp11_veneer  0x000000000800f914        0x0 linker stubs

.v4_bx          0x000000000800f914        0x0
 .v4_bx         0x000000000800f914        0x0 linker stubs

.iplt           0x000000000800f914        0x0
 .iplt          0x000000000800f914        0x0 /usr/lib/gcc/arm-none-eabi/9.2.1/thumb/v6-m/nofp/crtbegin.o

.RamFunc        0x000000000800f914       0x38
 .RamFunc       0x000000000800f914       0x38 build/stm32g0xx_hal_flash.o

.rodata         0x000000000800f94c      0x2f8
                0x000000000800f94c                . = ALIGN (0x4)
 *(.rodata)
 .rodata        0x000000000800f94c       0x14 build/main.o
 .rodata        0x000000000800f960        0x8 build/stm32g0xx_hal_uart_ex.o
 .rodata        0x000000000800f968       0x1c build/gui_api.o
 .rodata        0x000000000800f984       0x10 Middlewares/ST/STM32_USBPD_Library/Core/lib/USBPDCORE_PD3_FULL_CM0PLUS_wc32.a(usbpd_pe.o)
 .rodata        0x000000000800f994        0x2 Middlewares/ST/STM32_USBPD_Library/Core/lib/USBPDCORE_PD3_FULL_CM0PLUS_wc32.a(usbpd_prl.o)
 *(.rodata*)
 .rodata.str1.1
                0x000000000800f996        0xc build/main.o
 .rodata.CHANNEL_OFFSET_TAB
                0x000000000800f9a2        0x7 build/stm32g0xx_ll_dma.o
 *fill*         0x000000000800f9a9        0x3 
 .rodata.AHBPrescTable
                0x000000000800f9ac       0x40 build/system_stm32g0xx.o
                0x000000000800f9ac                AHBPrescTable
 .rodata.APBPrescTable
                0x000000000800f9ec       0x20 build/system_stm32g0xx.o
                0x000000000800f9ec                APBPrescTable
 .rodata.HWBoardVersionName
                0x000000000800fa0c        0xb build/usbpd.o
                0x000000000800fa0c                HWBoardVersionName
 .rodata.PDTypeName
                0x000000000800fa17        0x5 build/usbpd.o
                0x000000000800fa17                PDTypeName
 .rodata.USBPD_DPM_UserCableDetection.str1.1
                0x000000000800fa1c       0x2a build/usbpd_dpm_user.o
 .rodata.USBPD_DPM_HardReset.str1.1
                0x000000000800fa46       0x21 build/usbpd_dpm_user.o
 .rodata.USBPD_DPM_GetDataInfo.str1.1
                0x000000000800fa67       0x26 build/usbpd_dpm_user.o
 .rodata.USBPD_DPM_SetDataInfo.str1.1
                0x000000000800fa8d       0x26 build/usbpd_dpm_user.o
 .rodata.USBPD_DPM_RequestMessageRequest.str1.1
                0x000000000800fab3       0x2d build/usbpd_dpm_user.o
 .rodata.BSP_PWR_VBUSInit.str1.1
                0x000000000800fae0       0x1e build/usbpd_pwr_user.o
 .rodata.str1.1
                0x000000000800fafe       0x15 build/usbpd_dpm_core.o
 *fill*         0x000000000800fb13        0x1 
 .rodata.CAD_cbs.11307
                0x000000000800fb14        0x8 build/usbpd_dpm_core.o
 .rodata.dpmCallbacks.11306
                0x000000000800fb1c       0x40 build/usbpd_dpm_core.o
 .rodata.os_messageQ_def_queueCAD
                0x000000000800fb5c        0x8 build/usbpd_dpm_core.o
                0x000000000800fb5c                os_messageQ_def_queueCAD
 .rodata.os_messageQ_def_queuePE
                0x000000000800fb64        0x8 build/usbpd_dpm_core.o
                0x000000000800fb64                os_messageQ_def_queuePE
 .rodata.os_messageQ_def_queueTRACE
                0x000000000800fb6c        0x8 build/usbpd_dpm_core.o
                0x000000000800fb6c                os_messageQ_def_queueTRACE
 .rodata.os_thread_def_CAD
                0x000000000800fb74       0x14 build/usbpd_dpm_core.o
                0x000000000800fb74                os_thread_def_CAD
 .rodata.os_thread_def_PE_0
                0x000000000800fb88       0x14 build/usbpd_dpm_core.o
                0x000000000800fb88                os_thread_def_PE_0
 .rodata.os_thread_def_PE_1
                0x000000000800fb9c       0x14 build/usbpd_dpm_core.o
                0x000000000800fb9c                os_thread_def_PE_1
 .rodata.os_thread_def_TRA_TX
                0x000000000800fbb0       0x14 build/usbpd_dpm_core.o
                0x000000000800fbb0                os_thread_def_TRA_TX
 .rodata.vTaskStartScheduler.str1.1
                0x000000000800fbc4        0x5 build/tasks.o
 .rodata.CSWTCH.256
                0x000000000800fbc9        0x3 build/stm32g0xx_hal_uart.o
 .rodata.CSWTCH.257
                0x000000000800fbcc        0xd build/stm32g0xx_hal_uart.o
 .rodata.UARTEx_SetNbDataToProcess.str1.1
                0x000000000800fbd9        0x9 build/stm32g0xx_hal_uart_ex.o
 .rodata.LPUART_PRESCALER_TAB
                0x000000000800fbe2       0x18 build/stm32g0xx_ll_lpuart.o
 .rodata.str1.1
                0x000000000800fbfa        0x4 build/gui_api.o
 .rodata.GUI_SendAnswer.str1.1
                0x000000000800fbfe        0x8 build/gui_api.o
 *fill*         0x000000000800fc06        0x2 
 .rodata.str1.4
                0x000000000800fc08       0x13 /usr/lib/gcc/arm-none-eabi/9.2.1/../../../arm-none-eabi/lib/thumb/v6-m/nofp/libc_nano.a(lib_a-nano-svfprintf.o)
 *fill*         0x000000000800fc1b        0x1 
 .rodata.str1.4
                0x000000000800fc1c       0x25 /usr/lib/gcc/arm-none-eabi/9.2.1/../../../arm-none-eabi/lib/thumb/v6-m/nofp/libc_nano.a(lib_a-nano-vfprintf_i.o)
                0x000000000800fc44                . = ALIGN (0x4)
 *fill*         0x000000000800fc41        0x3 

.ARM.extab
 *(.ARM.extab* .gnu.linkonce.armextab.*)

.ARM            0x000000000800fc44        0x8
                0x000000000800fc44                __exidx_start = .
 *(.ARM.exidx*)
 .ARM.exidx     0x000000000800fc44        0x8 /usr/lib/gcc/arm-none-eabi/9.2.1/thumb/v6-m/nofp/libgcc.a(_udivmoddi4.o)
                0x000000000800fc4c                __exidx_end = .

.rel.dyn        0x000000000800fc4c        0x0
 .rel.iplt      0x000000000800fc4c        0x0 /usr/lib/gcc/arm-none-eabi/9.2.1/thumb/v6-m/nofp/crtbegin.o

.preinit_array  0x000000000800fc4c        0x0
                0x000000000800fc4c                PROVIDE (__preinit_array_start = .)
 *(.preinit_array*)
                0x000000000800fc4c                PROVIDE (__preinit_array_end = .)

.init_array     0x000000000800fc4c        0x4
                0x000000000800fc4c                PROVIDE (__init_array_start = .)
 *(SORT_BY_NAME(.init_array.*))
 *(.init_array*)
 .init_array    0x000000000800fc4c        0x4 /usr/lib/gcc/arm-none-eabi/9.2.1/thumb/v6-m/nofp/crtbegin.o
                0x000000000800fc50                PROVIDE (__init_array_end = .)

.fini_array     0x000000000800fc50        0x4
                0x000000000800fc50                PROVIDE (__fini_array_start = .)
 *(SORT_BY_NAME(.fini_array.*))
 *(.fini_array*)
 .fini_array    0x000000000800fc50        0x4 /usr/lib/gcc/arm-none-eabi/9.2.1/thumb/v6-m/nofp/crtbegin.o
                0x000000000800fc54                PROVIDE (__fini_array_end = .)
                0x000000000800fc54                _sidata = LOADADDR (.data)

.data           0x0000000020000000      0x110 load address 0x000000000800fc54
                0x0000000020000000                . = ALIGN (0x4)
                0x0000000020000000                _sdata = .
 *(.data)
 .data          0x0000000020000000       0x64 /usr/lib/gcc/arm-none-eabi/9.2.1/../../../arm-none-eabi/lib/thumb/v6-m/nofp/libc_nano.a(lib_a-impure.o)
                0x0000000020000000                _impure_ptr
 *(.data*)
 .data.uwTickFreq
                0x0000000020000064        0x4 build/stm32g0xx_hal.o
                0x0000000020000064                uwTickFreq
 .data.uwTickPrio
                0x0000000020000068        0x4 build/stm32g0xx_hal.o
                0x0000000020000068                uwTickPrio
 .data.SystemCoreClock
                0x000000002000006c        0x4 build/system_stm32g0xx.o
                0x000000002000006c                SystemCoreClock
 .data.PORT0_PDO_ListSNK
                0x0000000020000070       0x1c build/usbpd_pwr_if.o
                0x0000000020000070                PORT0_PDO_ListSNK
 .data.DPM_Settings
                0x000000002000008c        0xc build/usbpd_dpm_core.o
                0x000000002000008c                DPM_Settings
 .data.uxCriticalNesting
                0x0000000020000098        0x4 build/port.o
 .data.DPM_USER_Settings
                0x000000002000009c       0x70 build/gui_api.o
                0x000000002000009c                DPM_USER_Settings
 .data.GUI_NbPDO
                0x000000002000010c        0x4 build/gui_api.o
                0x000000002000010c                GUI_NbPDO
                0x0000000020000110                . = ALIGN (0x4)
                0x0000000020000110                _edata = .

.tm_clone_table
                0x0000000020000110        0x0 load address 0x000000000800fd64
 .tm_clone_table
                0x0000000020000110        0x0 /usr/lib/gcc/arm-none-eabi/9.2.1/thumb/v6-m/nofp/crtbegin.o
 .tm_clone_table
                0x0000000020000110        0x0 /usr/lib/gcc/arm-none-eabi/9.2.1/thumb/v6-m/nofp/crtend.o

.igot.plt       0x0000000020000110        0x0 load address 0x000000000800fd64
 .igot.plt      0x0000000020000110        0x0 /usr/lib/gcc/arm-none-eabi/9.2.1/thumb/v6-m/nofp/crtbegin.o
                0x0000000020000110                . = ALIGN (0x4)

.bss            0x0000000020000110     0x1e04 load address 0x000000000800fd64
                0x0000000020000110                _sbss = .
                0x0000000020000110                __bss_start__ = _sbss
 *(.bss)
 .bss           0x0000000020000110       0x1c /usr/lib/gcc/arm-none-eabi/9.2.1/thumb/v6-m/nofp/crtbegin.o
 .bss           0x000000002000012c        0x8 /usr/lib/gcc/arm-none-eabi/9.2.1/../../../arm-none-eabi/lib/thumb/v6-m/nofp/libc_nano.a(lib_a-nano-mallocr.o)
                0x000000002000012c                __malloc_free_list
                0x0000000020000130                __malloc_sbrk_start
 .bss           0x0000000020000134        0x4 /usr/lib/gcc/arm-none-eabi/9.2.1/../../../arm-none-eabi/lib/thumb/v6-m/nofp/libnosys.a(sbrk.o)
 .bss           0x0000000020000138        0xc Middlewares/ST/STM32_USBPD_Library/Core/lib/USBPDCORE_PD3_FULL_CM0PLUS_wc32.a(usbpd_cad.o)
 .bss           0x0000000020000144       0x14 Middlewares/ST/STM32_USBPD_Library/Core/lib/USBPDCORE_PD3_FULL_CM0PLUS_wc32.a(usbpd_pe.o)
                0x0000000020000150                USBPD_Trace
                0x0000000020000154                Crc
 .bss           0x0000000020000158        0xc Middlewares/ST/STM32_USBPD_Library/Core/lib/USBPDCORE_PD3_FULL_CM0PLUS_wc32.a(usbpd_prl.o)
 *(.bss*)
 .bss.pFlash    0x0000000020000164       0x18 build/stm32g0xx_hal_flash.o
                0x0000000020000164                pFlash
 .bss.DPM_GUI_FormatAndSendNotification
                0x000000002000017c        0x4 build/usbpd_dpm_user.o
                0x000000002000017c                DPM_GUI_FormatAndSendNotification
 .bss.DPM_GUI_PostNotificationMessage
                0x0000000020000180        0x4 build/usbpd_dpm_user.o
                0x0000000020000180                DPM_GUI_PostNotificationMessage
 .bss.DPM_GUI_SaveInfo
                0x0000000020000184        0x4 build/usbpd_dpm_user.o
                0x0000000020000184                DPM_GUI_SaveInfo
 .bss.CADQueueId
                0x0000000020000188        0x4 build/usbpd_dpm_core.o
 .bss.DPM_Thread_Table
                0x000000002000018c        0x8 build/usbpd_dpm_core.o
 .bss.PEQueueId
                0x0000000020000194        0x4 build/usbpd_dpm_core.o
 .bss.TraceQueueId
                0x0000000020000198        0x4 build/usbpd_dpm_core.o
 .bss.pxCurrentTCB
                0x000000002000019c        0x4 build/tasks.o
                0x000000002000019c                pxCurrentTCB
 .bss.pxDelayedTaskList
                0x00000000200001a0        0x4 build/tasks.o
 .bss.pxOverflowDelayedTaskList
                0x00000000200001a4        0x4 build/tasks.o
 .bss.pxReadyTasksLists
                0x00000000200001a8       0x8c build/tasks.o
 .bss.uxCurrentNumberOfTasks
                0x0000000020000234        0x4 build/tasks.o
 .bss.uxDeletedTasksWaitingCleanUp
                0x0000000020000238        0x4 build/tasks.o
 .bss.uxPendedTicks
                0x000000002000023c        0x4 build/tasks.o
 .bss.uxSchedulerSuspended
                0x0000000020000240        0x4 build/tasks.o
 .bss.uxTaskNumber
                0x0000000020000244        0x4 build/tasks.o
 .bss.uxTopReadyPriority
                0x0000000020000248        0x4 build/tasks.o
 .bss.xDelayedTaskList1
                0x000000002000024c       0x14 build/tasks.o
 .bss.xDelayedTaskList2
                0x0000000020000260       0x14 build/tasks.o
 .bss.xIdleTaskHandle
                0x0000000020000274        0x4 build/tasks.o
 .bss.xNextTaskUnblockTime
                0x0000000020000278        0x4 build/tasks.o
 .bss.xNumOfOverflows
                0x000000002000027c        0x4 build/tasks.o
 .bss.xPendingReadyList
                0x0000000020000280       0x14 build/tasks.o
 .bss.xSchedulerRunning
                0x0000000020000294        0x4 build/tasks.o
 .bss.xSuspendedTaskList
                0x0000000020000298       0x14 build/tasks.o
 .bss.xTasksWaitingTermination
                0x00000000200002ac       0x14 build/tasks.o
 .bss.xTickCount
                0x00000000200002c0        0x4 build/tasks.o
 .bss.xYieldPending
                0x00000000200002c4        0x4 build/tasks.o
 .bss.pxEnd     0x00000000200002c8        0x4 build/heap_4.o
 .bss.ucHeap    0x00000000200002cc     0x1388 build/heap_4.o
 .bss.xBlockAllocatedBit
                0x0000000020001654        0x4 build/heap_4.o
 .bss.xFreeBytesRemaining
                0x0000000020001658        0x4 build/heap_4.o
 .bss.xMinimumEverFreeBytesRemaining
                0x000000002000165c        0x4 build/heap_4.o
 .bss.xStart    0x0000000020001660        0x8 build/heap_4.o
 .bss.CAD_HW_Handles
                0x0000000020001668        0xc build/usbpd_cad_hw_if.o
 .bss.ovrflag.10087
                0x0000000020001674        0x1 build/usbpd_hw_if_it.o
 *fill*         0x0000000020001675        0x3 
 .bss.PHY_Ports
                0x0000000020001678        0x8 build/usbpd_phy.o
 .bss.GUI_State
                0x0000000020001680        0x1 build/gui_api.o
                0x0000000020001680                GUI_State
 .bss.Rstate.13476
                0x0000000020001681        0x1 build/gui_api.o
 .bss.counter.13467
                0x0000000020001682        0x2 build/gui_api.o
 .bss.currentSize.13469
                0x0000000020001684        0x2 build/gui_api.o
 .bss.cursor.13468
                0x0000000020001686        0x2 build/gui_api.o
 .bss.pCB_GetCurrent
                0x0000000020001688        0x4 build/gui_api.o
                0x0000000020001688                pCB_GetCurrent
 .bss.pCB_GetVoltage
                0x000000002000168c        0x4 build/gui_api.o
                0x000000002000168c                pCB_GetVoltage
 .bss.pCB_HWBoardVersion
                0x0000000020001690        0x4 build/gui_api.o
                0x0000000020001690                pCB_HWBoardVersion
 .bss.pCB_HWPDType
                0x0000000020001694        0x4 build/gui_api.o
                0x0000000020001694                pCB_HWPDType
 .bss.Counter   0x0000000020001698        0x4 build/tracer_emb.o
 .bss.PtrDataTx
                0x000000002000169c      0x400 build/tracer_emb.o
 .bss.PtrTx_Read
                0x0000000020001a9c        0x4 build/tracer_emb.o
 .bss.PtrTx_Write
                0x0000000020001aa0        0x4 build/tracer_emb.o
 .bss.SizeSent  0x0000000020001aa4        0x4 build/tracer_emb.o
 .bss.fptr_rx   0x0000000020001aa8        0x4 build/tracer_emb_hw.o
 *(COMMON)
 COMMON         0x0000000020001aac      0x1b4 build/main.o
                0x0000000020001aac                defaultTaskHandle
                0x0000000020001ab0                hlpuart1
                0x0000000020001b3c                hadc1
                0x0000000020001ba0                adc
                0x0000000020001ba4                hdma_adc1
                0x0000000020001c00                hdma_lpuart1_tx
                0x0000000020001c5c                vin
 COMMON         0x0000000020001c60        0x4 build/stm32g0xx_hal.o
                0x0000000020001c60                uwTick
 COMMON         0x0000000020001c64        0x4 build/usbpd_dpm_core.o
                0x0000000020001c64                DPM_Params
 COMMON         0x0000000020001c68       0x40 build/usbpd_phy_hw_if.o
                0x0000000020001c68                Ports
 COMMON         0x0000000020001ca8      0x268 build/gui_api.o
                0x0000000020001ca8                Processed
                0x0000000020001da8                GUI_TimerMeasReport
                0x0000000020001daa                GUI_USER_Params
                0x0000000020001db0                GUIMsgBox
                0x0000000020001db4                PtrDataRx
                0x0000000020001eb4                GUI_OriginalSettings
                0x0000000020001eb8                GUI_SaveInformation
 COMMON         0x0000000020001f10        0x4 /usr/lib/gcc/arm-none-eabi/9.2.1/../../../arm-none-eabi/lib/thumb/v6-m/nofp/libc_nano.a(lib_a-reent.o)
                0x0000000020001f10                errno
                0x0000000020001f14                . = ALIGN (0x4)
                0x0000000020001f14                _ebss = .
                0x0000000020001f14                __bss_end__ = _ebss

._user_heap_stack
                0x0000000020001f14      0x604 load address 0x000000000800fd64
                0x0000000020001f18                . = ALIGN (0x8)
 *fill*         0x0000000020001f14        0x4 
                0x0000000020001f18                PROVIDE (end = .)
                [!provide]                        PROVIDE (_end = .)
                0x0000000020002118                . = (. + _Min_Heap_Size)
 *fill*         0x0000000020001f18      0x200 
                0x0000000020002518                . = (. + _Min_Stack_Size)
 *fill*         0x0000000020002118      0x400 
                0x0000000020002518                . = ALIGN (0x8)

/DISCARD/
 libc.a(*)
 libm.a(*)
 libgcc.a(*)

.ARM.attributes
                0x0000000000000000       0x2e
 *(.ARM.attributes)
 .ARM.attributes
                0x0000000000000000       0x1e /usr/lib/gcc/arm-none-eabi/9.2.1/thumb/v6-m/nofp/crti.o
 .ARM.attributes
                0x000000000000001e       0x2c /usr/lib/gcc/arm-none-eabi/9.2.1/thumb/v6-m/nofp/crtbegin.o
 .ARM.attributes
                0x000000000000004a       0x2c build/main.o
 .ARM.attributes
                0x0000000000000076       0x2c build/stm32g0xx_it.o
 .ARM.attributes
                0x00000000000000a2       0x2c build/stm32g0xx_hal_msp.o
 .ARM.attributes
                0x00000000000000ce       0x2c build/stm32g0xx_hal_gpio.o
 .ARM.attributes
                0x00000000000000fa       0x2c build/stm32g0xx_hal_adc.o
 .ARM.attributes
                0x0000000000000126       0x2c build/stm32g0xx_hal_adc_ex.o
 .ARM.attributes
                0x0000000000000152       0x2c build/stm32g0xx_hal_rcc.o
 .ARM.attributes
                0x000000000000017e       0x2c build/stm32g0xx_hal_rcc_ex.o
 .ARM.attributes
                0x00000000000001aa       0x2c build/stm32g0xx_ll_rcc.o
 .ARM.attributes
                0x00000000000001d6       0x2c build/stm32g0xx_hal_flash.o
 .ARM.attributes
                0x0000000000000202       0x2c build/stm32g0xx_hal_flash_ex.o
 .ARM.attributes
                0x000000000000022e       0x2c build/stm32g0xx_hal_dma.o
 .ARM.attributes
                0x000000000000025a       0x2c build/stm32g0xx_hal_pwr_ex.o
 .ARM.attributes
                0x0000000000000286       0x2c build/stm32g0xx_hal_cortex.o
 .ARM.attributes
                0x00000000000002b2       0x2c build/stm32g0xx_hal.o
 .ARM.attributes
                0x00000000000002de       0x2c build/stm32g0xx_ll_ucpd.o
 .ARM.attributes
                0x000000000000030a       0x2c build/stm32g0xx_ll_dma.o
 .ARM.attributes
                0x0000000000000336       0x2c build/system_stm32g0xx.o
 .ARM.attributes
                0x0000000000000362       0x2c build/usbpd.o
 .ARM.attributes
                0x000000000000038e       0x2c build/usbpd_dpm_user.o
 .ARM.attributes
                0x00000000000003ba       0x2c build/usbpd_pwr_user.o
 .ARM.attributes
                0x00000000000003e6       0x2c build/usbpd_pwr_if.o
 .ARM.attributes
                0x0000000000000412       0x2c build/usbpd_dpm_core.o
 .ARM.attributes
                0x000000000000043e       0x2c build/list.o
 .ARM.attributes
                0x000000000000046a       0x2c build/queue.o
 .ARM.attributes
                0x0000000000000496       0x2c build/tasks.o
 .ARM.attributes
                0x00000000000004c2       0x2c build/cmsis_os.o
 .ARM.attributes
                0x00000000000004ee       0x2c build/heap_4.o
 .ARM.attributes
                0x000000000000051a       0x2c build/port.o
 .ARM.attributes
                0x0000000000000546       0x2c build/usbpd_trace.o
 .ARM.attributes
                0x0000000000000572       0x2c build/usbpd_cad_hw_if.o
 .ARM.attributes
                0x000000000000059e       0x2c build/usbpd_hw.o
 .ARM.attributes
                0x00000000000005ca       0x2c build/usbpd_hw_if_it.o
 .ARM.attributes
                0x00000000000005f6       0x2c build/usbpd_phy.o
 .ARM.attributes
                0x0000000000000622       0x2c build/usbpd_phy_hw_if.o
 .ARM.attributes
                0x000000000000064e       0x2c build/usbpd_pwr_hw_if.o
 .ARM.attributes
                0x000000000000067a       0x2c build/usbpd_timersserver.o
 .ARM.attributes
                0x00000000000006a6       0x2c build/stm32g0xx_hal_uart.o
 .ARM.attributes
                0x00000000000006d2       0x2c build/stm32g0xx_hal_uart_ex.o
 .ARM.attributes
                0x00000000000006fe       0x2c build/stm32g0xx_ll_lpuart.o
 .ARM.attributes
                0x000000000000072a       0x2c build/data_struct_tlv.o
 .ARM.attributes
                0x0000000000000756       0x2c build/bsp_gui.o
 .ARM.attributes
                0x0000000000000782       0x2c build/gui_api.o
 .ARM.attributes
                0x00000000000007ae       0x2c build/tracer_emb.o
 .ARM.attributes
                0x00000000000007da       0x2c build/tracer_emb_hw.o
 .ARM.attributes
                0x0000000000000806       0x21 build/startup_stm32g071xx.o
 .ARM.attributes
                0x0000000000000827       0x2c /usr/lib/gcc/arm-none-eabi/9.2.1/../../../arm-none-eabi/lib/thumb/v6-m/nofp/libc_nano.a(lib_a-impure.o)
 .ARM.attributes
                0x0000000000000853       0x2c /usr/lib/gcc/arm-none-eabi/9.2.1/../../../arm-none-eabi/lib/thumb/v6-m/nofp/libc_nano.a(lib_a-init.o)
 .ARM.attributes
                0x000000000000087f       0x2c /usr/lib/gcc/arm-none-eabi/9.2.1/../../../arm-none-eabi/lib/thumb/v6-m/nofp/libc_nano.a(lib_a-memcpy-stub.o)
 .ARM.attributes
                0x00000000000008ab       0x2c /usr/lib/gcc/arm-none-eabi/9.2.1/../../../arm-none-eabi/lib/thumb/v6-m/nofp/libc_nano.a(lib_a-memset.o)
 .ARM.attributes
                0x00000000000008d7       0x2c /usr/lib/gcc/arm-none-eabi/9.2.1/../../../arm-none-eabi/lib/thumb/v6-m/nofp/libc_nano.a(lib_a-snprintf.o)
 .ARM.attributes
                0x0000000000000903       0x2c /usr/lib/gcc/arm-none-eabi/9.2.1/../../../arm-none-eabi/lib/thumb/v6-m/nofp/libc_nano.a(lib_a-strcpy.o)
 .ARM.attributes
                0x000000000000092f       0x2c /usr/lib/gcc/arm-none-eabi/9.2.1/../../../arm-none-eabi/lib/thumb/v6-m/nofp/libc_nano.a(lib_a-strlen-stub.o)
 .ARM.attributes
                0x000000000000095b       0x2c /usr/lib/gcc/arm-none-eabi/9.2.1/../../../arm-none-eabi/lib/thumb/v6-m/nofp/libc_nano.a(lib_a-nano-svfprintf.o)
 .ARM.attributes
                0x0000000000000987       0x2c /usr/lib/gcc/arm-none-eabi/9.2.1/../../../arm-none-eabi/lib/thumb/v6-m/nofp/libc_nano.a(lib_a-nano-vfprintf_i.o)
 .ARM.attributes
                0x00000000000009b3       0x2c /usr/lib/gcc/arm-none-eabi/9.2.1/../../../arm-none-eabi/lib/thumb/v6-m/nofp/libc_nano.a(lib_a-memchr-stub.o)
 .ARM.attributes
                0x00000000000009df       0x2c /usr/lib/gcc/arm-none-eabi/9.2.1/../../../arm-none-eabi/lib/thumb/v6-m/nofp/libc_nano.a(lib_a-memmove.o)
 .ARM.attributes
                0x0000000000000a0b       0x2c /usr/lib/gcc/arm-none-eabi/9.2.1/../../../arm-none-eabi/lib/thumb/v6-m/nofp/libc_nano.a(lib_a-nano-freer.o)
 .ARM.attributes
                0x0000000000000a37       0x2c /usr/lib/gcc/arm-none-eabi/9.2.1/../../../arm-none-eabi/lib/thumb/v6-m/nofp/libc_nano.a(lib_a-nano-mallocr.o)
 .ARM.attributes
                0x0000000000000a63       0x2c /usr/lib/gcc/arm-none-eabi/9.2.1/../../../arm-none-eabi/lib/thumb/v6-m/nofp/libc_nano.a(lib_a-nano-reallocr.o)
 .ARM.attributes
                0x0000000000000a8f       0x2c /usr/lib/gcc/arm-none-eabi/9.2.1/../../../arm-none-eabi/lib/thumb/v6-m/nofp/libc_nano.a(lib_a-sbrkr.o)
 .ARM.attributes
                0x0000000000000abb       0x2c /usr/lib/gcc/arm-none-eabi/9.2.1/../../../arm-none-eabi/lib/thumb/v6-m/nofp/libc_nano.a(lib_a-mlock.o)
 .ARM.attributes
                0x0000000000000ae7       0x2c /usr/lib/gcc/arm-none-eabi/9.2.1/../../../arm-none-eabi/lib/thumb/v6-m/nofp/libc_nano.a(lib_a-nano-msizer.o)
 .ARM.attributes
                0x0000000000000b13       0x2c /usr/lib/gcc/arm-none-eabi/9.2.1/../../../arm-none-eabi/lib/thumb/v6-m/nofp/libc_nano.a(lib_a-reent.o)
 .ARM.attributes
                0x0000000000000b3f       0x2c /usr/lib/gcc/arm-none-eabi/9.2.1/../../../arm-none-eabi/lib/thumb/v6-m/nofp/libnosys.a(sbrk.o)
 .ARM.attributes
                0x0000000000000b6b       0x53 Middlewares/ST/STM32_USBPD_Library/Core/lib/USBPDCORE_PD3_FULL_CM0PLUS_wc32.a(usbpd_cad.o)
 .ARM.attributes
                0x0000000000000bbe       0x53 Middlewares/ST/STM32_USBPD_Library/Core/lib/USBPDCORE_PD3_FULL_CM0PLUS_wc32.a(usbpd_pe.o)
 .ARM.attributes
                0x0000000000000c11       0x53 Middlewares/ST/STM32_USBPD_Library/Core/lib/USBPDCORE_PD3_FULL_CM0PLUS_wc32.a(usbpd_prl.o)
 .ARM.attributes
                0x0000000000000c64       0x1e /usr/lib/gcc/arm-none-eabi/9.2.1/thumb/v6-m/nofp/libgcc.a(_thumb1_case_uqi.o)
 .ARM.attributes
                0x0000000000000c82       0x1e /usr/lib/gcc/arm-none-eabi/9.2.1/thumb/v6-m/nofp/libgcc.a(_thumb1_case_shi.o)
 .ARM.attributes
                0x0000000000000ca0       0x1e /usr/lib/gcc/arm-none-eabi/9.2.1/thumb/v6-m/nofp/libgcc.a(_thumb1_case_uhi.o)
 .ARM.attributes
                0x0000000000000cbe       0x1e /usr/lib/gcc/arm-none-eabi/9.2.1/thumb/v6-m/nofp/libgcc.a(_udivsi3.o)
 .ARM.attributes
                0x0000000000000cdc       0x1e /usr/lib/gcc/arm-none-eabi/9.2.1/thumb/v6-m/nofp/libgcc.a(_divsi3.o)
 .ARM.attributes
                0x0000000000000cfa       0x1e /usr/lib/gcc/arm-none-eabi/9.2.1/thumb/v6-m/nofp/libgcc.a(_dvmd_tls.o)
 .ARM.attributes
                0x0000000000000d18       0x1e /usr/lib/gcc/arm-none-eabi/9.2.1/thumb/v6-m/nofp/libgcc.a(_aeabi_uldivmod.o)
 .ARM.attributes
                0x0000000000000d36       0x2c /usr/lib/gcc/arm-none-eabi/9.2.1/thumb/v6-m/nofp/libgcc.a(_udivmoddi4.o)
 .ARM.attributes
                0x0000000000000d62       0x1e /usr/lib/gcc/arm-none-eabi/9.2.1/thumb/v6-m/nofp/libgcc.a(_clzdi2.o)
 .ARM.attributes
                0x0000000000000d80       0x1e /usr/lib/gcc/arm-none-eabi/9.2.1/thumb/v6-m/nofp/libgcc.a(_clzsi2.o)
 .ARM.attributes
                0x0000000000000d9e       0x2c /usr/lib/gcc/arm-none-eabi/9.2.1/../../../arm-none-eabi/lib/thumb/v6-m/nofp/libc_nano.a(lib_a-aeabi_memclr.o)
 .ARM.attributes
                0x0000000000000dca       0x2c /usr/lib/gcc/arm-none-eabi/9.2.1/../../../arm-none-eabi/lib/thumb/v6-m/nofp/libc_nano.a(lib_a-aeabi_memcpy.o)
 .ARM.attributes
                0x0000000000000df6       0x2c /usr/lib/gcc/arm-none-eabi/9.2.1/../../../arm-none-eabi/lib/thumb/v6-m/nofp/libc_nano.a(lib_a-aeabi_memset.o)
 .ARM.attributes
                0x0000000000000e22       0x2c /usr/lib/gcc/arm-none-eabi/9.2.1/../../../arm-none-eabi/lib/thumb/v6-m/nofp/libc_nano.a(lib_a-malloc.o)
 .ARM.attributes
                0x0000000000000e4e       0x2c /usr/lib/gcc/arm-none-eabi/9.2.1/thumb/v6-m/nofp/crtend.o
 .ARM.attributes
                0x0000000000000e7a       0x1e /usr/lib/gcc/arm-none-eabi/9.2.1/thumb/v6-m/nofp/crtn.o
OUTPUT(build/test.elf elf32-littlearm)
LOAD linker stubs
LOAD /usr/lib/gcc/arm-none-eabi/9.2.1/../../../arm-none-eabi/lib/thumb/v6-m/nofp/libc.a
LOAD /usr/lib/gcc/arm-none-eabi/9.2.1/../../../arm-none-eabi/lib/thumb/v6-m/nofp/libm.a
LOAD /usr/lib/gcc/arm-none-eabi/9.2.1/thumb/v6-m/nofp/libgcc.a

.comment        0x0000000000000000     0x148b
 .comment       0x0000000000000000       0x59 /usr/lib/gcc/arm-none-eabi/9.2.1/thumb/v6-m/nofp/crtbegin.o
                                         0x5a (size before relaxing)
 .comment       0x0000000000000059       0x5a build/main.o
 .comment       0x0000000000000059       0x5a build/stm32g0xx_it.o
 .comment       0x0000000000000059       0x5a build/stm32g0xx_hal_msp.o
 .comment       0x0000000000000059       0x5a build/stm32g0xx_hal_gpio.o
 .comment       0x0000000000000059       0x5a build/stm32g0xx_hal_adc.o
 .comment       0x0000000000000059       0x5a build/stm32g0xx_hal_adc_ex.o
 .comment       0x0000000000000059       0x5a build/stm32g0xx_hal_rcc.o
 .comment       0x0000000000000059       0x5a build/stm32g0xx_hal_rcc_ex.o
 .comment       0x0000000000000059       0x5a build/stm32g0xx_ll_rcc.o
 .comment       0x0000000000000059       0x5a build/stm32g0xx_hal_flash.o
 .comment       0x0000000000000059       0x5a build/stm32g0xx_hal_flash_ex.o
 .comment       0x0000000000000059       0x5a build/stm32g0xx_hal_dma.o
 .comment       0x0000000000000059       0x5a build/stm32g0xx_hal_pwr_ex.o
 .comment       0x0000000000000059       0x5a build/stm32g0xx_hal_cortex.o
 .comment       0x0000000000000059       0x5a build/stm32g0xx_hal.o
 .comment       0x0000000000000059       0x5a build/stm32g0xx_ll_ucpd.o
 .comment       0x0000000000000059       0x5a build/stm32g0xx_ll_dma.o
 .comment       0x0000000000000059       0x5a build/system_stm32g0xx.o
 .comment       0x0000000000000059       0x5a build/usbpd.o
 .comment       0x0000000000000059       0x5a build/usbpd_dpm_user.o
 .comment       0x0000000000000059       0x5a build/usbpd_pwr_user.o
 .comment       0x0000000000000059       0x5a build/usbpd_pwr_if.o
 .comment       0x0000000000000059       0x5a build/usbpd_dpm_core.o
 .comment       0x0000000000000059       0x5a build/list.o
 .comment       0x0000000000000059       0x5a build/queue.o
 .comment       0x0000000000000059       0x5a build/tasks.o
 .comment       0x0000000000000059       0x5a build/cmsis_os.o
 .comment       0x0000000000000059       0x5a build/heap_4.o
 .comment       0x0000000000000059       0x5a build/port.o
 .comment       0x0000000000000059       0x5a build/usbpd_trace.o
 .comment       0x0000000000000059       0x5a build/usbpd_cad_hw_if.o
 .comment       0x0000000000000059       0x5a build/usbpd_hw.o
 .comment       0x0000000000000059       0x5a build/usbpd_hw_if_it.o
 .comment       0x0000000000000059       0x5a build/usbpd_phy.o
 .comment       0x0000000000000059       0x5a build/usbpd_phy_hw_if.o
 .comment       0x0000000000000059       0x5a build/usbpd_pwr_hw_if.o
 .comment       0x0000000000000059       0x5a build/usbpd_timersserver.o
 .comment       0x0000000000000059       0x5a build/stm32g0xx_hal_uart.o
 .comment       0x0000000000000059       0x5a build/stm32g0xx_hal_uart_ex.o
 .comment       0x0000000000000059       0x5a build/stm32g0xx_ll_lpuart.o
 .comment       0x0000000000000059       0x5a build/data_struct_tlv.o
 .comment       0x0000000000000059       0x5a build/bsp_gui.o
 .comment       0x0000000000000059       0x5a build/gui_api.o
 .comment       0x0000000000000059       0x5a build/tracer_emb.o
 .comment       0x0000000000000059       0x5a build/tracer_emb_hw.o
 .comment       0x0000000000000059       0x4e /usr/lib/gcc/arm-none-eabi/9.2.1/../../../arm-none-eabi/lib/thumb/v6-m/nofp/libc_nano.a(lib_a-impure.o)
                                         0x4f (size before relaxing)
 .comment       0x00000000000000a7       0x4f /usr/lib/gcc/arm-none-eabi/9.2.1/../../../arm-none-eabi/lib/thumb/v6-m/nofp/libc_nano.a(lib_a-init.o)
 .comment       0x00000000000000a7       0x4f /usr/lib/gcc/arm-none-eabi/9.2.1/../../../arm-none-eabi/lib/thumb/v6-m/nofp/libc_nano.a(lib_a-memcpy-stub.o)
 .comment       0x00000000000000a7       0x4f /usr/lib/gcc/arm-none-eabi/9.2.1/../../../arm-none-eabi/lib/thumb/v6-m/nofp/libc_nano.a(lib_a-memset.o)
 .comment       0x00000000000000a7       0x4f /usr/lib/gcc/arm-none-eabi/9.2.1/../../../arm-none-eabi/lib/thumb/v6-m/nofp/libc_nano.a(lib_a-snprintf.o)
 .comment       0x00000000000000a7       0x4f /usr/lib/gcc/arm-none-eabi/9.2.1/../../../arm-none-eabi/lib/thumb/v6-m/nofp/libc_nano.a(lib_a-strcpy.o)
 .comment       0x00000000000000a7       0x4f /usr/lib/gcc/arm-none-eabi/9.2.1/../../../arm-none-eabi/lib/thumb/v6-m/nofp/libc_nano.a(lib_a-strlen-stub.o)
 .comment       0x00000000000000a7       0x4f /usr/lib/gcc/arm-none-eabi/9.2.1/../../../arm-none-eabi/lib/thumb/v6-m/nofp/libc_nano.a(lib_a-nano-svfprintf.o)
 .comment       0x00000000000000a7       0x4f /usr/lib/gcc/arm-none-eabi/9.2.1/../../../arm-none-eabi/lib/thumb/v6-m/nofp/libc_nano.a(lib_a-nano-vfprintf_i.o)
 .comment       0x00000000000000a7       0x4f /usr/lib/gcc/arm-none-eabi/9.2.1/../../../arm-none-eabi/lib/thumb/v6-m/nofp/libc_nano.a(lib_a-memchr-stub.o)
 .comment       0x00000000000000a7       0x4f /usr/lib/gcc/arm-none-eabi/9.2.1/../../../arm-none-eabi/lib/thumb/v6-m/nofp/libc_nano.a(lib_a-memmove.o)
 .comment       0x00000000000000a7       0x4f /usr/lib/gcc/arm-none-eabi/9.2.1/../../../arm-none-eabi/lib/thumb/v6-m/nofp/libc_nano.a(lib_a-nano-freer.o)
 .comment       0x00000000000000a7       0x4f /usr/lib/gcc/arm-none-eabi/9.2.1/../../../arm-none-eabi/lib/thumb/v6-m/nofp/libc_nano.a(lib_a-nano-mallocr.o)
 .comment       0x00000000000000a7       0x4f /usr/lib/gcc/arm-none-eabi/9.2.1/../../../arm-none-eabi/lib/thumb/v6-m/nofp/libc_nano.a(lib_a-nano-reallocr.o)
 .comment       0x00000000000000a7       0x4f /usr/lib/gcc/arm-none-eabi/9.2.1/../../../arm-none-eabi/lib/thumb/v6-m/nofp/libc_nano.a(lib_a-sbrkr.o)
 .comment       0x00000000000000a7       0x4f /usr/lib/gcc/arm-none-eabi/9.2.1/../../../arm-none-eabi/lib/thumb/v6-m/nofp/libc_nano.a(lib_a-mlock.o)
 .comment       0x00000000000000a7       0x4f /usr/lib/gcc/arm-none-eabi/9.2.1/../../../arm-none-eabi/lib/thumb/v6-m/nofp/libc_nano.a(lib_a-nano-msizer.o)
 .comment       0x00000000000000a7       0x4f /usr/lib/gcc/arm-none-eabi/9.2.1/../../../arm-none-eabi/lib/thumb/v6-m/nofp/libc_nano.a(lib_a-reent.o)
 .comment       0x00000000000000a7       0x4f /usr/lib/gcc/arm-none-eabi/9.2.1/../../../arm-none-eabi/lib/thumb/v6-m/nofp/libnosys.a(sbrk.o)
 .comment       0x00000000000000a7      0x6a2 Middlewares/ST/STM32_USBPD_Library/Core/lib/USBPDCORE_PD3_FULL_CM0PLUS_wc32.a(usbpd_cad.o)
 .comment       0x0000000000000749      0x6a1 Middlewares/ST/STM32_USBPD_Library/Core/lib/USBPDCORE_PD3_FULL_CM0PLUS_wc32.a(usbpd_pe.o)
 .comment       0x0000000000000dea      0x6a1 Middlewares/ST/STM32_USBPD_Library/Core/lib/USBPDCORE_PD3_FULL_CM0PLUS_wc32.a(usbpd_prl.o)
 .comment       0x000000000000148b       0x5a /usr/lib/gcc/arm-none-eabi/9.2.1/thumb/v6-m/nofp/libgcc.a(_udivmoddi4.o)
 .comment       0x000000000000148b       0x4f /usr/lib/gcc/arm-none-eabi/9.2.1/../../../arm-none-eabi/lib/thumb/v6-m/nofp/libc_nano.a(lib_a-aeabi_memclr.o)
 .comment       0x000000000000148b       0x4f /usr/lib/gcc/arm-none-eabi/9.2.1/../../../arm-none-eabi/lib/thumb/v6-m/nofp/libc_nano.a(lib_a-aeabi_memcpy.o)
 .comment       0x000000000000148b       0x4f /usr/lib/gcc/arm-none-eabi/9.2.1/../../../arm-none-eabi/lib/thumb/v6-m/nofp/libc_nano.a(lib_a-aeabi_memset.o)
 .comment       0x000000000000148b       0x4f /usr/lib/gcc/arm-none-eabi/9.2.1/../../../arm-none-eabi/lib/thumb/v6-m/nofp/libc_nano.a(lib_a-malloc.o)
 .comment       0x000000000000148b       0x5a /usr/lib/gcc/arm-none-eabi/9.2.1/thumb/v6-m/nofp/crtend.o

.iar.rtmodel    0x0000000000000000       0xc9
 .iar.rtmodel   0x0000000000000000       0x43 Middlewares/ST/STM32_USBPD_Library/Core/lib/USBPDCORE_PD3_FULL_CM0PLUS_wc32.a(usbpd_cad.o)
 .iar.rtmodel   0x0000000000000043       0x43 Middlewares/ST/STM32_USBPD_Library/Core/lib/USBPDCORE_PD3_FULL_CM0PLUS_wc32.a(usbpd_pe.o)
 .iar.rtmodel   0x0000000000000086       0x43 Middlewares/ST/STM32_USBPD_Library/Core/lib/USBPDCORE_PD3_FULL_CM0PLUS_wc32.a(usbpd_prl.o)

.iar_vfe_header
                0x0000000000000000        0xc
 .iar_vfe_header
                0x0000000000000000        0x4 Middlewares/ST/STM32_USBPD_Library/Core/lib/USBPDCORE_PD3_FULL_CM0PLUS_wc32.a(usbpd_cad.o)
 .iar_vfe_header
                0x0000000000000004        0x4 Middlewares/ST/STM32_USBPD_Library/Core/lib/USBPDCORE_PD3_FULL_CM0PLUS_wc32.a(usbpd_pe.o)
 .iar_vfe_header
                0x0000000000000008        0x4 Middlewares/ST/STM32_USBPD_Library/Core/lib/USBPDCORE_PD3_FULL_CM0PLUS_wc32.a(usbpd_prl.o)

.debug_info     0x0000000000000000    0x4b266
 .debug_info    0x0000000000000000     0x2e2f build/main.o
 .debug_info    0x0000000000002e2f      0xaf1 build/stm32g0xx_it.o
 .debug_info    0x0000000000003920     0x14b3 build/stm32g0xx_hal_msp.o
 .debug_info    0x0000000000004dd3      0x79b build/stm32g0xx_hal_gpio.o
 .debug_info    0x000000000000556e     0x2283 build/stm32g0xx_hal_adc.o
 .debug_info    0x00000000000077f1      0xc0e build/stm32g0xx_hal_adc_ex.o
 .debug_info    0x00000000000083ff      0xf0f build/stm32g0xx_hal_rcc.o
 .debug_info    0x000000000000930e      0xa66 build/stm32g0xx_hal_rcc_ex.o
 .debug_info    0x0000000000009d74      0xfc5 build/stm32g0xx_ll_rcc.o
 .debug_info    0x000000000000ad39      0x989 build/stm32g0xx_hal_flash.o
 .debug_info    0x000000000000b6c2      0xde0 build/stm32g0xx_hal_flash_ex.o
 .debug_info    0x000000000000c4a2      0xb9c build/stm32g0xx_hal_dma.o
 .debug_info    0x000000000000d03e      0x7a2 build/stm32g0xx_hal_pwr_ex.o
 .debug_info    0x000000000000d7e0      0xc3b build/stm32g0xx_hal_cortex.o
 .debug_info    0x000000000000e41b      0xcb1 build/stm32g0xx_hal.o
 .debug_info    0x000000000000f0cc      0x77b build/stm32g0xx_ll_ucpd.o
 .debug_info    0x000000000000f847      0xb66 build/stm32g0xx_ll_dma.o
 .debug_info    0x00000000000103ad      0x4f1 build/system_stm32g0xx.o
 .debug_info    0x000000000001089e     0x1a3f build/usbpd.o
 .debug_info    0x00000000000122dd     0x3429 build/usbpd_dpm_user.o
 .debug_info    0x0000000000015706     0x2007 build/usbpd_pwr_user.o
 .debug_info    0x000000000001770d     0x1de5 build/usbpd_pwr_if.o
 .debug_info    0x00000000000194f2     0x2528 build/usbpd_dpm_core.o
 .debug_info    0x000000000001ba1a      0xc86 build/list.o
 .debug_info    0x000000000001c6a0     0x25b1 build/queue.o
 .debug_info    0x000000000001ec51     0x2bc0 build/tasks.o
 .debug_info    0x0000000000021811     0x2a6d build/cmsis_os.o
 .debug_info    0x000000000002427e      0xd7e build/heap_4.o
 .debug_info    0x0000000000024ffc      0x330 build/port.o
 .debug_info    0x000000000002532c      0x6bb build/usbpd_trace.o
 .debug_info    0x00000000000259e7     0x193d build/usbpd_cad_hw_if.o
 .debug_info    0x0000000000027324      0x8b5 build/usbpd_hw.o
 .debug_info    0x0000000000027bd9      0xed7 build/usbpd_hw_if_it.o
 .debug_info    0x0000000000028ab0     0x12fc build/usbpd_phy.o
 .debug_info    0x0000000000029dac     0x1fc8 build/usbpd_phy_hw_if.o
 .debug_info    0x000000000002bd74      0xd6d build/usbpd_pwr_hw_if.o
 .debug_info    0x000000000002cae1      0xf38 build/usbpd_timersserver.o
 .debug_info    0x000000000002da19     0x25d1 build/stm32g0xx_hal_uart.o
 .debug_info    0x000000000002ffea      0xf18 build/stm32g0xx_hal_uart_ex.o
 .debug_info    0x0000000000030f02      0x89d build/stm32g0xx_ll_lpuart.o
 .debug_info    0x000000000003179f      0xdf2 build/data_struct_tlv.o
 .debug_info    0x0000000000032591     0x1901 build/bsp_gui.o
 .debug_info    0x0000000000033e92     0x55fc build/gui_api.o
 .debug_info    0x000000000003948e      0xa2b build/tracer_emb.o
 .debug_info    0x0000000000039eb9     0x1fab build/tracer_emb_hw.o
 .debug_info    0x000000000003be64       0x22 build/startup_stm32g071xx.o
 .debug_info    0x000000000003be86      0x92a /usr/lib/gcc/arm-none-eabi/9.2.1/../../../arm-none-eabi/lib/thumb/v6-m/nofp/libc_nano.a(lib_a-impure.o)
 .debug_info    0x000000000003c7b0      0x11a /usr/lib/gcc/arm-none-eabi/9.2.1/../../../arm-none-eabi/lib/thumb/v6-m/nofp/libc_nano.a(lib_a-init.o)
 .debug_info    0x000000000003c8ca      0xf35 /usr/lib/gcc/arm-none-eabi/9.2.1/../../../arm-none-eabi/lib/thumb/v6-m/nofp/libc_nano.a(lib_a-memcpy-stub.o)
 .debug_info    0x000000000003d7ff      0xf21 /usr/lib/gcc/arm-none-eabi/9.2.1/../../../arm-none-eabi/lib/thumb/v6-m/nofp/libc_nano.a(lib_a-memset.o)
 .debug_info    0x000000000003e720      0xd4e /usr/lib/gcc/arm-none-eabi/9.2.1/../../../arm-none-eabi/lib/thumb/v6-m/nofp/libc_nano.a(lib_a-snprintf.o)
 .debug_info    0x000000000003f46e      0x943 /usr/lib/gcc/arm-none-eabi/9.2.1/../../../arm-none-eabi/lib/thumb/v6-m/nofp/libc_nano.a(lib_a-strcpy.o)
 .debug_info    0x000000000003fdb1      0x973 /usr/lib/gcc/arm-none-eabi/9.2.1/../../../arm-none-eabi/lib/thumb/v6-m/nofp/libc_nano.a(lib_a-strlen-stub.o)
 .debug_info    0x0000000000040724     0x1811 /usr/lib/gcc/arm-none-eabi/9.2.1/../../../arm-none-eabi/lib/thumb/v6-m/nofp/libc_nano.a(lib_a-nano-svfprintf.o)
 .debug_info    0x0000000000041f35     0x158d /usr/lib/gcc/arm-none-eabi/9.2.1/../../../arm-none-eabi/lib/thumb/v6-m/nofp/libc_nano.a(lib_a-nano-vfprintf_i.o)
 .debug_info    0x00000000000434c2      0x9e3 /usr/lib/gcc/arm-none-eabi/9.2.1/../../../arm-none-eabi/lib/thumb/v6-m/nofp/libc_nano.a(lib_a-memchr-stub.o)
 .debug_info    0x0000000000043ea5      0xf2b /usr/lib/gcc/arm-none-eabi/9.2.1/../../../arm-none-eabi/lib/thumb/v6-m/nofp/libc_nano.a(lib_a-memmove.o)
 .debug_info    0x0000000000044dd0      0xb82 /usr/lib/gcc/arm-none-eabi/9.2.1/../../../arm-none-eabi/lib/thumb/v6-m/nofp/libc_nano.a(lib_a-nano-freer.o)
 .debug_info    0x0000000000045952      0xc57 /usr/lib/gcc/arm-none-eabi/9.2.1/../../../arm-none-eabi/lib/thumb/v6-m/nofp/libc_nano.a(lib_a-nano-mallocr.o)
 .debug_info    0x00000000000465a9      0xb76 /usr/lib/gcc/arm-none-eabi/9.2.1/../../../arm-none-eabi/lib/thumb/v6-m/nofp/libc_nano.a(lib_a-nano-reallocr.o)
 .debug_info    0x000000000004711f      0x9fb /usr/lib/gcc/arm-none-eabi/9.2.1/../../../arm-none-eabi/lib/thumb/v6-m/nofp/libc_nano.a(lib_a-sbrkr.o)
 .debug_info    0x0000000000047b1a      0x961 /usr/lib/gcc/arm-none-eabi/9.2.1/../../../arm-none-eabi/lib/thumb/v6-m/nofp/libc_nano.a(lib_a-mlock.o)
 .debug_info    0x000000000004847b      0xaa6 /usr/lib/gcc/arm-none-eabi/9.2.1/../../../arm-none-eabi/lib/thumb/v6-m/nofp/libc_nano.a(lib_a-nano-msizer.o)
 .debug_info    0x0000000000048f21      0xb0c /usr/lib/gcc/arm-none-eabi/9.2.1/../../../arm-none-eabi/lib/thumb/v6-m/nofp/libc_nano.a(lib_a-reent.o)
 .debug_info    0x0000000000049a2d       0x9d /usr/lib/gcc/arm-none-eabi/9.2.1/../../../arm-none-eabi/lib/thumb/v6-m/nofp/libnosys.a(sbrk.o)
 .debug_info    0x0000000000049aca       0x26 /usr/lib/gcc/arm-none-eabi/9.2.1/thumb/v6-m/nofp/libgcc.a(_thumb1_case_uqi.o)
 .debug_info    0x0000000000049af0       0x26 /usr/lib/gcc/arm-none-eabi/9.2.1/thumb/v6-m/nofp/libgcc.a(_thumb1_case_shi.o)
 .debug_info    0x0000000000049b16       0x26 /usr/lib/gcc/arm-none-eabi/9.2.1/thumb/v6-m/nofp/libgcc.a(_thumb1_case_uhi.o)
 .debug_info    0x0000000000049b3c       0x26 /usr/lib/gcc/arm-none-eabi/9.2.1/thumb/v6-m/nofp/libgcc.a(_udivsi3.o)
 .debug_info    0x0000000000049b62       0x26 /usr/lib/gcc/arm-none-eabi/9.2.1/thumb/v6-m/nofp/libgcc.a(_divsi3.o)
 .debug_info    0x0000000000049b88       0x26 /usr/lib/gcc/arm-none-eabi/9.2.1/thumb/v6-m/nofp/libgcc.a(_dvmd_tls.o)
 .debug_info    0x0000000000049bae       0x26 /usr/lib/gcc/arm-none-eabi/9.2.1/thumb/v6-m/nofp/libgcc.a(_aeabi_uldivmod.o)
 .debug_info    0x0000000000049bd4      0x9e9 /usr/lib/gcc/arm-none-eabi/9.2.1/thumb/v6-m/nofp/libgcc.a(_udivmoddi4.o)
 .debug_info    0x000000000004a5bd       0x26 /usr/lib/gcc/arm-none-eabi/9.2.1/thumb/v6-m/nofp/libgcc.a(_clzdi2.o)
 .debug_info    0x000000000004a5e3       0x26 /usr/lib/gcc/arm-none-eabi/9.2.1/thumb/v6-m/nofp/libgcc.a(_clzsi2.o)
 .debug_info    0x000000000004a609       0xd2 /usr/lib/gcc/arm-none-eabi/9.2.1/../../../arm-none-eabi/lib/thumb/v6-m/nofp/libc_nano.a(lib_a-aeabi_memclr.o)
 .debug_info    0x000000000004a6db       0xef /usr/lib/gcc/arm-none-eabi/9.2.1/../../../arm-none-eabi/lib/thumb/v6-m/nofp/libc_nano.a(lib_a-aeabi_memcpy.o)
 .debug_info    0x000000000004a7ca       0xe6 /usr/lib/gcc/arm-none-eabi/9.2.1/../../../arm-none-eabi/lib/thumb/v6-m/nofp/libc_nano.a(lib_a-aeabi_memset.o)
 .debug_info    0x000000000004a8b0      0x9b6 /usr/lib/gcc/arm-none-eabi/9.2.1/../../../arm-none-eabi/lib/thumb/v6-m/nofp/libc_nano.a(lib_a-malloc.o)

.debug_abbrev   0x0000000000000000     0xc06b
 .debug_abbrev  0x0000000000000000      0x445 build/main.o
 .debug_abbrev  0x0000000000000445      0x1d3 build/stm32g0xx_it.o
 .debug_abbrev  0x0000000000000618      0x261 build/stm32g0xx_hal_msp.o
 .debug_abbrev  0x0000000000000879      0x29e build/stm32g0xx_hal_gpio.o
 .debug_abbrev  0x0000000000000b17      0x3cb build/stm32g0xx_hal_adc.o
 .debug_abbrev  0x0000000000000ee2      0x32a build/stm32g0xx_hal_adc_ex.o
 .debug_abbrev  0x000000000000120c      0x33f build/stm32g0xx_hal_rcc.o
 .debug_abbrev  0x000000000000154b      0x27e build/stm32g0xx_hal_rcc_ex.o
 .debug_abbrev  0x00000000000017c9      0x36b build/stm32g0xx_ll_rcc.o
 .debug_abbrev  0x0000000000001b34      0x3a4 build/stm32g0xx_hal_flash.o
 .debug_abbrev  0x0000000000001ed8      0x34c build/stm32g0xx_hal_flash_ex.o
 .debug_abbrev  0x0000000000002224      0x2f3 build/stm32g0xx_hal_dma.o
 .debug_abbrev  0x0000000000002517      0x23e build/stm32g0xx_hal_pwr_ex.o
 .debug_abbrev  0x0000000000002755      0x2dc build/stm32g0xx_hal_cortex.o
 .debug_abbrev  0x0000000000002a31      0x31a build/stm32g0xx_hal.o
 .debug_abbrev  0x0000000000002d4b      0x24f build/stm32g0xx_ll_ucpd.o
 .debug_abbrev  0x0000000000002f9a      0x29e build/stm32g0xx_ll_dma.o
 .debug_abbrev  0x0000000000003238      0x16a build/system_stm32g0xx.o
 .debug_abbrev  0x00000000000033a2      0x2f4 build/usbpd.o
 .debug_abbrev  0x0000000000003696      0x50d build/usbpd_dpm_user.o
 .debug_abbrev  0x0000000000003ba3      0x44d build/usbpd_pwr_user.o
 .debug_abbrev  0x0000000000003ff0      0x44d build/usbpd_pwr_if.o
 .debug_abbrev  0x000000000000443d      0x3ef build/usbpd_dpm_core.o
 .debug_abbrev  0x000000000000482c      0x245 build/list.o
 .debug_abbrev  0x0000000000004a71      0x464 build/queue.o
 .debug_abbrev  0x0000000000004ed5      0x4e7 build/tasks.o
 .debug_abbrev  0x00000000000053bc      0x4b1 build/cmsis_os.o
 .debug_abbrev  0x000000000000586d      0x340 build/heap_4.o
 .debug_abbrev  0x0000000000005bad      0x221 build/port.o
 .debug_abbrev  0x0000000000005dce      0x1d8 build/usbpd_trace.o
 .debug_abbrev  0x0000000000005fa6      0x428 build/usbpd_cad_hw_if.o
 .debug_abbrev  0x00000000000063ce      0x298 build/usbpd_hw.o
 .debug_abbrev  0x0000000000006666      0x2bd build/usbpd_hw_if_it.o
 .debug_abbrev  0x0000000000006923      0x3b5 build/usbpd_phy.o
 .debug_abbrev  0x0000000000006cd8      0x4b8 build/usbpd_phy_hw_if.o
 .debug_abbrev  0x0000000000007190      0x234 build/usbpd_pwr_hw_if.o
 .debug_abbrev  0x00000000000073c4      0x282 build/usbpd_timersserver.o
 .debug_abbrev  0x0000000000007646      0x3d2 build/stm32g0xx_hal_uart.o
 .debug_abbrev  0x0000000000007a18      0x2ec build/stm32g0xx_hal_uart_ex.o
 .debug_abbrev  0x0000000000007d04      0x25a build/stm32g0xx_ll_lpuart.o
 .debug_abbrev  0x0000000000007f5e      0x28a build/data_struct_tlv.o
 .debug_abbrev  0x00000000000081e8      0x474 build/bsp_gui.o
 .debug_abbrev  0x000000000000865c      0x62a build/gui_api.o
 .debug_abbrev  0x0000000000008c86      0x382 build/tracer_emb.o
 .debug_abbrev  0x0000000000009008      0x3e8 build/tracer_emb_hw.o
 .debug_abbrev  0x00000000000093f0       0x12 build/startup_stm32g071xx.o
 .debug_abbrev  0x0000000000009402      0x17a /usr/lib/gcc/arm-none-eabi/9.2.1/../../../arm-none-eabi/lib/thumb/v6-m/nofp/libc_nano.a(lib_a-impure.o)
 .debug_abbrev  0x000000000000957c       0xcc /usr/lib/gcc/arm-none-eabi/9.2.1/../../../arm-none-eabi/lib/thumb/v6-m/nofp/libc_nano.a(lib_a-init.o)
 .debug_abbrev  0x0000000000009648      0x1e5 /usr/lib/gcc/arm-none-eabi/9.2.1/../../../arm-none-eabi/lib/thumb/v6-m/nofp/libc_nano.a(lib_a-memcpy-stub.o)
 .debug_abbrev  0x000000000000982d      0x1d9 /usr/lib/gcc/arm-none-eabi/9.2.1/../../../arm-none-eabi/lib/thumb/v6-m/nofp/libc_nano.a(lib_a-memset.o)
 .debug_abbrev  0x0000000000009a06      0x27c /usr/lib/gcc/arm-none-eabi/9.2.1/../../../arm-none-eabi/lib/thumb/v6-m/nofp/libc_nano.a(lib_a-snprintf.o)
 .debug_abbrev  0x0000000000009c82      0x1a5 /usr/lib/gcc/arm-none-eabi/9.2.1/../../../arm-none-eabi/lib/thumb/v6-m/nofp/libc_nano.a(lib_a-strcpy.o)
 .debug_abbrev  0x0000000000009e27      0x1aa /usr/lib/gcc/arm-none-eabi/9.2.1/../../../arm-none-eabi/lib/thumb/v6-m/nofp/libc_nano.a(lib_a-strlen-stub.o)
 .debug_abbrev  0x0000000000009fd1      0x33f /usr/lib/gcc/arm-none-eabi/9.2.1/../../../arm-none-eabi/lib/thumb/v6-m/nofp/libc_nano.a(lib_a-nano-svfprintf.o)
 .debug_abbrev  0x000000000000a310      0x30b /usr/lib/gcc/arm-none-eabi/9.2.1/../../../arm-none-eabi/lib/thumb/v6-m/nofp/libc_nano.a(lib_a-nano-vfprintf_i.o)
 .debug_abbrev  0x000000000000a61b      0x1d7 /usr/lib/gcc/arm-none-eabi/9.2.1/../../../arm-none-eabi/lib/thumb/v6-m/nofp/libc_nano.a(lib_a-memchr-stub.o)
 .debug_abbrev  0x000000000000a7f2      0x1de /usr/lib/gcc/arm-none-eabi/9.2.1/../../../arm-none-eabi/lib/thumb/v6-m/nofp/libc_nano.a(lib_a-memmove.o)
 .debug_abbrev  0x000000000000a9d0      0x273 /usr/lib/gcc/arm-none-eabi/9.2.1/../../../arm-none-eabi/lib/thumb/v6-m/nofp/libc_nano.a(lib_a-nano-freer.o)
 .debug_abbrev  0x000000000000ac43      0x2d8 /usr/lib/gcc/arm-none-eabi/9.2.1/../../../arm-none-eabi/lib/thumb/v6-m/nofp/libc_nano.a(lib_a-nano-mallocr.o)
 .debug_abbrev  0x000000000000af1b      0x227 /usr/lib/gcc/arm-none-eabi/9.2.1/../../../arm-none-eabi/lib/thumb/v6-m/nofp/libc_nano.a(lib_a-nano-reallocr.o)
 .debug_abbrev  0x000000000000b142      0x212 /usr/lib/gcc/arm-none-eabi/9.2.1/../../../arm-none-eabi/lib/thumb/v6-m/nofp/libc_nano.a(lib_a-sbrkr.o)
 .debug_abbrev  0x000000000000b354      0x1c5 /usr/lib/gcc/arm-none-eabi/9.2.1/../../../arm-none-eabi/lib/thumb/v6-m/nofp/libc_nano.a(lib_a-mlock.o)
 .debug_abbrev  0x000000000000b519      0x1e5 /usr/lib/gcc/arm-none-eabi/9.2.1/../../../arm-none-eabi/lib/thumb/v6-m/nofp/libc_nano.a(lib_a-nano-msizer.o)
 .debug_abbrev  0x000000000000b6fe      0x25a /usr/lib/gcc/arm-none-eabi/9.2.1/../../../arm-none-eabi/lib/thumb/v6-m/nofp/libc_nano.a(lib_a-reent.o)
 .debug_abbrev  0x000000000000b958       0xa2 /usr/lib/gcc/arm-none-eabi/9.2.1/../../../arm-none-eabi/lib/thumb/v6-m/nofp/libnosys.a(sbrk.o)
 .debug_abbrev  0x000000000000b9fa       0x14 /usr/lib/gcc/arm-none-eabi/9.2.1/thumb/v6-m/nofp/libgcc.a(_thumb1_case_uqi.o)
 .debug_abbrev  0x000000000000ba0e       0x14 /usr/lib/gcc/arm-none-eabi/9.2.1/thumb/v6-m/nofp/libgcc.a(_thumb1_case_shi.o)
 .debug_abbrev  0x000000000000ba22       0x14 /usr/lib/gcc/arm-none-eabi/9.2.1/thumb/v6-m/nofp/libgcc.a(_thumb1_case_uhi.o)
 .debug_abbrev  0x000000000000ba36       0x14 /usr/lib/gcc/arm-none-eabi/9.2.1/thumb/v6-m/nofp/libgcc.a(_udivsi3.o)
 .debug_abbrev  0x000000000000ba4a       0x14 /usr/lib/gcc/arm-none-eabi/9.2.1/thumb/v6-m/nofp/libgcc.a(_divsi3.o)
 .debug_abbrev  0x000000000000ba5e       0x14 /usr/lib/gcc/arm-none-eabi/9.2.1/thumb/v6-m/nofp/libgcc.a(_dvmd_tls.o)
 .debug_abbrev  0x000000000000ba72       0x14 /usr/lib/gcc/arm-none-eabi/9.2.1/thumb/v6-m/nofp/libgcc.a(_aeabi_uldivmod.o)
 .debug_abbrev  0x000000000000ba86      0x162 /usr/lib/gcc/arm-none-eabi/9.2.1/thumb/v6-m/nofp/libgcc.a(_udivmoddi4.o)
 .debug_abbrev  0x000000000000bbe8       0x14 /usr/lib/gcc/arm-none-eabi/9.2.1/thumb/v6-m/nofp/libgcc.a(_clzdi2.o)
 .debug_abbrev  0x000000000000bbfc       0x14 /usr/lib/gcc/arm-none-eabi/9.2.1/thumb/v6-m/nofp/libgcc.a(_clzsi2.o)
 .debug_abbrev  0x000000000000bc10       0xca /usr/lib/gcc/arm-none-eabi/9.2.1/../../../arm-none-eabi/lib/thumb/v6-m/nofp/libc_nano.a(lib_a-aeabi_memclr.o)
 .debug_abbrev  0x000000000000bcda       0xd8 /usr/lib/gcc/arm-none-eabi/9.2.1/../../../arm-none-eabi/lib/thumb/v6-m/nofp/libc_nano.a(lib_a-aeabi_memcpy.o)
 .debug_abbrev  0x000000000000bdb2       0xca /usr/lib/gcc/arm-none-eabi/9.2.1/../../../arm-none-eabi/lib/thumb/v6-m/nofp/libc_nano.a(lib_a-aeabi_memset.o)
 .debug_abbrev  0x000000000000be7c      0x1ef /usr/lib/gcc/arm-none-eabi/9.2.1/../../../arm-none-eabi/lib/thumb/v6-m/nofp/libc_nano.a(lib_a-malloc.o)

.debug_loc      0x0000000000000000    0x199c0
 .debug_loc     0x0000000000000000      0x6d7 build/main.o
 .debug_loc     0x00000000000006d7       0xc0 build/stm32g0xx_it.o
 .debug_loc     0x0000000000000797      0x198 build/stm32g0xx_hal_msp.o
 .debug_loc     0x000000000000092f      0x3e2 build/stm32g0xx_hal_gpio.o
 .debug_loc     0x0000000000000d11     0x169d build/stm32g0xx_hal_adc.o
 .debug_loc     0x00000000000023ae      0x2b1 build/stm32g0xx_hal_adc_ex.o
 .debug_loc     0x000000000000265f      0x71e build/stm32g0xx_hal_rcc.o
 .debug_loc     0x0000000000002d7d      0x66a build/stm32g0xx_hal_rcc_ex.o
 .debug_loc     0x00000000000033e7      0x9f2 build/stm32g0xx_ll_rcc.o
 .debug_loc     0x0000000000003dd9      0x677 build/stm32g0xx_hal_flash.o
 .debug_loc     0x0000000000004450      0x7cb build/stm32g0xx_hal_flash_ex.o
 .debug_loc     0x0000000000004c1b      0x99f build/stm32g0xx_hal_dma.o
 .debug_loc     0x00000000000055ba      0x417 build/stm32g0xx_hal_pwr_ex.o
 .debug_loc     0x00000000000059d1      0x4af build/stm32g0xx_hal_cortex.o
 .debug_loc     0x0000000000005e80      0x286 build/stm32g0xx_hal.o
 .debug_loc     0x0000000000006106      0x1a6 build/stm32g0xx_ll_ucpd.o
 .debug_loc     0x00000000000062ac      0x47c build/stm32g0xx_ll_dma.o
 .debug_loc     0x0000000000006728      0x100 build/system_stm32g0xx.o
 .debug_loc     0x0000000000006828       0x20 build/usbpd.o
 .debug_loc     0x0000000000006848     0x11be build/usbpd_dpm_user.o
 .debug_loc     0x0000000000007a06      0x2c8 build/usbpd_pwr_user.o
 .debug_loc     0x0000000000007cce      0x293 build/usbpd_pwr_if.o
 .debug_loc     0x0000000000007f61      0x3af build/usbpd_dpm_core.o
 .debug_loc     0x0000000000008310       0xea build/list.o
 .debug_loc     0x00000000000083fa     0x1a4c build/queue.o
 .debug_loc     0x0000000000009e46     0x1bab build/tasks.o
 .debug_loc     0x000000000000b9f1     0x197a build/cmsis_os.o
 .debug_loc     0x000000000000d36b      0x36f build/heap_4.o
 .debug_loc     0x000000000000d6da      0x14e build/port.o
 .debug_loc     0x000000000000d828      0x352 build/usbpd_trace.o
 .debug_loc     0x000000000000db7a      0x8b4 build/usbpd_cad_hw_if.o
 .debug_loc     0x000000000000e42e      0x118 build/usbpd_hw.o
 .debug_loc     0x000000000000e546      0x28b build/usbpd_hw_if_it.o
 .debug_loc     0x000000000000e7d1      0x71b build/usbpd_phy.o
 .debug_loc     0x000000000000eeec      0xcc7 build/usbpd_phy_hw_if.o
 .debug_loc     0x000000000000fbb3       0xd4 build/usbpd_pwr_hw_if.o
 .debug_loc     0x000000000000fc87      0x674 build/usbpd_timersserver.o
 .debug_loc     0x00000000000102fb     0x22f0 build/stm32g0xx_hal_uart.o
 .debug_loc     0x00000000000125eb      0x6b8 build/stm32g0xx_hal_uart_ex.o
 .debug_loc     0x0000000000012ca3      0x22e build/stm32g0xx_ll_lpuart.o
 .debug_loc     0x0000000000012ed1      0x4a9 build/data_struct_tlv.o
 .debug_loc     0x000000000001337a      0x59d build/bsp_gui.o
 .debug_loc     0x0000000000013917     0x1ba5 build/gui_api.o
 .debug_loc     0x00000000000154bc      0x566 build/tracer_emb.o
 .debug_loc     0x0000000000015a22      0xd26 build/tracer_emb_hw.o
 .debug_loc     0x0000000000016748       0x98 /usr/lib/gcc/arm-none-eabi/9.2.1/../../../arm-none-eabi/lib/thumb/v6-m/nofp/libc_nano.a(lib_a-init.o)
 .debug_loc     0x00000000000167e0      0x481 /usr/lib/gcc/arm-none-eabi/9.2.1/../../../arm-none-eabi/lib/thumb/v6-m/nofp/libc_nano.a(lib_a-memcpy-stub.o)
 .debug_loc     0x0000000000016c61      0x2df /usr/lib/gcc/arm-none-eabi/9.2.1/../../../arm-none-eabi/lib/thumb/v6-m/nofp/libc_nano.a(lib_a-memset.o)
 .debug_loc     0x0000000000016f40      0x2c2 /usr/lib/gcc/arm-none-eabi/9.2.1/../../../arm-none-eabi/lib/thumb/v6-m/nofp/libc_nano.a(lib_a-snprintf.o)
 .debug_loc     0x0000000000017202       0x25 /usr/lib/gcc/arm-none-eabi/9.2.1/../../../arm-none-eabi/lib/thumb/v6-m/nofp/libc_nano.a(lib_a-strcpy.o)
 .debug_loc     0x0000000000017227       0xa3 /usr/lib/gcc/arm-none-eabi/9.2.1/../../../arm-none-eabi/lib/thumb/v6-m/nofp/libc_nano.a(lib_a-strlen-stub.o)
 .debug_loc     0x00000000000172ca      0x9e4 /usr/lib/gcc/arm-none-eabi/9.2.1/../../../arm-none-eabi/lib/thumb/v6-m/nofp/libc_nano.a(lib_a-nano-svfprintf.o)
 .debug_loc     0x0000000000017cae      0x849 /usr/lib/gcc/arm-none-eabi/9.2.1/../../../arm-none-eabi/lib/thumb/v6-m/nofp/libc_nano.a(lib_a-nano-vfprintf_i.o)
 .debug_loc     0x00000000000184f7      0x1b3 /usr/lib/gcc/arm-none-eabi/9.2.1/../../../arm-none-eabi/lib/thumb/v6-m/nofp/libc_nano.a(lib_a-memchr-stub.o)
 .debug_loc     0x00000000000186aa      0x508 /usr/lib/gcc/arm-none-eabi/9.2.1/../../../arm-none-eabi/lib/thumb/v6-m/nofp/libc_nano.a(lib_a-memmove.o)
 .debug_loc     0x0000000000018bb2      0x1ca /usr/lib/gcc/arm-none-eabi/9.2.1/../../../arm-none-eabi/lib/thumb/v6-m/nofp/libc_nano.a(lib_a-nano-freer.o)
 .debug_loc     0x0000000000018d7c      0x2cc /usr/lib/gcc/arm-none-eabi/9.2.1/../../../arm-none-eabi/lib/thumb/v6-m/nofp/libc_nano.a(lib_a-nano-mallocr.o)
 .debug_loc     0x0000000000019048      0x17b /usr/lib/gcc/arm-none-eabi/9.2.1/../../../arm-none-eabi/lib/thumb/v6-m/nofp/libc_nano.a(lib_a-nano-reallocr.o)
 .debug_loc     0x00000000000191c3       0x79 /usr/lib/gcc/arm-none-eabi/9.2.1/../../../arm-none-eabi/lib/thumb/v6-m/nofp/libc_nano.a(lib_a-sbrkr.o)
 .debug_loc     0x000000000001923c       0xcc /usr/lib/gcc/arm-none-eabi/9.2.1/../../../arm-none-eabi/lib/thumb/v6-m/nofp/libc_nano.a(lib_a-nano-msizer.o)
 .debug_loc     0x0000000000019308       0xf4 /usr/lib/gcc/arm-none-eabi/9.2.1/../../../arm-none-eabi/lib/thumb/v6-m/nofp/libc_nano.a(lib_a-reent.o)
 .debug_loc     0x00000000000193fc       0x4b /usr/lib/gcc/arm-none-eabi/9.2.1/../../../arm-none-eabi/lib/thumb/v6-m/nofp/libnosys.a(sbrk.o)
 .debug_loc     0x0000000000019447      0x3d3 /usr/lib/gcc/arm-none-eabi/9.2.1/thumb/v6-m/nofp/libgcc.a(_udivmoddi4.o)
 .debug_loc     0x000000000001981a       0x4a /usr/lib/gcc/arm-none-eabi/9.2.1/../../../arm-none-eabi/lib/thumb/v6-m/nofp/libc_nano.a(lib_a-aeabi_memclr.o)
 .debug_loc     0x0000000000019864       0x6f /usr/lib/gcc/arm-none-eabi/9.2.1/../../../arm-none-eabi/lib/thumb/v6-m/nofp/libc_nano.a(lib_a-aeabi_memcpy.o)
 .debug_loc     0x00000000000198d3       0x89 /usr/lib/gcc/arm-none-eabi/9.2.1/../../../arm-none-eabi/lib/thumb/v6-m/nofp/libc_nano.a(lib_a-aeabi_memset.o)
 .debug_loc     0x000000000001995c       0x64 /usr/lib/gcc/arm-none-eabi/9.2.1/../../../arm-none-eabi/lib/thumb/v6-m/nofp/libc_nano.a(lib_a-malloc.o)

.debug_aranges  0x0000000000000000     0x1ba8
 .debug_aranges
                0x0000000000000000       0x38 build/main.o
 .debug_aranges
                0x0000000000000038       0x58 build/stm32g0xx_it.o
 .debug_aranges
                0x0000000000000090       0x40 build/stm32g0xx_hal_msp.o
 .debug_aranges
                0x00000000000000d0       0x58 build/stm32g0xx_hal_gpio.o
 .debug_aranges
                0x0000000000000128       0xe0 build/stm32g0xx_hal_adc.o
 .debug_aranges
                0x0000000000000208       0x40 build/stm32g0xx_hal_adc_ex.o
 .debug_aranges
                0x0000000000000248       0x88 build/stm32g0xx_hal_rcc.o
 .debug_aranges
                0x00000000000002d0       0x40 build/stm32g0xx_hal_rcc_ex.o
 .debug_aranges
                0x0000000000000310       0xb8 build/stm32g0xx_ll_rcc.o
 .debug_aranges
                0x00000000000003c8       0x78 build/stm32g0xx_hal_flash.o
 .debug_aranges
                0x0000000000000440       0x70 build/stm32g0xx_hal_flash_ex.o
 .debug_aranges
                0x00000000000004b0       0x88 build/stm32g0xx_hal_dma.o
 .debug_aranges
                0x0000000000000538       0xc0 build/stm32g0xx_hal_pwr_ex.o
 .debug_aranges
                0x00000000000005f8       0x90 build/stm32g0xx_hal_cortex.o
 .debug_aranges
                0x0000000000000688      0x118 build/stm32g0xx_hal.o
 .debug_aranges
                0x00000000000007a0       0x30 build/stm32g0xx_ll_ucpd.o
 .debug_aranges
                0x00000000000007d0       0x30 build/stm32g0xx_ll_dma.o
 .debug_aranges
                0x0000000000000800       0x28 build/system_stm32g0xx.o
 .debug_aranges
                0x0000000000000828       0x30 build/usbpd.o
 .debug_aranges
                0x0000000000000858      0x1a0 build/usbpd_dpm_user.o
 .debug_aranges
                0x00000000000009f8       0x88 build/usbpd_pwr_user.o
 .debug_aranges
                0x0000000000000a80       0x70 build/usbpd_pwr_if.o
 .debug_aranges
                0x0000000000000af0       0x78 build/usbpd_dpm_core.o
 .debug_aranges
                0x0000000000000b68       0x40 build/list.o
 .debug_aranges
                0x0000000000000ba8       0xd8 build/queue.o
 .debug_aranges
                0x0000000000000c80      0x168 build/tasks.o
 .debug_aranges
                0x0000000000000de8      0x190 build/cmsis_os.o
 .debug_aranges
                0x0000000000000f78       0x48 build/heap_4.o
 .debug_aranges
                0x0000000000000fc0       0x80 build/port.o
 .debug_aranges
                0x0000000000001040       0x30 build/usbpd_trace.o
 .debug_aranges
                0x0000000000001070       0x40 build/usbpd_cad_hw_if.o
 .debug_aranges
                0x00000000000010b0       0x48 build/usbpd_hw.o
 .debug_aranges
                0x00000000000010f8       0x30 build/usbpd_hw_if_it.o
 .debug_aranges
                0x0000000000001128       0xb8 build/usbpd_phy.o
 .debug_aranges
                0x00000000000011e0       0xb0 build/usbpd_phy_hw_if.o
 .debug_aranges
                0x0000000000001290       0x38 build/usbpd_pwr_hw_if.o
 .debug_aranges
                0x00000000000012c8       0x30 build/usbpd_timersserver.o
 .debug_aranges
                0x00000000000012f8      0x1c0 build/stm32g0xx_hal_uart.o
 .debug_aranges
                0x00000000000014b8       0x70 build/stm32g0xx_hal_uart_ex.o
 .debug_aranges
                0x0000000000001528       0x30 build/stm32g0xx_ll_lpuart.o
 .debug_aranges
                0x0000000000001558       0x60 build/data_struct_tlv.o
 .debug_aranges
                0x00000000000015b8       0x30 build/bsp_gui.o
 .debug_aranges
                0x00000000000015e8       0xa0 build/gui_api.o
 .debug_aranges
                0x0000000000001688       0x80 build/tracer_emb.o
 .debug_aranges
                0x0000000000001708       0x60 build/tracer_emb_hw.o
 .debug_aranges
                0x0000000000001768       0x28 build/startup_stm32g071xx.o
 .debug_aranges
                0x0000000000001790       0x18 /usr/lib/gcc/arm-none-eabi/9.2.1/../../../arm-none-eabi/lib/thumb/v6-m/nofp/libc_nano.a(lib_a-impure.o)
 .debug_aranges
                0x00000000000017a8       0x20 /usr/lib/gcc/arm-none-eabi/9.2.1/../../../arm-none-eabi/lib/thumb/v6-m/nofp/libc_nano.a(lib_a-init.o)
 .debug_aranges
                0x00000000000017c8       0x20 /usr/lib/gcc/arm-none-eabi/9.2.1/../../../arm-none-eabi/lib/thumb/v6-m/nofp/libc_nano.a(lib_a-memcpy-stub.o)
 .debug_aranges
                0x00000000000017e8       0x20 /usr/lib/gcc/arm-none-eabi/9.2.1/../../../arm-none-eabi/lib/thumb/v6-m/nofp/libc_nano.a(lib_a-memset.o)
 .debug_aranges
                0x0000000000001808       0x20 /usr/lib/gcc/arm-none-eabi/9.2.1/../../../arm-none-eabi/lib/thumb/v6-m/nofp/libc_nano.a(lib_a-snprintf.o)
 .debug_aranges
                0x0000000000001828       0x20 /usr/lib/gcc/arm-none-eabi/9.2.1/../../../arm-none-eabi/lib/thumb/v6-m/nofp/libc_nano.a(lib_a-strcpy.o)
 .debug_aranges
                0x0000000000001848       0x20 /usr/lib/gcc/arm-none-eabi/9.2.1/../../../arm-none-eabi/lib/thumb/v6-m/nofp/libc_nano.a(lib_a-strlen-stub.o)
 .debug_aranges
                0x0000000000001868       0x20 /usr/lib/gcc/arm-none-eabi/9.2.1/../../../arm-none-eabi/lib/thumb/v6-m/nofp/libc_nano.a(lib_a-nano-svfprintf.o)
 .debug_aranges
                0x0000000000001888       0x20 /usr/lib/gcc/arm-none-eabi/9.2.1/../../../arm-none-eabi/lib/thumb/v6-m/nofp/libc_nano.a(lib_a-nano-vfprintf_i.o)
 .debug_aranges
                0x00000000000018a8       0x20 /usr/lib/gcc/arm-none-eabi/9.2.1/../../../arm-none-eabi/lib/thumb/v6-m/nofp/libc_nano.a(lib_a-memchr-stub.o)
 .debug_aranges
                0x00000000000018c8       0x20 /usr/lib/gcc/arm-none-eabi/9.2.1/../../../arm-none-eabi/lib/thumb/v6-m/nofp/libc_nano.a(lib_a-memmove.o)
 .debug_aranges
                0x00000000000018e8       0x20 /usr/lib/gcc/arm-none-eabi/9.2.1/../../../arm-none-eabi/lib/thumb/v6-m/nofp/libc_nano.a(lib_a-nano-freer.o)
 .debug_aranges
                0x0000000000001908       0x20 /usr/lib/gcc/arm-none-eabi/9.2.1/../../../arm-none-eabi/lib/thumb/v6-m/nofp/libc_nano.a(lib_a-nano-mallocr.o)
 .debug_aranges
                0x0000000000001928       0x20 /usr/lib/gcc/arm-none-eabi/9.2.1/../../../arm-none-eabi/lib/thumb/v6-m/nofp/libc_nano.a(lib_a-nano-reallocr.o)
 .debug_aranges
                0x0000000000001948       0x20 /usr/lib/gcc/arm-none-eabi/9.2.1/../../../arm-none-eabi/lib/thumb/v6-m/nofp/libc_nano.a(lib_a-sbrkr.o)
 .debug_aranges
                0x0000000000001968       0x20 /usr/lib/gcc/arm-none-eabi/9.2.1/../../../arm-none-eabi/lib/thumb/v6-m/nofp/libc_nano.a(lib_a-mlock.o)
 .debug_aranges
                0x0000000000001988       0x20 /usr/lib/gcc/arm-none-eabi/9.2.1/../../../arm-none-eabi/lib/thumb/v6-m/nofp/libc_nano.a(lib_a-nano-msizer.o)
 .debug_aranges
                0x00000000000019a8       0x20 /usr/lib/gcc/arm-none-eabi/9.2.1/../../../arm-none-eabi/lib/thumb/v6-m/nofp/libc_nano.a(lib_a-reent.o)
 .debug_aranges
                0x00000000000019c8       0x20 /usr/lib/gcc/arm-none-eabi/9.2.1/../../../arm-none-eabi/lib/thumb/v6-m/nofp/libnosys.a(sbrk.o)
 .debug_aranges
                0x00000000000019e8       0x20 /usr/lib/gcc/arm-none-eabi/9.2.1/thumb/v6-m/nofp/libgcc.a(_thumb1_case_uqi.o)
 .debug_aranges
                0x0000000000001a08       0x20 /usr/lib/gcc/arm-none-eabi/9.2.1/thumb/v6-m/nofp/libgcc.a(_thumb1_case_shi.o)
 .debug_aranges
                0x0000000000001a28       0x20 /usr/lib/gcc/arm-none-eabi/9.2.1/thumb/v6-m/nofp/libgcc.a(_thumb1_case_uhi.o)
 .debug_aranges
                0x0000000000001a48       0x20 /usr/lib/gcc/arm-none-eabi/9.2.1/thumb/v6-m/nofp/libgcc.a(_udivsi3.o)
 .debug_aranges
                0x0000000000001a68       0x20 /usr/lib/gcc/arm-none-eabi/9.2.1/thumb/v6-m/nofp/libgcc.a(_divsi3.o)
 .debug_aranges
                0x0000000000001a88       0x20 /usr/lib/gcc/arm-none-eabi/9.2.1/thumb/v6-m/nofp/libgcc.a(_dvmd_tls.o)
 .debug_aranges
                0x0000000000001aa8       0x20 /usr/lib/gcc/arm-none-eabi/9.2.1/thumb/v6-m/nofp/libgcc.a(_aeabi_uldivmod.o)
 .debug_aranges
                0x0000000000001ac8       0x20 /usr/lib/gcc/arm-none-eabi/9.2.1/thumb/v6-m/nofp/libgcc.a(_udivmoddi4.o)
 .debug_aranges
                0x0000000000001ae8       0x20 /usr/lib/gcc/arm-none-eabi/9.2.1/thumb/v6-m/nofp/libgcc.a(_clzdi2.o)
 .debug_aranges
                0x0000000000001b08       0x20 /usr/lib/gcc/arm-none-eabi/9.2.1/thumb/v6-m/nofp/libgcc.a(_clzsi2.o)
 .debug_aranges
                0x0000000000001b28       0x20 /usr/lib/gcc/arm-none-eabi/9.2.1/../../../arm-none-eabi/lib/thumb/v6-m/nofp/libc_nano.a(lib_a-aeabi_memclr.o)
 .debug_aranges
                0x0000000000001b48       0x20 /usr/lib/gcc/arm-none-eabi/9.2.1/../../../arm-none-eabi/lib/thumb/v6-m/nofp/libc_nano.a(lib_a-aeabi_memcpy.o)
 .debug_aranges
                0x0000000000001b68       0x20 /usr/lib/gcc/arm-none-eabi/9.2.1/../../../arm-none-eabi/lib/thumb/v6-m/nofp/libc_nano.a(lib_a-aeabi_memset.o)
 .debug_aranges
                0x0000000000001b88       0x20 /usr/lib/gcc/arm-none-eabi/9.2.1/../../../arm-none-eabi/lib/thumb/v6-m/nofp/libc_nano.a(lib_a-malloc.o)

.debug_ranges   0x0000000000000000     0x3548
 .debug_ranges  0x0000000000000000      0x2e0 build/main.o
 .debug_ranges  0x00000000000002e0       0x48 build/stm32g0xx_it.o
 .debug_ranges  0x0000000000000328      0x128 build/stm32g0xx_hal_msp.o
 .debug_ranges  0x0000000000000450       0x48 build/stm32g0xx_hal_gpio.o
 .debug_ranges  0x0000000000000498      0x340 build/stm32g0xx_hal_adc.o
 .debug_ranges  0x00000000000007d8       0x60 build/stm32g0xx_hal_adc_ex.o
 .debug_ranges  0x0000000000000838       0xc0 build/stm32g0xx_hal_rcc.o
 .debug_ranges  0x00000000000008f8       0xb0 build/stm32g0xx_hal_rcc_ex.o
 .debug_ranges  0x00000000000009a8      0x2d0 build/stm32g0xx_ll_rcc.o
 .debug_ranges  0x0000000000000c78       0x68 build/stm32g0xx_hal_flash.o
 .debug_ranges  0x0000000000000ce0      0x160 build/stm32g0xx_hal_flash_ex.o
 .debug_ranges  0x0000000000000e40       0x90 build/stm32g0xx_hal_dma.o
 .debug_ranges  0x0000000000000ed0       0xb0 build/stm32g0xx_hal_pwr_ex.o
 .debug_ranges  0x0000000000000f80      0x118 build/stm32g0xx_hal_cortex.o
 .debug_ranges  0x0000000000001098      0x108 build/stm32g0xx_hal.o
 .debug_ranges  0x00000000000011a0       0xd0 build/stm32g0xx_ll_ucpd.o
 .debug_ranges  0x0000000000001270      0x100 build/stm32g0xx_ll_dma.o
 .debug_ranges  0x0000000000001370       0x18 build/system_stm32g0xx.o
 .debug_ranges  0x0000000000001388       0x20 build/usbpd.o
 .debug_ranges  0x00000000000013a8      0x228 build/usbpd_dpm_user.o
 .debug_ranges  0x00000000000015d0       0x90 build/usbpd_pwr_user.o
 .debug_ranges  0x0000000000001660       0x60 build/usbpd_pwr_if.o
 .debug_ranges  0x00000000000016c0       0x68 build/usbpd_dpm_core.o
 .debug_ranges  0x0000000000001728       0x30 build/list.o
 .debug_ranges  0x0000000000001758      0x248 build/queue.o
 .debug_ranges  0x00000000000019a0      0x2b8 build/tasks.o
 .debug_ranges  0x0000000000001c58      0x368 build/cmsis_os.o
 .debug_ranges  0x0000000000001fc0       0x38 build/heap_4.o
 .debug_ranges  0x0000000000001ff8       0x90 build/port.o
 .debug_ranges  0x0000000000002088       0x20 build/usbpd_trace.o
 .debug_ranges  0x00000000000020a8       0xf8 build/usbpd_cad_hw_if.o
 .debug_ranges  0x00000000000021a0       0x68 build/usbpd_hw.o
 .debug_ranges  0x0000000000002208       0x50 build/usbpd_hw_if_it.o
 .debug_ranges  0x0000000000002258       0xc0 build/usbpd_phy.o
 .debug_ranges  0x0000000000002318      0x3a8 build/usbpd_phy_hw_if.o
 .debug_ranges  0x00000000000026c0       0x28 build/usbpd_pwr_hw_if.o
 .debug_ranges  0x00000000000026e8      0x210 build/usbpd_timersserver.o
 .debug_ranges  0x00000000000028f8      0x1b0 build/stm32g0xx_hal_uart.o
 .debug_ranges  0x0000000000002aa8       0x78 build/stm32g0xx_hal_uart_ex.o
 .debug_ranges  0x0000000000002b20       0x40 build/stm32g0xx_ll_lpuart.o
 .debug_ranges  0x0000000000002b60       0x88 build/data_struct_tlv.o
 .debug_ranges  0x0000000000002be8       0x98 build/bsp_gui.o
 .debug_ranges  0x0000000000002c80      0x210 build/gui_api.o
 .debug_ranges  0x0000000000002e90       0xd0 build/tracer_emb.o
 .debug_ranges  0x0000000000002f60      0x460 build/tracer_emb_hw.o
 .debug_ranges  0x00000000000033c0       0x20 build/startup_stm32g071xx.o
 .debug_ranges  0x00000000000033e0       0x10 /usr/lib/gcc/arm-none-eabi/9.2.1/../../../arm-none-eabi/lib/thumb/v6-m/nofp/libc_nano.a(lib_a-strcpy.o)
 .debug_ranges  0x00000000000033f0       0x48 /usr/lib/gcc/arm-none-eabi/9.2.1/../../../arm-none-eabi/lib/thumb/v6-m/nofp/libc_nano.a(lib_a-nano-svfprintf.o)
 .debug_ranges  0x0000000000003438       0xc0 /usr/lib/gcc/arm-none-eabi/9.2.1/../../../arm-none-eabi/lib/thumb/v6-m/nofp/libc_nano.a(lib_a-nano-vfprintf_i.o)
 .debug_ranges  0x00000000000034f8       0x18 /usr/lib/gcc/arm-none-eabi/9.2.1/../../../arm-none-eabi/lib/thumb/v6-m/nofp/libc_nano.a(lib_a-nano-freer.o)
 .debug_ranges  0x0000000000003510       0x38 /usr/lib/gcc/arm-none-eabi/9.2.1/../../../arm-none-eabi/lib/thumb/v6-m/nofp/libc_nano.a(lib_a-nano-mallocr.o)

.debug_line     0x0000000000000000    0x1d174
 .debug_line    0x0000000000000000      0x954 build/main.o
 .debug_line    0x0000000000000954      0x262 build/stm32g0xx_it.o
 .debug_line    0x0000000000000bb6      0x467 build/stm32g0xx_hal_msp.o
 .debug_line    0x000000000000101d      0x649 build/stm32g0xx_hal_gpio.o
 .debug_line    0x0000000000001666     0x17da build/stm32g0xx_hal_adc.o
 .debug_line    0x0000000000002e40      0x44b build/stm32g0xx_hal_adc_ex.o
 .debug_line    0x000000000000328b      0xdcc build/stm32g0xx_hal_rcc.o
 .debug_line    0x0000000000004057      0x959 build/stm32g0xx_hal_rcc_ex.o
 .debug_line    0x00000000000049b0      0xbaa build/stm32g0xx_ll_rcc.o
 .debug_line    0x000000000000555a      0x7a0 build/stm32g0xx_hal_flash.o
 .debug_line    0x0000000000005cfa      0x91b build/stm32g0xx_hal_flash_ex.o
 .debug_line    0x0000000000006615      0xb37 build/stm32g0xx_hal_dma.o
 .debug_line    0x000000000000714c      0x58f build/stm32g0xx_hal_pwr_ex.o
 .debug_line    0x00000000000076db      0x637 build/stm32g0xx_hal_cortex.o
 .debug_line    0x0000000000007d12      0x688 build/stm32g0xx_hal.o
 .debug_line    0x000000000000839a      0x330 build/stm32g0xx_ll_ucpd.o
 .debug_line    0x00000000000086ca      0x4dc build/stm32g0xx_ll_dma.o
 .debug_line    0x0000000000008ba6      0x268 build/system_stm32g0xx.o
 .debug_line    0x0000000000008e0e      0x378 build/usbpd.o
 .debug_line    0x0000000000009186      0x980 build/usbpd_dpm_user.o
 .debug_line    0x0000000000009b06      0x48e build/usbpd_pwr_user.o
 .debug_line    0x0000000000009f94      0x40f build/usbpd_pwr_if.o
 .debug_line    0x000000000000a3a3      0x635 build/usbpd_dpm_core.o
 .debug_line    0x000000000000a9d8      0x363 build/list.o
 .debug_line    0x000000000000ad3b     0x15f8 build/queue.o
 .debug_line    0x000000000000c333     0x1e80 build/tasks.o
 .debug_line    0x000000000000e1b3     0x10fd build/cmsis_os.o
 .debug_line    0x000000000000f2b0      0x519 build/heap_4.o
 .debug_line    0x000000000000f7c9      0x3d6 build/port.o
 .debug_line    0x000000000000fb9f      0x3b5 build/usbpd_trace.o
 .debug_line    0x000000000000ff54      0x87f build/usbpd_cad_hw_if.o
 .debug_line    0x00000000000107d3      0x37e build/usbpd_hw.o
 .debug_line    0x0000000000010b51      0x492 build/usbpd_hw_if_it.o
 .debug_line    0x0000000000010fe3      0x590 build/usbpd_phy.o
 .debug_line    0x0000000000011573      0xc1a build/usbpd_phy_hw_if.o
 .debug_line    0x000000000001218d      0x2ac build/usbpd_pwr_hw_if.o
 .debug_line    0x0000000000012439      0x697 build/usbpd_timersserver.o
 .debug_line    0x0000000000012ad0     0x2a9f build/stm32g0xx_hal_uart.o
 .debug_line    0x000000000001556f      0x7d6 build/stm32g0xx_hal_uart_ex.o
 .debug_line    0x0000000000015d45      0x327 build/stm32g0xx_ll_lpuart.o
 .debug_line    0x000000000001606c      0x545 build/data_struct_tlv.o
 .debug_line    0x00000000000165b1      0x54b build/bsp_gui.o
 .debug_line    0x0000000000016afc     0x1a74 build/gui_api.o
 .debug_line    0x0000000000018570      0x5e6 build/tracer_emb.o
 .debug_line    0x0000000000018b56      0xb2f build/tracer_emb_hw.o
 .debug_line    0x0000000000019685       0x77 build/startup_stm32g071xx.o
 .debug_line    0x00000000000196fc       0xe3 /usr/lib/gcc/arm-none-eabi/9.2.1/../../../arm-none-eabi/lib/thumb/v6-m/nofp/libc_nano.a(lib_a-impure.o)
 .debug_line    0x00000000000197df       0xfc /usr/lib/gcc/arm-none-eabi/9.2.1/../../../arm-none-eabi/lib/thumb/v6-m/nofp/libc_nano.a(lib_a-init.o)
 .debug_line    0x00000000000198db      0x24d /usr/lib/gcc/arm-none-eabi/9.2.1/../../../arm-none-eabi/lib/thumb/v6-m/nofp/libc_nano.a(lib_a-memcpy-stub.o)
 .debug_line    0x0000000000019b28      0x281 /usr/lib/gcc/arm-none-eabi/9.2.1/../../../arm-none-eabi/lib/thumb/v6-m/nofp/libc_nano.a(lib_a-memset.o)
 .debug_line    0x0000000000019da9      0x3bb /usr/lib/gcc/arm-none-eabi/9.2.1/../../../arm-none-eabi/lib/thumb/v6-m/nofp/libc_nano.a(lib_a-snprintf.o)
 .debug_line    0x000000000001a164      0x147 /usr/lib/gcc/arm-none-eabi/9.2.1/../../../arm-none-eabi/lib/thumb/v6-m/nofp/libc_nano.a(lib_a-strcpy.o)
 .debug_line    0x000000000001a2ab      0x1c2 /usr/lib/gcc/arm-none-eabi/9.2.1/../../../arm-none-eabi/lib/thumb/v6-m/nofp/libc_nano.a(lib_a-strlen-stub.o)
 .debug_line    0x000000000001a46d      0x8cc /usr/lib/gcc/arm-none-eabi/9.2.1/../../../arm-none-eabi/lib/thumb/v6-m/nofp/libc_nano.a(lib_a-nano-svfprintf.o)
 .debug_line    0x000000000001ad39      0x7a6 /usr/lib/gcc/arm-none-eabi/9.2.1/../../../arm-none-eabi/lib/thumb/v6-m/nofp/libc_nano.a(lib_a-nano-vfprintf_i.o)
 .debug_line    0x000000000001b4df      0x212 /usr/lib/gcc/arm-none-eabi/9.2.1/../../../arm-none-eabi/lib/thumb/v6-m/nofp/libc_nano.a(lib_a-memchr-stub.o)
 .debug_line    0x000000000001b6f1      0x28a /usr/lib/gcc/arm-none-eabi/9.2.1/../../../arm-none-eabi/lib/thumb/v6-m/nofp/libc_nano.a(lib_a-memmove.o)
 .debug_line    0x000000000001b97b      0x2ab /usr/lib/gcc/arm-none-eabi/9.2.1/../../../arm-none-eabi/lib/thumb/v6-m/nofp/libc_nano.a(lib_a-nano-freer.o)
 .debug_line    0x000000000001bc26      0x2f2 /usr/lib/gcc/arm-none-eabi/9.2.1/../../../arm-none-eabi/lib/thumb/v6-m/nofp/libc_nano.a(lib_a-nano-mallocr.o)
 .debug_line    0x000000000001bf18      0x1b5 /usr/lib/gcc/arm-none-eabi/9.2.1/../../../arm-none-eabi/lib/thumb/v6-m/nofp/libc_nano.a(lib_a-nano-reallocr.o)
 .debug_line    0x000000000001c0cd      0x185 /usr/lib/gcc/arm-none-eabi/9.2.1/../../../arm-none-eabi/lib/thumb/v6-m/nofp/libc_nano.a(lib_a-sbrkr.o)
 .debug_line    0x000000000001c252      0x13d /usr/lib/gcc/arm-none-eabi/9.2.1/../../../arm-none-eabi/lib/thumb/v6-m/nofp/libc_nano.a(lib_a-mlock.o)
 .debug_line    0x000000000001c38f      0x168 /usr/lib/gcc/arm-none-eabi/9.2.1/../../../arm-none-eabi/lib/thumb/v6-m/nofp/libc_nano.a(lib_a-nano-msizer.o)
 .debug_line    0x000000000001c4f7      0x264 /usr/lib/gcc/arm-none-eabi/9.2.1/../../../arm-none-eabi/lib/thumb/v6-m/nofp/libc_nano.a(lib_a-reent.o)
 .debug_line    0x000000000001c75b       0x7d /usr/lib/gcc/arm-none-eabi/9.2.1/../../../arm-none-eabi/lib/thumb/v6-m/nofp/libnosys.a(sbrk.o)
 .debug_line    0x000000000001c7d8       0x68 /usr/lib/gcc/arm-none-eabi/9.2.1/thumb/v6-m/nofp/libgcc.a(_thumb1_case_uqi.o)
 .debug_line    0x000000000001c840       0x69 /usr/lib/gcc/arm-none-eabi/9.2.1/thumb/v6-m/nofp/libgcc.a(_thumb1_case_shi.o)
 .debug_line    0x000000000001c8a9       0x69 /usr/lib/gcc/arm-none-eabi/9.2.1/thumb/v6-m/nofp/libgcc.a(_thumb1_case_uhi.o)
 .debug_line    0x000000000001c912       0x6c /usr/lib/gcc/arm-none-eabi/9.2.1/thumb/v6-m/nofp/libgcc.a(_udivsi3.o)
 .debug_line    0x000000000001c97e       0x73 /usr/lib/gcc/arm-none-eabi/9.2.1/thumb/v6-m/nofp/libgcc.a(_divsi3.o)
 .debug_line    0x000000000001c9f1       0x60 /usr/lib/gcc/arm-none-eabi/9.2.1/thumb/v6-m/nofp/libgcc.a(_dvmd_tls.o)
 .debug_line    0x000000000001ca51       0x6b /usr/lib/gcc/arm-none-eabi/9.2.1/thumb/v6-m/nofp/libgcc.a(_aeabi_uldivmod.o)
 .debug_line    0x000000000001cabc      0x248 /usr/lib/gcc/arm-none-eabi/9.2.1/thumb/v6-m/nofp/libgcc.a(_udivmoddi4.o)
 .debug_line    0x000000000001cd04       0x6a /usr/lib/gcc/arm-none-eabi/9.2.1/thumb/v6-m/nofp/libgcc.a(_clzdi2.o)
 .debug_line    0x000000000001cd6e       0x74 /usr/lib/gcc/arm-none-eabi/9.2.1/thumb/v6-m/nofp/libgcc.a(_clzsi2.o)
 .debug_line    0x000000000001cde2       0xb6 /usr/lib/gcc/arm-none-eabi/9.2.1/../../../arm-none-eabi/lib/thumb/v6-m/nofp/libc_nano.a(lib_a-aeabi_memclr.o)
 .debug_line    0x000000000001ce98       0xb6 /usr/lib/gcc/arm-none-eabi/9.2.1/../../../arm-none-eabi/lib/thumb/v6-m/nofp/libc_nano.a(lib_a-aeabi_memcpy.o)
 .debug_line    0x000000000001cf4e       0xb8 /usr/lib/gcc/arm-none-eabi/9.2.1/../../../arm-none-eabi/lib/thumb/v6-m/nofp/libc_nano.a(lib_a-aeabi_memset.o)
 .debug_line    0x000000000001d006      0x16e /usr/lib/gcc/arm-none-eabi/9.2.1/../../../arm-none-eabi/lib/thumb/v6-m/nofp/libc_nano.a(lib_a-malloc.o)

.debug_str      0x0000000000000000     0xf58d
 .debug_str     0x0000000000000000     0x1d23 build/main.o
                                       0x1ec2 (size before relaxing)
 .debug_str     0x0000000000001d23      0x12c build/stm32g0xx_it.o
                                        0x893 (size before relaxing)
 .debug_str     0x0000000000001e4f       0xf8 build/stm32g0xx_hal_msp.o
                                        0xde1 (size before relaxing)
 .debug_str     0x0000000000001f47      0x149 build/stm32g0xx_hal_gpio.o
                                        0x4ba (size before relaxing)
 .debug_str     0x0000000000002090      0x782 build/stm32g0xx_hal_adc.o
                                        0xf9b (size before relaxing)
 .debug_str     0x0000000000002812      0x12d build/stm32g0xx_hal_adc_ex.o
                                        0x988 (size before relaxing)
 .debug_str     0x000000000000293f      0x2a2 build/stm32g0xx_hal_rcc.o
                                        0x7d5 (size before relaxing)
 .debug_str     0x0000000000002be1      0x109 build/stm32g0xx_hal_rcc_ex.o
                                        0x6de (size before relaxing)
 .debug_str     0x0000000000002cea      0x56e build/stm32g0xx_ll_rcc.o
                                        0x8d3 (size before relaxing)
 .debug_str     0x0000000000003258      0x204 build/stm32g0xx_hal_flash.o
                                        0x53b (size before relaxing)
 .debug_str     0x000000000000345c      0x39a build/stm32g0xx_hal_flash_ex.o
                                        0x6d9 (size before relaxing)
 .debug_str     0x00000000000037f6      0x237 build/stm32g0xx_hal_dma.o
                                        0x7f1 (size before relaxing)
 .debug_str     0x0000000000003a2d      0x2e3 build/stm32g0xx_hal_pwr_ex.o
                                        0x639 (size before relaxing)
 .debug_str     0x0000000000003d10      0x2b4 build/stm32g0xx_hal_cortex.o
                                        0x821 (size before relaxing)
 .debug_str     0x0000000000003fc4      0x31b build/stm32g0xx_hal.o
                                        0x988 (size before relaxing)
 .debug_str     0x00000000000042df      0x113 build/stm32g0xx_ll_ucpd.o
                                        0x4bc (size before relaxing)
 .debug_str     0x00000000000043f2      0x1e3 build/stm32g0xx_ll_dma.o
                                        0x64d (size before relaxing)
 .debug_str     0x00000000000045d5       0x38 build/system_stm32g0xx.o
                                        0x382 (size before relaxing)
 .debug_str     0x000000000000460d      0x89b build/usbpd.o
                                       0x1657 (size before relaxing)
 .debug_str     0x0000000000004ea8     0x20fa build/usbpd_dpm_user.o
                                       0x328b (size before relaxing)
 .debug_str     0x0000000000006fa2      0x302 build/usbpd_pwr_user.o
                                       0x17be (size before relaxing)
 .debug_str     0x00000000000072a4      0x15e build/usbpd_pwr_if.o
                                       0x1a45 (size before relaxing)
 .debug_str     0x0000000000007402      0x5b1 build/usbpd_dpm_core.o
                                       0x2a37 (size before relaxing)
 .debug_str     0x00000000000079b3      0x16d build/list.o
                                        0x6e9 (size before relaxing)
 .debug_str     0x0000000000007b20      0x6ad build/queue.o
                                        0xd59 (size before relaxing)
 .debug_str     0x00000000000081cd      0x920 build/tasks.o
                                       0x11f5 (size before relaxing)
 .debug_str     0x0000000000008aed      0x64e build/cmsis_os.o
                                       0x11a7 (size before relaxing)
 .debug_str     0x000000000000913b      0x1de build/heap_4.o
                                        0x7a9 (size before relaxing)
 .debug_str     0x0000000000009319       0xd2 build/port.o
                                        0x396 (size before relaxing)
 .debug_str     0x00000000000093eb      0x10f build/usbpd_trace.o
                                        0x4f1 (size before relaxing)
 .debug_str     0x00000000000094fa      0x2fe build/usbpd_cad_hw_if.o
                                       0x1405 (size before relaxing)
 .debug_str     0x00000000000097f8      0x107 build/usbpd_hw.o
                                        0x615 (size before relaxing)
 .debug_str     0x00000000000098ff      0x1e3 build/usbpd_hw_if_it.o
                                        0xed7 (size before relaxing)
 .debug_str     0x0000000000009ae2      0x3c5 build/usbpd_phy.o
                                       0x11ab (size before relaxing)
 .debug_str     0x0000000000009ea7      0x2af build/usbpd_phy_hw_if.o
                                       0x14ce (size before relaxing)
 .debug_str     0x000000000000a156       0x75 build/usbpd_pwr_hw_if.o
                                        0xf8b (size before relaxing)
 .debug_str     0x000000000000a1cb      0x2ef build/usbpd_timersserver.o
                                        0x6cd (size before relaxing)
 .debug_str     0x000000000000a4ba      0x73d build/stm32g0xx_hal_uart.o
                                       0x104b (size before relaxing)
 .debug_str     0x000000000000abf7      0x1d4 build/stm32g0xx_hal_uart_ex.o
                                        0xa71 (size before relaxing)
 .debug_str     0x000000000000adcb      0x140 build/stm32g0xx_ll_lpuart.o
                                        0x53a (size before relaxing)
 .debug_str     0x000000000000af0b      0x13f build/data_struct_tlv.o
                                        0x6e5 (size before relaxing)
 .debug_str     0x000000000000b04a      0x134 build/bsp_gui.o
                                        0xf69 (size before relaxing)
 .debug_str     0x000000000000b17e     0x1bc6 build/gui_api.o
                                       0x457a (size before relaxing)
 .debug_str     0x000000000000cd44      0x1d6 build/tracer_emb.o
                                        0x5e8 (size before relaxing)
 .debug_str     0x000000000000cf1a      0x44b build/tracer_emb_hw.o
                                        0xd76 (size before relaxing)
 .debug_str     0x000000000000d365       0x22 build/startup_stm32g071xx.o
                                         0x50 (size before relaxing)
 .debug_str     0x000000000000d387      0x1a3 /usr/lib/gcc/arm-none-eabi/9.2.1/../../../arm-none-eabi/lib/thumb/v6-m/nofp/libc_nano.a(lib_a-impure.o)
                                        0x5db (size before relaxing)
 .debug_str     0x000000000000d52a       0xec /usr/lib/gcc/arm-none-eabi/9.2.1/../../../arm-none-eabi/lib/thumb/v6-m/nofp/libc_nano.a(lib_a-init.o)
                                        0x222 (size before relaxing)
 .debug_str     0x000000000000d616      0x336 /usr/lib/gcc/arm-none-eabi/9.2.1/../../../arm-none-eabi/lib/thumb/v6-m/nofp/libc_nano.a(lib_a-memcpy-stub.o)
                                        0x92d (size before relaxing)
 .debug_str     0x000000000000d94c       0x9f /usr/lib/gcc/arm-none-eabi/9.2.1/../../../arm-none-eabi/lib/thumb/v6-m/nofp/libc_nano.a(lib_a-memset.o)
                                        0x908 (size before relaxing)
 .debug_str     0x000000000000d9eb      0x1ee /usr/lib/gcc/arm-none-eabi/9.2.1/../../../arm-none-eabi/lib/thumb/v6-m/nofp/libc_nano.a(lib_a-snprintf.o)
                                        0x77c (size before relaxing)
 .debug_str     0x000000000000dbd9       0x3c /usr/lib/gcc/arm-none-eabi/9.2.1/../../../arm-none-eabi/lib/thumb/v6-m/nofp/libc_nano.a(lib_a-strcpy.o)
                                        0x5e5 (size before relaxing)
 .debug_str     0x000000000000dc15       0x41 /usr/lib/gcc/arm-none-eabi/9.2.1/../../../arm-none-eabi/lib/thumb/v6-m/nofp/libc_nano.a(lib_a-strlen-stub.o)
                                        0x604 (size before relaxing)
 .debug_str     0x000000000000dc56      0x19c /usr/lib/gcc/arm-none-eabi/9.2.1/../../../arm-none-eabi/lib/thumb/v6-m/nofp/libc_nano.a(lib_a-nano-svfprintf.o)
                                        0xc0e (size before relaxing)
 .debug_str     0x000000000000ddf2       0x8d /usr/lib/gcc/arm-none-eabi/9.2.1/../../../arm-none-eabi/lib/thumb/v6-m/nofp/libc_nano.a(lib_a-nano-vfprintf_i.o)
                                        0xba5 (size before relaxing)
 .debug_str     0x000000000000de7f       0x4f /usr/lib/gcc/arm-none-eabi/9.2.1/../../../arm-none-eabi/lib/thumb/v6-m/nofp/libc_nano.a(lib_a-memchr-stub.o)
                                        0x60b (size before relaxing)
 .debug_str     0x000000000000dece       0x3e /usr/lib/gcc/arm-none-eabi/9.2.1/../../../arm-none-eabi/lib/thumb/v6-m/nofp/libc_nano.a(lib_a-memmove.o)
                                        0x927 (size before relaxing)
 .debug_str     0x000000000000df0c      0x17e /usr/lib/gcc/arm-none-eabi/9.2.1/../../../arm-none-eabi/lib/thumb/v6-m/nofp/libc_nano.a(lib_a-nano-freer.o)
                                        0x70b (size before relaxing)
 .debug_str     0x000000000000e08a       0x32 /usr/lib/gcc/arm-none-eabi/9.2.1/../../../arm-none-eabi/lib/thumb/v6-m/nofp/libc_nano.a(lib_a-nano-mallocr.o)
                                        0x722 (size before relaxing)
 .debug_str     0x000000000000e0bc       0x23 /usr/lib/gcc/arm-none-eabi/9.2.1/../../../arm-none-eabi/lib/thumb/v6-m/nofp/libc_nano.a(lib_a-nano-reallocr.o)
                                        0x708 (size before relaxing)
 .debug_str     0x000000000000e0df       0x47 /usr/lib/gcc/arm-none-eabi/9.2.1/../../../arm-none-eabi/lib/thumb/v6-m/nofp/libc_nano.a(lib_a-sbrkr.o)
                                        0x61e (size before relaxing)
 .debug_str     0x000000000000e126       0x4c /usr/lib/gcc/arm-none-eabi/9.2.1/../../../arm-none-eabi/lib/thumb/v6-m/nofp/libc_nano.a(lib_a-mlock.o)
                                        0x607 (size before relaxing)
 .debug_str     0x000000000000e172        0xf /usr/lib/gcc/arm-none-eabi/9.2.1/../../../arm-none-eabi/lib/thumb/v6-m/nofp/libc_nano.a(lib_a-nano-msizer.o)
                                        0x6e6 (size before relaxing)
 .debug_str     0x000000000000e181       0x5e /usr/lib/gcc/arm-none-eabi/9.2.1/../../../arm-none-eabi/lib/thumb/v6-m/nofp/libc_nano.a(lib_a-reent.o)
                                        0x617 (size before relaxing)
 .debug_str     0x000000000000e1df      0x10f /usr/lib/gcc/arm-none-eabi/9.2.1/../../../arm-none-eabi/lib/thumb/v6-m/nofp/libnosys.a(sbrk.o)
                                        0x128 (size before relaxing)
 .debug_str     0x000000000000e2ee       0x97 /usr/lib/gcc/arm-none-eabi/9.2.1/thumb/v6-m/nofp/libgcc.a(_thumb1_case_uqi.o)
                                         0xa3 (size before relaxing)
 .debug_str     0x000000000000e385       0xa3 /usr/lib/gcc/arm-none-eabi/9.2.1/thumb/v6-m/nofp/libgcc.a(_thumb1_case_shi.o)
 .debug_str     0x000000000000e385       0xa3 /usr/lib/gcc/arm-none-eabi/9.2.1/thumb/v6-m/nofp/libgcc.a(_thumb1_case_uhi.o)
 .debug_str     0x000000000000e385       0xa3 /usr/lib/gcc/arm-none-eabi/9.2.1/thumb/v6-m/nofp/libgcc.a(_udivsi3.o)
 .debug_str     0x000000000000e385       0xa3 /usr/lib/gcc/arm-none-eabi/9.2.1/thumb/v6-m/nofp/libgcc.a(_divsi3.o)
 .debug_str     0x000000000000e385       0xa3 /usr/lib/gcc/arm-none-eabi/9.2.1/thumb/v6-m/nofp/libgcc.a(_dvmd_tls.o)
 .debug_str     0x000000000000e385       0x30 /usr/lib/gcc/arm-none-eabi/9.2.1/thumb/v6-m/nofp/libgcc.a(_aeabi_uldivmod.o)
                                         0xa3 (size before relaxing)
 .debug_str     0x000000000000e3b5     0x10a5 /usr/lib/gcc/arm-none-eabi/9.2.1/thumb/v6-m/nofp/libgcc.a(_udivmoddi4.o)
                                       0x1198 (size before relaxing)
 .debug_str     0x000000000000f45a       0xa3 /usr/lib/gcc/arm-none-eabi/9.2.1/thumb/v6-m/nofp/libgcc.a(_clzdi2.o)
 .debug_str     0x000000000000f45a       0xa3 /usr/lib/gcc/arm-none-eabi/9.2.1/thumb/v6-m/nofp/libgcc.a(_clzsi2.o)
 .debug_str     0x000000000000f45a       0x60 /usr/lib/gcc/arm-none-eabi/9.2.1/../../../arm-none-eabi/lib/thumb/v6-m/nofp/libc_nano.a(lib_a-aeabi_memclr.o)
                                        0x184 (size before relaxing)
 .debug_str     0x000000000000f4ba       0x51 /usr/lib/gcc/arm-none-eabi/9.2.1/../../../arm-none-eabi/lib/thumb/v6-m/nofp/libc_nano.a(lib_a-aeabi_memcpy.o)
                                        0x183 (size before relaxing)
 .debug_str     0x000000000000f50b       0x42 /usr/lib/gcc/arm-none-eabi/9.2.1/../../../arm-none-eabi/lib/thumb/v6-m/nofp/libc_nano.a(lib_a-aeabi_memset.o)
                                        0x17c (size before relaxing)
 .debug_str     0x000000000000f54d       0x40 /usr/lib/gcc/arm-none-eabi/9.2.1/../../../arm-none-eabi/lib/thumb/v6-m/nofp/libc_nano.a(lib_a-malloc.o)
                                        0x60c (size before relaxing)

.debug_frame    0x0000000000000000     0x5fac
 .debug_frame   0x0000000000000000       0x78 build/main.o
 .debug_frame   0x0000000000000078       0xc0 build/stm32g0xx_it.o
 .debug_frame   0x0000000000000138       0x9c build/stm32g0xx_hal_msp.o
 .debug_frame   0x00000000000001d4       0xd0 build/stm32g0xx_hal_gpio.o
 .debug_frame   0x00000000000002a4      0x2f8 build/stm32g0xx_hal_adc.o
 .debug_frame   0x000000000000059c       0xac build/stm32g0xx_hal_adc_ex.o
 .debug_frame   0x0000000000000648      0x168 build/stm32g0xx_hal_rcc.o
 .debug_frame   0x00000000000007b0       0xa0 build/stm32g0xx_hal_rcc_ex.o
 .debug_frame   0x0000000000000850      0x1fc build/stm32g0xx_ll_rcc.o
 .debug_frame   0x0000000000000a4c      0x130 build/stm32g0xx_hal_flash.o
 .debug_frame   0x0000000000000b7c      0x100 build/stm32g0xx_hal_flash_ex.o
 .debug_frame   0x0000000000000c7c      0x1a4 build/stm32g0xx_hal_dma.o
 .debug_frame   0x0000000000000e20      0x190 build/stm32g0xx_hal_pwr_ex.o
 .debug_frame   0x0000000000000fb0      0x11c build/stm32g0xx_hal_cortex.o
 .debug_frame   0x00000000000010cc      0x260 build/stm32g0xx_hal.o
 .debug_frame   0x000000000000132c       0x50 build/stm32g0xx_ll_ucpd.o
 .debug_frame   0x000000000000137c       0x58 build/stm32g0xx_ll_dma.o
 .debug_frame   0x00000000000013d4       0x3c build/system_stm32g0xx.o
 .debug_frame   0x0000000000001410       0x48 build/usbpd.o
 .debug_frame   0x0000000000001458      0x4c4 build/usbpd_dpm_user.o
 .debug_frame   0x000000000000191c      0x168 build/usbpd_pwr_user.o
 .debug_frame   0x0000000000001a84      0x104 build/usbpd_pwr_if.o
 .debug_frame   0x0000000000001b88      0x160 build/usbpd_dpm_core.o
 .debug_frame   0x0000000000001ce8       0x6c build/list.o
 .debug_frame   0x0000000000001d54      0x294 build/queue.o
 .debug_frame   0x0000000000001fe8      0x45c build/tasks.o
 .debug_frame   0x0000000000002444      0x528 build/cmsis_os.o
 .debug_frame   0x000000000000296c       0x90 build/heap_4.o
 .debug_frame   0x00000000000029fc      0x100 build/port.o
 .debug_frame   0x0000000000002afc       0x60 build/usbpd_trace.o
 .debug_frame   0x0000000000002b5c       0x90 build/usbpd_cad_hw_if.o
 .debug_frame   0x0000000000002bec       0x90 build/usbpd_hw.o
 .debug_frame   0x0000000000002c7c       0x64 build/usbpd_hw_if_it.o
 .debug_frame   0x0000000000002ce0      0x1d8 build/usbpd_phy.o
 .debug_frame   0x0000000000002eb8      0x1ac build/usbpd_phy_hw_if.o
 .debug_frame   0x0000000000003064       0x60 build/usbpd_pwr_hw_if.o
 .debug_frame   0x00000000000030c4       0x60 build/usbpd_timersserver.o
 .debug_frame   0x0000000000003124      0x62c build/stm32g0xx_hal_uart.o
 .debug_frame   0x0000000000003750      0x16c build/stm32g0xx_hal_uart_ex.o
 .debug_frame   0x00000000000038bc       0x54 build/stm32g0xx_ll_lpuart.o
 .debug_frame   0x0000000000003910       0xe0 build/data_struct_tlv.o
 .debug_frame   0x00000000000039f0       0x70 build/bsp_gui.o
 .debug_frame   0x0000000000003a60      0x1f8 build/gui_api.o
 .debug_frame   0x0000000000003c58      0x164 build/tracer_emb.o
 .debug_frame   0x0000000000003dbc       0xd4 build/tracer_emb_hw.o
 .debug_frame   0x0000000000003e90       0x2c /usr/lib/gcc/arm-none-eabi/9.2.1/../../../arm-none-eabi/lib/thumb/v6-m/nofp/libc_nano.a(lib_a-init.o)
 .debug_frame   0x0000000000003ebc       0x34 /usr/lib/gcc/arm-none-eabi/9.2.1/../../../arm-none-eabi/lib/thumb/v6-m/nofp/libc_nano.a(lib_a-memcpy-stub.o)
 .debug_frame   0x0000000000003ef0       0x30 /usr/lib/gcc/arm-none-eabi/9.2.1/../../../arm-none-eabi/lib/thumb/v6-m/nofp/libc_nano.a(lib_a-memset.o)
 .debug_frame   0x0000000000003f20       0x50 /usr/lib/gcc/arm-none-eabi/9.2.1/../../../arm-none-eabi/lib/thumb/v6-m/nofp/libc_nano.a(lib_a-snprintf.o)
 .debug_frame   0x0000000000003f70       0x20 /usr/lib/gcc/arm-none-eabi/9.2.1/../../../arm-none-eabi/lib/thumb/v6-m/nofp/libc_nano.a(lib_a-strcpy.o)
 .debug_frame   0x0000000000003f90       0x28 /usr/lib/gcc/arm-none-eabi/9.2.1/../../../arm-none-eabi/lib/thumb/v6-m/nofp/libc_nano.a(lib_a-strlen-stub.o)
 .debug_frame   0x0000000000003fb8       0x90 /usr/lib/gcc/arm-none-eabi/9.2.1/../../../arm-none-eabi/lib/thumb/v6-m/nofp/libc_nano.a(lib_a-nano-svfprintf.o)
 .debug_frame   0x0000000000004048       0x64 /usr/lib/gcc/arm-none-eabi/9.2.1/../../../arm-none-eabi/lib/thumb/v6-m/nofp/libc_nano.a(lib_a-nano-vfprintf_i.o)
 .debug_frame   0x00000000000040ac       0x2c /usr/lib/gcc/arm-none-eabi/9.2.1/../../../arm-none-eabi/lib/thumb/v6-m/nofp/libc_nano.a(lib_a-memchr-stub.o)
 .debug_frame   0x00000000000040d8       0x34 /usr/lib/gcc/arm-none-eabi/9.2.1/../../../arm-none-eabi/lib/thumb/v6-m/nofp/libc_nano.a(lib_a-memmove.o)
 .debug_frame   0x000000000000410c       0x2c /usr/lib/gcc/arm-none-eabi/9.2.1/../../../arm-none-eabi/lib/thumb/v6-m/nofp/libc_nano.a(lib_a-nano-freer.o)
 .debug_frame   0x0000000000004138       0x30 /usr/lib/gcc/arm-none-eabi/9.2.1/../../../arm-none-eabi/lib/thumb/v6-m/nofp/libc_nano.a(lib_a-nano-mallocr.o)
 .debug_frame   0x0000000000004168       0x30 /usr/lib/gcc/arm-none-eabi/9.2.1/../../../arm-none-eabi/lib/thumb/v6-m/nofp/libc_nano.a(lib_a-nano-reallocr.o)
 .debug_frame   0x0000000000004198       0x2c /usr/lib/gcc/arm-none-eabi/9.2.1/../../../arm-none-eabi/lib/thumb/v6-m/nofp/libc_nano.a(lib_a-sbrkr.o)
 .debug_frame   0x00000000000041c4       0x30 /usr/lib/gcc/arm-none-eabi/9.2.1/../../../arm-none-eabi/lib/thumb/v6-m/nofp/libc_nano.a(lib_a-mlock.o)
 .debug_frame   0x00000000000041f4       0x20 /usr/lib/gcc/arm-none-eabi/9.2.1/../../../arm-none-eabi/lib/thumb/v6-m/nofp/libc_nano.a(lib_a-nano-msizer.o)
 .debug_frame   0x0000000000004214       0x48 /usr/lib/gcc/arm-none-eabi/9.2.1/../../../arm-none-eabi/lib/thumb/v6-m/nofp/libc_nano.a(lib_a-reent.o)
 .debug_frame   0x000000000000425c       0x20 /usr/lib/gcc/arm-none-eabi/9.2.1/../../../arm-none-eabi/lib/thumb/v6-m/nofp/libnosys.a(sbrk.o)
 .debug_frame   0x000000000000427c       0x49 Middlewares/ST/STM32_USBPD_Library/Core/lib/USBPDCORE_PD3_FULL_CM0PLUS_wc32.a(usbpd_cad.o)
 .debug_frame   0x00000000000042c5       0x3c Middlewares/ST/STM32_USBPD_Library/Core/lib/USBPDCORE_PD3_FULL_CM0PLUS_wc32.a(usbpd_cad.o)
 .debug_frame   0x0000000000004301       0x50 Middlewares/ST/STM32_USBPD_Library/Core/lib/USBPDCORE_PD3_FULL_CM0PLUS_wc32.a(usbpd_cad.o)
 .debug_frame   0x0000000000004351       0x43 Middlewares/ST/STM32_USBPD_Library/Core/lib/USBPDCORE_PD3_FULL_CM0PLUS_wc32.a(usbpd_cad.o)
 .debug_frame   0x0000000000004394       0x43 Middlewares/ST/STM32_USBPD_Library/Core/lib/USBPDCORE_PD3_FULL_CM0PLUS_wc32.a(usbpd_cad.o)
 .debug_frame   0x00000000000043d7       0x41 Middlewares/ST/STM32_USBPD_Library/Core/lib/USBPDCORE_PD3_FULL_CM0PLUS_wc32.a(usbpd_cad.o)
 .debug_frame   0x0000000000004418       0x41 Middlewares/ST/STM32_USBPD_Library/Core/lib/USBPDCORE_PD3_FULL_CM0PLUS_wc32.a(usbpd_cad.o)
 .debug_frame   0x0000000000004459       0x3c Middlewares/ST/STM32_USBPD_Library/Core/lib/USBPDCORE_PD3_FULL_CM0PLUS_wc32.a(usbpd_cad.o)
 .debug_frame   0x0000000000004495       0x50 Middlewares/ST/STM32_USBPD_Library/Core/lib/USBPDCORE_PD3_FULL_CM0PLUS_wc32.a(usbpd_pe.o)
 .debug_frame   0x00000000000044e5       0x3c Middlewares/ST/STM32_USBPD_Library/Core/lib/USBPDCORE_PD3_FULL_CM0PLUS_wc32.a(usbpd_pe.o)
 .debug_frame   0x0000000000004521       0x3c Middlewares/ST/STM32_USBPD_Library/Core/lib/USBPDCORE_PD3_FULL_CM0PLUS_wc32.a(usbpd_pe.o)
 .debug_frame   0x000000000000455d       0x43 Middlewares/ST/STM32_USBPD_Library/Core/lib/USBPDCORE_PD3_FULL_CM0PLUS_wc32.a(usbpd_pe.o)
 .debug_frame   0x00000000000045a0       0x42 Middlewares/ST/STM32_USBPD_Library/Core/lib/USBPDCORE_PD3_FULL_CM0PLUS_wc32.a(usbpd_pe.o)
 .debug_frame   0x00000000000045e2       0x45 Middlewares/ST/STM32_USBPD_Library/Core/lib/USBPDCORE_PD3_FULL_CM0PLUS_wc32.a(usbpd_pe.o)
 .debug_frame   0x0000000000004627       0x54 Middlewares/ST/STM32_USBPD_Library/Core/lib/USBPDCORE_PD3_FULL_CM0PLUS_wc32.a(usbpd_pe.o)
 .debug_frame   0x000000000000467b       0x49 Middlewares/ST/STM32_USBPD_Library/Core/lib/USBPDCORE_PD3_FULL_CM0PLUS_wc32.a(usbpd_pe.o)
 .debug_frame   0x00000000000046c4       0x49 Middlewares/ST/STM32_USBPD_Library/Core/lib/USBPDCORE_PD3_FULL_CM0PLUS_wc32.a(usbpd_pe.o)
 .debug_frame   0x000000000000470d       0x53 Middlewares/ST/STM32_USBPD_Library/Core/lib/USBPDCORE_PD3_FULL_CM0PLUS_wc32.a(usbpd_pe.o)
 .debug_frame   0x0000000000004760       0x4c Middlewares/ST/STM32_USBPD_Library/Core/lib/USBPDCORE_PD3_FULL_CM0PLUS_wc32.a(usbpd_pe.o)
 .debug_frame   0x00000000000047ac       0x49 Middlewares/ST/STM32_USBPD_Library/Core/lib/USBPDCORE_PD3_FULL_CM0PLUS_wc32.a(usbpd_pe.o)
 .debug_frame   0x00000000000047f5       0x41 Middlewares/ST/STM32_USBPD_Library/Core/lib/USBPDCORE_PD3_FULL_CM0PLUS_wc32.a(usbpd_pe.o)
 .debug_frame   0x0000000000004836       0x3c Middlewares/ST/STM32_USBPD_Library/Core/lib/USBPDCORE_PD3_FULL_CM0PLUS_wc32.a(usbpd_pe.o)
 .debug_frame   0x0000000000004872       0x47 Middlewares/ST/STM32_USBPD_Library/Core/lib/USBPDCORE_PD3_FULL_CM0PLUS_wc32.a(usbpd_pe.o)
 .debug_frame   0x00000000000048b9       0x49 Middlewares/ST/STM32_USBPD_Library/Core/lib/USBPDCORE_PD3_FULL_CM0PLUS_wc32.a(usbpd_pe.o)
 .debug_frame   0x0000000000004902       0x49 Middlewares/ST/STM32_USBPD_Library/Core/lib/USBPDCORE_PD3_FULL_CM0PLUS_wc32.a(usbpd_pe.o)
 .debug_frame   0x000000000000494b       0x4c Middlewares/ST/STM32_USBPD_Library/Core/lib/USBPDCORE_PD3_FULL_CM0PLUS_wc32.a(usbpd_pe.o)
 .debug_frame   0x0000000000004997       0x4c Middlewares/ST/STM32_USBPD_Library/Core/lib/USBPDCORE_PD3_FULL_CM0PLUS_wc32.a(usbpd_pe.o)
 .debug_frame   0x00000000000049e3       0x49 Middlewares/ST/STM32_USBPD_Library/Core/lib/USBPDCORE_PD3_FULL_CM0PLUS_wc32.a(usbpd_pe.o)
 .debug_frame   0x0000000000004a2c       0x49 Middlewares/ST/STM32_USBPD_Library/Core/lib/USBPDCORE_PD3_FULL_CM0PLUS_wc32.a(usbpd_pe.o)
 .debug_frame   0x0000000000004a75       0x48 Middlewares/ST/STM32_USBPD_Library/Core/lib/USBPDCORE_PD3_FULL_CM0PLUS_wc32.a(usbpd_pe.o)
 .debug_frame   0x0000000000004abd       0x47 Middlewares/ST/STM32_USBPD_Library/Core/lib/USBPDCORE_PD3_FULL_CM0PLUS_wc32.a(usbpd_pe.o)
 .debug_frame   0x0000000000004b04       0x41 Middlewares/ST/STM32_USBPD_Library/Core/lib/USBPDCORE_PD3_FULL_CM0PLUS_wc32.a(usbpd_pe.o)
 .debug_frame   0x0000000000004b45       0x4c Middlewares/ST/STM32_USBPD_Library/Core/lib/USBPDCORE_PD3_FULL_CM0PLUS_wc32.a(usbpd_pe.o)
 .debug_frame   0x0000000000004b91       0x52 Middlewares/ST/STM32_USBPD_Library/Core/lib/USBPDCORE_PD3_FULL_CM0PLUS_wc32.a(usbpd_pe.o)
 .debug_frame   0x0000000000004be3       0x47 Middlewares/ST/STM32_USBPD_Library/Core/lib/USBPDCORE_PD3_FULL_CM0PLUS_wc32.a(usbpd_pe.o)
 .debug_frame   0x0000000000004c2a       0x46 Middlewares/ST/STM32_USBPD_Library/Core/lib/USBPDCORE_PD3_FULL_CM0PLUS_wc32.a(usbpd_pe.o)
 .debug_frame   0x0000000000004c70       0x50 Middlewares/ST/STM32_USBPD_Library/Core/lib/USBPDCORE_PD3_FULL_CM0PLUS_wc32.a(usbpd_pe.o)
 .debug_frame   0x0000000000004cc0       0x4f Middlewares/ST/STM32_USBPD_Library/Core/lib/USBPDCORE_PD3_FULL_CM0PLUS_wc32.a(usbpd_pe.o)
 .debug_frame   0x0000000000004d0f       0x49 Middlewares/ST/STM32_USBPD_Library/Core/lib/USBPDCORE_PD3_FULL_CM0PLUS_wc32.a(usbpd_pe.o)
 .debug_frame   0x0000000000004d58       0x50 Middlewares/ST/STM32_USBPD_Library/Core/lib/USBPDCORE_PD3_FULL_CM0PLUS_wc32.a(usbpd_pe.o)
 .debug_frame   0x0000000000004da8       0x49 Middlewares/ST/STM32_USBPD_Library/Core/lib/USBPDCORE_PD3_FULL_CM0PLUS_wc32.a(usbpd_pe.o)
 .debug_frame   0x0000000000004df1       0x45 Middlewares/ST/STM32_USBPD_Library/Core/lib/USBPDCORE_PD3_FULL_CM0PLUS_wc32.a(usbpd_pe.o)
 .debug_frame   0x0000000000004e36       0x47 Middlewares/ST/STM32_USBPD_Library/Core/lib/USBPDCORE_PD3_FULL_CM0PLUS_wc32.a(usbpd_pe.o)
 .debug_frame   0x0000000000004e7d       0x54 Middlewares/ST/STM32_USBPD_Library/Core/lib/USBPDCORE_PD3_FULL_CM0PLUS_wc32.a(usbpd_pe.o)
 .debug_frame   0x0000000000004ed1       0x50 Middlewares/ST/STM32_USBPD_Library/Core/lib/USBPDCORE_PD3_FULL_CM0PLUS_wc32.a(usbpd_pe.o)
 .debug_frame   0x0000000000004f21       0x3c Middlewares/ST/STM32_USBPD_Library/Core/lib/USBPDCORE_PD3_FULL_CM0PLUS_wc32.a(usbpd_pe.o)
 .debug_frame   0x0000000000004f5d       0x3c Middlewares/ST/STM32_USBPD_Library/Core/lib/USBPDCORE_PD3_FULL_CM0PLUS_wc32.a(usbpd_pe.o)
 .debug_frame   0x0000000000004f99       0x45 Middlewares/ST/STM32_USBPD_Library/Core/lib/USBPDCORE_PD3_FULL_CM0PLUS_wc32.a(usbpd_pe.o)
 .debug_frame   0x0000000000004fde       0x42 Middlewares/ST/STM32_USBPD_Library/Core/lib/USBPDCORE_PD3_FULL_CM0PLUS_wc32.a(usbpd_pe.o)
 .debug_frame   0x0000000000005020       0x49 Middlewares/ST/STM32_USBPD_Library/Core/lib/USBPDCORE_PD3_FULL_CM0PLUS_wc32.a(usbpd_pe.o)
 .debug_frame   0x0000000000005069       0x4c Middlewares/ST/STM32_USBPD_Library/Core/lib/USBPDCORE_PD3_FULL_CM0PLUS_wc32.a(usbpd_pe.o)
 .debug_frame   0x00000000000050b5       0x49 Middlewares/ST/STM32_USBPD_Library/Core/lib/USBPDCORE_PD3_FULL_CM0PLUS_wc32.a(usbpd_pe.o)
 .debug_frame   0x00000000000050fe       0x49 Middlewares/ST/STM32_USBPD_Library/Core/lib/USBPDCORE_PD3_FULL_CM0PLUS_wc32.a(usbpd_pe.o)
 .debug_frame   0x0000000000005147       0x49 Middlewares/ST/STM32_USBPD_Library/Core/lib/USBPDCORE_PD3_FULL_CM0PLUS_wc32.a(usbpd_pe.o)
 .debug_frame   0x0000000000005190       0x47 Middlewares/ST/STM32_USBPD_Library/Core/lib/USBPDCORE_PD3_FULL_CM0PLUS_wc32.a(usbpd_pe.o)
 .debug_frame   0x00000000000051d7       0x3c Middlewares/ST/STM32_USBPD_Library/Core/lib/USBPDCORE_PD3_FULL_CM0PLUS_wc32.a(usbpd_pe.o)
 .debug_frame   0x0000000000005213       0x50 Middlewares/ST/STM32_USBPD_Library/Core/lib/USBPDCORE_PD3_FULL_CM0PLUS_wc32.a(usbpd_pe.o)
 .debug_frame   0x0000000000005263       0x49 Middlewares/ST/STM32_USBPD_Library/Core/lib/USBPDCORE_PD3_FULL_CM0PLUS_wc32.a(usbpd_pe.o)
 .debug_frame   0x00000000000052ac       0x4c Middlewares/ST/STM32_USBPD_Library/Core/lib/USBPDCORE_PD3_FULL_CM0PLUS_wc32.a(usbpd_pe.o)
 .debug_frame   0x00000000000052f8       0x45 Middlewares/ST/STM32_USBPD_Library/Core/lib/USBPDCORE_PD3_FULL_CM0PLUS_wc32.a(usbpd_pe.o)
 .debug_frame   0x000000000000533d       0x43 Middlewares/ST/STM32_USBPD_Library/Core/lib/USBPDCORE_PD3_FULL_CM0PLUS_wc32.a(usbpd_pe.o)
 .debug_frame   0x0000000000005380       0x3c Middlewares/ST/STM32_USBPD_Library/Core/lib/USBPDCORE_PD3_FULL_CM0PLUS_wc32.a(usbpd_pe.o)
 .debug_frame   0x00000000000053bc       0x47 Middlewares/ST/STM32_USBPD_Library/Core/lib/USBPDCORE_PD3_FULL_CM0PLUS_wc32.a(usbpd_pe.o)
 .debug_frame   0x0000000000005403       0x49 Middlewares/ST/STM32_USBPD_Library/Core/lib/USBPDCORE_PD3_FULL_CM0PLUS_wc32.a(usbpd_pe.o)
 .debug_frame   0x000000000000544c       0x4f Middlewares/ST/STM32_USBPD_Library/Core/lib/USBPDCORE_PD3_FULL_CM0PLUS_wc32.a(usbpd_pe.o)
 .debug_frame   0x000000000000549b       0x49 Middlewares/ST/STM32_USBPD_Library/Core/lib/USBPDCORE_PD3_FULL_CM0PLUS_wc32.a(usbpd_pe.o)
 .debug_frame   0x00000000000054e4       0x54 Middlewares/ST/STM32_USBPD_Library/Core/lib/USBPDCORE_PD3_FULL_CM0PLUS_wc32.a(usbpd_pe.o)
 .debug_frame   0x0000000000005538       0x51 Middlewares/ST/STM32_USBPD_Library/Core/lib/USBPDCORE_PD3_FULL_CM0PLUS_wc32.a(usbpd_pe.o)
 .debug_frame   0x0000000000005589       0x47 Middlewares/ST/STM32_USBPD_Library/Core/lib/USBPDCORE_PD3_FULL_CM0PLUS_wc32.a(usbpd_pe.o)
 .debug_frame   0x00000000000055d0       0x49 Middlewares/ST/STM32_USBPD_Library/Core/lib/USBPDCORE_PD3_FULL_CM0PLUS_wc32.a(usbpd_pe.o)
 .debug_frame   0x0000000000005619       0x41 Middlewares/ST/STM32_USBPD_Library/Core/lib/USBPDCORE_PD3_FULL_CM0PLUS_wc32.a(usbpd_pe.o)
 .debug_frame   0x000000000000565a       0x42 Middlewares/ST/STM32_USBPD_Library/Core/lib/USBPDCORE_PD3_FULL_CM0PLUS_wc32.a(usbpd_prl.o)
 .debug_frame   0x000000000000569c       0x50 Middlewares/ST/STM32_USBPD_Library/Core/lib/USBPDCORE_PD3_FULL_CM0PLUS_wc32.a(usbpd_prl.o)
 .debug_frame   0x00000000000056ec       0x3c Middlewares/ST/STM32_USBPD_Library/Core/lib/USBPDCORE_PD3_FULL_CM0PLUS_wc32.a(usbpd_prl.o)
 .debug_frame   0x0000000000005728       0x45 Middlewares/ST/STM32_USBPD_Library/Core/lib/USBPDCORE_PD3_FULL_CM0PLUS_wc32.a(usbpd_prl.o)
 .debug_frame   0x000000000000576d       0x3c Middlewares/ST/STM32_USBPD_Library/Core/lib/USBPDCORE_PD3_FULL_CM0PLUS_wc32.a(usbpd_prl.o)
 .debug_frame   0x00000000000057a9       0x3c Middlewares/ST/STM32_USBPD_Library/Core/lib/USBPDCORE_PD3_FULL_CM0PLUS_wc32.a(usbpd_prl.o)
 .debug_frame   0x00000000000057e5       0x3c Middlewares/ST/STM32_USBPD_Library/Core/lib/USBPDCORE_PD3_FULL_CM0PLUS_wc32.a(usbpd_prl.o)
 .debug_frame   0x0000000000005821       0x3c Middlewares/ST/STM32_USBPD_Library/Core/lib/USBPDCORE_PD3_FULL_CM0PLUS_wc32.a(usbpd_prl.o)
 .debug_frame   0x000000000000585d       0x41 Middlewares/ST/STM32_USBPD_Library/Core/lib/USBPDCORE_PD3_FULL_CM0PLUS_wc32.a(usbpd_prl.o)
 .debug_frame   0x000000000000589e       0x43 Middlewares/ST/STM32_USBPD_Library/Core/lib/USBPDCORE_PD3_FULL_CM0PLUS_wc32.a(usbpd_prl.o)
 .debug_frame   0x00000000000058e1       0x41 Middlewares/ST/STM32_USBPD_Library/Core/lib/USBPDCORE_PD3_FULL_CM0PLUS_wc32.a(usbpd_prl.o)
 .debug_frame   0x0000000000005922       0x41 Middlewares/ST/STM32_USBPD_Library/Core/lib/USBPDCORE_PD3_FULL_CM0PLUS_wc32.a(usbpd_prl.o)
 .debug_frame   0x0000000000005963       0x41 Middlewares/ST/STM32_USBPD_Library/Core/lib/USBPDCORE_PD3_FULL_CM0PLUS_wc32.a(usbpd_prl.o)
 .debug_frame   0x00000000000059a4       0x51 Middlewares/ST/STM32_USBPD_Library/Core/lib/USBPDCORE_PD3_FULL_CM0PLUS_wc32.a(usbpd_prl.o)
 .debug_frame   0x00000000000059f5       0x3c Middlewares/ST/STM32_USBPD_Library/Core/lib/USBPDCORE_PD3_FULL_CM0PLUS_wc32.a(usbpd_prl.o)
 .debug_frame   0x0000000000005a31       0x49 Middlewares/ST/STM32_USBPD_Library/Core/lib/USBPDCORE_PD3_FULL_CM0PLUS_wc32.a(usbpd_prl.o)
 .debug_frame   0x0000000000005a7a       0x41 Middlewares/ST/STM32_USBPD_Library/Core/lib/USBPDCORE_PD3_FULL_CM0PLUS_wc32.a(usbpd_prl.o)
 .debug_frame   0x0000000000005abb       0x41 Middlewares/ST/STM32_USBPD_Library/Core/lib/USBPDCORE_PD3_FULL_CM0PLUS_wc32.a(usbpd_prl.o)
 .debug_frame   0x0000000000005afc       0x47 Middlewares/ST/STM32_USBPD_Library/Core/lib/USBPDCORE_PD3_FULL_CM0PLUS_wc32.a(usbpd_prl.o)
 .debug_frame   0x0000000000005b43       0x3c Middlewares/ST/STM32_USBPD_Library/Core/lib/USBPDCORE_PD3_FULL_CM0PLUS_wc32.a(usbpd_prl.o)
 .debug_frame   0x0000000000005b7f       0x43 Middlewares/ST/STM32_USBPD_Library/Core/lib/USBPDCORE_PD3_FULL_CM0PLUS_wc32.a(usbpd_prl.o)
 .debug_frame   0x0000000000005bc2       0x43 Middlewares/ST/STM32_USBPD_Library/Core/lib/USBPDCORE_PD3_FULL_CM0PLUS_wc32.a(usbpd_prl.o)
 .debug_frame   0x0000000000005c05       0x4c Middlewares/ST/STM32_USBPD_Library/Core/lib/USBPDCORE_PD3_FULL_CM0PLUS_wc32.a(usbpd_prl.o)
 .debug_frame   0x0000000000005c51       0x51 Middlewares/ST/STM32_USBPD_Library/Core/lib/USBPDCORE_PD3_FULL_CM0PLUS_wc32.a(usbpd_prl.o)
 .debug_frame   0x0000000000005ca2       0x49 Middlewares/ST/STM32_USBPD_Library/Core/lib/USBPDCORE_PD3_FULL_CM0PLUS_wc32.a(usbpd_prl.o)
 .debug_frame   0x0000000000005ceb       0x41 Middlewares/ST/STM32_USBPD_Library/Core/lib/USBPDCORE_PD3_FULL_CM0PLUS_wc32.a(usbpd_prl.o)
 .debug_frame   0x0000000000005d2c       0x3c Middlewares/ST/STM32_USBPD_Library/Core/lib/USBPDCORE_PD3_FULL_CM0PLUS_wc32.a(usbpd_prl.o)
 .debug_frame   0x0000000000005d68       0x41 Middlewares/ST/STM32_USBPD_Library/Core/lib/USBPDCORE_PD3_FULL_CM0PLUS_wc32.a(usbpd_prl.o)
 .debug_frame   0x0000000000005da9       0x45 Middlewares/ST/STM32_USBPD_Library/Core/lib/USBPDCORE_PD3_FULL_CM0PLUS_wc32.a(usbpd_prl.o)
 .debug_frame   0x0000000000005dee       0x47 Middlewares/ST/STM32_USBPD_Library/Core/lib/USBPDCORE_PD3_FULL_CM0PLUS_wc32.a(usbpd_prl.o)
 .debug_frame   0x0000000000005e35       0x43 Middlewares/ST/STM32_USBPD_Library/Core/lib/USBPDCORE_PD3_FULL_CM0PLUS_wc32.a(usbpd_prl.o)
 .debug_frame   0x0000000000005e78       0x20 /usr/lib/gcc/arm-none-eabi/9.2.1/thumb/v6-m/nofp/libgcc.a(_udivsi3.o)
 .debug_frame   0x0000000000005e98       0x20 /usr/lib/gcc/arm-none-eabi/9.2.1/thumb/v6-m/nofp/libgcc.a(_divsi3.o)
 .debug_frame   0x0000000000005eb8       0x3c /usr/lib/gcc/arm-none-eabi/9.2.1/thumb/v6-m/nofp/libgcc.a(_udivmoddi4.o)
 .debug_frame   0x0000000000005ef4       0x28 /usr/lib/gcc/arm-none-eabi/9.2.1/../../../arm-none-eabi/lib/thumb/v6-m/nofp/libc_nano.a(lib_a-aeabi_memclr.o)
 .debug_frame   0x0000000000005f1c       0x28 /usr/lib/gcc/arm-none-eabi/9.2.1/../../../arm-none-eabi/lib/thumb/v6-m/nofp/libc_nano.a(lib_a-aeabi_memcpy.o)
 .debug_frame   0x0000000000005f44       0x28 /usr/lib/gcc/arm-none-eabi/9.2.1/../../../arm-none-eabi/lib/thumb/v6-m/nofp/libc_nano.a(lib_a-aeabi_memset.o)
 .debug_frame   0x0000000000005f6c       0x40 /usr/lib/gcc/arm-none-eabi/9.2.1/../../../arm-none-eabi/lib/thumb/v6-m/nofp/libc_nano.a(lib_a-malloc.o)

Cross Reference Table

Symbol                                            File
ADC1_COMP_IRQHandler                              build/startup_stm32g071xx.o
ADC_ConversionStop                                build/stm32g0xx_hal_adc.o
ADC_Disable                                       build/stm32g0xx_hal_adc.o
                                                  build/stm32g0xx_hal_adc_ex.o
ADC_Enable                                        build/stm32g0xx_hal_adc.o
AHBPrescTable                                     build/system_stm32g0xx.o
                                                  build/stm32g0xx_ll_utils.o
                                                  build/stm32g0xx_ll_rcc.o
                                                  build/stm32g0xx_hal_rcc.o
APBPrescTable                                     build/system_stm32g0xx.o
                                                  build/stm32g0xx_ll_rcc.o
                                                  build/stm32g0xx_hal_rcc.o
BSP_GUI_LoadDataFromFlash                         build/bsp_gui.o
                                                  build/gui_api.o
BSP_GUI_SaveDataInFlash                           build/bsp_gui.o
                                                  build/gui_api.o
BSP_PWR_RegisterVBUSDetectCallback                build/usbpd_pwr_user.o
BSP_PWR_SetVBUSDisconnectionThreshold             build/usbpd_pwr_user.o
BSP_PWR_VBUSDeInit                                build/usbpd_pwr_user.o
BSP_PWR_VBUSGetCurrent                            build/usbpd_pwr_user.o
                                                  build/usbpd_pwr_hw_if.o
BSP_PWR_VBUSGetVoltage                            build/usbpd_pwr_user.o
                                                  build/usbpd_pwr_hw_if.o
BSP_PWR_VBUSInit                                  build/usbpd_pwr_user.o
                                                  build/usbpd_phy_hw_if.o
BSP_PWR_VBUSIsOn                                  build/usbpd_pwr_user.o
BSP_PWR_VBUSOff                                   build/usbpd_pwr_user.o
BSP_PWR_VBUSOn                                    build/usbpd_pwr_user.o
BSP_PWR_VBUSSetVoltage_APDO                       build/usbpd_pwr_user.o
BSP_PWR_VBUSSetVoltage_Battery                    build/usbpd_pwr_user.o
BSP_PWR_VBUSSetVoltage_Fixed                      build/usbpd_pwr_user.o
BSP_PWR_VBUSSetVoltage_Variable                   build/usbpd_pwr_user.o
BSP_PWR_VCONNDeInit                               build/usbpd_pwr_user.o
BSP_PWR_VCONNInit                                 build/usbpd_pwr_user.o
BSP_PWR_VCONNIsOn                                 build/usbpd_pwr_user.o
BSP_PWR_VCONNOff                                  build/usbpd_pwr_user.o
BSP_PWR_VCONNOn                                   build/usbpd_pwr_user.o
CAD_Enter_ErrorRecovery                           build/usbpd_cad_hw_if.o
                                                  Middlewares/ST/STM32_USBPD_Library/Core/lib/USBPDCORE_PD3_FULL_CM0PLUS_wc32.a(usbpd_cad.o)
CAD_Init                                          build/usbpd_cad_hw_if.o
                                                  Middlewares/ST/STM32_USBPD_Library/Core/lib/USBPDCORE_PD3_FULL_CM0PLUS_wc32.a(usbpd_cad.o)
CAD_Set_ResistorRp                                build/usbpd_cad_hw_if.o
                                                  Middlewares/ST/STM32_USBPD_Library/Core/lib/USBPDCORE_PD3_FULL_CM0PLUS_wc32.a(usbpd_cad.o)
CAD_StateMachine                                  build/usbpd_cad_hw_if.o
                                                  Middlewares/ST/STM32_USBPD_Library/Core/lib/USBPDCORE_PD3_FULL_CM0PLUS_wc32.a(usbpd_cad.o)
CEC_IRQHandler                                    build/startup_stm32g071xx.o
Crc                                               Middlewares/ST/STM32_USBPD_Library/Core/lib/USBPDCORE_PD3_FULL_CM0PLUS_wc32.a(usbpd_pe.o)
                                                  Middlewares/ST/STM32_USBPD_Library/Core/lib/USBPDCORE_PD3_FULL_CM0PLUS_wc32.a(usbpd_cad.o)
DMA1_Ch4_7_DMAMUX1_OVR_IRQHandler                 build/stm32g0xx_it.o
DMA1_Channel1_IRQHandler                          build/stm32g0xx_it.o
DMA1_Channel2_3_IRQHandler                        build/stm32g0xx_it.o
DPM_GUI_FormatAndSendNotification                 build/usbpd_dpm_user.o
DPM_GUI_PostNotificationMessage                   build/usbpd_dpm_user.o
DPM_GUI_SaveInfo                                  build/usbpd_dpm_user.o
DPM_Params                                        build/usbpd_dpm_core.o
                                                  build/gui_api.o
DPM_Settings                                      build/usbpd_dpm_core.o
                                                  build/gui_api.o
                                                  build/bsp_gui.o
DPM_USER_Settings                                 build/gui_api.o
                                                  build/bsp_gui.o
Default_Handler                                   build/startup_stm32g071xx.o
EXTI0_1_IRQHandler                                build/startup_stm32g071xx.o
EXTI2_3_IRQHandler                                build/startup_stm32g071xx.o
EXTI4_15_IRQHandler                               build/startup_stm32g071xx.o
Error_Handler                                     build/main.o
                                                  build/stm32g0xx_hal_msp.o
FLASH_FlushCaches                                 build/stm32g0xx_hal_flash_ex.o
FLASH_IRQHandler                                  build/startup_stm32g071xx.o
FLASH_PageErase                                   build/stm32g0xx_hal_flash_ex.o
                                                  build/stm32g0xx_hal_flash.o
FLASH_WaitForLastOperation                        build/stm32g0xx_hal_flash.o
                                                  build/stm32g0xx_hal_flash_ex.o
GUIMsgBox                                         build/gui_api.o
GUI_FormatAndSendNotification                     build/gui_api.o
GUI_GetMessage                                    build/gui_api.o
GUI_Init                                          build/gui_api.o
                                                  build/usbpd.o
GUI_IsRunning                                     build/gui_api.o
GUI_NbPDO                                         build/gui_api.o
                                                  build/bsp_gui.o
                                                  build/usbpd_pwr_if.o
GUI_OriginalSettings                              build/gui_api.o
GUI_PostNotificationMessage                       build/gui_api.o
GUI_RXProcess                                     build/gui_api.o
GUI_SaveInfo                                      build/gui_api.o
GUI_SaveInformation                               build/gui_api.o
GUI_SendAnswer                                    build/gui_api.o
GUI_SendNotification                              build/gui_api.o
GUI_Start                                         build/gui_api.o
GUI_State                                         build/gui_api.o
GUI_TimerCounter                                  build/gui_api.o
                                                  build/stm32g0xx_it.o
GUI_TimerMeasReport                               build/gui_api.o
GUI_USER_Params                                   build/gui_api.o
HAL_ADCEx_Calibration_GetValue                    build/stm32g0xx_hal_adc_ex.o
HAL_ADCEx_Calibration_SetValue                    build/stm32g0xx_hal_adc_ex.o
HAL_ADCEx_Calibration_Start                       build/stm32g0xx_hal_adc_ex.o
                                                  build/main.o
HAL_ADCEx_ChannelConfigReadyCallback              build/stm32g0xx_hal_adc_ex.o
                                                  build/stm32g0xx_hal_adc.o
HAL_ADCEx_DisableVoltageRegulator                 build/stm32g0xx_hal_adc_ex.o
HAL_ADCEx_EndOfSamplingCallback                   build/stm32g0xx_hal_adc_ex.o
                                                  build/stm32g0xx_hal_adc.o
HAL_ADCEx_LevelOutOfWindow2Callback               build/stm32g0xx_hal_adc_ex.o
                                                  build/stm32g0xx_hal_adc.o
HAL_ADCEx_LevelOutOfWindow3Callback               build/stm32g0xx_hal_adc_ex.o
                                                  build/stm32g0xx_hal_adc.o
HAL_ADC_AnalogWDGConfig                           build/stm32g0xx_hal_adc.o
HAL_ADC_ConfigChannel                             build/stm32g0xx_hal_adc.o
                                                  build/main.o
HAL_ADC_ConvCpltCallback                          build/stm32g0xx_hal_adc.o
HAL_ADC_ConvHalfCpltCallback                      build/stm32g0xx_hal_adc.o
HAL_ADC_DeInit                                    build/stm32g0xx_hal_adc.o
HAL_ADC_ErrorCallback                             build/stm32g0xx_hal_adc.o
HAL_ADC_GetError                                  build/stm32g0xx_hal_adc.o
HAL_ADC_GetState                                  build/stm32g0xx_hal_adc.o
HAL_ADC_GetValue                                  build/stm32g0xx_hal_adc.o
HAL_ADC_IRQHandler                                build/stm32g0xx_hal_adc.o
HAL_ADC_Init                                      build/stm32g0xx_hal_adc.o
                                                  build/main.o
HAL_ADC_LevelOutOfWindowCallback                  build/stm32g0xx_hal_adc.o
HAL_ADC_MspDeInit                                 build/stm32g0xx_hal_msp.o
HAL_ADC_MspInit                                   build/stm32g0xx_hal_msp.o
HAL_ADC_PollForConversion                         build/stm32g0xx_hal_adc.o
HAL_ADC_PollForEvent                              build/stm32g0xx_hal_adc.o
HAL_ADC_Start                                     build/stm32g0xx_hal_adc.o
                                                  build/main.o
HAL_ADC_Start_DMA                                 build/stm32g0xx_hal_adc.o
HAL_ADC_Start_IT                                  build/stm32g0xx_hal_adc.o
HAL_ADC_Stop                                      build/stm32g0xx_hal_adc.o
HAL_ADC_Stop_DMA                                  build/stm32g0xx_hal_adc.o
HAL_ADC_Stop_IT                                   build/stm32g0xx_hal_adc.o
HAL_DBGMCU_DisableDBGStandbyMode                  build/stm32g0xx_hal.o
HAL_DBGMCU_DisableDBGStopMode                     build/stm32g0xx_hal.o
HAL_DBGMCU_EnableDBGStandbyMode                   build/stm32g0xx_hal.o
HAL_DBGMCU_EnableDBGStopMode                      build/stm32g0xx_hal.o
HAL_DMAEx_ConfigMuxRequestGenerator               build/stm32g0xx_hal_dma_ex.o
HAL_DMAEx_ConfigMuxSync                           build/stm32g0xx_hal_dma_ex.o
HAL_DMAEx_DisableMuxRequestGenerator              build/stm32g0xx_hal_dma_ex.o
HAL_DMAEx_EnableMuxRequestGenerator               build/stm32g0xx_hal_dma_ex.o
HAL_DMAEx_MUX_IRQHandler                          build/stm32g0xx_hal_dma_ex.o
HAL_DMA_Abort                                     build/stm32g0xx_hal_dma.o
                                                  build/stm32g0xx_hal_uart.o
                                                  build/stm32g0xx_hal_adc.o
HAL_DMA_Abort_IT                                  build/stm32g0xx_hal_dma.o
                                                  build/stm32g0xx_hal_uart.o
HAL_DMA_DeInit                                    build/stm32g0xx_hal_dma.o
                                                  build/stm32g0xx_hal_msp.o
HAL_DMA_GetError                                  build/stm32g0xx_hal_dma.o
                                                  build/stm32g0xx_hal_uart.o
HAL_DMA_GetState                                  build/stm32g0xx_hal_dma.o
HAL_DMA_IRQHandler                                build/stm32g0xx_hal_dma.o
                                                  build/stm32g0xx_it.o
HAL_DMA_Init                                      build/stm32g0xx_hal_dma.o
                                                  build/stm32g0xx_hal_msp.o
HAL_DMA_PollForTransfer                           build/stm32g0xx_hal_dma.o
HAL_DMA_RegisterCallback                          build/stm32g0xx_hal_dma.o
HAL_DMA_Start                                     build/stm32g0xx_hal_dma.o
HAL_DMA_Start_IT                                  build/stm32g0xx_hal_dma.o
                                                  build/stm32g0xx_hal_uart.o
                                                  build/stm32g0xx_hal_adc.o
HAL_DMA_UnRegisterCallback                        build/stm32g0xx_hal_dma.o
HAL_DeInit                                        build/stm32g0xx_hal.o
HAL_Delay                                         build/stm32g0xx_hal.o
                                                  build/usbpd_phy_hw_if.o
HAL_EXTI_ClearConfigLine                          build/stm32g0xx_hal_exti.o
HAL_EXTI_ClearPending                             build/stm32g0xx_hal_exti.o
HAL_EXTI_GenerateSWI                              build/stm32g0xx_hal_exti.o
HAL_EXTI_GetConfigLine                            build/stm32g0xx_hal_exti.o
HAL_EXTI_GetHandle                                build/stm32g0xx_hal_exti.o
HAL_EXTI_GetPending                               build/stm32g0xx_hal_exti.o
HAL_EXTI_IRQHandler                               build/stm32g0xx_hal_exti.o
HAL_EXTI_RegisterCallback                         build/stm32g0xx_hal_exti.o
HAL_EXTI_SetConfigLine                            build/stm32g0xx_hal_exti.o
HAL_FLASHEx_DisableDebugger                       build/stm32g0xx_hal_flash_ex.o
HAL_FLASHEx_EnableDebugger                        build/stm32g0xx_hal_flash_ex.o
HAL_FLASHEx_EnableSecMemProtection                build/stm32g0xx_hal_flash_ex.o
HAL_FLASHEx_Erase                                 build/stm32g0xx_hal_flash_ex.o
                                                  build/bsp_gui.o
HAL_FLASHEx_Erase_IT                              build/stm32g0xx_hal_flash_ex.o
HAL_FLASHEx_FlashEmptyCheck                       build/stm32g0xx_hal_flash_ex.o
HAL_FLASHEx_ForceFlashEmpty                       build/stm32g0xx_hal_flash_ex.o
HAL_FLASHEx_OBGetConfig                           build/stm32g0xx_hal_flash_ex.o
HAL_FLASHEx_OBProgram                             build/stm32g0xx_hal_flash_ex.o
HAL_FLASH_EndOfOperationCallback                  build/stm32g0xx_hal_flash.o
HAL_FLASH_GetError                                build/stm32g0xx_hal_flash.o
HAL_FLASH_IRQHandler                              build/stm32g0xx_hal_flash.o
HAL_FLASH_Lock                                    build/stm32g0xx_hal_flash.o
                                                  build/bsp_gui.o
HAL_FLASH_OB_Launch                               build/stm32g0xx_hal_flash.o
HAL_FLASH_OB_Lock                                 build/stm32g0xx_hal_flash.o
HAL_FLASH_OB_Unlock                               build/stm32g0xx_hal_flash.o
HAL_FLASH_OperationErrorCallback                  build/stm32g0xx_hal_flash.o
HAL_FLASH_Program                                 build/stm32g0xx_hal_flash.o
                                                  build/bsp_gui.o
HAL_FLASH_Program_IT                              build/stm32g0xx_hal_flash.o
HAL_FLASH_Unlock                                  build/stm32g0xx_hal_flash.o
                                                  build/bsp_gui.o
HAL_GPIO_DeInit                                   build/stm32g0xx_hal_gpio.o
                                                  build/stm32g0xx_hal_msp.o
HAL_GPIO_EXTI_Falling_Callback                    build/stm32g0xx_hal_gpio.o
HAL_GPIO_EXTI_IRQHandler                          build/stm32g0xx_hal_gpio.o
HAL_GPIO_EXTI_Rising_Callback                     build/stm32g0xx_hal_gpio.o
HAL_GPIO_Init                                     build/stm32g0xx_hal_gpio.o
                                                  build/stm32g0xx_hal_rcc_ex.o
                                                  build/stm32g0xx_hal_rcc.o
                                                  build/stm32g0xx_hal_msp.o
                                                  build/main.o
HAL_GPIO_LockPin                                  build/stm32g0xx_hal_gpio.o
HAL_GPIO_ReadPin                                  build/stm32g0xx_hal_gpio.o
HAL_GPIO_TogglePin                                build/stm32g0xx_hal_gpio.o
HAL_GPIO_WritePin                                 build/stm32g0xx_hal_gpio.o
                                                  build/main.o
HAL_GetDEVID                                      build/stm32g0xx_hal.o
HAL_GetHalVersion                                 build/stm32g0xx_hal.o
HAL_GetREVID                                      build/stm32g0xx_hal.o
HAL_GetTick                                       build/stm32g0xx_hal.o
                                                  build/gui_api.o
                                                  build/stm32g0xx_hal_uart_ex.o
                                                  build/stm32g0xx_hal_uart.o
                                                  build/usbpd_cad_hw_if.o
                                                  build/usbpd_trace.o
                                                  build/stm32g0xx_hal_dma.o
                                                  build/stm32g0xx_hal_flash.o
                                                  build/stm32g0xx_hal_rcc_ex.o
                                                  build/stm32g0xx_hal_rcc.o
                                                  build/stm32g0xx_hal_adc.o
HAL_GetTickFreq                                   build/stm32g0xx_hal.o
HAL_GetTickPrio                                   build/stm32g0xx_hal.o
HAL_GetUIDw0                                      build/stm32g0xx_hal.o
HAL_GetUIDw1                                      build/stm32g0xx_hal.o
HAL_GetUIDw2                                      build/stm32g0xx_hal.o
HAL_HalfDuplex_EnableReceiver                     build/stm32g0xx_hal_uart.o
HAL_HalfDuplex_EnableTransmitter                  build/stm32g0xx_hal_uart.o
HAL_HalfDuplex_Init                               build/stm32g0xx_hal_uart.o
HAL_IncTick                                       build/stm32g0xx_hal.o
HAL_Init                                          build/stm32g0xx_hal.o
                                                  build/main.o
HAL_InitTick                                      build/stm32g0xx_hal.o
                                                  build/stm32g0xx_hal_rcc.o
HAL_LIN_Init                                      build/stm32g0xx_hal_uart.o
HAL_LIN_SendBreak                                 build/stm32g0xx_hal_uart.o
HAL_MPU_ConfigRegion                              build/stm32g0xx_hal_cortex.o
HAL_MPU_Disable                                   build/stm32g0xx_hal_cortex.o
HAL_MPU_Enable                                    build/stm32g0xx_hal_cortex.o
HAL_MspDeInit                                     build/stm32g0xx_hal.o
HAL_MspInit                                       build/stm32g0xx_hal_msp.o
HAL_MultiProcessorEx_AddressLength_Set            build/stm32g0xx_hal_uart_ex.o
HAL_MultiProcessor_DisableMuteMode                build/stm32g0xx_hal_uart.o
HAL_MultiProcessor_EnableMuteMode                 build/stm32g0xx_hal_uart.o
HAL_MultiProcessor_EnterMuteMode                  build/stm32g0xx_hal_uart.o
HAL_MultiProcessor_Init                           build/stm32g0xx_hal_uart.o
HAL_NVIC_ClearPendingIRQ                          build/stm32g0xx_hal_cortex.o
HAL_NVIC_DisableIRQ                               build/stm32g0xx_hal_cortex.o
                                                  build/stm32g0xx_hal_msp.o
HAL_NVIC_EnableIRQ                                build/stm32g0xx_hal_cortex.o
                                                  build/stm32g0xx_hal_msp.o
                                                  build/main.o
HAL_NVIC_GetPendingIRQ                            build/stm32g0xx_hal_cortex.o
HAL_NVIC_GetPriority                              build/stm32g0xx_hal_cortex.o
HAL_NVIC_SetPendingIRQ                            build/stm32g0xx_hal_cortex.o
HAL_NVIC_SetPriority                              build/stm32g0xx_hal_cortex.o
                                                  build/stm32g0xx_hal.o
                                                  build/stm32g0xx_hal_msp.o
                                                  build/main.o
HAL_NVIC_SystemReset                              build/stm32g0xx_hal_cortex.o
                                                  build/gui_api.o
HAL_PWREx_ControlVoltageScaling                   build/stm32g0xx_hal_pwr_ex.o
                                                  build/main.o
HAL_PWREx_DisableBatteryCharging                  build/stm32g0xx_hal_pwr_ex.o
HAL_PWREx_DisableFlashPowerDown                   build/stm32g0xx_hal_pwr_ex.o
HAL_PWREx_DisableGPIOPullDown                     build/stm32g0xx_hal_pwr_ex.o
HAL_PWREx_DisableGPIOPullUp                       build/stm32g0xx_hal_pwr_ex.o
HAL_PWREx_DisableInternalWakeUpLine               build/stm32g0xx_hal_pwr_ex.o
HAL_PWREx_DisableLowPowerRunMode                  build/stm32g0xx_hal_pwr_ex.o
                                                  build/stm32g0xx_hal_pwr.o
HAL_PWREx_DisablePORMonitorSampling               build/stm32g0xx_hal_pwr_ex.o
HAL_PWREx_DisablePullUpPullDownConfig             build/stm32g0xx_hal_pwr_ex.o
HAL_PWREx_DisableSRAMRetention                    build/stm32g0xx_hal_pwr_ex.o
HAL_PWREx_EnableBatteryCharging                   build/stm32g0xx_hal_pwr_ex.o
HAL_PWREx_EnableFlashPowerDown                    build/stm32g0xx_hal_pwr_ex.o
HAL_PWREx_EnableGPIOPullDown                      build/stm32g0xx_hal_pwr_ex.o
HAL_PWREx_EnableGPIOPullUp                        build/stm32g0xx_hal_pwr_ex.o
HAL_PWREx_EnableInternalWakeUpLine                build/stm32g0xx_hal_pwr_ex.o
HAL_PWREx_EnableLowPowerRunMode                   build/stm32g0xx_hal_pwr_ex.o
                                                  build/stm32g0xx_hal_pwr.o
HAL_PWREx_EnablePORMonitorSampling                build/stm32g0xx_hal_pwr_ex.o
HAL_PWREx_EnablePullUpPullDownConfig              build/stm32g0xx_hal_pwr_ex.o
HAL_PWREx_EnableSRAMRetention                     build/stm32g0xx_hal_pwr_ex.o
HAL_PWREx_EnterSHUTDOWNMode                       build/stm32g0xx_hal_pwr_ex.o
HAL_PWREx_GetVoltageRange                         build/stm32g0xx_hal_pwr_ex.o
HAL_PWR_ConfigPVD                                 build/stm32g0xx_hal_pwr.o
HAL_PWR_DeInit                                    build/stm32g0xx_hal_pwr.o
HAL_PWR_DisableBkUpAccess                         build/stm32g0xx_hal_pwr.o
                                                  build/stm32g0xx_hal_rcc_ex.o
HAL_PWR_DisablePVD                                build/stm32g0xx_hal_pwr.o
HAL_PWR_DisableSEVOnPend                          build/stm32g0xx_hal_pwr.o
HAL_PWR_DisableSleepOnExit                        build/stm32g0xx_hal_pwr.o
HAL_PWR_DisableWakeUpPin                          build/stm32g0xx_hal_pwr.o
HAL_PWR_EnableBkUpAccess                          build/stm32g0xx_hal_pwr.o
                                                  build/stm32g0xx_hal_rcc_ex.o
HAL_PWR_EnablePVD                                 build/stm32g0xx_hal_pwr.o
HAL_PWR_EnableSEVOnPend                           build/stm32g0xx_hal_pwr.o
HAL_PWR_EnableSleepOnExit                         build/stm32g0xx_hal_pwr.o
HAL_PWR_EnableWakeUpPin                           build/stm32g0xx_hal_pwr.o
HAL_PWR_EnterSLEEPMode                            build/stm32g0xx_hal_pwr.o
HAL_PWR_EnterSTANDBYMode                          build/stm32g0xx_hal_pwr.o
HAL_PWR_EnterSTOPMode                             build/stm32g0xx_hal_pwr.o
HAL_PWR_PVD_Falling_Callback                      build/stm32g0xx_hal_pwr.o
HAL_PWR_PVD_IRQHandler                            build/stm32g0xx_hal_pwr.o
HAL_PWR_PVD_Rising_Callback                       build/stm32g0xx_hal_pwr.o
HAL_RCCEx_DisableLSCO                             build/stm32g0xx_hal_rcc_ex.o
HAL_RCCEx_EnableLSCO                              build/stm32g0xx_hal_rcc_ex.o
HAL_RCCEx_GetPeriphCLKConfig                      build/stm32g0xx_hal_rcc_ex.o
HAL_RCCEx_GetPeriphCLKFreq                        build/stm32g0xx_hal_rcc_ex.o
HAL_RCCEx_PeriphCLKConfig                         build/stm32g0xx_hal_rcc_ex.o
                                                  build/main.o
HAL_RCC_CSSCallback                               build/stm32g0xx_hal_rcc.o
HAL_RCC_ClockConfig                               build/stm32g0xx_hal_rcc.o
                                                  build/main.o
HAL_RCC_DeInit                                    build/stm32g0xx_hal_rcc.o
HAL_RCC_DisableLSECSS                             build/stm32g0xx_hal_rcc.o
HAL_RCC_EnableCSS                                 build/stm32g0xx_hal_rcc.o
HAL_RCC_EnableLSECSS                              build/stm32g0xx_hal_rcc.o
HAL_RCC_GetClockConfig                            build/stm32g0xx_hal_rcc.o
HAL_RCC_GetHCLKFreq                               build/stm32g0xx_hal_rcc.o
HAL_RCC_GetOscConfig                              build/stm32g0xx_hal_rcc.o
HAL_RCC_GetPCLK1Freq                              build/stm32g0xx_hal_rcc.o
                                                  build/stm32g0xx_hal_uart.o
                                                  build/stm32g0xx_hal_rcc_ex.o
HAL_RCC_GetSysClockFreq                           build/stm32g0xx_hal_rcc.o
                                                  build/stm32g0xx_hal_uart.o
                                                  build/stm32g0xx_hal_rcc_ex.o
HAL_RCC_LSECSSCallback                            build/stm32g0xx_hal_rcc.o
HAL_RCC_MCOConfig                                 build/stm32g0xx_hal_rcc.o
HAL_RCC_NMI_IRQHandler                            build/stm32g0xx_hal_rcc.o
HAL_RCC_OscConfig                                 build/stm32g0xx_hal_rcc.o
                                                  build/main.o
HAL_RS485Ex_Init                                  build/stm32g0xx_hal_uart_ex.o
HAL_ResumeTick                                    build/stm32g0xx_hal.o
HAL_SYSCFG_DisableIOAnalogSwitchBooster           build/stm32g0xx_hal.o
HAL_SYSCFG_DisableRemap                           build/stm32g0xx_hal.o
HAL_SYSCFG_DisableVREFBUF                         build/stm32g0xx_hal.o
HAL_SYSCFG_EnableIOAnalogSwitchBooster            build/stm32g0xx_hal.o
HAL_SYSCFG_EnableRemap                            build/stm32g0xx_hal.o
HAL_SYSCFG_EnableVREFBUF                          build/stm32g0xx_hal.o
HAL_SYSCFG_StrobeDBattpinsConfig                  build/stm32g0xx_hal.o
HAL_SYSCFG_VREFBUF_HighImpedanceConfig            build/stm32g0xx_hal.o
HAL_SYSCFG_VREFBUF_TrimmingConfig                 build/stm32g0xx_hal.o
HAL_SYSCFG_VREFBUF_VoltageScalingConfig           build/stm32g0xx_hal.o
HAL_SYSTICK_CLKSourceConfig                       build/stm32g0xx_hal_cortex.o
HAL_SYSTICK_Callback                              build/stm32g0xx_hal_cortex.o
HAL_SYSTICK_Config                                build/stm32g0xx_hal_cortex.o
                                                  build/stm32g0xx_hal.o
HAL_SYSTICK_IRQHandler                            build/stm32g0xx_hal_cortex.o
HAL_SetTickFreq                                   build/stm32g0xx_hal.o
HAL_SuspendTick                                   build/stm32g0xx_hal.o
HAL_UARTEx_DisableFifoMode                        build/stm32g0xx_hal_uart_ex.o
                                                  build/main.o
HAL_UARTEx_DisableStopMode                        build/stm32g0xx_hal_uart_ex.o
HAL_UARTEx_EnableFifoMode                         build/stm32g0xx_hal_uart_ex.o
HAL_UARTEx_EnableStopMode                         build/stm32g0xx_hal_uart_ex.o
HAL_UARTEx_RxFifoFullCallback                     build/stm32g0xx_hal_uart_ex.o
                                                  build/stm32g0xx_hal_uart.o
HAL_UARTEx_SetRxFifoThreshold                     build/stm32g0xx_hal_uart_ex.o
                                                  build/main.o
HAL_UARTEx_SetTxFifoThreshold                     build/stm32g0xx_hal_uart_ex.o
                                                  build/main.o
HAL_UARTEx_StopModeWakeUpSourceConfig             build/stm32g0xx_hal_uart_ex.o
HAL_UARTEx_TxFifoEmptyCallback                    build/stm32g0xx_hal_uart_ex.o
                                                  build/stm32g0xx_hal_uart.o
HAL_UARTEx_WakeupCallback                         build/stm32g0xx_hal_uart_ex.o
                                                  build/stm32g0xx_hal_uart.o
HAL_UART_Abort                                    build/stm32g0xx_hal_uart.o
HAL_UART_AbortCpltCallback                        build/stm32g0xx_hal_uart.o
HAL_UART_AbortReceive                             build/stm32g0xx_hal_uart.o
HAL_UART_AbortReceiveCpltCallback                 build/stm32g0xx_hal_uart.o
HAL_UART_AbortReceive_IT                          build/stm32g0xx_hal_uart.o
HAL_UART_AbortTransmit                            build/stm32g0xx_hal_uart.o
HAL_UART_AbortTransmitCpltCallback                build/stm32g0xx_hal_uart.o
HAL_UART_AbortTransmit_IT                         build/stm32g0xx_hal_uart.o
HAL_UART_Abort_IT                                 build/stm32g0xx_hal_uart.o
HAL_UART_DMAPause                                 build/stm32g0xx_hal_uart.o
HAL_UART_DMAResume                                build/stm32g0xx_hal_uart.o
HAL_UART_DMAStop                                  build/stm32g0xx_hal_uart.o
HAL_UART_DeInit                                   build/stm32g0xx_hal_uart.o
HAL_UART_ErrorCallback                            build/stm32g0xx_hal_uart.o
HAL_UART_GetError                                 build/stm32g0xx_hal_uart.o
HAL_UART_GetState                                 build/stm32g0xx_hal_uart.o
HAL_UART_IRQHandler                               build/stm32g0xx_hal_uart.o
                                                  build/stm32g0xx_it.o
HAL_UART_Init                                     build/stm32g0xx_hal_uart.o
                                                  build/main.o
HAL_UART_MspDeInit                                build/stm32g0xx_hal_msp.o
HAL_UART_MspInit                                  build/stm32g0xx_hal_msp.o
                                                  build/stm32g0xx_hal_uart_ex.o
HAL_UART_Receive                                  build/stm32g0xx_hal_uart.o
HAL_UART_Receive_DMA                              build/stm32g0xx_hal_uart.o
HAL_UART_Receive_IT                               build/stm32g0xx_hal_uart.o
HAL_UART_RxCpltCallback                           build/stm32g0xx_hal_uart.o
HAL_UART_RxHalfCpltCallback                       build/stm32g0xx_hal_uart.o
HAL_UART_Transmit                                 build/stm32g0xx_hal_uart.o
HAL_UART_Transmit_DMA                             build/stm32g0xx_hal_uart.o
HAL_UART_Transmit_IT                              build/stm32g0xx_hal_uart.o
HAL_UART_TxCpltCallback                           build/stm32g0xx_hal_uart.o
HAL_UART_TxHalfCpltCallback                       build/stm32g0xx_hal_uart.o
HWBoardVersionName                                build/usbpd.o
HW_IF_PWR_Enable                                  build/usbpd_pwr_if.o
HW_IF_PWR_GetCurrent                              build/usbpd_pwr_hw_if.o
                                                  build/usbpd.o
HW_IF_PWR_GetVoltage                              build/usbpd_pwr_hw_if.o
                                                  build/usbpd_cad_hw_if.o
                                                  build/usbpd.o
HW_IF_PWR_SetVoltage                              build/usbpd_pwr_hw_if.o
HW_IF_PWR_VBUSIsEnabled                           build/usbpd_pwr_hw_if.o
                                                  build/usbpd_pwr_if.o
HW_SignalAttachement                              build/usbpd_phy_hw_if.o
                                                  build/usbpd_cad_hw_if.o
HW_SignalDetachment                               build/usbpd_phy_hw_if.o
                                                  build/usbpd_cad_hw_if.o
HW_TRACER_EMB_DeInit                              build/tracer_emb_hw.o
HW_TRACER_EMB_IRQHandlerDMA                       build/tracer_emb_hw.o
                                                  build/tracer_emb.o
HW_TRACER_EMB_IRQHandlerUSART                     build/tracer_emb_hw.o
                                                  build/tracer_emb.o
HW_TRACER_EMB_Init                                build/tracer_emb_hw.o
                                                  build/tracer_emb.o
HW_TRACER_EMB_ReadData                            build/tracer_emb_hw.o
                                                  build/tracer_emb.o
HW_TRACER_EMB_RegisterRxCallback                  build/tracer_emb_hw.o
                                                  build/tracer_emb.o
HW_TRACER_EMB_SendData                            build/tracer_emb_hw.o
                                                  build/tracer_emb.o
HW_TRACER_EMB_StartRX                             build/tracer_emb_hw.o
                                                  build/tracer_emb.o
HardFault_Handler                                 build/stm32g0xx_it.o
I2C1_IRQHandler                                   build/startup_stm32g071xx.o
I2C2_IRQHandler                                   build/startup_stm32g071xx.o
LL_ADC_CommonDeInit                               build/stm32g0xx_ll_adc.o
LL_ADC_CommonInit                                 build/stm32g0xx_ll_adc.o
LL_ADC_CommonStructInit                           build/stm32g0xx_ll_adc.o
LL_ADC_DeInit                                     build/stm32g0xx_ll_adc.o
LL_ADC_Init                                       build/stm32g0xx_ll_adc.o
LL_ADC_REG_Init                                   build/stm32g0xx_ll_adc.o
LL_ADC_REG_StructInit                             build/stm32g0xx_ll_adc.o
LL_ADC_StructInit                                 build/stm32g0xx_ll_adc.o
LL_DMA_DeInit                                     build/stm32g0xx_ll_dma.o
LL_DMA_Init                                       build/stm32g0xx_ll_dma.o
                                                  build/usbpd_hw.o
LL_DMA_StructInit                                 build/stm32g0xx_ll_dma.o
LL_EXTI_DeInit                                    build/stm32g0xx_ll_exti.o
LL_EXTI_Init                                      build/stm32g0xx_ll_exti.o
LL_EXTI_StructInit                                build/stm32g0xx_ll_exti.o
LL_GPIO_DeInit                                    build/stm32g0xx_ll_gpio.o
LL_GPIO_Init                                      build/stm32g0xx_ll_gpio.o
LL_GPIO_StructInit                                build/stm32g0xx_ll_gpio.o
LL_Init1msTick                                    build/stm32g0xx_ll_utils.o
LL_LPUART_DeInit                                  build/stm32g0xx_ll_lpuart.o
LL_LPUART_Init                                    build/stm32g0xx_ll_lpuart.o
                                                  build/tracer_emb_hw.o
LL_LPUART_StructInit                              build/stm32g0xx_ll_lpuart.o
LL_PLL_ConfigSystemClock_HSE                      build/stm32g0xx_ll_utils.o
LL_PLL_ConfigSystemClock_HSI                      build/stm32g0xx_ll_utils.o
LL_RCC_DeInit                                     build/stm32g0xx_ll_rcc.o
LL_RCC_GetADCClockFreq                            build/stm32g0xx_ll_rcc.o
LL_RCC_GetCECClockFreq                            build/stm32g0xx_ll_rcc.o
LL_RCC_GetI2CClockFreq                            build/stm32g0xx_ll_rcc.o
LL_RCC_GetI2SClockFreq                            build/stm32g0xx_ll_rcc.o
LL_RCC_GetLPTIMClockFreq                          build/stm32g0xx_ll_rcc.o
LL_RCC_GetLPUARTClockFreq                         build/stm32g0xx_ll_rcc.o
                                                  build/stm32g0xx_ll_lpuart.o
LL_RCC_GetRTCClockFreq                            build/stm32g0xx_ll_rcc.o
LL_RCC_GetSystemClocksFreq                        build/stm32g0xx_ll_rcc.o
                                                  build/stm32g0xx_ll_usart.o
LL_RCC_GetTIMClockFreq                            build/stm32g0xx_ll_rcc.o
LL_RCC_GetUSARTClockFreq                          build/stm32g0xx_ll_rcc.o
                                                  build/stm32g0xx_ll_usart.o
LL_SetSystemCoreClock                             build/stm32g0xx_ll_utils.o
LL_TIM_BDTR_Init                                  build/stm32g0xx_ll_tim.o
LL_TIM_BDTR_StructInit                            build/stm32g0xx_ll_tim.o
LL_TIM_DeInit                                     build/stm32g0xx_ll_tim.o
LL_TIM_ENCODER_Init                               build/stm32g0xx_ll_tim.o
LL_TIM_ENCODER_StructInit                         build/stm32g0xx_ll_tim.o
LL_TIM_HALLSENSOR_Init                            build/stm32g0xx_ll_tim.o
LL_TIM_HALLSENSOR_StructInit                      build/stm32g0xx_ll_tim.o
LL_TIM_IC_Init                                    build/stm32g0xx_ll_tim.o
LL_TIM_IC_StructInit                              build/stm32g0xx_ll_tim.o
LL_TIM_Init                                       build/stm32g0xx_ll_tim.o
LL_TIM_OC_Init                                    build/stm32g0xx_ll_tim.o
LL_TIM_OC_StructInit                              build/stm32g0xx_ll_tim.o
LL_TIM_StructInit                                 build/stm32g0xx_ll_tim.o
LL_UCPD_DeInit                                    build/stm32g0xx_ll_ucpd.o
LL_UCPD_Init                                      build/stm32g0xx_ll_ucpd.o
                                                  build/usbpd_cad_hw_if.o
LL_UCPD_StructInit                                build/stm32g0xx_ll_ucpd.o
                                                  build/usbpd_cad_hw_if.o
LL_USART_ClockInit                                build/stm32g0xx_ll_usart.o
LL_USART_ClockStructInit                          build/stm32g0xx_ll_usart.o
LL_USART_DeInit                                   build/stm32g0xx_ll_usart.o
LL_USART_Init                                     build/stm32g0xx_ll_usart.o
LL_USART_StructInit                               build/stm32g0xx_ll_usart.o
LL_mDelay                                         build/stm32g0xx_ll_utils.o
MX_USBPD_Init                                     build/usbpd.o
                                                  build/main.o
NMI_Handler                                       build/stm32g0xx_it.o
PDTypeName                                        build/usbpd.o
PE_Get_DataRole                                   Middlewares/ST/STM32_USBPD_Library/Core/lib/USBPDCORE_PD3_FULL_CM0PLUS_wc32.a(usbpd_pe.o)
PE_Get_SpecRevision                               Middlewares/ST/STM32_USBPD_Library/Core/lib/USBPDCORE_PD3_FULL_CM0PLUS_wc32.a(usbpd_pe.o)
PE_PRL_BistCompleted                              Middlewares/ST/STM32_USBPD_Library/Core/lib/USBPDCORE_PD3_FULL_CM0PLUS_wc32.a(usbpd_pe.o)
PE_PRL_HardResetReceived                          Middlewares/ST/STM32_USBPD_Library/Core/lib/USBPDCORE_PD3_FULL_CM0PLUS_wc32.a(usbpd_pe.o)
PE_Reset                                          Middlewares/ST/STM32_USBPD_Library/Core/lib/USBPDCORE_PD3_FULL_CM0PLUS_wc32.a(usbpd_pe.o)
PE_ResetDuringSwap                                Middlewares/ST/STM32_USBPD_Library/Core/lib/USBPDCORE_PD3_FULL_CM0PLUS_wc32.a(usbpd_pe.o)
PHY_BistCompleted                                 build/usbpd_phy.o
PHY_ResetCompleted                                build/usbpd_phy.o
PHY_Rx_Completed                                  build/usbpd_phy.o
PHY_Rx_HardReset                                  build/usbpd_phy.o
PHY_Rx_Reset                                      build/usbpd_phy.o
PHY_TxCompleted                                   build/usbpd_phy.o
PORT0_PDO_ListSNK                                 build/usbpd_pwr_if.o
                                                  build/gui_api.o
                                                  build/bsp_gui.o
PORT0_PDO_ListSRC                                 build/usbpd_pwr_if.o
PORTx_IRQHandler                                  build/usbpd_hw_if_it.o
PVD_IRQHandler                                    build/startup_stm32g071xx.o
PendSV_Handler                                    build/port.o
Ports                                             build/usbpd_phy_hw_if.o
                                                  build/usbpd_phy.o
                                                  build/usbpd_hw_if_it.o
                                                  build/usbpd_cad_hw_if.o
Processed                                         build/gui_api.o
PtrDataRx                                         build/gui_api.o
RCC_GetHCLKClockFreq                              build/stm32g0xx_ll_rcc.o
RCC_GetPCLK1ClockFreq                             build/stm32g0xx_ll_rcc.o
RCC_GetSystemClockFreq                            build/stm32g0xx_ll_rcc.o
RCC_IRQHandler                                    build/startup_stm32g071xx.o
RCC_PLL_GetFreqDomain_ADC                         build/stm32g0xx_ll_rcc.o
RCC_PLL_GetFreqDomain_I2S1                        build/stm32g0xx_ll_rcc.o
RCC_PLL_GetFreqDomain_SYS                         build/stm32g0xx_ll_rcc.o
RCC_PLL_GetFreqDomain_TIM1                        build/stm32g0xx_ll_rcc.o
RCC_PLL_GetFreqDomain_TIM15                       build/stm32g0xx_ll_rcc.o
RTC_TAMP_IRQHandler                               build/startup_stm32g071xx.o
Reset_Handler                                     build/startup_stm32g071xx.o
SPI1_IRQHandler                                   build/startup_stm32g071xx.o
SPI2_IRQHandler                                   build/startup_stm32g071xx.o
SVC_Handler                                       build/port.o
StartDefaultTask                                  build/main.o
SysTick_Handler                                   build/stm32g0xx_it.o
SystemClock_Config                                build/main.o
SystemCoreClock                                   build/system_stm32g0xx.o
                                                  build/usbpd_timersserver.o
                                                  build/port.o
                                                  build/stm32g0xx_ll_utils.o
                                                  build/stm32g0xx_hal.o
                                                  build/stm32g0xx_hal_pwr_ex.o
                                                  build/stm32g0xx_hal_rcc.o
                                                  build/stm32g0xx_hal_adc.o
SystemCoreClockUpdate                             build/system_stm32g0xx.o
SystemInit                                        build/system_stm32g0xx.o
                                                  build/startup_stm32g071xx.o
TIM14_IRQHandler                                  build/startup_stm32g071xx.o
TIM15_IRQHandler                                  build/startup_stm32g071xx.o
TIM16_IRQHandler                                  build/startup_stm32g071xx.o
TIM17_IRQHandler                                  build/startup_stm32g071xx.o
TIM1_BRK_UP_TRG_COM_IRQHandler                    build/startup_stm32g071xx.o
TIM1_CC_IRQHandler                                build/startup_stm32g071xx.o
TIM2_IRQHandler                                   build/startup_stm32g071xx.o
TIM3_IRQHandler                                   build/startup_stm32g071xx.o
TIM6_DAC_LPTIM1_IRQHandler                        build/startup_stm32g071xx.o
TIM7_LPTIM2_IRQHandler                            build/startup_stm32g071xx.o
TLV_UpdateSizeTag                                 build/data_struct_tlv.o
TLV_add                                           build/data_struct_tlv.o
                                                  build/gui_api.o
TLV_addValue                                      build/data_struct_tlv.o
                                                  build/gui_api.o
TLV_deinit_decode                                 build/data_struct_tlv.o
                                                  build/gui_api.o
TLV_deinit_encode                                 build/data_struct_tlv.o
                                                  build/gui_api.o
TLV_get                                           build/data_struct_tlv.o
                                                  build/gui_api.o
TLV_get_string_length                             build/data_struct_tlv.o
                                                  build/gui_api.o
TLV_init_decode                                   build/data_struct_tlv.o
                                                  build/gui_api.o
TLV_init_encode                                   build/data_struct_tlv.o
                                                  build/gui_api.o
TRACER_EMB_Add                                    build/tracer_emb.o
                                                  build/gui_api.o
TRACER_EMB_AllocateBufer                          build/tracer_emb.o
                                                  build/usbpd_trace.o
TRACER_EMB_CALLBACK_TX                            build/tracer_emb.o
                                                  build/tracer_emb_hw.o
TRACER_EMB_IRQHandlerDMA                          build/tracer_emb.o
                                                  build/stm32g0xx_it.o
TRACER_EMB_IRQHandlerUSART                        build/tracer_emb.o
                                                  build/stm32g0xx_it.o
TRACER_EMB_Init                                   build/tracer_emb.o
                                                  build/usbpd_trace.o
TRACER_EMB_Lock                                   build/tracer_emb.o
                                                  build/usbpd_trace.o
TRACER_EMB_LowPowerInit                           build/tracer_emb.o
TRACER_EMB_LowPowerSendData                       build/tracer_emb.o
TRACER_EMB_LowPowerSendDataComplete               build/tracer_emb.o
TRACER_EMB_ReadData                               build/tracer_emb.o
TRACER_EMB_StartRX                                build/tracer_emb.o
                                                  build/gui_api.o
TRACER_EMB_TX_Process                             build/tracer_emb.o
                                                  build/usbpd_trace.o
TRACER_EMB_UnLock                                 build/tracer_emb.o
                                                  build/usbpd_trace.o
TRACER_EMB_WakeUpProcess                          build/gui_api.o
TRACER_EMB_WriteData                              build/tracer_emb.o
                                                  build/usbpd_trace.o
UART_AdvFeatureConfig                             build/stm32g0xx_hal_uart.o
                                                  build/stm32g0xx_hal_uart_ex.o
UART_CheckIdleState                               build/stm32g0xx_hal_uart.o
                                                  build/stm32g0xx_hal_uart_ex.o
UART_SetConfig                                    build/stm32g0xx_hal_uart.o
                                                  build/stm32g0xx_hal_uart_ex.o
UART_WaitOnFlagUntilTimeout                       build/stm32g0xx_hal_uart.o
                                                  build/stm32g0xx_hal_uart_ex.o
UCPD1_2_IRQHandler                                build/stm32g0xx_it.o
USART1_IRQHandler                                 build/startup_stm32g071xx.o
USART2_IRQHandler                                 build/startup_stm32g071xx.o
USART3_4_LPUART1_IRQHandler                       build/stm32g0xx_it.o
USBDPD_PRL_BistCarrierEyeMode                     Middlewares/ST/STM32_USBPD_Library/Core/lib/USBPDCORE_PD3_FULL_CM0PLUS_wc32.a(usbpd_prl.o)
                                                  Middlewares/ST/STM32_USBPD_Library/Core/lib/USBPDCORE_PD3_FULL_CM0PLUS_wc32.a(usbpd_pe.o)
USBDPD_PRL_BistCarrierEyeModeExit                 Middlewares/ST/STM32_USBPD_Library/Core/lib/USBPDCORE_PD3_FULL_CM0PLUS_wc32.a(usbpd_prl.o)
                                                  Middlewares/ST/STM32_USBPD_Library/Core/lib/USBPDCORE_PD3_FULL_CM0PLUS_wc32.a(usbpd_pe.o)
USBPDM1_AssertRd                                  build/usbpd_phy_hw_if.o
                                                  Middlewares/ST/STM32_USBPD_Library/Core/lib/USBPDCORE_PD3_FULL_CM0PLUS_wc32.a(usbpd_cad.o)
                                                  build/usbpd_cad_hw_if.o
USBPDM1_AssertRp                                  build/usbpd_phy_hw_if.o
                                                  Middlewares/ST/STM32_USBPD_Library/Core/lib/USBPDCORE_PD3_FULL_CM0PLUS_wc32.a(usbpd_cad.o)
USBPDM1_DeAssertRd                                build/usbpd_phy_hw_if.o
                                                  Middlewares/ST/STM32_USBPD_Library/Core/lib/USBPDCORE_PD3_FULL_CM0PLUS_wc32.a(usbpd_cad.o)
USBPDM1_DeAssertRp                                build/usbpd_phy_hw_if.o
                                                  Middlewares/ST/STM32_USBPD_Library/Core/lib/USBPDCORE_PD3_FULL_CM0PLUS_wc32.a(usbpd_cad.o)
USBPDM1_EnterErrorRecovery                        build/usbpd_phy_hw_if.o
                                                  build/usbpd_cad_hw_if.o
USBPDM1_RX_EnableInterrupt                        build/usbpd_phy_hw_if.o
USBPDM1_Set_CC                                    build/usbpd_phy_hw_if.o
USBPD_CAD_AssertRd                                Middlewares/ST/STM32_USBPD_Library/Core/lib/USBPDCORE_PD3_FULL_CM0PLUS_wc32.a(usbpd_cad.o)
USBPD_CAD_AssertRp                                Middlewares/ST/STM32_USBPD_Library/Core/lib/USBPDCORE_PD3_FULL_CM0PLUS_wc32.a(usbpd_cad.o)
USBPD_CAD_EnterErrorRecovery                      Middlewares/ST/STM32_USBPD_Library/Core/lib/USBPDCORE_PD3_FULL_CM0PLUS_wc32.a(usbpd_cad.o)
USBPD_CAD_GetMemoryConsumption                    Middlewares/ST/STM32_USBPD_Library/Core/lib/USBPDCORE_PD3_FULL_CM0PLUS_wc32.a(usbpd_cad.o)
                                                  Middlewares/ST/STM32_USBPD_Library/Core/lib/USBPDCORE_PD3_FULL_CM0PLUS_wc32.a(usbpd_pe.o)
USBPD_CAD_Init                                    Middlewares/ST/STM32_USBPD_Library/Core/lib/USBPDCORE_PD3_FULL_CM0PLUS_wc32.a(usbpd_cad.o)
                                                  build/usbpd_dpm_core.o
USBPD_CAD_PortEnable                              Middlewares/ST/STM32_USBPD_Library/Core/lib/USBPDCORE_PD3_FULL_CM0PLUS_wc32.a(usbpd_cad.o)
                                                  build/usbpd_dpm_core.o
USBPD_CAD_Process                                 Middlewares/ST/STM32_USBPD_Library/Core/lib/USBPDCORE_PD3_FULL_CM0PLUS_wc32.a(usbpd_cad.o)
                                                  build/usbpd_dpm_core.o
USBPD_CAD_SetRpResistor                           Middlewares/ST/STM32_USBPD_Library/Core/lib/USBPDCORE_PD3_FULL_CM0PLUS_wc32.a(usbpd_cad.o)
USBPD_CAD_Task                                    build/usbpd_dpm_core.o
USBPD_DPM_CADCallback                             build/usbpd_dpm_core.o
USBPD_DPM_EvaluateDataRoleSwap                    build/usbpd_dpm_user.o
                                                  build/usbpd_dpm_core.o
USBPD_DPM_EvaluatePowerRoleSwap                   build/usbpd_dpm_user.o
                                                  build/usbpd_dpm_core.o
USBPD_DPM_EvaluateRequest                         build/usbpd_dpm_user.o
USBPD_DPM_EvaluateVconnSwap                       build/usbpd_dpm_user.o
USBPD_DPM_ExtendedMessageReceived                 build/usbpd_dpm_user.o
                                                  build/usbpd_dpm_core.o
USBPD_DPM_GetDataInfo                             build/usbpd_dpm_user.o
                                                  build/usbpd_dpm_core.o
USBPD_DPM_HardReset                               build/usbpd_dpm_user.o
                                                  build/usbpd_dpm_core.o
USBPD_DPM_InitCore                                build/usbpd_dpm_core.o
                                                  build/usbpd.o
USBPD_DPM_InitOS                                  build/usbpd_dpm_core.o
                                                  build/usbpd.o
USBPD_DPM_IsPowerReady                            build/usbpd_dpm_user.o
                                                  build/usbpd_dpm_core.o
USBPD_DPM_Notification                            build/usbpd_dpm_user.o
                                                  build/usbpd_dpm_core.o
USBPD_DPM_PE_VconnPwr                             build/usbpd_dpm_user.o
USBPD_DPM_PowerRoleSwap                           build/usbpd_dpm_user.o
USBPD_DPM_RequestAlert                            build/usbpd_dpm_user.o
                                                  build/gui_api.o
USBPD_DPM_RequestAttention                        build/usbpd_dpm_user.o
USBPD_DPM_RequestCableReset                       build/usbpd_dpm_user.o
                                                  build/gui_api.o
USBPD_DPM_RequestDataRoleSwap                     build/usbpd_dpm_user.o
                                                  build/gui_api.o
USBPD_DPM_RequestDisplayPortConfig                build/usbpd_dpm_user.o
USBPD_DPM_RequestDisplayPortStatus                build/usbpd_dpm_user.o
USBPD_DPM_RequestFastRoleSwap                     build/usbpd_dpm_user.o
                                                  build/gui_api.o
USBPD_DPM_RequestGetBatteryCapability             build/usbpd_dpm_user.o
                                                  build/gui_api.o
USBPD_DPM_RequestGetBatteryStatus                 build/usbpd_dpm_user.o
                                                  build/gui_api.o
USBPD_DPM_RequestGetCountryCodes                  build/usbpd_dpm_user.o
                                                  build/gui_api.o
USBPD_DPM_RequestGetCountryInfo                   build/usbpd_dpm_user.o
                                                  build/gui_api.o
USBPD_DPM_RequestGetManufacturerInfo              build/usbpd_dpm_user.o
                                                  build/gui_api.o
USBPD_DPM_RequestGetPPS_Status                    build/usbpd_dpm_user.o
                                                  build/gui_api.o
USBPD_DPM_RequestGetSinkCapability                build/usbpd_dpm_user.o
                                                  build/gui_api.o
USBPD_DPM_RequestGetSinkCapabilityExt             build/usbpd_dpm_user.o
                                                  build/gui_api.o
USBPD_DPM_RequestGetSourceCapability              build/usbpd_dpm_user.o
                                                  build/gui_api.o
USBPD_DPM_RequestGetSourceCapabilityExt           build/usbpd_dpm_user.o
                                                  build/gui_api.o
USBPD_DPM_RequestGetStatus                        build/usbpd_dpm_user.o
                                                  build/gui_api.o
USBPD_DPM_RequestGotoMin                          build/usbpd_dpm_user.o
                                                  build/gui_api.o
USBPD_DPM_RequestHardReset                        build/usbpd_dpm_user.o
                                                  build/gui_api.o
USBPD_DPM_RequestMessageRequest                   build/usbpd_dpm_user.o
                                                  build/gui_api.o
USBPD_DPM_RequestPing                             build/usbpd_dpm_user.o
                                                  build/gui_api.o
USBPD_DPM_RequestPowerRoleSwap                    build/usbpd_dpm_user.o
                                                  build/gui_api.o
USBPD_DPM_RequestSecurityRequest                  build/usbpd_dpm_user.o
                                                  build/gui_api.o
USBPD_DPM_RequestSoftReset                        build/usbpd_dpm_user.o
                                                  build/gui_api.o
USBPD_DPM_RequestSourceCapability                 build/usbpd_dpm_user.o
                                                  build/gui_api.o
USBPD_DPM_RequestVDM_DiscoveryIdentify            build/usbpd_dpm_user.o
USBPD_DPM_RequestVDM_DiscoveryMode                build/usbpd_dpm_user.o
USBPD_DPM_RequestVDM_DiscoverySVID                build/usbpd_dpm_user.o
USBPD_DPM_RequestVDM_EnterMode                    build/usbpd_dpm_user.o
USBPD_DPM_RequestVDM_ExitMode                     build/usbpd_dpm_user.o
USBPD_DPM_RequestVconnSwap                        build/usbpd_dpm_user.o
                                                  build/gui_api.o
USBPD_DPM_Run                                     build/usbpd_dpm_core.o
USBPD_DPM_SNK_EvaluateCapabilities                build/usbpd_dpm_user.o
                                                  build/usbpd_dpm_core.o
USBPD_DPM_SetDataInfo                             build/usbpd_dpm_user.o
                                                  build/usbpd_dpm_core.o
USBPD_DPM_SetNotification_GUI                     build/usbpd_dpm_user.o
                                                  build/gui_api.o
USBPD_DPM_SetupNewPower                           build/usbpd_dpm_user.o
USBPD_DPM_TimerCounter                            build/usbpd_dpm_core.o
                                                  build/stm32g0xx_it.o
USBPD_DPM_TraceWakeUp                             build/usbpd_dpm_core.o
                                                  build/gui_api.o
USBPD_DPM_UserCableDetection                      build/usbpd_dpm_user.o
                                                  build/usbpd_dpm_core.o
USBPD_DPM_UserExecute                             build/usbpd_dpm_user.o
USBPD_DPM_UserInit                                build/usbpd_dpm_user.o
                                                  build/usbpd.o
USBPD_DPM_UserTimerCounter                        build/usbpd_dpm_user.o
                                                  build/usbpd_dpm_core.o
USBPD_DPM_WaitForTime                             build/usbpd_dpm_user.o
USBPD_HW_DeInit_DMARxInstance                     build/usbpd_hw.o
                                                  build/usbpd_phy_hw_if.o
USBPD_HW_DeInit_DMATxInstance                     build/usbpd_hw.o
                                                  build/usbpd_phy_hw_if.o
USBPD_HW_GetRpResistorValue                       build/usbpd_hw.o
USBPD_HW_GetUSPDInstance                          build/usbpd_hw.o
                                                  build/usbpd_cad_hw_if.o
USBPD_HW_IF_DisableRX                             build/usbpd_phy_hw_if.o
                                                  build/usbpd_phy.o
USBPD_HW_IF_EnableRX                              build/usbpd_phy_hw_if.o
                                                  build/usbpd_phy.o
USBPD_HW_IF_FastRoleSwapSignalling                build/usbpd_phy_hw_if.o
                                                  build/usbpd_phy.o
USBPD_HW_IF_GlobalHwInit                          build/usbpd_phy_hw_if.o
                                                  build/usbpd.o
USBPD_HW_IF_IsResistor_SinkTxOk                   build/usbpd_phy_hw_if.o
                                                  build/usbpd_phy.o
USBPD_HW_IF_SendBuffer                            build/usbpd_phy_hw_if.o
                                                  build/usbpd_phy.o
USBPD_HW_IF_Send_BIST_Pattern                     build/usbpd_phy_hw_if.o
                                                  build/usbpd_phy.o
USBPD_HW_IF_SetResistor_SinkTxNG                  build/usbpd_phy_hw_if.o
                                                  build/usbpd_phy.o
USBPD_HW_IF_SetResistor_SinkTxOK                  build/usbpd_phy_hw_if.o
                                                  build/usbpd_phy.o
USBPD_HW_IF_StopBISTMode2                         build/usbpd_phy_hw_if.o
                                                  build/usbpd_phy.o
USBPD_HW_Init_DMARxInstance                       build/usbpd_hw.o
                                                  build/usbpd_phy_hw_if.o
USBPD_HW_Init_DMATxInstance                       build/usbpd_hw.o
                                                  build/usbpd_phy_hw_if.o
USBPD_HW_SetFRSSignalling                         build/usbpd_hw.o
                                                  build/usbpd_phy_hw_if.o
USBPD_NbPDO                                       build/usbpd_pwr_if.o
USBPD_PE_CheckLIB                                 Middlewares/ST/STM32_USBPD_Library/Core/lib/USBPDCORE_PD3_FULL_CM0PLUS_wc32.a(usbpd_pe.o)
                                                  build/usbpd_dpm_core.o
USBPD_PE_ExecFastRoleSwapSignalling               Middlewares/ST/STM32_USBPD_Library/Core/lib/USBPDCORE_PD3_FULL_CM0PLUS_wc32.a(usbpd_pe.o)
USBPD_PE_GetMemoryConsumption                     Middlewares/ST/STM32_USBPD_Library/Core/lib/USBPDCORE_PD3_FULL_CM0PLUS_wc32.a(usbpd_pe.o)
                                                  build/usbpd_dpm_core.o
USBPD_PE_Init                                     Middlewares/ST/STM32_USBPD_Library/Core/lib/USBPDCORE_PD3_FULL_CM0PLUS_wc32.a(usbpd_pe.o)
                                                  build/usbpd_dpm_core.o
USBPD_PE_InitVDM_Callback                         Middlewares/ST/STM32_USBPD_Library/Core/lib/USBPDCORE_PD3_FULL_CM0PLUS_wc32.a(usbpd_pe.o)
USBPD_PE_IsCableConnected                         Middlewares/ST/STM32_USBPD_Library/Core/lib/USBPDCORE_PD3_FULL_CM0PLUS_wc32.a(usbpd_pe.o)
                                                  build/usbpd_dpm_core.o
USBPD_PE_Request_CtrlMessage                      Middlewares/ST/STM32_USBPD_Library/Core/lib/USBPDCORE_PD3_FULL_CM0PLUS_wc32.a(usbpd_pe.o)
                                                  build/usbpd_dpm_user.o
USBPD_PE_Request_DataMessage                      Middlewares/ST/STM32_USBPD_Library/Core/lib/USBPDCORE_PD3_FULL_CM0PLUS_wc32.a(usbpd_pe.o)
                                                  build/usbpd_dpm_user.o
USBPD_PE_Request_HardReset                        Middlewares/ST/STM32_USBPD_Library/Core/lib/USBPDCORE_PD3_FULL_CM0PLUS_wc32.a(usbpd_pe.o)
                                                  build/usbpd_dpm_user.o
USBPD_PE_SVDM_RequestAttention                    Middlewares/ST/STM32_USBPD_Library/Core/lib/USBPDCORE_PD3_FULL_CM0PLUS_wc32.a(usbpd_pe.o)
                                                  build/usbpd_dpm_user.o
USBPD_PE_SVDM_RequestIdentity                     Middlewares/ST/STM32_USBPD_Library/Core/lib/USBPDCORE_PD3_FULL_CM0PLUS_wc32.a(usbpd_pe.o)
                                                  build/usbpd_dpm_user.o
USBPD_PE_SVDM_RequestMode                         Middlewares/ST/STM32_USBPD_Library/Core/lib/USBPDCORE_PD3_FULL_CM0PLUS_wc32.a(usbpd_pe.o)
                                                  build/usbpd_dpm_user.o
USBPD_PE_SVDM_RequestModeEnter                    Middlewares/ST/STM32_USBPD_Library/Core/lib/USBPDCORE_PD3_FULL_CM0PLUS_wc32.a(usbpd_pe.o)
                                                  build/usbpd_dpm_user.o
USBPD_PE_SVDM_RequestModeExit                     Middlewares/ST/STM32_USBPD_Library/Core/lib/USBPDCORE_PD3_FULL_CM0PLUS_wc32.a(usbpd_pe.o)
                                                  build/usbpd_dpm_user.o
USBPD_PE_SVDM_RequestSVID                         Middlewares/ST/STM32_USBPD_Library/Core/lib/USBPDCORE_PD3_FULL_CM0PLUS_wc32.a(usbpd_pe.o)
                                                  build/usbpd_dpm_user.o
USBPD_PE_SVDM_RequestSpecific                     Middlewares/ST/STM32_USBPD_Library/Core/lib/USBPDCORE_PD3_FULL_CM0PLUS_wc32.a(usbpd_pe.o)
                                                  build/usbpd_dpm_user.o
USBPD_PE_SendExtendedMessage                      Middlewares/ST/STM32_USBPD_Library/Core/lib/USBPDCORE_PD3_FULL_CM0PLUS_wc32.a(usbpd_pe.o)
                                                  build/usbpd_dpm_user.o
USBPD_PE_Send_Request                             Middlewares/ST/STM32_USBPD_Library/Core/lib/USBPDCORE_PD3_FULL_CM0PLUS_wc32.a(usbpd_pe.o)
USBPD_PE_SetTrace                                 Middlewares/ST/STM32_USBPD_Library/Core/lib/USBPDCORE_PD3_FULL_CM0PLUS_wc32.a(usbpd_pe.o)
                                                  build/usbpd_trace.o
USBPD_PE_StateMachine_DRP                         Middlewares/ST/STM32_USBPD_Library/Core/lib/USBPDCORE_PD3_FULL_CM0PLUS_wc32.a(usbpd_pe.o)
USBPD_PE_StateMachine_SNK                         Middlewares/ST/STM32_USBPD_Library/Core/lib/USBPDCORE_PD3_FULL_CM0PLUS_wc32.a(usbpd_pe.o)
                                                  build/usbpd_dpm_core.o
USBPD_PE_StateMachine_SRC                         Middlewares/ST/STM32_USBPD_Library/Core/lib/USBPDCORE_PD3_FULL_CM0PLUS_wc32.a(usbpd_pe.o)
USBPD_PE_Task                                     build/usbpd_dpm_core.o
USBPD_PE_TimerCounter                             Middlewares/ST/STM32_USBPD_Library/Core/lib/USBPDCORE_PD3_FULL_CM0PLUS_wc32.a(usbpd_pe.o)
                                                  build/usbpd_dpm_core.o
USBPD_PE_UVDM_RequestMessage                      Middlewares/ST/STM32_USBPD_Library/Core/lib/USBPDCORE_PD3_FULL_CM0PLUS_wc32.a(usbpd_pe.o)
USBPD_PHY_DisableRX                               build/usbpd_phy.o
                                                  Middlewares/ST/STM32_USBPD_Library/Core/lib/USBPDCORE_PD3_FULL_CM0PLUS_wc32.a(usbpd_prl.o)
USBPD_PHY_EnableRX                                build/usbpd_phy.o
                                                  Middlewares/ST/STM32_USBPD_Library/Core/lib/USBPDCORE_PD3_FULL_CM0PLUS_wc32.a(usbpd_prl.o)
USBPD_PHY_ExitTransmit                            build/usbpd_phy.o
                                                  Middlewares/ST/STM32_USBPD_Library/Core/lib/USBPDCORE_PD3_FULL_CM0PLUS_wc32.a(usbpd_prl.o)
USBPD_PHY_FastRoleSwapSignalling                  build/usbpd_phy.o
                                                  Middlewares/ST/STM32_USBPD_Library/Core/lib/USBPDCORE_PD3_FULL_CM0PLUS_wc32.a(usbpd_prl.o)
USBPD_PHY_GetRetryTimerValue                      build/usbpd_phy.o
                                                  Middlewares/ST/STM32_USBPD_Library/Core/lib/USBPDCORE_PD3_FULL_CM0PLUS_wc32.a(usbpd_prl.o)
USBPD_PHY_Init                                    build/usbpd_phy.o
                                                  Middlewares/ST/STM32_USBPD_Library/Core/lib/USBPDCORE_PD3_FULL_CM0PLUS_wc32.a(usbpd_prl.o)
USBPD_PHY_IsResistor_SinkTxOk                     build/usbpd_phy.o
                                                  Middlewares/ST/STM32_USBPD_Library/Core/lib/USBPDCORE_PD3_FULL_CM0PLUS_wc32.a(usbpd_prl.o)
USBPD_PHY_Reset                                   build/usbpd_phy.o
                                                  Middlewares/ST/STM32_USBPD_Library/Core/lib/USBPDCORE_PD3_FULL_CM0PLUS_wc32.a(usbpd_prl.o)
USBPD_PHY_ResetRequest                            build/usbpd_phy.o
                                                  Middlewares/ST/STM32_USBPD_Library/Core/lib/USBPDCORE_PD3_FULL_CM0PLUS_wc32.a(usbpd_prl.o)
                                                  Middlewares/ST/STM32_USBPD_Library/Core/lib/USBPDCORE_PD3_FULL_CM0PLUS_wc32.a(usbpd_pe.o)
USBPD_PHY_SOPSupported                            build/usbpd_phy.o
                                                  Middlewares/ST/STM32_USBPD_Library/Core/lib/USBPDCORE_PD3_FULL_CM0PLUS_wc32.a(usbpd_prl.o)
USBPD_PHY_SendMessage                             build/usbpd_phy.o
                                                  Middlewares/ST/STM32_USBPD_Library/Core/lib/USBPDCORE_PD3_FULL_CM0PLUS_wc32.a(usbpd_prl.o)
USBPD_PHY_Send_BIST_Pattern                       build/usbpd_phy.o
                                                  Middlewares/ST/STM32_USBPD_Library/Core/lib/USBPDCORE_PD3_FULL_CM0PLUS_wc32.a(usbpd_prl.o)
USBPD_PHY_SetResistor_SinkTxNG                    build/usbpd_phy.o
                                                  Middlewares/ST/STM32_USBPD_Library/Core/lib/USBPDCORE_PD3_FULL_CM0PLUS_wc32.a(usbpd_prl.o)
USBPD_PHY_SetResistor_SinkTxOK                    build/usbpd_phy.o
                                                  Middlewares/ST/STM32_USBPD_Library/Core/lib/USBPDCORE_PD3_FULL_CM0PLUS_wc32.a(usbpd_prl.o)
USBPD_PORT0_IRQHandler                            build/usbpd_hw_if_it.o
                                                  build/stm32g0xx_it.o
USBPD_PORT1_IRQHandler                            build/usbpd_hw_if_it.o
USBPD_PRL_CableCapable                            Middlewares/ST/STM32_USBPD_Library/Core/lib/USBPDCORE_PD3_FULL_CM0PLUS_wc32.a(usbpd_prl.o)
                                                  Middlewares/ST/STM32_USBPD_Library/Core/lib/USBPDCORE_PD3_FULL_CM0PLUS_wc32.a(usbpd_pe.o)
USBPD_PRL_DeInit                                  Middlewares/ST/STM32_USBPD_Library/Core/lib/USBPDCORE_PD3_FULL_CM0PLUS_wc32.a(usbpd_prl.o)
USBPD_PRL_DisableRX                               Middlewares/ST/STM32_USBPD_Library/Core/lib/USBPDCORE_PD3_FULL_CM0PLUS_wc32.a(usbpd_prl.o)
                                                  Middlewares/ST/STM32_USBPD_Library/Core/lib/USBPDCORE_PD3_FULL_CM0PLUS_wc32.a(usbpd_pe.o)
USBPD_PRL_EnableRX                                Middlewares/ST/STM32_USBPD_Library/Core/lib/USBPDCORE_PD3_FULL_CM0PLUS_wc32.a(usbpd_prl.o)
                                                  Middlewares/ST/STM32_USBPD_Library/Core/lib/USBPDCORE_PD3_FULL_CM0PLUS_wc32.a(usbpd_pe.o)
USBPD_PRL_FastRoleSwapSignalling                  Middlewares/ST/STM32_USBPD_Library/Core/lib/USBPDCORE_PD3_FULL_CM0PLUS_wc32.a(usbpd_prl.o)
                                                  Middlewares/ST/STM32_USBPD_Library/Core/lib/USBPDCORE_PD3_FULL_CM0PLUS_wc32.a(usbpd_pe.o)
USBPD_PRL_GetMemoryConsumption                    Middlewares/ST/STM32_USBPD_Library/Core/lib/USBPDCORE_PD3_FULL_CM0PLUS_wc32.a(usbpd_prl.o)
                                                  Middlewares/ST/STM32_USBPD_Library/Core/lib/USBPDCORE_PD3_FULL_CM0PLUS_wc32.a(usbpd_pe.o)
USBPD_PRL_Init                                    Middlewares/ST/STM32_USBPD_Library/Core/lib/USBPDCORE_PD3_FULL_CM0PLUS_wc32.a(usbpd_prl.o)
                                                  Middlewares/ST/STM32_USBPD_Library/Core/lib/USBPDCORE_PD3_FULL_CM0PLUS_wc32.a(usbpd_pe.o)
USBPD_PRL_IsResistor_SinkTxOK                     Middlewares/ST/STM32_USBPD_Library/Core/lib/USBPDCORE_PD3_FULL_CM0PLUS_wc32.a(usbpd_prl.o)
                                                  Middlewares/ST/STM32_USBPD_Library/Core/lib/USBPDCORE_PD3_FULL_CM0PLUS_wc32.a(usbpd_pe.o)
USBPD_PRL_PowerSinkReset                          Middlewares/ST/STM32_USBPD_Library/Core/lib/USBPDCORE_PD3_FULL_CM0PLUS_wc32.a(usbpd_prl.o)
                                                  Middlewares/ST/STM32_USBPD_Library/Core/lib/USBPDCORE_PD3_FULL_CM0PLUS_wc32.a(usbpd_pe.o)
USBPD_PRL_PrepareChunkRequest                     Middlewares/ST/STM32_USBPD_Library/Core/lib/USBPDCORE_PD3_FULL_CM0PLUS_wc32.a(usbpd_prl.o)
                                                  Middlewares/ST/STM32_USBPD_Library/Core/lib/USBPDCORE_PD3_FULL_CM0PLUS_wc32.a(usbpd_pe.o)
USBPD_PRL_PrepareExtendedTxChunkSending           Middlewares/ST/STM32_USBPD_Library/Core/lib/USBPDCORE_PD3_FULL_CM0PLUS_wc32.a(usbpd_prl.o)
                                                  Middlewares/ST/STM32_USBPD_Library/Core/lib/USBPDCORE_PD3_FULL_CM0PLUS_wc32.a(usbpd_pe.o)
USBPD_PRL_Reset                                   Middlewares/ST/STM32_USBPD_Library/Core/lib/USBPDCORE_PD3_FULL_CM0PLUS_wc32.a(usbpd_prl.o)
                                                  Middlewares/ST/STM32_USBPD_Library/Core/lib/USBPDCORE_PD3_FULL_CM0PLUS_wc32.a(usbpd_pe.o)
USBPD_PRL_ResetRequestProcess                     Middlewares/ST/STM32_USBPD_Library/Core/lib/USBPDCORE_PD3_FULL_CM0PLUS_wc32.a(usbpd_prl.o)
                                                  Middlewares/ST/STM32_USBPD_Library/Core/lib/USBPDCORE_PD3_FULL_CM0PLUS_wc32.a(usbpd_pe.o)
USBPD_PRL_ResetRequestReset                       Middlewares/ST/STM32_USBPD_Library/Core/lib/USBPDCORE_PD3_FULL_CM0PLUS_wc32.a(usbpd_prl.o)
                                                  Middlewares/ST/STM32_USBPD_Library/Core/lib/USBPDCORE_PD3_FULL_CM0PLUS_wc32.a(usbpd_pe.o)
USBPD_PRL_SRCReleaseSinkNG                        Middlewares/ST/STM32_USBPD_Library/Core/lib/USBPDCORE_PD3_FULL_CM0PLUS_wc32.a(usbpd_prl.o)
                                                  Middlewares/ST/STM32_USBPD_Library/Core/lib/USBPDCORE_PD3_FULL_CM0PLUS_wc32.a(usbpd_pe.o)
USBPD_PRL_SRCSetSinkNG                            Middlewares/ST/STM32_USBPD_Library/Core/lib/USBPDCORE_PD3_FULL_CM0PLUS_wc32.a(usbpd_prl.o)
                                                  Middlewares/ST/STM32_USBPD_Library/Core/lib/USBPDCORE_PD3_FULL_CM0PLUS_wc32.a(usbpd_pe.o)
USBPD_PRL_SendMessage                             Middlewares/ST/STM32_USBPD_Library/Core/lib/USBPDCORE_PD3_FULL_CM0PLUS_wc32.a(usbpd_prl.o)
                                                  Middlewares/ST/STM32_USBPD_Library/Core/lib/USBPDCORE_PD3_FULL_CM0PLUS_wc32.a(usbpd_pe.o)
USBPD_PRL_SetHeader                               Middlewares/ST/STM32_USBPD_Library/Core/lib/USBPDCORE_PD3_FULL_CM0PLUS_wc32.a(usbpd_prl.o)
                                                  Middlewares/ST/STM32_USBPD_Library/Core/lib/USBPDCORE_PD3_FULL_CM0PLUS_wc32.a(usbpd_pe.o)
USBPD_PRL_SetHeaderDataRole                       Middlewares/ST/STM32_USBPD_Library/Core/lib/USBPDCORE_PD3_FULL_CM0PLUS_wc32.a(usbpd_prl.o)
                                                  Middlewares/ST/STM32_USBPD_Library/Core/lib/USBPDCORE_PD3_FULL_CM0PLUS_wc32.a(usbpd_pe.o)
USBPD_PRL_SetHeaderPowerRole                      Middlewares/ST/STM32_USBPD_Library/Core/lib/USBPDCORE_PD3_FULL_CM0PLUS_wc32.a(usbpd_prl.o)
                                                  Middlewares/ST/STM32_USBPD_Library/Core/lib/USBPDCORE_PD3_FULL_CM0PLUS_wc32.a(usbpd_pe.o)
USBPD_PRL_SetHeaderSpecification                  Middlewares/ST/STM32_USBPD_Library/Core/lib/USBPDCORE_PD3_FULL_CM0PLUS_wc32.a(usbpd_prl.o)
                                                  Middlewares/ST/STM32_USBPD_Library/Core/lib/USBPDCORE_PD3_FULL_CM0PLUS_wc32.a(usbpd_pe.o)
USBPD_PRL_TimerCounter                            Middlewares/ST/STM32_USBPD_Library/Core/lib/USBPDCORE_PD3_FULL_CM0PLUS_wc32.a(usbpd_prl.o)
                                                  build/usbpd_dpm_core.o
USBPD_PWR_IF_Alarm                                build/usbpd_pwr_if.o
USBPD_PWR_IF_Disable_VConn                        build/usbpd_pwr_if.o
USBPD_PWR_IF_Enable_VConn                         build/usbpd_pwr_if.o
USBPD_PWR_IF_GetPortPDOs                          build/usbpd_pwr_if.o
USBPD_PWR_IF_Init                                 build/usbpd_pwr_if.o
USBPD_PWR_IF_ReadVA                               build/usbpd_pwr_if.o
USBPD_PWR_IF_SearchRequestedPDO                   build/usbpd_pwr_if.o
USBPD_PWR_IF_SetProfile                           build/usbpd_pwr_if.o
                                                  build/usbpd_dpm_user.o
USBPD_PWR_IF_SupplyReady                          build/usbpd_pwr_if.o
                                                  build/usbpd_dpm_user.o
USBPD_PWR_IF_VBUSDisable                          build/usbpd_pwr_if.o
USBPD_PWR_IF_VBUSEnable                           build/usbpd_pwr_if.o
USBPD_PWR_IF_VBUSIsEnabled                        build/usbpd_pwr_if.o
USBPD_TIM_Init                                    build/usbpd_timersserver.o
                                                  build/usbpd_phy_hw_if.o
USBPD_TIM_IsExpired                               build/usbpd_timersserver.o
                                                  Middlewares/ST/STM32_USBPD_Library/Core/lib/USBPDCORE_PD3_FULL_CM0PLUS_wc32.a(usbpd_prl.o)
USBPD_TIM_Start                                   build/usbpd_timersserver.o
                                                  Middlewares/ST/STM32_USBPD_Library/Core/lib/USBPDCORE_PD3_FULL_CM0PLUS_wc32.a(usbpd_prl.o)
USBPD_TRACE_Add                                   build/usbpd_trace.o
                                                  build/usbpd_dpm_core.o
                                                  build/usbpd_pwr_if.o
                                                  build/usbpd_pwr_user.o
                                                  build/usbpd_dpm_user.o
USBPD_TRACE_Init                                  build/usbpd_trace.o
                                                  build/usbpd_dpm_core.o
USBPD_TRACE_TX_Process                            build/usbpd_trace.o
                                                  build/usbpd_dpm_core.o
USBPD_TRACE_TX_Task                               build/usbpd_dpm_core.o
USBPD_Trace                                       Middlewares/ST/STM32_USBPD_Library/Core/lib/USBPDCORE_PD3_FULL_CM0PLUS_wc32.a(usbpd_pe.o)
                                                  Middlewares/ST/STM32_USBPD_Library/Core/lib/USBPDCORE_PD3_FULL_CM0PLUS_wc32.a(usbpd_prl.o)
                                                  build/gui_api.o
USBPD_VDM_UserInit                                build/usbpd_vdm_user.o
USBPD_VDM_UserReset                               build/usbpd_vdm_user.o
WWDG_IRQHandler                                   build/startup_stm32g071xx.o
_ITM_deregisterTMCloneTable                       /usr/lib/gcc/arm-none-eabi/9.2.1/thumb/v6-m/nofp/crtbegin.o
_ITM_registerTMCloneTable                         /usr/lib/gcc/arm-none-eabi/9.2.1/thumb/v6-m/nofp/crtbegin.o
__TMC_END__                                       /usr/lib/gcc/arm-none-eabi/9.2.1/thumb/v6-m/nofp/crtend.o
                                                  /usr/lib/gcc/arm-none-eabi/9.2.1/thumb/v6-m/nofp/crtbegin.o
__aeabi_idiv                                      /usr/lib/gcc/arm-none-eabi/9.2.1/thumb/v6-m/nofp/libgcc.a(_divsi3.o)
                                                  build/gui_api.o
                                                  build/stm32g0xx_hal_uart_ex.o
                                                  build/stm32g0xx_hal_uart.o
                                                  build/usbpd_pwr_user.o
                                                  build/system_stm32g0xx.o
                                                  build/stm32g0xx_ll_utils.o
                                                  build/stm32g0xx_ll_rcc.o
                                                  build/stm32g0xx_hal_rcc_ex.o
                                                  build/stm32g0xx_hal_rcc.o
__aeabi_idiv0                                     /usr/lib/gcc/arm-none-eabi/9.2.1/thumb/v6-m/nofp/libgcc.a(_dvmd_tls.o)
                                                  /usr/lib/gcc/arm-none-eabi/9.2.1/thumb/v6-m/nofp/libgcc.a(_divsi3.o)
                                                  /usr/lib/gcc/arm-none-eabi/9.2.1/thumb/v6-m/nofp/libgcc.a(_udivsi3.o)
__aeabi_idivmod                                   /usr/lib/gcc/arm-none-eabi/9.2.1/thumb/v6-m/nofp/libgcc.a(_divsi3.o)
__aeabi_ldiv0                                     /usr/lib/gcc/arm-none-eabi/9.2.1/thumb/v6-m/nofp/libgcc.a(_dvmd_tls.o)
                                                  /usr/lib/gcc/arm-none-eabi/9.2.1/thumb/v6-m/nofp/libgcc.a(_aeabi_uldivmod.o)
                                                  /usr/lib/gcc/arm-none-eabi/9.2.1/thumb/v6-m/nofp/libgcc.a(_aeabi_ldivmod.o)
__aeabi_ldivmod                                   /usr/lib/gcc/arm-none-eabi/9.2.1/thumb/v6-m/nofp/libgcc.a(_aeabi_ldivmod.o)
                                                  build/stm32g0xx_ll_lpuart.o
                                                  build/stm32g0xx_hal_uart.o
__aeabi_lmul                                      /usr/lib/gcc/arm-none-eabi/9.2.1/thumb/v6-m/nofp/libgcc.a(_muldi3.o)
                                                  /usr/lib/gcc/arm-none-eabi/9.2.1/thumb/v6-m/nofp/libgcc.a(bpabi.o)
__aeabi_memclr                                    /usr/lib/gcc/arm-none-eabi/9.2.1/../../../arm-none-eabi/lib/thumb/v6-m/nofp/libc_nano.a(lib_a-aeabi_memclr.o)
__aeabi_memclr4                                   /usr/lib/gcc/arm-none-eabi/9.2.1/../../../arm-none-eabi/lib/thumb/v6-m/nofp/libc_nano.a(lib_a-aeabi_memclr.o)
                                                  Middlewares/ST/STM32_USBPD_Library/Core/lib/USBPDCORE_PD3_FULL_CM0PLUS_wc32.a(usbpd_prl.o)
                                                  Middlewares/ST/STM32_USBPD_Library/Core/lib/USBPDCORE_PD3_FULL_CM0PLUS_wc32.a(usbpd_pe.o)
__aeabi_memclr8                                   /usr/lib/gcc/arm-none-eabi/9.2.1/../../../arm-none-eabi/lib/thumb/v6-m/nofp/libc_nano.a(lib_a-aeabi_memclr.o)
__aeabi_memcpy                                    /usr/lib/gcc/arm-none-eabi/9.2.1/../../../arm-none-eabi/lib/thumb/v6-m/nofp/libc_nano.a(lib_a-aeabi_memcpy.o)
__aeabi_memcpy4                                   /usr/lib/gcc/arm-none-eabi/9.2.1/../../../arm-none-eabi/lib/thumb/v6-m/nofp/libc_nano.a(lib_a-aeabi_memcpy.o)
                                                  Middlewares/ST/STM32_USBPD_Library/Core/lib/USBPDCORE_PD3_FULL_CM0PLUS_wc32.a(usbpd_pe.o)
__aeabi_memcpy8                                   /usr/lib/gcc/arm-none-eabi/9.2.1/../../../arm-none-eabi/lib/thumb/v6-m/nofp/libc_nano.a(lib_a-aeabi_memcpy.o)
__aeabi_memset                                    /usr/lib/gcc/arm-none-eabi/9.2.1/../../../arm-none-eabi/lib/thumb/v6-m/nofp/libc_nano.a(lib_a-aeabi_memset.o)
                                                  /usr/lib/gcc/arm-none-eabi/9.2.1/../../../arm-none-eabi/lib/thumb/v6-m/nofp/libc_nano.a(lib_a-aeabi_memclr.o)
                                                  Middlewares/ST/STM32_USBPD_Library/Core/lib/USBPDCORE_PD3_FULL_CM0PLUS_wc32.a(usbpd_prl.o)
__aeabi_memset4                                   /usr/lib/gcc/arm-none-eabi/9.2.1/../../../arm-none-eabi/lib/thumb/v6-m/nofp/libc_nano.a(lib_a-aeabi_memset.o)
__aeabi_memset8                                   /usr/lib/gcc/arm-none-eabi/9.2.1/../../../arm-none-eabi/lib/thumb/v6-m/nofp/libc_nano.a(lib_a-aeabi_memset.o)
__aeabi_uidiv                                     /usr/lib/gcc/arm-none-eabi/9.2.1/thumb/v6-m/nofp/libgcc.a(_udivsi3.o)
                                                  build/gui_api.o
                                                  build/stm32g0xx_ll_usart.o
                                                  build/stm32g0xx_hal_uart_ex.o
                                                  build/stm32g0xx_hal_uart.o
                                                  build/usbpd_timersserver.o
                                                  build/port.o
                                                  build/usbpd_pwr_user.o
                                                  build/system_stm32g0xx.o
                                                  build/stm32g0xx_ll_utils.o
                                                  build/stm32g0xx_hal.o
                                                  build/stm32g0xx_hal_pwr_ex.o
                                                  build/stm32g0xx_hal_dma.o
                                                  build/stm32g0xx_ll_rcc.o
                                                  build/stm32g0xx_hal_rcc_ex.o
                                                  build/stm32g0xx_hal_rcc.o
                                                  build/stm32g0xx_hal_adc.o
__aeabi_uidivmod                                  /usr/lib/gcc/arm-none-eabi/9.2.1/thumb/v6-m/nofp/libgcc.a(_udivsi3.o)
                                                  Middlewares/ST/STM32_USBPD_Library/Core/lib/USBPDCORE_PD3_FULL_CM0PLUS_wc32.a(usbpd_pe.o)
                                                  /usr/lib/gcc/arm-none-eabi/9.2.1/../../../arm-none-eabi/lib/thumb/v6-m/nofp/libc_nano.a(lib_a-nano-vfprintf_i.o)
                                                  build/usbpd_timersserver.o
                                                  build/cmsis_os.o
__aeabi_uldivmod                                  /usr/lib/gcc/arm-none-eabi/9.2.1/thumb/v6-m/nofp/libgcc.a(_aeabi_uldivmod.o)
                                                  build/stm32g0xx_ll_lpuart.o
                                                  build/stm32g0xx_hal_uart.o
__atexit_dummy                                    /usr/lib/gcc/arm-none-eabi/9.2.1/../../../arm-none-eabi/lib/thumb/v6-m/nofp/libc_nano.a(lib_a-__atexit.o)
__bss_end__                                       /usr/lib/gcc/arm-none-eabi/9.2.1/../../../arm-none-eabi/lib/thumb/v6-m/nofp/crt0.o
__bss_start__                                     /usr/lib/gcc/arm-none-eabi/9.2.1/../../../arm-none-eabi/lib/thumb/v6-m/nofp/crt0.o
__call_exitprocs                                  /usr/lib/gcc/arm-none-eabi/9.2.1/../../../arm-none-eabi/lib/thumb/v6-m/nofp/libc_nano.a(lib_a-__call_atexit.o)
                                                  /usr/lib/gcc/arm-none-eabi/9.2.1/../../../arm-none-eabi/lib/thumb/v6-m/nofp/libc_nano.a(lib_a-__atexit.o)
                                                  /usr/lib/gcc/arm-none-eabi/9.2.1/../../../arm-none-eabi/lib/thumb/v6-m/nofp/libc_nano.a(lib_a-exit.o)
__clzdi2                                          /usr/lib/gcc/arm-none-eabi/9.2.1/thumb/v6-m/nofp/libgcc.a(_clzdi2.o)
                                                  /usr/lib/gcc/arm-none-eabi/9.2.1/thumb/v6-m/nofp/libgcc.a(_divdi3.o)
                                                  /usr/lib/gcc/arm-none-eabi/9.2.1/thumb/v6-m/nofp/libgcc.a(_udivmoddi4.o)
__clzsi2                                          /usr/lib/gcc/arm-none-eabi/9.2.1/thumb/v6-m/nofp/libgcc.a(_clzsi2.o)
                                                  /usr/lib/gcc/arm-none-eabi/9.2.1/thumb/v6-m/nofp/libgcc.a(_clzdi2.o)
__deregister_frame_info                           /usr/lib/gcc/arm-none-eabi/9.2.1/thumb/v6-m/nofp/crtbegin.o
__divdi3                                          /usr/lib/gcc/arm-none-eabi/9.2.1/thumb/v6-m/nofp/libgcc.a(_divdi3.o)
                                                  /usr/lib/gcc/arm-none-eabi/9.2.1/thumb/v6-m/nofp/libgcc.a(bpabi.o)
__divsi3                                          /usr/lib/gcc/arm-none-eabi/9.2.1/thumb/v6-m/nofp/libgcc.a(_divsi3.o)
__dso_handle                                      /usr/lib/gcc/arm-none-eabi/9.2.1/thumb/v6-m/nofp/crtbegin.o
__fini_array_end                                  /usr/lib/gcc/arm-none-eabi/9.2.1/../../../arm-none-eabi/lib/thumb/v6-m/nofp/libc_nano.a(lib_a-fini.o)
__fini_array_start                                /usr/lib/gcc/arm-none-eabi/9.2.1/../../../arm-none-eabi/lib/thumb/v6-m/nofp/libc_nano.a(lib_a-fini.o)
__gnu_ldivmod_helper                              /usr/lib/gcc/arm-none-eabi/9.2.1/thumb/v6-m/nofp/libgcc.a(bpabi.o)
                                                  /usr/lib/gcc/arm-none-eabi/9.2.1/thumb/v6-m/nofp/libgcc.a(_aeabi_ldivmod.o)
__gnu_thumb1_case_shi                             /usr/lib/gcc/arm-none-eabi/9.2.1/thumb/v6-m/nofp/libgcc.a(_thumb1_case_shi.o)
                                                  build/stm32g0xx_hal_uart.o
                                                  build/usbpd_cad_hw_if.o
__gnu_thumb1_case_uhi                             /usr/lib/gcc/arm-none-eabi/9.2.1/thumb/v6-m/nofp/libgcc.a(_thumb1_case_uhi.o)
                                                  build/gui_api.o
                                                  build/stm32g0xx_hal_uart.o
__gnu_thumb1_case_uqi                             /usr/lib/gcc/arm-none-eabi/9.2.1/thumb/v6-m/nofp/libgcc.a(_thumb1_case_uqi.o)
                                                  build/gui_api.o
                                                  build/stm32g0xx_hal_uart.o
                                                  build/usbpd_timersserver.o
                                                  build/usbpd_phy_hw_if.o
                                                  build/tasks.o
                                                  build/usbpd_dpm_core.o
                                                  build/stm32g0xx_hal_pwr_ex.o
                                                  build/stm32g0xx_hal_dma.o
__init_array_end                                  /usr/lib/gcc/arm-none-eabi/9.2.1/../../../arm-none-eabi/lib/thumb/v6-m/nofp/libc_nano.a(lib_a-init.o)
__init_array_start                                /usr/lib/gcc/arm-none-eabi/9.2.1/../../../arm-none-eabi/lib/thumb/v6-m/nofp/libc_nano.a(lib_a-init.o)
__libc_fini_array                                 /usr/lib/gcc/arm-none-eabi/9.2.1/../../../arm-none-eabi/lib/thumb/v6-m/nofp/libc_nano.a(lib_a-fini.o)
                                                  /usr/lib/gcc/arm-none-eabi/9.2.1/../../../arm-none-eabi/lib/thumb/v6-m/nofp/crt0.o
__libc_init_array                                 /usr/lib/gcc/arm-none-eabi/9.2.1/../../../arm-none-eabi/lib/thumb/v6-m/nofp/libc_nano.a(lib_a-init.o)
                                                  build/startup_stm32g071xx.o
                                                  /usr/lib/gcc/arm-none-eabi/9.2.1/../../../arm-none-eabi/lib/thumb/v6-m/nofp/crt0.o
__malloc_free_list                                /usr/lib/gcc/arm-none-eabi/9.2.1/../../../arm-none-eabi/lib/thumb/v6-m/nofp/libc_nano.a(lib_a-nano-mallocr.o)
                                                  /usr/lib/gcc/arm-none-eabi/9.2.1/../../../arm-none-eabi/lib/thumb/v6-m/nofp/libc_nano.a(lib_a-nano-freer.o)
__malloc_lock                                     /usr/lib/gcc/arm-none-eabi/9.2.1/../../../arm-none-eabi/lib/thumb/v6-m/nofp/libc_nano.a(lib_a-mlock.o)
                                                  /usr/lib/gcc/arm-none-eabi/9.2.1/../../../arm-none-eabi/lib/thumb/v6-m/nofp/libc_nano.a(lib_a-nano-mallocr.o)
                                                  /usr/lib/gcc/arm-none-eabi/9.2.1/../../../arm-none-eabi/lib/thumb/v6-m/nofp/libc_nano.a(lib_a-nano-freer.o)
__malloc_sbrk_start                               /usr/lib/gcc/arm-none-eabi/9.2.1/../../../arm-none-eabi/lib/thumb/v6-m/nofp/libc_nano.a(lib_a-nano-mallocr.o)
__malloc_unlock                                   /usr/lib/gcc/arm-none-eabi/9.2.1/../../../arm-none-eabi/lib/thumb/v6-m/nofp/libc_nano.a(lib_a-mlock.o)
                                                  /usr/lib/gcc/arm-none-eabi/9.2.1/../../../arm-none-eabi/lib/thumb/v6-m/nofp/libc_nano.a(lib_a-nano-mallocr.o)
                                                  /usr/lib/gcc/arm-none-eabi/9.2.1/../../../arm-none-eabi/lib/thumb/v6-m/nofp/libc_nano.a(lib_a-nano-freer.o)
__muldi3                                          /usr/lib/gcc/arm-none-eabi/9.2.1/thumb/v6-m/nofp/libgcc.a(_muldi3.o)
__on_exit_args                                    /usr/lib/gcc/arm-none-eabi/9.2.1/../../../arm-none-eabi/lib/thumb/v6-m/nofp/libc_nano.a(lib_a-__atexit.o)
__preinit_array_end                               /usr/lib/gcc/arm-none-eabi/9.2.1/../../../arm-none-eabi/lib/thumb/v6-m/nofp/libc_nano.a(lib_a-init.o)
__preinit_array_start                             /usr/lib/gcc/arm-none-eabi/9.2.1/../../../arm-none-eabi/lib/thumb/v6-m/nofp/libc_nano.a(lib_a-init.o)
__register_exitproc                               /usr/lib/gcc/arm-none-eabi/9.2.1/../../../arm-none-eabi/lib/thumb/v6-m/nofp/libc_nano.a(lib_a-__atexit.o)
                                                  /usr/lib/gcc/arm-none-eabi/9.2.1/../../../arm-none-eabi/lib/thumb/v6-m/nofp/libc_nano.a(lib_a-atexit.o)
__register_frame_info                             /usr/lib/gcc/arm-none-eabi/9.2.1/thumb/v6-m/nofp/crtbegin.o
__sf_fake_stderr                                  /usr/lib/gcc/arm-none-eabi/9.2.1/../../../arm-none-eabi/lib/thumb/v6-m/nofp/libc_nano.a(lib_a-impure.o)
__sf_fake_stdin                                   /usr/lib/gcc/arm-none-eabi/9.2.1/../../../arm-none-eabi/lib/thumb/v6-m/nofp/libc_nano.a(lib_a-impure.o)
__sf_fake_stdout                                  /usr/lib/gcc/arm-none-eabi/9.2.1/../../../arm-none-eabi/lib/thumb/v6-m/nofp/libc_nano.a(lib_a-impure.o)
__ssprint_r                                       /usr/lib/gcc/arm-none-eabi/9.2.1/../../../arm-none-eabi/lib/thumb/v6-m/nofp/libc_nano.a(lib_a-nano-svfprintf.o)
__ssputs_r                                        /usr/lib/gcc/arm-none-eabi/9.2.1/../../../arm-none-eabi/lib/thumb/v6-m/nofp/libc_nano.a(lib_a-nano-svfprintf.o)
__stack                                           /usr/lib/gcc/arm-none-eabi/9.2.1/../../../arm-none-eabi/lib/thumb/v6-m/nofp/crt0.o
__udivmoddi4                                      /usr/lib/gcc/arm-none-eabi/9.2.1/thumb/v6-m/nofp/libgcc.a(_udivmoddi4.o)
                                                  /usr/lib/gcc/arm-none-eabi/9.2.1/thumb/v6-m/nofp/libgcc.a(_aeabi_uldivmod.o)
__udivsi3                                         /usr/lib/gcc/arm-none-eabi/9.2.1/thumb/v6-m/nofp/libgcc.a(_udivsi3.o)
_ebss                                             build/startup_stm32g071xx.o
_edata                                            build/startup_stm32g071xx.o
_estack                                           build/startup_stm32g071xx.o
_exit                                             /usr/lib/gcc/arm-none-eabi/9.2.1/../../../arm-none-eabi/lib/thumb/v6-m/nofp/libnosys.a(_exit.o)
                                                  /usr/lib/gcc/arm-none-eabi/9.2.1/../../../arm-none-eabi/lib/thumb/v6-m/nofp/libc_nano.a(lib_a-exit.o)
_fini                                             /usr/lib/gcc/arm-none-eabi/9.2.1/thumb/v6-m/nofp/crti.o
                                                  /usr/lib/gcc/arm-none-eabi/9.2.1/../../../arm-none-eabi/lib/thumb/v6-m/nofp/libc_nano.a(lib_a-fini.o)
_free_r                                           /usr/lib/gcc/arm-none-eabi/9.2.1/../../../arm-none-eabi/lib/thumb/v6-m/nofp/libc_nano.a(lib_a-nano-freer.o)
                                                  /usr/lib/gcc/arm-none-eabi/9.2.1/../../../arm-none-eabi/lib/thumb/v6-m/nofp/libc_nano.a(lib_a-malloc.o)
                                                  /usr/lib/gcc/arm-none-eabi/9.2.1/../../../arm-none-eabi/lib/thumb/v6-m/nofp/libc_nano.a(lib_a-reent.o)
                                                  /usr/lib/gcc/arm-none-eabi/9.2.1/../../../arm-none-eabi/lib/thumb/v6-m/nofp/libc_nano.a(lib_a-nano-reallocr.o)
                                                  /usr/lib/gcc/arm-none-eabi/9.2.1/../../../arm-none-eabi/lib/thumb/v6-m/nofp/libc_nano.a(lib_a-nano-svfprintf.o)
_global_atexit                                    /usr/lib/gcc/arm-none-eabi/9.2.1/../../../arm-none-eabi/lib/thumb/v6-m/nofp/libc_nano.a(lib_a-__call_atexit.o)
                                                  /usr/lib/gcc/arm-none-eabi/9.2.1/../../../arm-none-eabi/lib/thumb/v6-m/nofp/libc_nano.a(lib_a-__atexit.o)
_global_impure_ptr                                /usr/lib/gcc/arm-none-eabi/9.2.1/../../../arm-none-eabi/lib/thumb/v6-m/nofp/libc_nano.a(lib_a-impure.o)
                                                  /usr/lib/gcc/arm-none-eabi/9.2.1/../../../arm-none-eabi/lib/thumb/v6-m/nofp/libc_nano.a(lib_a-exit.o)
_impure_ptr                                       /usr/lib/gcc/arm-none-eabi/9.2.1/../../../arm-none-eabi/lib/thumb/v6-m/nofp/libc_nano.a(lib_a-impure.o)
                                                  /usr/lib/gcc/arm-none-eabi/9.2.1/../../../arm-none-eabi/lib/thumb/v6-m/nofp/libc_nano.a(lib_a-malloc.o)
                                                  /usr/lib/gcc/arm-none-eabi/9.2.1/../../../arm-none-eabi/lib/thumb/v6-m/nofp/libc_nano.a(lib_a-reent.o)
                                                  /usr/lib/gcc/arm-none-eabi/9.2.1/../../../arm-none-eabi/lib/thumb/v6-m/nofp/libc_nano.a(lib_a-snprintf.o)
_init                                             /usr/lib/gcc/arm-none-eabi/9.2.1/thumb/v6-m/nofp/crti.o
                                                  /usr/lib/gcc/arm-none-eabi/9.2.1/../../../arm-none-eabi/lib/thumb/v6-m/nofp/libc_nano.a(lib_a-init.o)
_mainCRTStartup                                   /usr/lib/gcc/arm-none-eabi/9.2.1/../../../arm-none-eabi/lib/thumb/v6-m/nofp/crt0.o
_malloc_r                                         /usr/lib/gcc/arm-none-eabi/9.2.1/../../../arm-none-eabi/lib/thumb/v6-m/nofp/libc_nano.a(lib_a-nano-mallocr.o)
                                                  /usr/lib/gcc/arm-none-eabi/9.2.1/../../../arm-none-eabi/lib/thumb/v6-m/nofp/libc_nano.a(lib_a-malloc.o)
                                                  /usr/lib/gcc/arm-none-eabi/9.2.1/../../../arm-none-eabi/lib/thumb/v6-m/nofp/libc_nano.a(lib_a-nano-reallocr.o)
                                                  /usr/lib/gcc/arm-none-eabi/9.2.1/../../../arm-none-eabi/lib/thumb/v6-m/nofp/libc_nano.a(lib_a-nano-svfprintf.o)
_malloc_usable_size_r                             /usr/lib/gcc/arm-none-eabi/9.2.1/../../../arm-none-eabi/lib/thumb/v6-m/nofp/libc_nano.a(lib_a-nano-msizer.o)
                                                  /usr/lib/gcc/arm-none-eabi/9.2.1/../../../arm-none-eabi/lib/thumb/v6-m/nofp/libc_nano.a(lib_a-nano-reallocr.o)
_printf_common                                    /usr/lib/gcc/arm-none-eabi/9.2.1/../../../arm-none-eabi/lib/thumb/v6-m/nofp/libc_nano.a(lib_a-nano-vfprintf_i.o)
_printf_float                                     /usr/lib/gcc/arm-none-eabi/9.2.1/../../../arm-none-eabi/lib/thumb/v6-m/nofp/libc_nano.a(lib_a-nano-svfprintf.o)
_printf_i                                         /usr/lib/gcc/arm-none-eabi/9.2.1/../../../arm-none-eabi/lib/thumb/v6-m/nofp/libc_nano.a(lib_a-nano-vfprintf_i.o)
                                                  /usr/lib/gcc/arm-none-eabi/9.2.1/../../../arm-none-eabi/lib/thumb/v6-m/nofp/libc_nano.a(lib_a-nano-svfprintf.o)
_realloc_r                                        /usr/lib/gcc/arm-none-eabi/9.2.1/../../../arm-none-eabi/lib/thumb/v6-m/nofp/libc_nano.a(lib_a-nano-reallocr.o)
                                                  /usr/lib/gcc/arm-none-eabi/9.2.1/../../../arm-none-eabi/lib/thumb/v6-m/nofp/libc_nano.a(lib_a-nano-svfprintf.o)
_reclaim_reent                                    /usr/lib/gcc/arm-none-eabi/9.2.1/../../../arm-none-eabi/lib/thumb/v6-m/nofp/libc_nano.a(lib_a-reent.o)
_sbrk                                             /usr/lib/gcc/arm-none-eabi/9.2.1/../../../arm-none-eabi/lib/thumb/v6-m/nofp/libnosys.a(sbrk.o)
                                                  /usr/lib/gcc/arm-none-eabi/9.2.1/../../../arm-none-eabi/lib/thumb/v6-m/nofp/libc_nano.a(lib_a-sbrkr.o)
_sbrk_r                                           /usr/lib/gcc/arm-none-eabi/9.2.1/../../../arm-none-eabi/lib/thumb/v6-m/nofp/libc_nano.a(lib_a-sbrkr.o)
                                                  /usr/lib/gcc/arm-none-eabi/9.2.1/../../../arm-none-eabi/lib/thumb/v6-m/nofp/libc_nano.a(lib_a-nano-mallocr.o)
_sbss                                             build/startup_stm32g071xx.o
_sdata                                            build/startup_stm32g071xx.o
_sidata                                           build/startup_stm32g071xx.o
_sniprintf_r                                      /usr/lib/gcc/arm-none-eabi/9.2.1/../../../arm-none-eabi/lib/thumb/v6-m/nofp/libc_nano.a(lib_a-snprintf.o)
_snprintf_r                                       /usr/lib/gcc/arm-none-eabi/9.2.1/../../../arm-none-eabi/lib/thumb/v6-m/nofp/libc_nano.a(lib_a-snprintf.o)
_stack_init                                       /usr/lib/gcc/arm-none-eabi/9.2.1/../../../arm-none-eabi/lib/thumb/v6-m/nofp/crt0.o
_start                                            /usr/lib/gcc/arm-none-eabi/9.2.1/../../../arm-none-eabi/lib/thumb/v6-m/nofp/crt0.o
_svfiprintf_r                                     /usr/lib/gcc/arm-none-eabi/9.2.1/../../../arm-none-eabi/lib/thumb/v6-m/nofp/libc_nano.a(lib_a-nano-svfprintf.o)
_svfprintf_r                                      /usr/lib/gcc/arm-none-eabi/9.2.1/../../../arm-none-eabi/lib/thumb/v6-m/nofp/libc_nano.a(lib_a-nano-svfprintf.o)
                                                  /usr/lib/gcc/arm-none-eabi/9.2.1/../../../arm-none-eabi/lib/thumb/v6-m/nofp/libc_nano.a(lib_a-snprintf.o)
adc                                               build/main.o
atexit                                            /usr/lib/gcc/arm-none-eabi/9.2.1/../../../arm-none-eabi/lib/thumb/v6-m/nofp/libc_nano.a(lib_a-atexit.o)
                                                  /usr/lib/gcc/arm-none-eabi/9.2.1/../../../arm-none-eabi/lib/thumb/v6-m/nofp/crt0.o
cleanup_glue                                      /usr/lib/gcc/arm-none-eabi/9.2.1/../../../arm-none-eabi/lib/thumb/v6-m/nofp/libc_nano.a(lib_a-reent.o)
defaultTaskHandle                                 build/main.o
end                                               /usr/lib/gcc/arm-none-eabi/9.2.1/../../../arm-none-eabi/lib/thumb/v6-m/nofp/libnosys.a(sbrk.o)
errno                                             /usr/lib/gcc/arm-none-eabi/9.2.1/../../../arm-none-eabi/lib/thumb/v6-m/nofp/libc_nano.a(lib_a-reent.o)
                                                  /usr/lib/gcc/arm-none-eabi/9.2.1/../../../arm-none-eabi/lib/thumb/v6-m/nofp/libc_nano.a(lib_a-sbrkr.o)
exit                                              /usr/lib/gcc/arm-none-eabi/9.2.1/../../../arm-none-eabi/lib/thumb/v6-m/nofp/libc_nano.a(lib_a-exit.o)
                                                  /usr/lib/gcc/arm-none-eabi/9.2.1/../../../arm-none-eabi/lib/thumb/v6-m/nofp/crt0.o
free                                              /usr/lib/gcc/arm-none-eabi/9.2.1/../../../arm-none-eabi/lib/thumb/v6-m/nofp/libc_nano.a(lib_a-malloc.o)
g_pfnVectors                                      build/startup_stm32g071xx.o
hadc1                                             build/main.o
hardware_init_hook                                /usr/lib/gcc/arm-none-eabi/9.2.1/../../../arm-none-eabi/lib/thumb/v6-m/nofp/crt0.o
hdma_adc1                                         build/main.o
                                                  build/stm32g0xx_hal_msp.o
                                                  build/stm32g0xx_it.o
hdma_lpuart1_tx                                   build/main.o
                                                  build/stm32g0xx_hal_msp.o
                                                  build/stm32g0xx_it.o
hlpuart1                                          build/main.o
                                                  build/stm32g0xx_it.o
main                                              build/main.o
                                                  build/startup_stm32g071xx.o
                                                  /usr/lib/gcc/arm-none-eabi/9.2.1/../../../arm-none-eabi/lib/thumb/v6-m/nofp/crt0.o
malloc                                            /usr/lib/gcc/arm-none-eabi/9.2.1/../../../arm-none-eabi/lib/thumb/v6-m/nofp/libc_nano.a(lib_a-malloc.o)
                                                  Middlewares/ST/STM32_USBPD_Library/Core/lib/USBPDCORE_PD3_FULL_CM0PLUS_wc32.a(usbpd_prl.o)
                                                  Middlewares/ST/STM32_USBPD_Library/Core/lib/USBPDCORE_PD3_FULL_CM0PLUS_wc32.a(usbpd_pe.o)
                                                  Middlewares/ST/STM32_USBPD_Library/Core/lib/USBPDCORE_PD3_FULL_CM0PLUS_wc32.a(usbpd_cad.o)
                                                  /usr/lib/gcc/arm-none-eabi/9.2.1/../../../arm-none-eabi/lib/thumb/v6-m/nofp/libc_nano.a(lib_a-__atexit.o)
memchr                                            /usr/lib/gcc/arm-none-eabi/9.2.1/../../../arm-none-eabi/lib/thumb/v6-m/nofp/libc_nano.a(lib_a-memchr-stub.o)
                                                  /usr/lib/gcc/arm-none-eabi/9.2.1/../../../arm-none-eabi/lib/thumb/v6-m/nofp/libc_nano.a(lib_a-nano-vfprintf_i.o)
                                                  /usr/lib/gcc/arm-none-eabi/9.2.1/../../../arm-none-eabi/lib/thumb/v6-m/nofp/libc_nano.a(lib_a-nano-svfprintf.o)
memcpy                                            /usr/lib/gcc/arm-none-eabi/9.2.1/../../../arm-none-eabi/lib/thumb/v6-m/nofp/libc_nano.a(lib_a-memcpy-stub.o)
                                                  /usr/lib/gcc/arm-none-eabi/9.2.1/../../../arm-none-eabi/lib/thumb/v6-m/nofp/libc_nano.a(lib_a-aeabi_memcpy.o)
                                                  /usr/lib/gcc/arm-none-eabi/9.2.1/../../../arm-none-eabi/lib/thumb/v6-m/nofp/libc_nano.a(lib_a-nano-reallocr.o)
                                                  /usr/lib/gcc/arm-none-eabi/9.2.1/../../../arm-none-eabi/lib/thumb/v6-m/nofp/libc_nano.a(lib_a-nano-svfprintf.o)
                                                  build/gui_api.o
                                                  build/bsp_gui.o
                                                  build/stm32g0xx_hal_uart_ex.o
                                                  build/stream_buffer.o
                                                  build/queue.o
                                                  build/usbpd_pwr_if.o
memmove                                           /usr/lib/gcc/arm-none-eabi/9.2.1/../../../arm-none-eabi/lib/thumb/v6-m/nofp/libc_nano.a(lib_a-memmove.o)
                                                  /usr/lib/gcc/arm-none-eabi/9.2.1/../../../arm-none-eabi/lib/thumb/v6-m/nofp/libc_nano.a(lib_a-nano-svfprintf.o)
memset                                            /usr/lib/gcc/arm-none-eabi/9.2.1/../../../arm-none-eabi/lib/thumb/v6-m/nofp/libc_nano.a(lib_a-memset.o)
                                                  /usr/lib/gcc/arm-none-eabi/9.2.1/../../../arm-none-eabi/lib/thumb/v6-m/nofp/libc_nano.a(lib_a-aeabi_memset.o)
                                                  build/gui_api.o
                                                  build/cmsis_os.o
                                                  build/stream_buffer.o
                                                  build/stm32g0xx_hal_msp.o
                                                  build/main.o
                                                  /usr/lib/gcc/arm-none-eabi/9.2.1/../../../arm-none-eabi/lib/thumb/v6-m/nofp/crt0.o
osAbortDelay                                      build/cmsis_os.o
osDelay                                           build/cmsis_os.o
                                                  build/usbpd_dpm_user.o
                                                  build/main.o
osDelayUntil                                      build/cmsis_os.o
osKernelRunning                                   build/cmsis_os.o
osKernelStart                                     build/cmsis_os.o
                                                  build/usbpd_dpm_core.o
                                                  build/main.o
osKernelSysTick                                   build/cmsis_os.o
osMailAlloc                                       build/cmsis_os.o
osMailCAlloc                                      build/cmsis_os.o
osMailCreate                                      build/cmsis_os.o
osMailFree                                        build/cmsis_os.o
osMailGet                                         build/cmsis_os.o
osMailPut                                         build/cmsis_os.o
osMessageAvailableSpace                           build/cmsis_os.o
osMessageCreate                                   build/cmsis_os.o
                                                  build/gui_api.o
                                                  build/usbpd_dpm_core.o
osMessageDelete                                   build/cmsis_os.o
osMessageGet                                      build/cmsis_os.o
                                                  build/gui_api.o
                                                  build/usbpd_dpm_core.o
osMessagePeek                                     build/cmsis_os.o
osMessagePut                                      build/cmsis_os.o
                                                  build/gui_api.o
                                                  build/usbpd_dpm_core.o
osMessageWaiting                                  build/cmsis_os.o
osMutexCreate                                     build/cmsis_os.o
osMutexDelete                                     build/cmsis_os.o
osMutexRelease                                    build/cmsis_os.o
osMutexWait                                       build/cmsis_os.o
osPoolAlloc                                       build/cmsis_os.o
osPoolCAlloc                                      build/cmsis_os.o
osPoolCreate                                      build/cmsis_os.o
osPoolFree                                        build/cmsis_os.o
osRecursiveMutexCreate                            build/cmsis_os.o
osRecursiveMutexRelease                           build/cmsis_os.o
osRecursiveMutexWait                              build/cmsis_os.o
osSemaphoreCreate                                 build/cmsis_os.o
osSemaphoreDelete                                 build/cmsis_os.o
osSemaphoreGetCount                               build/cmsis_os.o
osSemaphoreRelease                                build/cmsis_os.o
osSemaphoreWait                                   build/cmsis_os.o
osSignalSet                                       build/cmsis_os.o
osSignalWait                                      build/cmsis_os.o
osSystickHandler                                  build/cmsis_os.o
osThreadCreate                                    build/cmsis_os.o
                                                  build/gui_api.o
                                                  build/usbpd_dpm_core.o
                                                  build/main.o
osThreadGetId                                     build/cmsis_os.o
osThreadGetPriority                               build/cmsis_os.o
osThreadList                                      build/cmsis_os.o
osThreadResume                                    build/cmsis_os.o
osThreadResumeAll                                 build/cmsis_os.o
osThreadSetPriority                               build/cmsis_os.o
osThreadSuspend                                   build/cmsis_os.o
osThreadSuspendAll                                build/cmsis_os.o
osThreadTerminate                                 build/cmsis_os.o
                                                  build/usbpd_dpm_core.o
osThreadYield                                     build/cmsis_os.o
osTimerCreate                                     build/cmsis_os.o
osTimerDelete                                     build/cmsis_os.o
osTimerStart                                      build/cmsis_os.o
osTimerStop                                       build/cmsis_os.o
os_messageQ_def_queueCAD                          build/usbpd_dpm_core.o
os_messageQ_def_queuePE                           build/usbpd_dpm_core.o
os_messageQ_def_queueTRACE                        build/usbpd_dpm_core.o
os_thread_def_CAD                                 build/usbpd_dpm_core.o
os_thread_def_PE_0                                build/usbpd_dpm_core.o
os_thread_def_PE_1                                build/usbpd_dpm_core.o
os_thread_def_TRA_TX                              build/usbpd_dpm_core.o
pCB_GetCurrent                                    build/gui_api.o
pCB_GetVoltage                                    build/gui_api.o
pCB_HWBoardVersion                                build/gui_api.o
pCB_HWPDType                                      build/gui_api.o
pFlash                                            build/stm32g0xx_hal_flash.o
                                                  build/stm32g0xx_hal_flash_ex.o
pcQueueGetName                                    build/queue.o
pcTaskGetName                                     build/tasks.o
pvPortMalloc                                      build/heap_4.o
                                                  build/cmsis_os.o
                                                  build/tasks.o
                                                  build/stream_buffer.o
                                                  build/queue.o
                                                  build/event_groups.o
pvTaskIncrementMutexHeldCount                     build/tasks.o
                                                  build/queue.o
pxCurrentTCB                                      build/tasks.o
                                                  build/port.o
pxPortInitialiseStack                             build/port.o
                                                  build/tasks.o
sniprintf                                         /usr/lib/gcc/arm-none-eabi/9.2.1/../../../arm-none-eabi/lib/thumb/v6-m/nofp/libc_nano.a(lib_a-snprintf.o)
snprintf                                          /usr/lib/gcc/arm-none-eabi/9.2.1/../../../arm-none-eabi/lib/thumb/v6-m/nofp/libc_nano.a(lib_a-snprintf.o)
                                                  build/usbpd_dpm_user.o
software_init_hook                                /usr/lib/gcc/arm-none-eabi/9.2.1/../../../arm-none-eabi/lib/thumb/v6-m/nofp/crt0.o
strcpy                                            /usr/lib/gcc/arm-none-eabi/9.2.1/../../../arm-none-eabi/lib/thumb/v6-m/nofp/libc_nano.a(lib_a-strcpy.o)
                                                  build/usbpd_dpm_user.o
strlen                                            /usr/lib/gcc/arm-none-eabi/9.2.1/../../../arm-none-eabi/lib/thumb/v6-m/nofp/libc_nano.a(lib_a-strlen-stub.o)
                                                  build/gui_api.o
                                                  build/usbpd_dpm_user.o
ulSetInterruptMaskFromISR                         build/port.o
                                                  build/cmsis_os.o
                                                  build/tasks.o
                                                  build/stream_buffer.o
                                                  build/queue.o
                                                  build/event_groups.o
ulTaskNotifyTake                                  build/tasks.o
uwTick                                            build/stm32g0xx_hal.o
uwTickFreq                                        build/stm32g0xx_hal.o
uwTickPrio                                        build/stm32g0xx_hal.o
                                                  build/stm32g0xx_hal_rcc.o
uxListRemove                                      build/list.o
                                                  build/tasks.o
uxQueueMessagesWaiting                            build/queue.o
                                                  build/cmsis_os.o
uxQueueMessagesWaitingFromISR                     build/queue.o
                                                  build/cmsis_os.o
uxQueueSpacesAvailable                            build/queue.o
                                                  build/cmsis_os.o
uxTaskGetNumberOfTasks                            build/tasks.o
uxTaskPriorityGet                                 build/tasks.o
                                                  build/cmsis_os.o
uxTaskPriorityGetFromISR                          build/tasks.o
                                                  build/cmsis_os.o
uxTaskResetEventItemValue                         build/tasks.o
                                                  build/event_groups.o
vClearInterruptMaskFromISR                        build/port.o
                                                  build/cmsis_os.o
                                                  build/tasks.o
                                                  build/stream_buffer.o
                                                  build/queue.o
                                                  build/event_groups.o
vEventGroupClearBitsCallback                      build/event_groups.o
vEventGroupDelete                                 build/event_groups.o
vEventGroupSetBitsCallback                        build/event_groups.o
vListInitialise                                   build/list.o
                                                  build/tasks.o
                                                  build/queue.o
                                                  build/event_groups.o
vListInitialiseItem                               build/list.o
                                                  build/tasks.o
vListInsert                                       build/list.o
                                                  build/tasks.o
vListInsertEnd                                    build/list.o
                                                  build/tasks.o
vPortEndScheduler                                 build/port.o
                                                  build/tasks.o
vPortEnterCritical                                build/port.o
                                                  build/cmsis_os.o
                                                  build/tasks.o
                                                  build/stream_buffer.o
                                                  build/queue.o
                                                  build/event_groups.o
vPortExitCritical                                 build/port.o
                                                  build/cmsis_os.o
                                                  build/tasks.o
                                                  build/stream_buffer.o
                                                  build/queue.o
                                                  build/event_groups.o
vPortFree                                         build/heap_4.o
                                                  build/cmsis_os.o
                                                  build/tasks.o
                                                  build/stream_buffer.o
                                                  build/queue.o
                                                  build/event_groups.o
vPortInitialiseBlocks                             build/heap_4.o
vPortYield                                        build/port.o
                                                  build/cmsis_os.o
                                                  build/tasks.o
                                                  build/queue.o
                                                  build/event_groups.o
vQueueAddToRegistry                               build/queue.o
vQueueDelete                                      build/queue.o
                                                  build/cmsis_os.o
vQueueUnregisterQueue                             build/queue.o
vStreamBufferDelete                               build/stream_buffer.o
vTaskDelay                                        build/tasks.o
                                                  build/cmsis_os.o
vTaskDelete                                       build/tasks.o
                                                  build/cmsis_os.o
vTaskEndScheduler                                 build/tasks.o
vTaskInternalSetTimeOutState                      build/tasks.o
                                                  build/queue.o
vTaskMissedYield                                  build/tasks.o
                                                  build/queue.o
vTaskNotifyGiveFromISR                            build/tasks.o
vTaskPlaceOnEventList                             build/tasks.o
                                                  build/queue.o
vTaskPlaceOnUnorderedEventList                    build/tasks.o
                                                  build/event_groups.o
vTaskPriorityDisinheritAfterTimeout               build/tasks.o
                                                  build/queue.o
vTaskPrioritySet                                  build/tasks.o
                                                  build/cmsis_os.o
vTaskRemoveFromUnorderedEventList                 build/tasks.o
                                                  build/event_groups.o
vTaskResume                                       build/tasks.o
                                                  build/cmsis_os.o
vTaskSetTimeOutState                              build/tasks.o
                                                  build/stream_buffer.o
vTaskStartScheduler                               build/tasks.o
                                                  build/cmsis_os.o
vTaskSuspend                                      build/tasks.o
                                                  build/cmsis_os.o
vTaskSuspendAll                                   build/tasks.o
                                                  build/heap_4.o
                                                  build/cmsis_os.o
                                                  build/stream_buffer.o
                                                  build/queue.o
                                                  build/event_groups.o
vTaskSwitchContext                                build/tasks.o
                                                  build/port.o
vdmCallbacks                                      build/usbpd_vdm_user.o
vin                                               build/main.o
xEventGroupClearBits                              build/event_groups.o
xEventGroupCreate                                 build/event_groups.o
xEventGroupGetBitsFromISR                         build/event_groups.o
xEventGroupSetBits                                build/event_groups.o
xEventGroupSync                                   build/event_groups.o
xEventGroupWaitBits                               build/event_groups.o
xPortGetFreeHeapSize                              build/heap_4.o
xPortGetMinimumEverFreeHeapSize                   build/heap_4.o
xPortStartScheduler                               build/port.o
                                                  build/tasks.o
xPortSysTickHandler                               build/port.o
                                                  build/cmsis_os.o
xQueueCreateMutex                                 build/queue.o
                                                  build/cmsis_os.o
xQueueGenericCreate                               build/queue.o
                                                  build/cmsis_os.o
xQueueGenericReset                                build/queue.o
xQueueGenericSend                                 build/queue.o
                                                  build/cmsis_os.o
xQueueGenericSendFromISR                          build/queue.o
                                                  build/cmsis_os.o
xQueueGiveFromISR                                 build/queue.o
                                                  build/cmsis_os.o
xQueueIsQueueEmptyFromISR                         build/queue.o
xQueueIsQueueFullFromISR                          build/queue.o
xQueuePeek                                        build/queue.o
                                                  build/cmsis_os.o
xQueuePeekFromISR                                 build/queue.o
xQueueReceive                                     build/queue.o
                                                  build/cmsis_os.o
xQueueReceiveFromISR                              build/queue.o
                                                  build/cmsis_os.o
xQueueRegistry                                    build/queue.o
xQueueSemaphoreTake                               build/queue.o
                                                  build/cmsis_os.o
xStreamBufferBytesAvailable                       build/stream_buffer.o
xStreamBufferGenericCreate                        build/stream_buffer.o
xStreamBufferIsEmpty                              build/stream_buffer.o
xStreamBufferIsFull                               build/stream_buffer.o
xStreamBufferReceive                              build/stream_buffer.o
xStreamBufferReceiveCompletedFromISR              build/stream_buffer.o
xStreamBufferReceiveFromISR                       build/stream_buffer.o
xStreamBufferReset                                build/stream_buffer.o
xStreamBufferSend                                 build/stream_buffer.o
xStreamBufferSendCompletedFromISR                 build/stream_buffer.o
xStreamBufferSendFromISR                          build/stream_buffer.o
xStreamBufferSetTriggerLevel                      build/stream_buffer.o
xStreamBufferSpacesAvailable                      build/stream_buffer.o
xTaskCheckForTimeOut                              build/tasks.o
                                                  build/stream_buffer.o
                                                  build/queue.o
xTaskCreate                                       build/tasks.o
                                                  build/cmsis_os.o
xTaskGenericNotify                                build/tasks.o
                                                  build/cmsis_os.o
                                                  build/stream_buffer.o
xTaskGenericNotifyFromISR                         build/tasks.o
                                                  build/cmsis_os.o
                                                  build/stream_buffer.o
xTaskGetCurrentTaskHandle                         build/tasks.o
                                                  build/cmsis_os.o
                                                  build/stream_buffer.o
xTaskGetSchedulerState                            build/tasks.o
                                                  build/cmsis_os.o
                                                  build/queue.o
                                                  build/event_groups.o
xTaskGetTickCount                                 build/tasks.o
                                                  build/cmsis_os.o
xTaskGetTickCountFromISR                          build/tasks.o
                                                  build/cmsis_os.o
xTaskIncrementTick                                build/tasks.o
                                                  build/port.o
xTaskNotifyStateClear                             build/tasks.o
                                                  build/stream_buffer.o
xTaskNotifyWait                                   build/tasks.o
                                                  build/cmsis_os.o
                                                  build/stream_buffer.o
xTaskPriorityDisinherit                           build/tasks.o
                                                  build/queue.o
xTaskPriorityInherit                              build/tasks.o
                                                  build/queue.o
xTaskRemoveFromEventList                          build/tasks.o
                                                  build/queue.o
xTaskResumeAll                                    build/tasks.o
                                                  build/heap_4.o
                                                  build/cmsis_os.o
                                                  build/stream_buffer.o
                                                  build/queue.o
                                                  build/event_groups.o
xTaskResumeFromISR                                build/tasks.o
                                                  build/cmsis_os.o
