ARM GAS  /tmp/ccdnVxo0.s 			page 1


   1              		.cpu cortex-m0plus
   2              		.eabi_attribute 20, 1
   3              		.eabi_attribute 21, 1
   4              		.eabi_attribute 23, 3
   5              		.eabi_attribute 24, 1
   6              		.eabi_attribute 25, 1
   7              		.eabi_attribute 26, 1
   8              		.eabi_attribute 30, 4
   9              		.eabi_attribute 34, 0
  10              		.eabi_attribute 18, 4
  11              		.file	"usbpd_phy_hw_if.c"
  12              		.text
  13              	.Ltext0:
  14              		.cfi_sections	.debug_frame
  15              		.section	.text.LL_APB2_GRP1_EnableClock.constprop.0,"ax",%progbits
  16              		.align	1
  17              		.arch armv6s-m
  18              		.syntax unified
  19              		.code	16
  20              		.thumb_func
  21              		.fpu softvfp
  23              	LL_APB2_GRP1_EnableClock.constprop.0:
  24              	.LFB851:
  25              		.file 1 "Drivers/STM32G0xx_HAL_Driver/Inc/stm32g0xx_ll_bus.h"
   1:Drivers/STM32G0xx_HAL_Driver/Inc/stm32g0xx_ll_bus.h **** /**
   2:Drivers/STM32G0xx_HAL_Driver/Inc/stm32g0xx_ll_bus.h ****   ******************************************************************************
   3:Drivers/STM32G0xx_HAL_Driver/Inc/stm32g0xx_ll_bus.h ****   * @file    stm32g0xx_ll_bus.h
   4:Drivers/STM32G0xx_HAL_Driver/Inc/stm32g0xx_ll_bus.h ****   * @author  MCD Application Team
   5:Drivers/STM32G0xx_HAL_Driver/Inc/stm32g0xx_ll_bus.h ****   * @brief   Header file of BUS LL module.
   6:Drivers/STM32G0xx_HAL_Driver/Inc/stm32g0xx_ll_bus.h **** 
   7:Drivers/STM32G0xx_HAL_Driver/Inc/stm32g0xx_ll_bus.h ****   @verbatim
   8:Drivers/STM32G0xx_HAL_Driver/Inc/stm32g0xx_ll_bus.h ****                       ##### RCC Limitations #####
   9:Drivers/STM32G0xx_HAL_Driver/Inc/stm32g0xx_ll_bus.h ****   ==============================================================================
  10:Drivers/STM32G0xx_HAL_Driver/Inc/stm32g0xx_ll_bus.h ****     [..]
  11:Drivers/STM32G0xx_HAL_Driver/Inc/stm32g0xx_ll_bus.h ****       A delay between an RCC peripheral clock enable and the effective peripheral
  12:Drivers/STM32G0xx_HAL_Driver/Inc/stm32g0xx_ll_bus.h ****       enabling should be taken into account in order to manage the peripheral read/write
  13:Drivers/STM32G0xx_HAL_Driver/Inc/stm32g0xx_ll_bus.h ****       from/to registers.
  14:Drivers/STM32G0xx_HAL_Driver/Inc/stm32g0xx_ll_bus.h ****       (+) This delay depends on the peripheral mapping.
  15:Drivers/STM32G0xx_HAL_Driver/Inc/stm32g0xx_ll_bus.h ****         (++) AHB & APB peripherals, 1 dummy read is necessary
  16:Drivers/STM32G0xx_HAL_Driver/Inc/stm32g0xx_ll_bus.h **** 
  17:Drivers/STM32G0xx_HAL_Driver/Inc/stm32g0xx_ll_bus.h ****     [..]
  18:Drivers/STM32G0xx_HAL_Driver/Inc/stm32g0xx_ll_bus.h ****       Workarounds:
  19:Drivers/STM32G0xx_HAL_Driver/Inc/stm32g0xx_ll_bus.h ****       (#) For AHB & APB peripherals, a dummy read to the peripheral register has been
  20:Drivers/STM32G0xx_HAL_Driver/Inc/stm32g0xx_ll_bus.h ****           inserted in each LL_{BUS}_GRP{x}_EnableClock() function.
  21:Drivers/STM32G0xx_HAL_Driver/Inc/stm32g0xx_ll_bus.h **** 
  22:Drivers/STM32G0xx_HAL_Driver/Inc/stm32g0xx_ll_bus.h ****   @endverbatim
  23:Drivers/STM32G0xx_HAL_Driver/Inc/stm32g0xx_ll_bus.h ****   ******************************************************************************
  24:Drivers/STM32G0xx_HAL_Driver/Inc/stm32g0xx_ll_bus.h ****   * @attention
  25:Drivers/STM32G0xx_HAL_Driver/Inc/stm32g0xx_ll_bus.h ****   *
  26:Drivers/STM32G0xx_HAL_Driver/Inc/stm32g0xx_ll_bus.h ****   * <h2><center>&copy; Copyright (c) 2018 STMicroelectronics. 
  27:Drivers/STM32G0xx_HAL_Driver/Inc/stm32g0xx_ll_bus.h ****   * All rights reserved.</center></h2>
  28:Drivers/STM32G0xx_HAL_Driver/Inc/stm32g0xx_ll_bus.h ****   *
  29:Drivers/STM32G0xx_HAL_Driver/Inc/stm32g0xx_ll_bus.h ****   * This software component is licensed by ST under BSD 3-Clause license,
  30:Drivers/STM32G0xx_HAL_Driver/Inc/stm32g0xx_ll_bus.h ****   * the "License"; You may not use this file except in compliance with the 
  31:Drivers/STM32G0xx_HAL_Driver/Inc/stm32g0xx_ll_bus.h ****   * License. You may obtain a copy of the License at:
  32:Drivers/STM32G0xx_HAL_Driver/Inc/stm32g0xx_ll_bus.h ****   *                        opensource.org/licenses/BSD-3-Clause
  33:Drivers/STM32G0xx_HAL_Driver/Inc/stm32g0xx_ll_bus.h ****   *
ARM GAS  /tmp/ccdnVxo0.s 			page 2


  34:Drivers/STM32G0xx_HAL_Driver/Inc/stm32g0xx_ll_bus.h ****   ******************************************************************************
  35:Drivers/STM32G0xx_HAL_Driver/Inc/stm32g0xx_ll_bus.h ****   */
  36:Drivers/STM32G0xx_HAL_Driver/Inc/stm32g0xx_ll_bus.h **** 
  37:Drivers/STM32G0xx_HAL_Driver/Inc/stm32g0xx_ll_bus.h **** /* Define to prevent recursive inclusion -------------------------------------*/
  38:Drivers/STM32G0xx_HAL_Driver/Inc/stm32g0xx_ll_bus.h **** #ifndef STM32G0xx_LL_BUS_H
  39:Drivers/STM32G0xx_HAL_Driver/Inc/stm32g0xx_ll_bus.h **** #define STM32G0xx_LL_BUS_H
  40:Drivers/STM32G0xx_HAL_Driver/Inc/stm32g0xx_ll_bus.h **** 
  41:Drivers/STM32G0xx_HAL_Driver/Inc/stm32g0xx_ll_bus.h **** #ifdef __cplusplus
  42:Drivers/STM32G0xx_HAL_Driver/Inc/stm32g0xx_ll_bus.h **** extern "C" {
  43:Drivers/STM32G0xx_HAL_Driver/Inc/stm32g0xx_ll_bus.h **** #endif
  44:Drivers/STM32G0xx_HAL_Driver/Inc/stm32g0xx_ll_bus.h **** 
  45:Drivers/STM32G0xx_HAL_Driver/Inc/stm32g0xx_ll_bus.h **** /* Includes ------------------------------------------------------------------*/
  46:Drivers/STM32G0xx_HAL_Driver/Inc/stm32g0xx_ll_bus.h **** #include "stm32g0xx.h"
  47:Drivers/STM32G0xx_HAL_Driver/Inc/stm32g0xx_ll_bus.h **** 
  48:Drivers/STM32G0xx_HAL_Driver/Inc/stm32g0xx_ll_bus.h **** /** @addtogroup STM32G0xx_LL_Driver
  49:Drivers/STM32G0xx_HAL_Driver/Inc/stm32g0xx_ll_bus.h ****   * @{
  50:Drivers/STM32G0xx_HAL_Driver/Inc/stm32g0xx_ll_bus.h ****   */
  51:Drivers/STM32G0xx_HAL_Driver/Inc/stm32g0xx_ll_bus.h **** 
  52:Drivers/STM32G0xx_HAL_Driver/Inc/stm32g0xx_ll_bus.h **** #if defined(RCC)
  53:Drivers/STM32G0xx_HAL_Driver/Inc/stm32g0xx_ll_bus.h **** 
  54:Drivers/STM32G0xx_HAL_Driver/Inc/stm32g0xx_ll_bus.h **** /** @defgroup BUS_LL BUS
  55:Drivers/STM32G0xx_HAL_Driver/Inc/stm32g0xx_ll_bus.h ****   * @{
  56:Drivers/STM32G0xx_HAL_Driver/Inc/stm32g0xx_ll_bus.h ****   */
  57:Drivers/STM32G0xx_HAL_Driver/Inc/stm32g0xx_ll_bus.h **** 
  58:Drivers/STM32G0xx_HAL_Driver/Inc/stm32g0xx_ll_bus.h **** /* Private types -------------------------------------------------------------*/
  59:Drivers/STM32G0xx_HAL_Driver/Inc/stm32g0xx_ll_bus.h **** /* Private variables ---------------------------------------------------------*/
  60:Drivers/STM32G0xx_HAL_Driver/Inc/stm32g0xx_ll_bus.h **** 
  61:Drivers/STM32G0xx_HAL_Driver/Inc/stm32g0xx_ll_bus.h **** /* Private constants ---------------------------------------------------------*/
  62:Drivers/STM32G0xx_HAL_Driver/Inc/stm32g0xx_ll_bus.h **** 
  63:Drivers/STM32G0xx_HAL_Driver/Inc/stm32g0xx_ll_bus.h **** /* Private macros ------------------------------------------------------------*/
  64:Drivers/STM32G0xx_HAL_Driver/Inc/stm32g0xx_ll_bus.h **** 
  65:Drivers/STM32G0xx_HAL_Driver/Inc/stm32g0xx_ll_bus.h **** /* Exported types ------------------------------------------------------------*/
  66:Drivers/STM32G0xx_HAL_Driver/Inc/stm32g0xx_ll_bus.h **** /* Exported constants --------------------------------------------------------*/
  67:Drivers/STM32G0xx_HAL_Driver/Inc/stm32g0xx_ll_bus.h **** /** @defgroup BUS_LL_Exported_Constants BUS Exported Constants
  68:Drivers/STM32G0xx_HAL_Driver/Inc/stm32g0xx_ll_bus.h ****   * @{
  69:Drivers/STM32G0xx_HAL_Driver/Inc/stm32g0xx_ll_bus.h ****   */
  70:Drivers/STM32G0xx_HAL_Driver/Inc/stm32g0xx_ll_bus.h **** 
  71:Drivers/STM32G0xx_HAL_Driver/Inc/stm32g0xx_ll_bus.h **** /** @defgroup BUS_LL_EC_AHB1_GRP1_PERIPH  AHB1 GRP1 PERIPH
  72:Drivers/STM32G0xx_HAL_Driver/Inc/stm32g0xx_ll_bus.h ****   * @{
  73:Drivers/STM32G0xx_HAL_Driver/Inc/stm32g0xx_ll_bus.h ****   */
  74:Drivers/STM32G0xx_HAL_Driver/Inc/stm32g0xx_ll_bus.h **** #define LL_AHB1_GRP1_PERIPH_ALL            0xFFFFFFFFU
  75:Drivers/STM32G0xx_HAL_Driver/Inc/stm32g0xx_ll_bus.h **** #define LL_AHB1_GRP1_PERIPH_DMA1           RCC_AHBENR_DMA1EN
  76:Drivers/STM32G0xx_HAL_Driver/Inc/stm32g0xx_ll_bus.h **** #define LL_AHB1_GRP1_PERIPH_FLASH          RCC_AHBENR_FLASHEN
  77:Drivers/STM32G0xx_HAL_Driver/Inc/stm32g0xx_ll_bus.h **** #define LL_AHB1_GRP1_PERIPH_SRAM           RCC_AHBSMENR_SRAMSMEN
  78:Drivers/STM32G0xx_HAL_Driver/Inc/stm32g0xx_ll_bus.h **** #if defined(CRC)
  79:Drivers/STM32G0xx_HAL_Driver/Inc/stm32g0xx_ll_bus.h **** #define LL_AHB1_GRP1_PERIPH_CRC            RCC_AHBENR_CRCEN
  80:Drivers/STM32G0xx_HAL_Driver/Inc/stm32g0xx_ll_bus.h **** #endif
  81:Drivers/STM32G0xx_HAL_Driver/Inc/stm32g0xx_ll_bus.h **** #if defined(AES)
  82:Drivers/STM32G0xx_HAL_Driver/Inc/stm32g0xx_ll_bus.h **** #define LL_AHB1_GRP1_PERIPH_CRYP           RCC_AHBENR_AESEN
  83:Drivers/STM32G0xx_HAL_Driver/Inc/stm32g0xx_ll_bus.h **** #endif /* AES */
  84:Drivers/STM32G0xx_HAL_Driver/Inc/stm32g0xx_ll_bus.h **** #if defined(RNG)
  85:Drivers/STM32G0xx_HAL_Driver/Inc/stm32g0xx_ll_bus.h **** #define LL_AHB1_GRP1_PERIPH_RNG            RCC_AHBENR_RNGEN
  86:Drivers/STM32G0xx_HAL_Driver/Inc/stm32g0xx_ll_bus.h **** #endif
  87:Drivers/STM32G0xx_HAL_Driver/Inc/stm32g0xx_ll_bus.h **** /**
  88:Drivers/STM32G0xx_HAL_Driver/Inc/stm32g0xx_ll_bus.h ****   * @}
  89:Drivers/STM32G0xx_HAL_Driver/Inc/stm32g0xx_ll_bus.h ****   */
  90:Drivers/STM32G0xx_HAL_Driver/Inc/stm32g0xx_ll_bus.h **** 
ARM GAS  /tmp/ccdnVxo0.s 			page 3


  91:Drivers/STM32G0xx_HAL_Driver/Inc/stm32g0xx_ll_bus.h **** 
  92:Drivers/STM32G0xx_HAL_Driver/Inc/stm32g0xx_ll_bus.h **** /** @defgroup BUS_LL_EC_APB1_GRP1_PERIPH  APB1 GRP1 PERIPH
  93:Drivers/STM32G0xx_HAL_Driver/Inc/stm32g0xx_ll_bus.h ****   * @{
  94:Drivers/STM32G0xx_HAL_Driver/Inc/stm32g0xx_ll_bus.h ****   */
  95:Drivers/STM32G0xx_HAL_Driver/Inc/stm32g0xx_ll_bus.h **** #define LL_APB1_GRP1_PERIPH_ALL            0xFFFFFFFFU
  96:Drivers/STM32G0xx_HAL_Driver/Inc/stm32g0xx_ll_bus.h **** #if defined(TIM2)
  97:Drivers/STM32G0xx_HAL_Driver/Inc/stm32g0xx_ll_bus.h **** #define LL_APB1_GRP1_PERIPH_TIM2           RCC_APBENR1_TIM2EN
  98:Drivers/STM32G0xx_HAL_Driver/Inc/stm32g0xx_ll_bus.h **** #endif /* TIM2 */
  99:Drivers/STM32G0xx_HAL_Driver/Inc/stm32g0xx_ll_bus.h **** #if defined(TIM3)
 100:Drivers/STM32G0xx_HAL_Driver/Inc/stm32g0xx_ll_bus.h **** #define LL_APB1_GRP1_PERIPH_TIM3           RCC_APBENR1_TIM3EN
 101:Drivers/STM32G0xx_HAL_Driver/Inc/stm32g0xx_ll_bus.h **** #endif /* TIM3 */
 102:Drivers/STM32G0xx_HAL_Driver/Inc/stm32g0xx_ll_bus.h **** #if defined(TIM6)
 103:Drivers/STM32G0xx_HAL_Driver/Inc/stm32g0xx_ll_bus.h **** #define LL_APB1_GRP1_PERIPH_TIM6           RCC_APBENR1_TIM6EN
 104:Drivers/STM32G0xx_HAL_Driver/Inc/stm32g0xx_ll_bus.h **** #endif /* TIM6 */
 105:Drivers/STM32G0xx_HAL_Driver/Inc/stm32g0xx_ll_bus.h **** #if defined(TIM7)
 106:Drivers/STM32G0xx_HAL_Driver/Inc/stm32g0xx_ll_bus.h **** #define LL_APB1_GRP1_PERIPH_TIM7           RCC_APBENR1_TIM7EN
 107:Drivers/STM32G0xx_HAL_Driver/Inc/stm32g0xx_ll_bus.h **** #endif /* TIM7 */
 108:Drivers/STM32G0xx_HAL_Driver/Inc/stm32g0xx_ll_bus.h **** #define LL_APB1_GRP1_PERIPH_RTC            RCC_APBENR1_RTCAPBEN
 109:Drivers/STM32G0xx_HAL_Driver/Inc/stm32g0xx_ll_bus.h **** #define LL_APB1_GRP1_PERIPH_WWDG           RCC_APBENR1_WWDGEN
 110:Drivers/STM32G0xx_HAL_Driver/Inc/stm32g0xx_ll_bus.h **** #define LL_APB1_GRP1_PERIPH_SPI2           RCC_APBENR1_SPI2EN
 111:Drivers/STM32G0xx_HAL_Driver/Inc/stm32g0xx_ll_bus.h **** #define LL_APB1_GRP1_PERIPH_USART2         RCC_APBENR1_USART2EN
 112:Drivers/STM32G0xx_HAL_Driver/Inc/stm32g0xx_ll_bus.h **** #if defined(USART3)
 113:Drivers/STM32G0xx_HAL_Driver/Inc/stm32g0xx_ll_bus.h **** #define LL_APB1_GRP1_PERIPH_USART3         RCC_APBENR1_USART3EN
 114:Drivers/STM32G0xx_HAL_Driver/Inc/stm32g0xx_ll_bus.h **** #endif
 115:Drivers/STM32G0xx_HAL_Driver/Inc/stm32g0xx_ll_bus.h **** #if defined(USART4)
 116:Drivers/STM32G0xx_HAL_Driver/Inc/stm32g0xx_ll_bus.h **** #define LL_APB1_GRP1_PERIPH_USART4         RCC_APBENR1_USART4EN
 117:Drivers/STM32G0xx_HAL_Driver/Inc/stm32g0xx_ll_bus.h **** #endif /* USART4 */
 118:Drivers/STM32G0xx_HAL_Driver/Inc/stm32g0xx_ll_bus.h **** #if defined(LPUART1)
 119:Drivers/STM32G0xx_HAL_Driver/Inc/stm32g0xx_ll_bus.h **** #define LL_APB1_GRP1_PERIPH_LPUART1        RCC_APBENR1_LPUART1EN
 120:Drivers/STM32G0xx_HAL_Driver/Inc/stm32g0xx_ll_bus.h **** #endif
 121:Drivers/STM32G0xx_HAL_Driver/Inc/stm32g0xx_ll_bus.h **** #define LL_APB1_GRP1_PERIPH_I2C1           RCC_APBENR1_I2C1EN
 122:Drivers/STM32G0xx_HAL_Driver/Inc/stm32g0xx_ll_bus.h **** #define LL_APB1_GRP1_PERIPH_I2C2           RCC_APBENR1_I2C2EN
 123:Drivers/STM32G0xx_HAL_Driver/Inc/stm32g0xx_ll_bus.h **** #if defined(CEC)
 124:Drivers/STM32G0xx_HAL_Driver/Inc/stm32g0xx_ll_bus.h **** #define LL_APB1_GRP1_PERIPH_CEC            RCC_APBENR1_CECEN
 125:Drivers/STM32G0xx_HAL_Driver/Inc/stm32g0xx_ll_bus.h **** #endif /* CEC */
 126:Drivers/STM32G0xx_HAL_Driver/Inc/stm32g0xx_ll_bus.h **** #if defined(UCPD1)
 127:Drivers/STM32G0xx_HAL_Driver/Inc/stm32g0xx_ll_bus.h **** #define LL_APB1_GRP1_PERIPH_UCPD1          RCC_APBENR1_UCPD1EN
 128:Drivers/STM32G0xx_HAL_Driver/Inc/stm32g0xx_ll_bus.h **** #endif
 129:Drivers/STM32G0xx_HAL_Driver/Inc/stm32g0xx_ll_bus.h **** #if defined(UCPD2)
 130:Drivers/STM32G0xx_HAL_Driver/Inc/stm32g0xx_ll_bus.h **** #define LL_APB1_GRP1_PERIPH_UCPD2          RCC_APBENR1_UCPD2EN
 131:Drivers/STM32G0xx_HAL_Driver/Inc/stm32g0xx_ll_bus.h **** #endif
 132:Drivers/STM32G0xx_HAL_Driver/Inc/stm32g0xx_ll_bus.h **** #define LL_APB1_GRP1_PERIPH_DBGMCU         RCC_APBENR1_DBGEN
 133:Drivers/STM32G0xx_HAL_Driver/Inc/stm32g0xx_ll_bus.h **** #define LL_APB1_GRP1_PERIPH_PWR            RCC_APBENR1_PWREN
 134:Drivers/STM32G0xx_HAL_Driver/Inc/stm32g0xx_ll_bus.h **** #if defined(DAC1)
 135:Drivers/STM32G0xx_HAL_Driver/Inc/stm32g0xx_ll_bus.h **** #define LL_APB1_GRP1_PERIPH_DAC1           RCC_APBENR1_DAC1EN
 136:Drivers/STM32G0xx_HAL_Driver/Inc/stm32g0xx_ll_bus.h **** #endif
 137:Drivers/STM32G0xx_HAL_Driver/Inc/stm32g0xx_ll_bus.h **** #if defined(LPTIM2)
 138:Drivers/STM32G0xx_HAL_Driver/Inc/stm32g0xx_ll_bus.h **** #define LL_APB1_GRP1_PERIPH_LPTIM2         RCC_APBENR1_LPTIM2EN
 139:Drivers/STM32G0xx_HAL_Driver/Inc/stm32g0xx_ll_bus.h **** #endif
 140:Drivers/STM32G0xx_HAL_Driver/Inc/stm32g0xx_ll_bus.h **** #if defined(LPTIM1)
 141:Drivers/STM32G0xx_HAL_Driver/Inc/stm32g0xx_ll_bus.h **** #define LL_APB1_GRP1_PERIPH_LPTIM1         RCC_APBENR1_LPTIM1EN
 142:Drivers/STM32G0xx_HAL_Driver/Inc/stm32g0xx_ll_bus.h **** #endif
 143:Drivers/STM32G0xx_HAL_Driver/Inc/stm32g0xx_ll_bus.h **** /**
 144:Drivers/STM32G0xx_HAL_Driver/Inc/stm32g0xx_ll_bus.h ****   * @}
 145:Drivers/STM32G0xx_HAL_Driver/Inc/stm32g0xx_ll_bus.h ****   */
 146:Drivers/STM32G0xx_HAL_Driver/Inc/stm32g0xx_ll_bus.h **** 
 147:Drivers/STM32G0xx_HAL_Driver/Inc/stm32g0xx_ll_bus.h **** /** @defgroup BUS_LL_EC_APB2_GRP1_PERIPH  APB2 GRP1 PERIPH
ARM GAS  /tmp/ccdnVxo0.s 			page 4


 148:Drivers/STM32G0xx_HAL_Driver/Inc/stm32g0xx_ll_bus.h ****   * @{
 149:Drivers/STM32G0xx_HAL_Driver/Inc/stm32g0xx_ll_bus.h ****   */
 150:Drivers/STM32G0xx_HAL_Driver/Inc/stm32g0xx_ll_bus.h **** #define LL_APB2_GRP1_PERIPH_ALL            0xFFFFFFFFU
 151:Drivers/STM32G0xx_HAL_Driver/Inc/stm32g0xx_ll_bus.h **** #define LL_APB2_GRP1_PERIPH_SYSCFG         RCC_APBENR2_SYSCFGEN
 152:Drivers/STM32G0xx_HAL_Driver/Inc/stm32g0xx_ll_bus.h **** #define LL_APB2_GRP1_PERIPH_TIM1           RCC_APBENR2_TIM1EN
 153:Drivers/STM32G0xx_HAL_Driver/Inc/stm32g0xx_ll_bus.h **** #define LL_APB2_GRP1_PERIPH_SPI1           RCC_APBENR2_SPI1EN
 154:Drivers/STM32G0xx_HAL_Driver/Inc/stm32g0xx_ll_bus.h **** #define LL_APB2_GRP1_PERIPH_USART1         RCC_APBENR2_USART1EN
 155:Drivers/STM32G0xx_HAL_Driver/Inc/stm32g0xx_ll_bus.h **** #if defined(TIM14)
 156:Drivers/STM32G0xx_HAL_Driver/Inc/stm32g0xx_ll_bus.h **** #define LL_APB2_GRP1_PERIPH_TIM14          RCC_APBENR2_TIM14EN
 157:Drivers/STM32G0xx_HAL_Driver/Inc/stm32g0xx_ll_bus.h **** #endif /* TIM14 */
 158:Drivers/STM32G0xx_HAL_Driver/Inc/stm32g0xx_ll_bus.h **** #if defined(TIM15)
 159:Drivers/STM32G0xx_HAL_Driver/Inc/stm32g0xx_ll_bus.h **** #define LL_APB2_GRP1_PERIPH_TIM15          RCC_APBENR2_TIM15EN
 160:Drivers/STM32G0xx_HAL_Driver/Inc/stm32g0xx_ll_bus.h **** #endif
 161:Drivers/STM32G0xx_HAL_Driver/Inc/stm32g0xx_ll_bus.h **** #if defined(TIM16)
 162:Drivers/STM32G0xx_HAL_Driver/Inc/stm32g0xx_ll_bus.h **** #define LL_APB2_GRP1_PERIPH_TIM16          RCC_APBENR2_TIM16EN
 163:Drivers/STM32G0xx_HAL_Driver/Inc/stm32g0xx_ll_bus.h **** #endif
 164:Drivers/STM32G0xx_HAL_Driver/Inc/stm32g0xx_ll_bus.h **** #if defined(TIM17)
 165:Drivers/STM32G0xx_HAL_Driver/Inc/stm32g0xx_ll_bus.h **** #define LL_APB2_GRP1_PERIPH_TIM17          RCC_APBENR2_TIM17EN
 166:Drivers/STM32G0xx_HAL_Driver/Inc/stm32g0xx_ll_bus.h **** #endif /* TIM17 */
 167:Drivers/STM32G0xx_HAL_Driver/Inc/stm32g0xx_ll_bus.h **** #if defined(ADC)
 168:Drivers/STM32G0xx_HAL_Driver/Inc/stm32g0xx_ll_bus.h **** #define LL_APB2_GRP1_PERIPH_ADC            RCC_APBENR2_ADCEN
 169:Drivers/STM32G0xx_HAL_Driver/Inc/stm32g0xx_ll_bus.h **** #endif
 170:Drivers/STM32G0xx_HAL_Driver/Inc/stm32g0xx_ll_bus.h **** /**
 171:Drivers/STM32G0xx_HAL_Driver/Inc/stm32g0xx_ll_bus.h ****   * @}
 172:Drivers/STM32G0xx_HAL_Driver/Inc/stm32g0xx_ll_bus.h ****   */
 173:Drivers/STM32G0xx_HAL_Driver/Inc/stm32g0xx_ll_bus.h **** 
 174:Drivers/STM32G0xx_HAL_Driver/Inc/stm32g0xx_ll_bus.h **** /** @defgroup BUS_LL_EC_IOP_GRP1_PERIPH  IOP GRP1 PERIPH
 175:Drivers/STM32G0xx_HAL_Driver/Inc/stm32g0xx_ll_bus.h ****   * @{
 176:Drivers/STM32G0xx_HAL_Driver/Inc/stm32g0xx_ll_bus.h ****   */
 177:Drivers/STM32G0xx_HAL_Driver/Inc/stm32g0xx_ll_bus.h **** #define LL_IOP_GRP1_PERIPH_ALL             0xFFFFFFFFU
 178:Drivers/STM32G0xx_HAL_Driver/Inc/stm32g0xx_ll_bus.h **** #define LL_IOP_GRP1_PERIPH_GPIOA           RCC_IOPENR_GPIOAEN
 179:Drivers/STM32G0xx_HAL_Driver/Inc/stm32g0xx_ll_bus.h **** #define LL_IOP_GRP1_PERIPH_GPIOB           RCC_IOPENR_GPIOBEN
 180:Drivers/STM32G0xx_HAL_Driver/Inc/stm32g0xx_ll_bus.h **** #define LL_IOP_GRP1_PERIPH_GPIOC           RCC_IOPENR_GPIOCEN
 181:Drivers/STM32G0xx_HAL_Driver/Inc/stm32g0xx_ll_bus.h **** #define LL_IOP_GRP1_PERIPH_GPIOD           RCC_IOPENR_GPIODEN
 182:Drivers/STM32G0xx_HAL_Driver/Inc/stm32g0xx_ll_bus.h **** #if defined(GPIOE)
 183:Drivers/STM32G0xx_HAL_Driver/Inc/stm32g0xx_ll_bus.h **** #define LL_IOP_GRP1_PERIPH_GPIOE           RCC_IOPENR_GPIOEEN
 184:Drivers/STM32G0xx_HAL_Driver/Inc/stm32g0xx_ll_bus.h **** #endif /* GPIOE */
 185:Drivers/STM32G0xx_HAL_Driver/Inc/stm32g0xx_ll_bus.h **** #if defined(GPIOF)
 186:Drivers/STM32G0xx_HAL_Driver/Inc/stm32g0xx_ll_bus.h **** #define LL_IOP_GRP1_PERIPH_GPIOF           RCC_IOPENR_GPIOFEN
 187:Drivers/STM32G0xx_HAL_Driver/Inc/stm32g0xx_ll_bus.h **** #endif /* GPIOF */
 188:Drivers/STM32G0xx_HAL_Driver/Inc/stm32g0xx_ll_bus.h **** /**
 189:Drivers/STM32G0xx_HAL_Driver/Inc/stm32g0xx_ll_bus.h ****   * @}
 190:Drivers/STM32G0xx_HAL_Driver/Inc/stm32g0xx_ll_bus.h ****   */
 191:Drivers/STM32G0xx_HAL_Driver/Inc/stm32g0xx_ll_bus.h **** 
 192:Drivers/STM32G0xx_HAL_Driver/Inc/stm32g0xx_ll_bus.h **** /**
 193:Drivers/STM32G0xx_HAL_Driver/Inc/stm32g0xx_ll_bus.h ****   * @}
 194:Drivers/STM32G0xx_HAL_Driver/Inc/stm32g0xx_ll_bus.h ****   */
 195:Drivers/STM32G0xx_HAL_Driver/Inc/stm32g0xx_ll_bus.h **** 
 196:Drivers/STM32G0xx_HAL_Driver/Inc/stm32g0xx_ll_bus.h **** /* Exported macro ------------------------------------------------------------*/
 197:Drivers/STM32G0xx_HAL_Driver/Inc/stm32g0xx_ll_bus.h **** /* Exported functions --------------------------------------------------------*/
 198:Drivers/STM32G0xx_HAL_Driver/Inc/stm32g0xx_ll_bus.h **** /** @defgroup BUS_LL_Exported_Functions BUS Exported Functions
 199:Drivers/STM32G0xx_HAL_Driver/Inc/stm32g0xx_ll_bus.h ****   * @{
 200:Drivers/STM32G0xx_HAL_Driver/Inc/stm32g0xx_ll_bus.h ****   */
 201:Drivers/STM32G0xx_HAL_Driver/Inc/stm32g0xx_ll_bus.h **** 
 202:Drivers/STM32G0xx_HAL_Driver/Inc/stm32g0xx_ll_bus.h **** /** @defgroup BUS_LL_EF_AHB1 AHB1
 203:Drivers/STM32G0xx_HAL_Driver/Inc/stm32g0xx_ll_bus.h ****   * @{
 204:Drivers/STM32G0xx_HAL_Driver/Inc/stm32g0xx_ll_bus.h ****   */
ARM GAS  /tmp/ccdnVxo0.s 			page 5


 205:Drivers/STM32G0xx_HAL_Driver/Inc/stm32g0xx_ll_bus.h **** 
 206:Drivers/STM32G0xx_HAL_Driver/Inc/stm32g0xx_ll_bus.h **** /**
 207:Drivers/STM32G0xx_HAL_Driver/Inc/stm32g0xx_ll_bus.h ****   * @brief  Enable AHB1 peripherals clock.
 208:Drivers/STM32G0xx_HAL_Driver/Inc/stm32g0xx_ll_bus.h ****   * @rmtoll AHBENR       DMA1EN        LL_AHB1_GRP1_EnableClock\n
 209:Drivers/STM32G0xx_HAL_Driver/Inc/stm32g0xx_ll_bus.h ****   *         AHBENR       FLASHEN       LL_AHB1_GRP1_EnableClock\n
 210:Drivers/STM32G0xx_HAL_Driver/Inc/stm32g0xx_ll_bus.h ****   *         AHBENR       CRCEN         LL_AHB1_GRP1_EnableClock\n
 211:Drivers/STM32G0xx_HAL_Driver/Inc/stm32g0xx_ll_bus.h ****   *         AHBENR       AESEN         LL_AHB1_GRP1_EnableClock\n
 212:Drivers/STM32G0xx_HAL_Driver/Inc/stm32g0xx_ll_bus.h ****   *         AHBENR       RNGEN         LL_AHB1_GRP1_EnableClock
 213:Drivers/STM32G0xx_HAL_Driver/Inc/stm32g0xx_ll_bus.h ****   * @param  Periphs This parameter can be a combination of the following values:
 214:Drivers/STM32G0xx_HAL_Driver/Inc/stm32g0xx_ll_bus.h ****   *         @arg @ref LL_AHB1_GRP1_PERIPH_DMA1
 215:Drivers/STM32G0xx_HAL_Driver/Inc/stm32g0xx_ll_bus.h ****   *         @arg @ref LL_AHB1_GRP1_PERIPH_FLASH
 216:Drivers/STM32G0xx_HAL_Driver/Inc/stm32g0xx_ll_bus.h ****   *         @arg @ref LL_AHB1_GRP1_PERIPH_CRC
 217:Drivers/STM32G0xx_HAL_Driver/Inc/stm32g0xx_ll_bus.h ****   *         @arg @ref LL_AHB1_GRP1_PERIPH_CRYP (*)
 218:Drivers/STM32G0xx_HAL_Driver/Inc/stm32g0xx_ll_bus.h ****   *         @arg @ref LL_AHB1_GRP1_PERIPH_RNG  (*)
 219:Drivers/STM32G0xx_HAL_Driver/Inc/stm32g0xx_ll_bus.h ****   * @note   (*) RNG & CRYP Peripherals available only on STM32G081xx
 220:Drivers/STM32G0xx_HAL_Driver/Inc/stm32g0xx_ll_bus.h ****   * @retval None
 221:Drivers/STM32G0xx_HAL_Driver/Inc/stm32g0xx_ll_bus.h **** */
 222:Drivers/STM32G0xx_HAL_Driver/Inc/stm32g0xx_ll_bus.h **** __STATIC_INLINE void LL_AHB1_GRP1_EnableClock(uint32_t Periphs)
 223:Drivers/STM32G0xx_HAL_Driver/Inc/stm32g0xx_ll_bus.h **** {
 224:Drivers/STM32G0xx_HAL_Driver/Inc/stm32g0xx_ll_bus.h ****   __IO uint32_t tmpreg;
 225:Drivers/STM32G0xx_HAL_Driver/Inc/stm32g0xx_ll_bus.h ****   SET_BIT(RCC->AHBENR, Periphs);
 226:Drivers/STM32G0xx_HAL_Driver/Inc/stm32g0xx_ll_bus.h ****   /* Delay after an RCC peripheral clock enabling */
 227:Drivers/STM32G0xx_HAL_Driver/Inc/stm32g0xx_ll_bus.h ****   tmpreg = READ_BIT(RCC->AHBENR, Periphs);
 228:Drivers/STM32G0xx_HAL_Driver/Inc/stm32g0xx_ll_bus.h ****   (void)tmpreg;
 229:Drivers/STM32G0xx_HAL_Driver/Inc/stm32g0xx_ll_bus.h **** }
 230:Drivers/STM32G0xx_HAL_Driver/Inc/stm32g0xx_ll_bus.h **** 
 231:Drivers/STM32G0xx_HAL_Driver/Inc/stm32g0xx_ll_bus.h **** /**
 232:Drivers/STM32G0xx_HAL_Driver/Inc/stm32g0xx_ll_bus.h ****   * @brief  Check if AHB1 peripheral clock is enabled or not
 233:Drivers/STM32G0xx_HAL_Driver/Inc/stm32g0xx_ll_bus.h ****   * @rmtoll AHBENR       DMA1EN        LL_AHB1_GRP1_IsEnabledClock\n
 234:Drivers/STM32G0xx_HAL_Driver/Inc/stm32g0xx_ll_bus.h ****   *         AHBENR       FLASHEN       LL_AHB1_GRP1_IsEnabledClock\n
 235:Drivers/STM32G0xx_HAL_Driver/Inc/stm32g0xx_ll_bus.h ****   *         AHBENR       CRCEN         LL_AHB1_GRP1_IsEnabledClock\n
 236:Drivers/STM32G0xx_HAL_Driver/Inc/stm32g0xx_ll_bus.h ****   *         AHBENR       AESEN         LL_AHB1_GRP1_IsEnabledClock\n
 237:Drivers/STM32G0xx_HAL_Driver/Inc/stm32g0xx_ll_bus.h ****   *         AHBENR       RNGEN         LL_AHB1_GRP1_IsEnabledClock
 238:Drivers/STM32G0xx_HAL_Driver/Inc/stm32g0xx_ll_bus.h ****   * @param  Periphs This parameter can be a combination of the following values:
 239:Drivers/STM32G0xx_HAL_Driver/Inc/stm32g0xx_ll_bus.h ****   *         @arg @ref LL_AHB1_GRP1_PERIPH_DMA1
 240:Drivers/STM32G0xx_HAL_Driver/Inc/stm32g0xx_ll_bus.h ****   *         @arg @ref LL_AHB1_GRP1_PERIPH_FLASH
 241:Drivers/STM32G0xx_HAL_Driver/Inc/stm32g0xx_ll_bus.h ****   *         @arg @ref LL_AHB1_GRP1_PERIPH_CRC
 242:Drivers/STM32G0xx_HAL_Driver/Inc/stm32g0xx_ll_bus.h ****   *         @arg @ref LL_AHB1_GRP1_PERIPH_CRYP (*)
 243:Drivers/STM32G0xx_HAL_Driver/Inc/stm32g0xx_ll_bus.h ****   *         @arg @ref LL_AHB1_GRP1_PERIPH_RNG  (*)
 244:Drivers/STM32G0xx_HAL_Driver/Inc/stm32g0xx_ll_bus.h ****   * @note   (*) RNG & CRYP Peripherals available only on STM32G081xx
 245:Drivers/STM32G0xx_HAL_Driver/Inc/stm32g0xx_ll_bus.h ****   * @retval State of Periphs (1 or 0).
 246:Drivers/STM32G0xx_HAL_Driver/Inc/stm32g0xx_ll_bus.h **** */
 247:Drivers/STM32G0xx_HAL_Driver/Inc/stm32g0xx_ll_bus.h **** __STATIC_INLINE uint32_t LL_AHB1_GRP1_IsEnabledClock(uint32_t Periphs)
 248:Drivers/STM32G0xx_HAL_Driver/Inc/stm32g0xx_ll_bus.h **** {
 249:Drivers/STM32G0xx_HAL_Driver/Inc/stm32g0xx_ll_bus.h ****   return ((READ_BIT(RCC->AHBENR, Periphs) == Periphs) ? 1UL : 0UL);
 250:Drivers/STM32G0xx_HAL_Driver/Inc/stm32g0xx_ll_bus.h **** }
 251:Drivers/STM32G0xx_HAL_Driver/Inc/stm32g0xx_ll_bus.h **** 
 252:Drivers/STM32G0xx_HAL_Driver/Inc/stm32g0xx_ll_bus.h **** /**
 253:Drivers/STM32G0xx_HAL_Driver/Inc/stm32g0xx_ll_bus.h ****   * @brief  Disable AHB1 peripherals clock.
 254:Drivers/STM32G0xx_HAL_Driver/Inc/stm32g0xx_ll_bus.h ****   * @rmtoll AHBENR       DMA1EN        LL_AHB1_GRP1_DisableClock\n
 255:Drivers/STM32G0xx_HAL_Driver/Inc/stm32g0xx_ll_bus.h ****   *         AHBENR       FLASHEN       LL_AHB1_GRP1_DisableClock\n
 256:Drivers/STM32G0xx_HAL_Driver/Inc/stm32g0xx_ll_bus.h ****   *         AHBENR       CRCEN         LL_AHB1_GRP1_DisableClock\n
 257:Drivers/STM32G0xx_HAL_Driver/Inc/stm32g0xx_ll_bus.h ****   *         AHBENR       AESEN         LL_AHB1_GRP1_DisableClock\n
 258:Drivers/STM32G0xx_HAL_Driver/Inc/stm32g0xx_ll_bus.h ****   *         AHBENR       RNGEN         LL_AHB1_GRP1_DisableClock
 259:Drivers/STM32G0xx_HAL_Driver/Inc/stm32g0xx_ll_bus.h ****   * @param  Periphs This parameter can be a combination of the following values:
 260:Drivers/STM32G0xx_HAL_Driver/Inc/stm32g0xx_ll_bus.h ****   *         @arg @ref LL_AHB1_GRP1_PERIPH_DMA1
 261:Drivers/STM32G0xx_HAL_Driver/Inc/stm32g0xx_ll_bus.h ****   *         @arg @ref LL_AHB1_GRP1_PERIPH_FLASH
ARM GAS  /tmp/ccdnVxo0.s 			page 6


 262:Drivers/STM32G0xx_HAL_Driver/Inc/stm32g0xx_ll_bus.h ****   *         @arg @ref LL_AHB1_GRP1_PERIPH_CRC
 263:Drivers/STM32G0xx_HAL_Driver/Inc/stm32g0xx_ll_bus.h ****   *         @arg @ref LL_AHB1_GRP1_PERIPH_CRYP (*)
 264:Drivers/STM32G0xx_HAL_Driver/Inc/stm32g0xx_ll_bus.h ****   *         @arg @ref LL_AHB1_GRP1_PERIPH_RNG  (*)
 265:Drivers/STM32G0xx_HAL_Driver/Inc/stm32g0xx_ll_bus.h ****   * @note   (*) RNG & CRYP Peripherals available only on STM32G081xx
 266:Drivers/STM32G0xx_HAL_Driver/Inc/stm32g0xx_ll_bus.h ****   * @retval None
 267:Drivers/STM32G0xx_HAL_Driver/Inc/stm32g0xx_ll_bus.h **** */
 268:Drivers/STM32G0xx_HAL_Driver/Inc/stm32g0xx_ll_bus.h **** __STATIC_INLINE void LL_AHB1_GRP1_DisableClock(uint32_t Periphs)
 269:Drivers/STM32G0xx_HAL_Driver/Inc/stm32g0xx_ll_bus.h **** {
 270:Drivers/STM32G0xx_HAL_Driver/Inc/stm32g0xx_ll_bus.h ****   CLEAR_BIT(RCC->AHBENR, Periphs);
 271:Drivers/STM32G0xx_HAL_Driver/Inc/stm32g0xx_ll_bus.h **** }
 272:Drivers/STM32G0xx_HAL_Driver/Inc/stm32g0xx_ll_bus.h **** 
 273:Drivers/STM32G0xx_HAL_Driver/Inc/stm32g0xx_ll_bus.h **** /**
 274:Drivers/STM32G0xx_HAL_Driver/Inc/stm32g0xx_ll_bus.h ****   * @brief  Force AHB1 peripherals reset.
 275:Drivers/STM32G0xx_HAL_Driver/Inc/stm32g0xx_ll_bus.h ****   * @rmtoll AHBRSTR      DMA1RST       LL_AHB1_GRP1_ForceReset\n
 276:Drivers/STM32G0xx_HAL_Driver/Inc/stm32g0xx_ll_bus.h ****   *         AHBRSTR      FLASHRST      LL_AHB1_GRP1_ForceReset\n
 277:Drivers/STM32G0xx_HAL_Driver/Inc/stm32g0xx_ll_bus.h ****   *         AHBRSTR      CRCRST        LL_AHB1_GRP1_ForceReset\n
 278:Drivers/STM32G0xx_HAL_Driver/Inc/stm32g0xx_ll_bus.h ****   *         AHBRSTR      AESRST        LL_AHB1_GRP1_ForceReset\n
 279:Drivers/STM32G0xx_HAL_Driver/Inc/stm32g0xx_ll_bus.h ****   *         AHBRSTR      RNGRST        LL_AHB1_GRP1_ForceReset
 280:Drivers/STM32G0xx_HAL_Driver/Inc/stm32g0xx_ll_bus.h **** * @param  Periphs This parameter can be a combination of the following values:
 281:Drivers/STM32G0xx_HAL_Driver/Inc/stm32g0xx_ll_bus.h ****   *         @arg @ref LL_AHB1_GRP1_PERIPH_ALL
 282:Drivers/STM32G0xx_HAL_Driver/Inc/stm32g0xx_ll_bus.h ****   *         @arg @ref LL_AHB1_GRP1_PERIPH_DMA1
 283:Drivers/STM32G0xx_HAL_Driver/Inc/stm32g0xx_ll_bus.h ****   *         @arg @ref LL_AHB1_GRP1_PERIPH_FLASH
 284:Drivers/STM32G0xx_HAL_Driver/Inc/stm32g0xx_ll_bus.h ****   *         @arg @ref LL_AHB1_GRP1_PERIPH_CRC
 285:Drivers/STM32G0xx_HAL_Driver/Inc/stm32g0xx_ll_bus.h ****   *         @arg @ref LL_AHB1_GRP1_PERIPH_CRYP (*)
 286:Drivers/STM32G0xx_HAL_Driver/Inc/stm32g0xx_ll_bus.h ****   *         @arg @ref LL_AHB1_GRP1_PERIPH_RNG  (*)
 287:Drivers/STM32G0xx_HAL_Driver/Inc/stm32g0xx_ll_bus.h ****   * @note   (*) RNG & CRYP Peripherals available only on STM32G081xx
 288:Drivers/STM32G0xx_HAL_Driver/Inc/stm32g0xx_ll_bus.h ****   * @retval None
 289:Drivers/STM32G0xx_HAL_Driver/Inc/stm32g0xx_ll_bus.h **** */
 290:Drivers/STM32G0xx_HAL_Driver/Inc/stm32g0xx_ll_bus.h **** __STATIC_INLINE void LL_AHB1_GRP1_ForceReset(uint32_t Periphs)
 291:Drivers/STM32G0xx_HAL_Driver/Inc/stm32g0xx_ll_bus.h **** {
 292:Drivers/STM32G0xx_HAL_Driver/Inc/stm32g0xx_ll_bus.h ****   SET_BIT(RCC->AHBRSTR, Periphs);
 293:Drivers/STM32G0xx_HAL_Driver/Inc/stm32g0xx_ll_bus.h **** }
 294:Drivers/STM32G0xx_HAL_Driver/Inc/stm32g0xx_ll_bus.h **** 
 295:Drivers/STM32G0xx_HAL_Driver/Inc/stm32g0xx_ll_bus.h **** /**
 296:Drivers/STM32G0xx_HAL_Driver/Inc/stm32g0xx_ll_bus.h ****   * @brief  Release AHB1 peripherals reset.
 297:Drivers/STM32G0xx_HAL_Driver/Inc/stm32g0xx_ll_bus.h ****   * @rmtoll AHBRSTR      DMA1RST       LL_AHB1_GRP1_ReleaseReset\n
 298:Drivers/STM32G0xx_HAL_Driver/Inc/stm32g0xx_ll_bus.h ****   *         AHBRSTR      FLASHRST      LL_AHB1_GRP1_ReleaseReset\n
 299:Drivers/STM32G0xx_HAL_Driver/Inc/stm32g0xx_ll_bus.h ****   *         AHBRSTR      CRCRST        LL_AHB1_GRP1_ReleaseReset\n
 300:Drivers/STM32G0xx_HAL_Driver/Inc/stm32g0xx_ll_bus.h ****   *         AHBRSTR      AESRST        LL_AHB1_GRP1_ReleaseReset\n
 301:Drivers/STM32G0xx_HAL_Driver/Inc/stm32g0xx_ll_bus.h ****   *         AHBRSTR      RNGRST        LL_AHB1_GRP1_ReleaseReset
 302:Drivers/STM32G0xx_HAL_Driver/Inc/stm32g0xx_ll_bus.h ****   * @param  Periphs This parameter can be a combination of the following values:
 303:Drivers/STM32G0xx_HAL_Driver/Inc/stm32g0xx_ll_bus.h ****   *         @arg @ref LL_AHB1_GRP1_PERIPH_ALL
 304:Drivers/STM32G0xx_HAL_Driver/Inc/stm32g0xx_ll_bus.h ****   *         @arg @ref LL_AHB1_GRP1_PERIPH_DMA1
 305:Drivers/STM32G0xx_HAL_Driver/Inc/stm32g0xx_ll_bus.h ****   *         @arg @ref LL_AHB1_GRP1_PERIPH_FLASH
 306:Drivers/STM32G0xx_HAL_Driver/Inc/stm32g0xx_ll_bus.h ****   *         @arg @ref LL_AHB1_GRP1_PERIPH_CRC
 307:Drivers/STM32G0xx_HAL_Driver/Inc/stm32g0xx_ll_bus.h ****   *         @arg @ref LL_AHB1_GRP1_PERIPH_CRYP (*)
 308:Drivers/STM32G0xx_HAL_Driver/Inc/stm32g0xx_ll_bus.h ****   *         @arg @ref LL_AHB1_GRP1_PERIPH_RNG  (*)
 309:Drivers/STM32G0xx_HAL_Driver/Inc/stm32g0xx_ll_bus.h ****   * @note   (*) RNG & CRYP Peripherals available only on STM32G081xx
 310:Drivers/STM32G0xx_HAL_Driver/Inc/stm32g0xx_ll_bus.h ****   * @retval None
 311:Drivers/STM32G0xx_HAL_Driver/Inc/stm32g0xx_ll_bus.h **** */
 312:Drivers/STM32G0xx_HAL_Driver/Inc/stm32g0xx_ll_bus.h **** __STATIC_INLINE void LL_AHB1_GRP1_ReleaseReset(uint32_t Periphs)
 313:Drivers/STM32G0xx_HAL_Driver/Inc/stm32g0xx_ll_bus.h **** {
 314:Drivers/STM32G0xx_HAL_Driver/Inc/stm32g0xx_ll_bus.h ****   CLEAR_BIT(RCC->AHBRSTR, Periphs);
 315:Drivers/STM32G0xx_HAL_Driver/Inc/stm32g0xx_ll_bus.h **** }
 316:Drivers/STM32G0xx_HAL_Driver/Inc/stm32g0xx_ll_bus.h **** 
 317:Drivers/STM32G0xx_HAL_Driver/Inc/stm32g0xx_ll_bus.h **** /**
 318:Drivers/STM32G0xx_HAL_Driver/Inc/stm32g0xx_ll_bus.h ****   * @brief  Enable AHB1 peripheral clocks in Sleep and Stop modes
ARM GAS  /tmp/ccdnVxo0.s 			page 7


 319:Drivers/STM32G0xx_HAL_Driver/Inc/stm32g0xx_ll_bus.h ****   * @rmtoll AHBSMENR     DMA1SMEN      LL_AHB1_GRP1_EnableClockStopSleep\n
 320:Drivers/STM32G0xx_HAL_Driver/Inc/stm32g0xx_ll_bus.h ****   *         AHBSMENR     FLASHSMEN     LL_AHB1_GRP1_EnableClockStopSleep\n
 321:Drivers/STM32G0xx_HAL_Driver/Inc/stm32g0xx_ll_bus.h ****   *         AHBSMENR     SRAMSMEN      LL_AHB1_GRP1_EnableClockStopSleep\n
 322:Drivers/STM32G0xx_HAL_Driver/Inc/stm32g0xx_ll_bus.h ****   *         AHBSMENR     CRCSMEN       LL_AHB1_GRP1_EnableClockStopSleep\n
 323:Drivers/STM32G0xx_HAL_Driver/Inc/stm32g0xx_ll_bus.h ****   *         AHBSMENR     AESSMEN       LL_AHB1_GRP1_EnableClockStopSleep\n
 324:Drivers/STM32G0xx_HAL_Driver/Inc/stm32g0xx_ll_bus.h ****   *         AHBSMENR     RNGSMEN       LL_AHB1_GRP1_EnableClockStopSleep
 325:Drivers/STM32G0xx_HAL_Driver/Inc/stm32g0xx_ll_bus.h ****   * @param  Periphs This parameter can be a combination of the following values:
 326:Drivers/STM32G0xx_HAL_Driver/Inc/stm32g0xx_ll_bus.h ****   *         @arg @ref LL_AHB1_GRP1_PERIPH_DMA1
 327:Drivers/STM32G0xx_HAL_Driver/Inc/stm32g0xx_ll_bus.h ****   *         @arg @ref LL_AHB1_GRP1_PERIPH_FLASH
 328:Drivers/STM32G0xx_HAL_Driver/Inc/stm32g0xx_ll_bus.h ****   *         @arg @ref LL_AHB1_GRP1_PERIPH_SRAM
 329:Drivers/STM32G0xx_HAL_Driver/Inc/stm32g0xx_ll_bus.h ****   *         @arg @ref LL_AHB1_GRP1_PERIPH_CRC
 330:Drivers/STM32G0xx_HAL_Driver/Inc/stm32g0xx_ll_bus.h ****   *         @arg @ref LL_AHB1_GRP1_PERIPH_CRYP (*)
 331:Drivers/STM32G0xx_HAL_Driver/Inc/stm32g0xx_ll_bus.h ****   *         @arg @ref LL_AHB1_GRP1_PERIPH_RNG  (*)
 332:Drivers/STM32G0xx_HAL_Driver/Inc/stm32g0xx_ll_bus.h ****   * @note   (*) RNG & CRYP Peripherals available only on STM32G081xx
 333:Drivers/STM32G0xx_HAL_Driver/Inc/stm32g0xx_ll_bus.h ****   * @retval None
 334:Drivers/STM32G0xx_HAL_Driver/Inc/stm32g0xx_ll_bus.h **** */
 335:Drivers/STM32G0xx_HAL_Driver/Inc/stm32g0xx_ll_bus.h **** __STATIC_INLINE void LL_AHB1_GRP1_EnableClockStopSleep(uint32_t Periphs)
 336:Drivers/STM32G0xx_HAL_Driver/Inc/stm32g0xx_ll_bus.h **** {
 337:Drivers/STM32G0xx_HAL_Driver/Inc/stm32g0xx_ll_bus.h ****   __IO uint32_t tmpreg;
 338:Drivers/STM32G0xx_HAL_Driver/Inc/stm32g0xx_ll_bus.h ****   SET_BIT(RCC->AHBSMENR, Periphs);
 339:Drivers/STM32G0xx_HAL_Driver/Inc/stm32g0xx_ll_bus.h ****   /* Delay after an RCC peripheral clock enabling */
 340:Drivers/STM32G0xx_HAL_Driver/Inc/stm32g0xx_ll_bus.h ****   tmpreg = READ_BIT(RCC->AHBSMENR, Periphs);
 341:Drivers/STM32G0xx_HAL_Driver/Inc/stm32g0xx_ll_bus.h ****   (void)tmpreg;
 342:Drivers/STM32G0xx_HAL_Driver/Inc/stm32g0xx_ll_bus.h **** }
 343:Drivers/STM32G0xx_HAL_Driver/Inc/stm32g0xx_ll_bus.h **** 
 344:Drivers/STM32G0xx_HAL_Driver/Inc/stm32g0xx_ll_bus.h **** /**
 345:Drivers/STM32G0xx_HAL_Driver/Inc/stm32g0xx_ll_bus.h ****   * @brief  Disable AHB1 peripheral clocks in Sleep and Stop modes
 346:Drivers/STM32G0xx_HAL_Driver/Inc/stm32g0xx_ll_bus.h ****   * @rmtoll AHBSMENR     DMA1SMEN      LL_AHB1_GRP1_DisableClockStopSleep\n
 347:Drivers/STM32G0xx_HAL_Driver/Inc/stm32g0xx_ll_bus.h ****   *         AHBSMENR     FLASHSMEN     LL_AHB1_GRP1_DisableClockStopSleep\n
 348:Drivers/STM32G0xx_HAL_Driver/Inc/stm32g0xx_ll_bus.h ****   *         AHBSMENR     SRAMSMEN      LL_AHB1_GRP1_DisableClockStopSleep\n
 349:Drivers/STM32G0xx_HAL_Driver/Inc/stm32g0xx_ll_bus.h ****   *         AHBSMENR     CRCSMEN       LL_AHB1_GRP1_DisableClockStopSleep\n
 350:Drivers/STM32G0xx_HAL_Driver/Inc/stm32g0xx_ll_bus.h ****   *         AHBSMENR     AESSMEN       LL_AHB1_GRP1_DisableClockStopSleep\n
 351:Drivers/STM32G0xx_HAL_Driver/Inc/stm32g0xx_ll_bus.h ****   *         AHBSMENR     RNGSMEN       LL_AHB1_GRP1_DisableClockStopSleep
 352:Drivers/STM32G0xx_HAL_Driver/Inc/stm32g0xx_ll_bus.h ****   * @param  Periphs This parameter can be a combination of the following values:
 353:Drivers/STM32G0xx_HAL_Driver/Inc/stm32g0xx_ll_bus.h ****   *         @arg @ref LL_AHB1_GRP1_PERIPH_DMA1
 354:Drivers/STM32G0xx_HAL_Driver/Inc/stm32g0xx_ll_bus.h ****   *         @arg @ref LL_AHB1_GRP1_PERIPH_FLASH
 355:Drivers/STM32G0xx_HAL_Driver/Inc/stm32g0xx_ll_bus.h ****   *         @arg @ref LL_AHB1_GRP1_PERIPH_SRAM
 356:Drivers/STM32G0xx_HAL_Driver/Inc/stm32g0xx_ll_bus.h ****   *         @arg @ref LL_AHB1_GRP1_PERIPH_CRC
 357:Drivers/STM32G0xx_HAL_Driver/Inc/stm32g0xx_ll_bus.h ****   *         @arg @ref LL_AHB1_GRP1_PERIPH_CRYP (*)
 358:Drivers/STM32G0xx_HAL_Driver/Inc/stm32g0xx_ll_bus.h ****   *         @arg @ref LL_AHB1_GRP1_PERIPH_RNG  (*)
 359:Drivers/STM32G0xx_HAL_Driver/Inc/stm32g0xx_ll_bus.h ****   * @note   (*) RNG & CRYP Peripherals available only on STM32G081xx
 360:Drivers/STM32G0xx_HAL_Driver/Inc/stm32g0xx_ll_bus.h ****   * @retval None
 361:Drivers/STM32G0xx_HAL_Driver/Inc/stm32g0xx_ll_bus.h **** */
 362:Drivers/STM32G0xx_HAL_Driver/Inc/stm32g0xx_ll_bus.h **** __STATIC_INLINE void LL_AHB1_GRP1_DisableClockStopSleep(uint32_t Periphs)
 363:Drivers/STM32G0xx_HAL_Driver/Inc/stm32g0xx_ll_bus.h **** {
 364:Drivers/STM32G0xx_HAL_Driver/Inc/stm32g0xx_ll_bus.h ****   CLEAR_BIT(RCC->AHBSMENR, Periphs);
 365:Drivers/STM32G0xx_HAL_Driver/Inc/stm32g0xx_ll_bus.h **** }
 366:Drivers/STM32G0xx_HAL_Driver/Inc/stm32g0xx_ll_bus.h **** 
 367:Drivers/STM32G0xx_HAL_Driver/Inc/stm32g0xx_ll_bus.h **** /**
 368:Drivers/STM32G0xx_HAL_Driver/Inc/stm32g0xx_ll_bus.h ****   * @}
 369:Drivers/STM32G0xx_HAL_Driver/Inc/stm32g0xx_ll_bus.h ****   */
 370:Drivers/STM32G0xx_HAL_Driver/Inc/stm32g0xx_ll_bus.h **** 
 371:Drivers/STM32G0xx_HAL_Driver/Inc/stm32g0xx_ll_bus.h **** /** @defgroup BUS_LL_EF_APB1 APB1
 372:Drivers/STM32G0xx_HAL_Driver/Inc/stm32g0xx_ll_bus.h ****   * @{
 373:Drivers/STM32G0xx_HAL_Driver/Inc/stm32g0xx_ll_bus.h ****   */
 374:Drivers/STM32G0xx_HAL_Driver/Inc/stm32g0xx_ll_bus.h **** 
 375:Drivers/STM32G0xx_HAL_Driver/Inc/stm32g0xx_ll_bus.h **** /**
ARM GAS  /tmp/ccdnVxo0.s 			page 8


 376:Drivers/STM32G0xx_HAL_Driver/Inc/stm32g0xx_ll_bus.h ****   * @brief  Enable APB1 peripherals clock.
 377:Drivers/STM32G0xx_HAL_Driver/Inc/stm32g0xx_ll_bus.h ****   * @rmtoll APBENR1      TIM2EN        LL_APB1_GRP1_EnableClock\n
 378:Drivers/STM32G0xx_HAL_Driver/Inc/stm32g0xx_ll_bus.h ****   *         APBENR1      TIM3EN        LL_APB1_GRP1_EnableClock\n
 379:Drivers/STM32G0xx_HAL_Driver/Inc/stm32g0xx_ll_bus.h ****   *         APBENR1      TIM6EN        LL_APB1_GRP1_EnableClock\n
 380:Drivers/STM32G0xx_HAL_Driver/Inc/stm32g0xx_ll_bus.h ****   *         APBENR1      TIM7EN        LL_APB1_GRP1_EnableClock\n
 381:Drivers/STM32G0xx_HAL_Driver/Inc/stm32g0xx_ll_bus.h ****   *         APBENR1      RTCAPBEN      LL_APB1_GRP1_EnableClock\n
 382:Drivers/STM32G0xx_HAL_Driver/Inc/stm32g0xx_ll_bus.h ****   *         APBENR1      WWDGEN        LL_APB1_GRP1_EnableClock\n
 383:Drivers/STM32G0xx_HAL_Driver/Inc/stm32g0xx_ll_bus.h ****   *         APBENR1      SPI2EN        LL_APB1_GRP1_EnableClock\n
 384:Drivers/STM32G0xx_HAL_Driver/Inc/stm32g0xx_ll_bus.h ****   *         APBENR1      USART2EN      LL_APB1_GRP1_EnableClock\n
 385:Drivers/STM32G0xx_HAL_Driver/Inc/stm32g0xx_ll_bus.h ****   *         APBENR1      USART3EN      LL_APB1_GRP1_EnableClock\n
 386:Drivers/STM32G0xx_HAL_Driver/Inc/stm32g0xx_ll_bus.h ****   *         APBENR1      USART4EN      LL_APB1_GRP1_EnableClock\n
 387:Drivers/STM32G0xx_HAL_Driver/Inc/stm32g0xx_ll_bus.h ****   *         APBENR1      LPUART1EN     LL_APB1_GRP1_EnableClock\n
 388:Drivers/STM32G0xx_HAL_Driver/Inc/stm32g0xx_ll_bus.h ****   *         APBENR1      I2C1EN        LL_APB1_GRP1_EnableClock\n
 389:Drivers/STM32G0xx_HAL_Driver/Inc/stm32g0xx_ll_bus.h ****   *         APBENR1      I2C2EN        LL_APB1_GRP1_EnableClock\n
 390:Drivers/STM32G0xx_HAL_Driver/Inc/stm32g0xx_ll_bus.h ****   *         APBENR1      CECEN         LL_APB1_GRP1_EnableClock\n
 391:Drivers/STM32G0xx_HAL_Driver/Inc/stm32g0xx_ll_bus.h ****   *         APBENR1      UCPD1EN       LL_APB1_GRP1_EnableClock\n
 392:Drivers/STM32G0xx_HAL_Driver/Inc/stm32g0xx_ll_bus.h ****   *         APBENR1      UCPD2EN       LL_APB1_GRP1_EnableClock\n
 393:Drivers/STM32G0xx_HAL_Driver/Inc/stm32g0xx_ll_bus.h ****   *         APBENR1      DBGEN         LL_APB1_GRP1_EnableClock\n
 394:Drivers/STM32G0xx_HAL_Driver/Inc/stm32g0xx_ll_bus.h ****   *         APBENR1      PWREN         LL_APB1_GRP1_EnableClock\n
 395:Drivers/STM32G0xx_HAL_Driver/Inc/stm32g0xx_ll_bus.h ****   *         APBENR1      DAC1EN        LL_APB1_GRP1_EnableClock\n
 396:Drivers/STM32G0xx_HAL_Driver/Inc/stm32g0xx_ll_bus.h ****   *         APBENR1      LPTIM2EN      LL_APB1_GRP1_EnableClock\n
 397:Drivers/STM32G0xx_HAL_Driver/Inc/stm32g0xx_ll_bus.h ****   *         APBENR1      LPTIM1EN      LL_APB1_GRP1_EnableClock
 398:Drivers/STM32G0xx_HAL_Driver/Inc/stm32g0xx_ll_bus.h ****   * @param  Periphs This parameter can be a combination of the following values:
 399:Drivers/STM32G0xx_HAL_Driver/Inc/stm32g0xx_ll_bus.h ****   *         @arg @ref LL_APB1_GRP1_PERIPH_TIM2    (1)
 400:Drivers/STM32G0xx_HAL_Driver/Inc/stm32g0xx_ll_bus.h ****   *         @arg @ref LL_APB1_GRP1_PERIPH_TIM3
 401:Drivers/STM32G0xx_HAL_Driver/Inc/stm32g0xx_ll_bus.h ****   *         @arg @ref LL_APB1_GRP1_PERIPH_TIM6    (1)
 402:Drivers/STM32G0xx_HAL_Driver/Inc/stm32g0xx_ll_bus.h ****   *         @arg @ref LL_APB1_GRP1_PERIPH_TIM7    (1)
 403:Drivers/STM32G0xx_HAL_Driver/Inc/stm32g0xx_ll_bus.h ****   *         @arg @ref LL_APB1_GRP1_PERIPH_RTC
 404:Drivers/STM32G0xx_HAL_Driver/Inc/stm32g0xx_ll_bus.h ****   *         @arg @ref LL_APB1_GRP1_PERIPH_WWDG
 405:Drivers/STM32G0xx_HAL_Driver/Inc/stm32g0xx_ll_bus.h ****   *         @arg @ref LL_APB1_GRP1_PERIPH_SPI2
 406:Drivers/STM32G0xx_HAL_Driver/Inc/stm32g0xx_ll_bus.h ****   *         @arg @ref LL_APB1_GRP1_PERIPH_USART2
 407:Drivers/STM32G0xx_HAL_Driver/Inc/stm32g0xx_ll_bus.h ****   *         @arg @ref LL_APB1_GRP1_PERIPH_USART3  (1)
 408:Drivers/STM32G0xx_HAL_Driver/Inc/stm32g0xx_ll_bus.h ****   *         @arg @ref LL_APB1_GRP1_PERIPH_USART4  (1)
 409:Drivers/STM32G0xx_HAL_Driver/Inc/stm32g0xx_ll_bus.h ****   *         @arg @ref LL_APB1_GRP1_PERIPH_LPUART1 (1)
 410:Drivers/STM32G0xx_HAL_Driver/Inc/stm32g0xx_ll_bus.h ****   *         @arg @ref LL_APB1_GRP1_PERIPH_I2C1
 411:Drivers/STM32G0xx_HAL_Driver/Inc/stm32g0xx_ll_bus.h ****   *         @arg @ref LL_APB1_GRP1_PERIPH_I2C2
 412:Drivers/STM32G0xx_HAL_Driver/Inc/stm32g0xx_ll_bus.h ****   *         @arg @ref LL_APB1_GRP1_PERIPH_CEC     (1)
 413:Drivers/STM32G0xx_HAL_Driver/Inc/stm32g0xx_ll_bus.h ****   *         @arg @ref LL_APB1_GRP1_PERIPH_UCPD1   (1)
 414:Drivers/STM32G0xx_HAL_Driver/Inc/stm32g0xx_ll_bus.h ****   *         @arg @ref LL_APB1_GRP1_PERIPH_UCPD2   (1)
 415:Drivers/STM32G0xx_HAL_Driver/Inc/stm32g0xx_ll_bus.h ****   *         @arg @ref LL_APB1_GRP1_PERIPH_DBGMCU
 416:Drivers/STM32G0xx_HAL_Driver/Inc/stm32g0xx_ll_bus.h ****   *         @arg @ref LL_APB1_GRP1_PERIPH_PWR
 417:Drivers/STM32G0xx_HAL_Driver/Inc/stm32g0xx_ll_bus.h ****   *         @arg @ref LL_APB1_GRP1_PERIPH_DAC1    (1)
 418:Drivers/STM32G0xx_HAL_Driver/Inc/stm32g0xx_ll_bus.h ****   *         @arg @ref LL_APB1_GRP1_PERIPH_LPTIM2  (1)
 419:Drivers/STM32G0xx_HAL_Driver/Inc/stm32g0xx_ll_bus.h ****   *         @arg @ref LL_APB1_GRP1_PERIPH_LPTIM1  (1)
 420:Drivers/STM32G0xx_HAL_Driver/Inc/stm32g0xx_ll_bus.h ****   * @note Peripheral marked with (1) are not available all devices
 421:Drivers/STM32G0xx_HAL_Driver/Inc/stm32g0xx_ll_bus.h ****   * @retval None
 422:Drivers/STM32G0xx_HAL_Driver/Inc/stm32g0xx_ll_bus.h **** */
 423:Drivers/STM32G0xx_HAL_Driver/Inc/stm32g0xx_ll_bus.h **** __STATIC_INLINE void LL_APB1_GRP1_EnableClock(uint32_t Periphs)
 424:Drivers/STM32G0xx_HAL_Driver/Inc/stm32g0xx_ll_bus.h **** {
 425:Drivers/STM32G0xx_HAL_Driver/Inc/stm32g0xx_ll_bus.h ****   __IO uint32_t tmpreg;
 426:Drivers/STM32G0xx_HAL_Driver/Inc/stm32g0xx_ll_bus.h ****   SET_BIT(RCC->APBENR1, Periphs);
 427:Drivers/STM32G0xx_HAL_Driver/Inc/stm32g0xx_ll_bus.h ****   /* Delay after an RCC peripheral clock enabling */
 428:Drivers/STM32G0xx_HAL_Driver/Inc/stm32g0xx_ll_bus.h ****   tmpreg = READ_BIT(RCC->APBENR1, Periphs);
 429:Drivers/STM32G0xx_HAL_Driver/Inc/stm32g0xx_ll_bus.h ****   (void)tmpreg;
 430:Drivers/STM32G0xx_HAL_Driver/Inc/stm32g0xx_ll_bus.h **** }
 431:Drivers/STM32G0xx_HAL_Driver/Inc/stm32g0xx_ll_bus.h **** 
 432:Drivers/STM32G0xx_HAL_Driver/Inc/stm32g0xx_ll_bus.h **** /**
ARM GAS  /tmp/ccdnVxo0.s 			page 9


 433:Drivers/STM32G0xx_HAL_Driver/Inc/stm32g0xx_ll_bus.h ****   * @brief  Check if APB1 peripheral clock is enabled or not
 434:Drivers/STM32G0xx_HAL_Driver/Inc/stm32g0xx_ll_bus.h ****   * @rmtoll APBENR1      TIM2EN        LL_APB1_GRP1_IsEnabledClock\n
 435:Drivers/STM32G0xx_HAL_Driver/Inc/stm32g0xx_ll_bus.h ****   *         APBENR1      TIM3EN        LL_APB1_GRP1_IsEnabledClock\n
 436:Drivers/STM32G0xx_HAL_Driver/Inc/stm32g0xx_ll_bus.h ****   *         APBENR1      TIM6EN        LL_APB1_GRP1_IsEnabledClock\n
 437:Drivers/STM32G0xx_HAL_Driver/Inc/stm32g0xx_ll_bus.h ****   *         APBENR1      TIM7EN        LL_APB1_GRP1_IsEnabledClock\n
 438:Drivers/STM32G0xx_HAL_Driver/Inc/stm32g0xx_ll_bus.h ****   *         APBENR1      RTCAPBEN      LL_APB1_GRP1_IsEnabledClock\n
 439:Drivers/STM32G0xx_HAL_Driver/Inc/stm32g0xx_ll_bus.h ****   *         APBENR1      WWDGEN        LL_APB1_GRP1_IsEnabledClock\n
 440:Drivers/STM32G0xx_HAL_Driver/Inc/stm32g0xx_ll_bus.h ****   *         APBENR1      SPI2EN        LL_APB1_GRP1_IsEnabledClock\n
 441:Drivers/STM32G0xx_HAL_Driver/Inc/stm32g0xx_ll_bus.h ****   *         APBENR1      USART2EN      LL_APB1_GRP1_IsEnabledClock\n
 442:Drivers/STM32G0xx_HAL_Driver/Inc/stm32g0xx_ll_bus.h ****   *         APBENR1      USART3EN      LL_APB1_GRP1_IsEnabledClock\n
 443:Drivers/STM32G0xx_HAL_Driver/Inc/stm32g0xx_ll_bus.h ****   *         APBENR1      USART4EN      LL_APB1_GRP1_IsEnabledClock\n
 444:Drivers/STM32G0xx_HAL_Driver/Inc/stm32g0xx_ll_bus.h ****   *         APBENR1      LPUART1EN     LL_APB1_GRP1_IsEnabledClock\n
 445:Drivers/STM32G0xx_HAL_Driver/Inc/stm32g0xx_ll_bus.h ****   *         APBENR1      I2C1EN        LL_APB1_GRP1_IsEnabledClock\n
 446:Drivers/STM32G0xx_HAL_Driver/Inc/stm32g0xx_ll_bus.h ****   *         APBENR1      I2C2EN        LL_APB1_GRP1_IsEnabledClock\n
 447:Drivers/STM32G0xx_HAL_Driver/Inc/stm32g0xx_ll_bus.h ****   *         APBENR1      CECEN         LL_APB1_GRP1_IsEnabledClock\n
 448:Drivers/STM32G0xx_HAL_Driver/Inc/stm32g0xx_ll_bus.h ****   *         APBENR1      UCPD1EN       LL_APB1_GRP1_IsEnabledClock\n
 449:Drivers/STM32G0xx_HAL_Driver/Inc/stm32g0xx_ll_bus.h ****   *         APBENR1      UCPD2EN       LL_APB1_GRP1_IsEnabledClock\n
 450:Drivers/STM32G0xx_HAL_Driver/Inc/stm32g0xx_ll_bus.h ****   *         APBENR1      DBGEN         LL_APB1_GRP1_IsEnabledClock\n
 451:Drivers/STM32G0xx_HAL_Driver/Inc/stm32g0xx_ll_bus.h ****   *         APBENR1      PWREN         LL_APB1_GRP1_IsEnabledClock\n
 452:Drivers/STM32G0xx_HAL_Driver/Inc/stm32g0xx_ll_bus.h ****   *         APBENR1      DAC1EN        LL_APB1_GRP1_IsEnabledClock\n
 453:Drivers/STM32G0xx_HAL_Driver/Inc/stm32g0xx_ll_bus.h ****   *         APBENR1      LPTIM2EN      LL_APB1_GRP1_IsEnabledClock\n
 454:Drivers/STM32G0xx_HAL_Driver/Inc/stm32g0xx_ll_bus.h ****   *         APBENR1      LPTIM1EN      LL_APB1_GRP1_IsEnabledClock
 455:Drivers/STM32G0xx_HAL_Driver/Inc/stm32g0xx_ll_bus.h ****   * @param  Periphs This parameter can be a combination of the following values:
 456:Drivers/STM32G0xx_HAL_Driver/Inc/stm32g0xx_ll_bus.h ****   *         @arg @ref LL_APB1_GRP1_PERIPH_TIM2    (1)
 457:Drivers/STM32G0xx_HAL_Driver/Inc/stm32g0xx_ll_bus.h ****   *         @arg @ref LL_APB1_GRP1_PERIPH_TIM3
 458:Drivers/STM32G0xx_HAL_Driver/Inc/stm32g0xx_ll_bus.h ****   *         @arg @ref LL_APB1_GRP1_PERIPH_TIM6    (1)
 459:Drivers/STM32G0xx_HAL_Driver/Inc/stm32g0xx_ll_bus.h ****   *         @arg @ref LL_APB1_GRP1_PERIPH_TIM7    (1)
 460:Drivers/STM32G0xx_HAL_Driver/Inc/stm32g0xx_ll_bus.h ****   *         @arg @ref LL_APB1_GRP1_PERIPH_RTC
 461:Drivers/STM32G0xx_HAL_Driver/Inc/stm32g0xx_ll_bus.h ****   *         @arg @ref LL_APB1_GRP1_PERIPH_WWDG
 462:Drivers/STM32G0xx_HAL_Driver/Inc/stm32g0xx_ll_bus.h ****   *         @arg @ref LL_APB1_GRP1_PERIPH_SPI2
 463:Drivers/STM32G0xx_HAL_Driver/Inc/stm32g0xx_ll_bus.h ****   *         @arg @ref LL_APB1_GRP1_PERIPH_USART2
 464:Drivers/STM32G0xx_HAL_Driver/Inc/stm32g0xx_ll_bus.h ****   *         @arg @ref LL_APB1_GRP1_PERIPH_USART3  (1)
 465:Drivers/STM32G0xx_HAL_Driver/Inc/stm32g0xx_ll_bus.h ****   *         @arg @ref LL_APB1_GRP1_PERIPH_USART4  (1)
 466:Drivers/STM32G0xx_HAL_Driver/Inc/stm32g0xx_ll_bus.h ****   *         @arg @ref LL_APB1_GRP1_PERIPH_LPUART1 (1)
 467:Drivers/STM32G0xx_HAL_Driver/Inc/stm32g0xx_ll_bus.h ****   *         @arg @ref LL_APB1_GRP1_PERIPH_I2C1
 468:Drivers/STM32G0xx_HAL_Driver/Inc/stm32g0xx_ll_bus.h ****   *         @arg @ref LL_APB1_GRP1_PERIPH_I2C2
 469:Drivers/STM32G0xx_HAL_Driver/Inc/stm32g0xx_ll_bus.h ****   *         @arg @ref LL_APB1_GRP1_PERIPH_CEC     (1)
 470:Drivers/STM32G0xx_HAL_Driver/Inc/stm32g0xx_ll_bus.h ****   *         @arg @ref LL_APB1_GRP1_PERIPH_UCPD1   (1)
 471:Drivers/STM32G0xx_HAL_Driver/Inc/stm32g0xx_ll_bus.h ****   *         @arg @ref LL_APB1_GRP1_PERIPH_UCPD2   (1)
 472:Drivers/STM32G0xx_HAL_Driver/Inc/stm32g0xx_ll_bus.h ****   *         @arg @ref LL_APB1_GRP1_PERIPH_DBGMCU
 473:Drivers/STM32G0xx_HAL_Driver/Inc/stm32g0xx_ll_bus.h ****   *         @arg @ref LL_APB1_GRP1_PERIPH_PWR
 474:Drivers/STM32G0xx_HAL_Driver/Inc/stm32g0xx_ll_bus.h ****   *         @arg @ref LL_APB1_GRP1_PERIPH_DAC1    (1)
 475:Drivers/STM32G0xx_HAL_Driver/Inc/stm32g0xx_ll_bus.h ****   *         @arg @ref LL_APB1_GRP1_PERIPH_LPTIM2  (1)
 476:Drivers/STM32G0xx_HAL_Driver/Inc/stm32g0xx_ll_bus.h ****   *         @arg @ref LL_APB1_GRP1_PERIPH_LPTIM1  (1)
 477:Drivers/STM32G0xx_HAL_Driver/Inc/stm32g0xx_ll_bus.h ****   * @note Peripheral marked with (1) are not available all devices
 478:Drivers/STM32G0xx_HAL_Driver/Inc/stm32g0xx_ll_bus.h ****   * @retval State of Periphs (1 or 0).
 479:Drivers/STM32G0xx_HAL_Driver/Inc/stm32g0xx_ll_bus.h **** */
 480:Drivers/STM32G0xx_HAL_Driver/Inc/stm32g0xx_ll_bus.h **** __STATIC_INLINE uint32_t LL_APB1_GRP1_IsEnabledClock(uint32_t Periphs)
 481:Drivers/STM32G0xx_HAL_Driver/Inc/stm32g0xx_ll_bus.h **** {
 482:Drivers/STM32G0xx_HAL_Driver/Inc/stm32g0xx_ll_bus.h ****   return ((READ_BIT(RCC->APBENR1, Periphs) == (Periphs)) ? 1UL : 0UL);
 483:Drivers/STM32G0xx_HAL_Driver/Inc/stm32g0xx_ll_bus.h **** }
 484:Drivers/STM32G0xx_HAL_Driver/Inc/stm32g0xx_ll_bus.h **** 
 485:Drivers/STM32G0xx_HAL_Driver/Inc/stm32g0xx_ll_bus.h **** /**
 486:Drivers/STM32G0xx_HAL_Driver/Inc/stm32g0xx_ll_bus.h ****   * @brief  Disable APB1 peripherals clock.
 487:Drivers/STM32G0xx_HAL_Driver/Inc/stm32g0xx_ll_bus.h ****   * @rmtoll APBENR1      TIM2EN        LL_APB1_GRP1_DisableClock\n
 488:Drivers/STM32G0xx_HAL_Driver/Inc/stm32g0xx_ll_bus.h ****   *         APBENR1      TIM3EN        LL_APB1_GRP1_DisableClock\n
 489:Drivers/STM32G0xx_HAL_Driver/Inc/stm32g0xx_ll_bus.h ****   *         APBENR1      TIM6EN        LL_APB1_GRP1_DisableClock\n
ARM GAS  /tmp/ccdnVxo0.s 			page 10


 490:Drivers/STM32G0xx_HAL_Driver/Inc/stm32g0xx_ll_bus.h ****   *         APBENR1      TIM7EN        LL_APB1_GRP1_DisableClock\n
 491:Drivers/STM32G0xx_HAL_Driver/Inc/stm32g0xx_ll_bus.h ****   *         APBENR1      RTCAPBEN      LL_APB1_GRP1_DisableClock\n
 492:Drivers/STM32G0xx_HAL_Driver/Inc/stm32g0xx_ll_bus.h ****   *         APBENR1      WWDGEN        LL_APB1_GRP1_DisableClock\n
 493:Drivers/STM32G0xx_HAL_Driver/Inc/stm32g0xx_ll_bus.h ****   *         APBENR1      SPI2EN        LL_APB1_GRP1_DisableClock\n
 494:Drivers/STM32G0xx_HAL_Driver/Inc/stm32g0xx_ll_bus.h ****   *         APBENR1      USART2EN      LL_APB1_GRP1_DisableClock\n
 495:Drivers/STM32G0xx_HAL_Driver/Inc/stm32g0xx_ll_bus.h ****   *         APBENR1      USART3EN      LL_APB1_GRP1_DisableClock\n
 496:Drivers/STM32G0xx_HAL_Driver/Inc/stm32g0xx_ll_bus.h ****   *         APBENR1      USART4EN      LL_APB1_GRP1_DisableClock\n
 497:Drivers/STM32G0xx_HAL_Driver/Inc/stm32g0xx_ll_bus.h ****   *         APBENR1      LPUART1EN     LL_APB1_GRP1_DisableClock\n
 498:Drivers/STM32G0xx_HAL_Driver/Inc/stm32g0xx_ll_bus.h ****   *         APBENR1      I2C1EN        LL_APB1_GRP1_DisableClock\n
 499:Drivers/STM32G0xx_HAL_Driver/Inc/stm32g0xx_ll_bus.h ****   *         APBENR1      I2C2EN        LL_APB1_GRP1_DisableClock\n
 500:Drivers/STM32G0xx_HAL_Driver/Inc/stm32g0xx_ll_bus.h ****   *         APBENR1      CECEN         LL_APB1_GRP1_DisableClock\n
 501:Drivers/STM32G0xx_HAL_Driver/Inc/stm32g0xx_ll_bus.h ****   *         APBENR1      UCPD1EN       LL_APB1_GRP1_DisableClock\n
 502:Drivers/STM32G0xx_HAL_Driver/Inc/stm32g0xx_ll_bus.h ****   *         APBENR1      UCPD2EN       LL_APB1_GRP1_DisableClock\n
 503:Drivers/STM32G0xx_HAL_Driver/Inc/stm32g0xx_ll_bus.h ****   *         APBENR1      DBGEN         LL_APB1_GRP1_DisableClock\n
 504:Drivers/STM32G0xx_HAL_Driver/Inc/stm32g0xx_ll_bus.h ****   *         APBENR1      PWREN         LL_APB1_GRP1_DisableClock\n
 505:Drivers/STM32G0xx_HAL_Driver/Inc/stm32g0xx_ll_bus.h ****   *         APBENR1      DAC1EN        LL_APB1_GRP1_DisableClock\n
 506:Drivers/STM32G0xx_HAL_Driver/Inc/stm32g0xx_ll_bus.h ****   *         APBENR1      LPTIM2EN      LL_APB1_GRP1_DisableClock\n
 507:Drivers/STM32G0xx_HAL_Driver/Inc/stm32g0xx_ll_bus.h ****   *         APBENR1      LPTIM1EN      LL_APB1_GRP1_DisableClock
 508:Drivers/STM32G0xx_HAL_Driver/Inc/stm32g0xx_ll_bus.h ****   * @param  Periphs This parameter can be a combination of the following values:
 509:Drivers/STM32G0xx_HAL_Driver/Inc/stm32g0xx_ll_bus.h ****   *         @arg @ref LL_APB1_GRP1_PERIPH_TIM2    (1)
 510:Drivers/STM32G0xx_HAL_Driver/Inc/stm32g0xx_ll_bus.h ****   *         @arg @ref LL_APB1_GRP1_PERIPH_TIM3
 511:Drivers/STM32G0xx_HAL_Driver/Inc/stm32g0xx_ll_bus.h ****   *         @arg @ref LL_APB1_GRP1_PERIPH_TIM6    (1)
 512:Drivers/STM32G0xx_HAL_Driver/Inc/stm32g0xx_ll_bus.h ****   *         @arg @ref LL_APB1_GRP1_PERIPH_TIM7    (1)
 513:Drivers/STM32G0xx_HAL_Driver/Inc/stm32g0xx_ll_bus.h ****   *         @arg @ref LL_APB1_GRP1_PERIPH_RTC
 514:Drivers/STM32G0xx_HAL_Driver/Inc/stm32g0xx_ll_bus.h ****   *         @arg @ref LL_APB1_GRP1_PERIPH_WWDG
 515:Drivers/STM32G0xx_HAL_Driver/Inc/stm32g0xx_ll_bus.h ****   *         @arg @ref LL_APB1_GRP1_PERIPH_SPI2
 516:Drivers/STM32G0xx_HAL_Driver/Inc/stm32g0xx_ll_bus.h ****   *         @arg @ref LL_APB1_GRP1_PERIPH_USART2
 517:Drivers/STM32G0xx_HAL_Driver/Inc/stm32g0xx_ll_bus.h ****   *         @arg @ref LL_APB1_GRP1_PERIPH_USART3  (1)
 518:Drivers/STM32G0xx_HAL_Driver/Inc/stm32g0xx_ll_bus.h ****   *         @arg @ref LL_APB1_GRP1_PERIPH_USART4  (1)
 519:Drivers/STM32G0xx_HAL_Driver/Inc/stm32g0xx_ll_bus.h ****   *         @arg @ref LL_APB1_GRP1_PERIPH_LPUART1 (1)
 520:Drivers/STM32G0xx_HAL_Driver/Inc/stm32g0xx_ll_bus.h ****   *         @arg @ref LL_APB1_GRP1_PERIPH_I2C1
 521:Drivers/STM32G0xx_HAL_Driver/Inc/stm32g0xx_ll_bus.h ****   *         @arg @ref LL_APB1_GRP1_PERIPH_I2C2
 522:Drivers/STM32G0xx_HAL_Driver/Inc/stm32g0xx_ll_bus.h ****   *         @arg @ref LL_APB1_GRP1_PERIPH_CEC     (1)
 523:Drivers/STM32G0xx_HAL_Driver/Inc/stm32g0xx_ll_bus.h ****   *         @arg @ref LL_APB1_GRP1_PERIPH_UCPD1   (1)
 524:Drivers/STM32G0xx_HAL_Driver/Inc/stm32g0xx_ll_bus.h ****   *         @arg @ref LL_APB1_GRP1_PERIPH_UCPD2   (1)
 525:Drivers/STM32G0xx_HAL_Driver/Inc/stm32g0xx_ll_bus.h ****   *         @arg @ref LL_APB1_GRP1_PERIPH_DBGMCU
 526:Drivers/STM32G0xx_HAL_Driver/Inc/stm32g0xx_ll_bus.h ****   *         @arg @ref LL_APB1_GRP1_PERIPH_PWR
 527:Drivers/STM32G0xx_HAL_Driver/Inc/stm32g0xx_ll_bus.h ****   *         @arg @ref LL_APB1_GRP1_PERIPH_DAC1    (1)
 528:Drivers/STM32G0xx_HAL_Driver/Inc/stm32g0xx_ll_bus.h ****   *         @arg @ref LL_APB1_GRP1_PERIPH_LPTIM2  (1)
 529:Drivers/STM32G0xx_HAL_Driver/Inc/stm32g0xx_ll_bus.h ****   *         @arg @ref LL_APB1_GRP1_PERIPH_LPTIM1  (1)
 530:Drivers/STM32G0xx_HAL_Driver/Inc/stm32g0xx_ll_bus.h ****   * @note Peripheral marked with (1) are not available all devices
 531:Drivers/STM32G0xx_HAL_Driver/Inc/stm32g0xx_ll_bus.h ****   * @retval None
 532:Drivers/STM32G0xx_HAL_Driver/Inc/stm32g0xx_ll_bus.h **** */
 533:Drivers/STM32G0xx_HAL_Driver/Inc/stm32g0xx_ll_bus.h **** __STATIC_INLINE void LL_APB1_GRP1_DisableClock(uint32_t Periphs)
 534:Drivers/STM32G0xx_HAL_Driver/Inc/stm32g0xx_ll_bus.h **** {
 535:Drivers/STM32G0xx_HAL_Driver/Inc/stm32g0xx_ll_bus.h ****   CLEAR_BIT(RCC->APBENR1, Periphs);
 536:Drivers/STM32G0xx_HAL_Driver/Inc/stm32g0xx_ll_bus.h **** }
 537:Drivers/STM32G0xx_HAL_Driver/Inc/stm32g0xx_ll_bus.h **** 
 538:Drivers/STM32G0xx_HAL_Driver/Inc/stm32g0xx_ll_bus.h **** /**
 539:Drivers/STM32G0xx_HAL_Driver/Inc/stm32g0xx_ll_bus.h ****   * @brief  Force APB1 peripherals reset.
 540:Drivers/STM32G0xx_HAL_Driver/Inc/stm32g0xx_ll_bus.h ****   * @rmtoll APBRSTR1     TIM2RST       LL_APB1_GRP1_ForceReset\n
 541:Drivers/STM32G0xx_HAL_Driver/Inc/stm32g0xx_ll_bus.h ****   *         APBRSTR1     TIM3RST       LL_APB1_GRP1_ForceReset\n
 542:Drivers/STM32G0xx_HAL_Driver/Inc/stm32g0xx_ll_bus.h ****   *         APBRSTR1     TIM6RST       LL_APB1_GRP1_ForceReset\n
 543:Drivers/STM32G0xx_HAL_Driver/Inc/stm32g0xx_ll_bus.h ****   *         APBRSTR1     TIM7RST       LL_APB1_GRP1_ForceReset\n
 544:Drivers/STM32G0xx_HAL_Driver/Inc/stm32g0xx_ll_bus.h ****   *         APBRSTR1     RTCRST        LL_APB1_GRP1_ForceReset\n
 545:Drivers/STM32G0xx_HAL_Driver/Inc/stm32g0xx_ll_bus.h ****   *         APBRSTR1     WWDGRST       LL_APB1_GRP1_ForceReset\n
 546:Drivers/STM32G0xx_HAL_Driver/Inc/stm32g0xx_ll_bus.h ****   *         APBRSTR1     SPI2RST       LL_APB1_GRP1_ForceReset\n
ARM GAS  /tmp/ccdnVxo0.s 			page 11


 547:Drivers/STM32G0xx_HAL_Driver/Inc/stm32g0xx_ll_bus.h ****   *         APBRSTR1     USART2RST     LL_APB1_GRP1_ForceReset\n
 548:Drivers/STM32G0xx_HAL_Driver/Inc/stm32g0xx_ll_bus.h ****   *         APBRSTR1     USART3RST     LL_APB1_GRP1_ForceReset\n
 549:Drivers/STM32G0xx_HAL_Driver/Inc/stm32g0xx_ll_bus.h ****   *         APBRSTR1     USART4RST     LL_APB1_GRP1_ForceReset\n
 550:Drivers/STM32G0xx_HAL_Driver/Inc/stm32g0xx_ll_bus.h ****   *         APBRSTR1     LPUART1RST    LL_APB1_GRP1_ForceReset\n
 551:Drivers/STM32G0xx_HAL_Driver/Inc/stm32g0xx_ll_bus.h ****   *         APBRSTR1     I2C1RST       LL_APB1_GRP1_ForceReset\n
 552:Drivers/STM32G0xx_HAL_Driver/Inc/stm32g0xx_ll_bus.h ****   *         APBRSTR1     I2C2RST       LL_APB1_GRP1_ForceReset\n
 553:Drivers/STM32G0xx_HAL_Driver/Inc/stm32g0xx_ll_bus.h ****   *         APBRSTR1     CECRST        LL_APB1_GRP1_ForceReset\n
 554:Drivers/STM32G0xx_HAL_Driver/Inc/stm32g0xx_ll_bus.h ****   *         APBRSTR1     UCPD1RST      LL_APB1_GRP1_ForceReset\n
 555:Drivers/STM32G0xx_HAL_Driver/Inc/stm32g0xx_ll_bus.h ****   *         APBRSTR1     UCPD2RST      LL_APB1_GRP1_ForceReset\n
 556:Drivers/STM32G0xx_HAL_Driver/Inc/stm32g0xx_ll_bus.h ****   *         APBRSTR1     DBGRST        LL_APB1_GRP1_ForceReset\n
 557:Drivers/STM32G0xx_HAL_Driver/Inc/stm32g0xx_ll_bus.h ****   *         APBRSTR1     PWRRST        LL_APB1_GRP1_ForceReset\n
 558:Drivers/STM32G0xx_HAL_Driver/Inc/stm32g0xx_ll_bus.h ****   *         APBRSTR1     DAC1RST       LL_APB1_GRP1_ForceReset\n
 559:Drivers/STM32G0xx_HAL_Driver/Inc/stm32g0xx_ll_bus.h ****   *         APBRSTR1     LPTIM2RST     LL_APB1_GRP1_ForceReset\n
 560:Drivers/STM32G0xx_HAL_Driver/Inc/stm32g0xx_ll_bus.h ****   *         APBRSTR1     LPTIM1RST     LL_APB1_GRP1_ForceReset
 561:Drivers/STM32G0xx_HAL_Driver/Inc/stm32g0xx_ll_bus.h ****   * @param  Periphs This parameter can be a combination of the following values:
 562:Drivers/STM32G0xx_HAL_Driver/Inc/stm32g0xx_ll_bus.h ****   *         @arg @ref LL_APB1_GRP1_PERIPH_ALL
 563:Drivers/STM32G0xx_HAL_Driver/Inc/stm32g0xx_ll_bus.h ****   *         @arg @ref LL_APB1_GRP1_PERIPH_TIM2    (1)
 564:Drivers/STM32G0xx_HAL_Driver/Inc/stm32g0xx_ll_bus.h ****   *         @arg @ref LL_APB1_GRP1_PERIPH_TIM3
 565:Drivers/STM32G0xx_HAL_Driver/Inc/stm32g0xx_ll_bus.h ****   *         @arg @ref LL_APB1_GRP1_PERIPH_TIM6    (1)
 566:Drivers/STM32G0xx_HAL_Driver/Inc/stm32g0xx_ll_bus.h ****   *         @arg @ref LL_APB1_GRP1_PERIPH_TIM7    (1)
 567:Drivers/STM32G0xx_HAL_Driver/Inc/stm32g0xx_ll_bus.h ****   *         @arg @ref LL_APB1_GRP1_PERIPH_RTC
 568:Drivers/STM32G0xx_HAL_Driver/Inc/stm32g0xx_ll_bus.h ****   *         @arg @ref LL_APB1_GRP1_PERIPH_WWDG
 569:Drivers/STM32G0xx_HAL_Driver/Inc/stm32g0xx_ll_bus.h ****   *         @arg @ref LL_APB1_GRP1_PERIPH_SPI2
 570:Drivers/STM32G0xx_HAL_Driver/Inc/stm32g0xx_ll_bus.h ****   *         @arg @ref LL_APB1_GRP1_PERIPH_USART2
 571:Drivers/STM32G0xx_HAL_Driver/Inc/stm32g0xx_ll_bus.h ****   *         @arg @ref LL_APB1_GRP1_PERIPH_USART3  (1)
 572:Drivers/STM32G0xx_HAL_Driver/Inc/stm32g0xx_ll_bus.h ****   *         @arg @ref LL_APB1_GRP1_PERIPH_USART4  (1)
 573:Drivers/STM32G0xx_HAL_Driver/Inc/stm32g0xx_ll_bus.h ****   *         @arg @ref LL_APB1_GRP1_PERIPH_LPUART1 (1)
 574:Drivers/STM32G0xx_HAL_Driver/Inc/stm32g0xx_ll_bus.h ****   *         @arg @ref LL_APB1_GRP1_PERIPH_I2C1
 575:Drivers/STM32G0xx_HAL_Driver/Inc/stm32g0xx_ll_bus.h ****   *         @arg @ref LL_APB1_GRP1_PERIPH_I2C2
 576:Drivers/STM32G0xx_HAL_Driver/Inc/stm32g0xx_ll_bus.h ****   *         @arg @ref LL_APB1_GRP1_PERIPH_CEC     (1)
 577:Drivers/STM32G0xx_HAL_Driver/Inc/stm32g0xx_ll_bus.h ****   *         @arg @ref LL_APB1_GRP1_PERIPH_UCPD1   (1)
 578:Drivers/STM32G0xx_HAL_Driver/Inc/stm32g0xx_ll_bus.h ****   *         @arg @ref LL_APB1_GRP1_PERIPH_UCPD2   (1)
 579:Drivers/STM32G0xx_HAL_Driver/Inc/stm32g0xx_ll_bus.h ****   *         @arg @ref LL_APB1_GRP1_PERIPH_DBGMCU
 580:Drivers/STM32G0xx_HAL_Driver/Inc/stm32g0xx_ll_bus.h ****   *         @arg @ref LL_APB1_GRP1_PERIPH_PWR
 581:Drivers/STM32G0xx_HAL_Driver/Inc/stm32g0xx_ll_bus.h ****   *         @arg @ref LL_APB1_GRP1_PERIPH_DAC1    (1)
 582:Drivers/STM32G0xx_HAL_Driver/Inc/stm32g0xx_ll_bus.h ****   *         @arg @ref LL_APB1_GRP1_PERIPH_LPTIM2  (1)
 583:Drivers/STM32G0xx_HAL_Driver/Inc/stm32g0xx_ll_bus.h ****   *         @arg @ref LL_APB1_GRP1_PERIPH_LPTIM1  (1)
 584:Drivers/STM32G0xx_HAL_Driver/Inc/stm32g0xx_ll_bus.h ****   * @note Peripheral marked with (1) are not available all devices
 585:Drivers/STM32G0xx_HAL_Driver/Inc/stm32g0xx_ll_bus.h ****   * @retval None
 586:Drivers/STM32G0xx_HAL_Driver/Inc/stm32g0xx_ll_bus.h **** */
 587:Drivers/STM32G0xx_HAL_Driver/Inc/stm32g0xx_ll_bus.h **** __STATIC_INLINE void LL_APB1_GRP1_ForceReset(uint32_t Periphs)
 588:Drivers/STM32G0xx_HAL_Driver/Inc/stm32g0xx_ll_bus.h **** {
 589:Drivers/STM32G0xx_HAL_Driver/Inc/stm32g0xx_ll_bus.h ****   SET_BIT(RCC->APBRSTR1, Periphs);
 590:Drivers/STM32G0xx_HAL_Driver/Inc/stm32g0xx_ll_bus.h **** }
 591:Drivers/STM32G0xx_HAL_Driver/Inc/stm32g0xx_ll_bus.h **** 
 592:Drivers/STM32G0xx_HAL_Driver/Inc/stm32g0xx_ll_bus.h **** /**
 593:Drivers/STM32G0xx_HAL_Driver/Inc/stm32g0xx_ll_bus.h ****   * @brief  Release APB1 peripherals reset.
 594:Drivers/STM32G0xx_HAL_Driver/Inc/stm32g0xx_ll_bus.h ****   * @rmtoll APBRSTR1     TIM2RST       LL_APB1_GRP1_ReleaseReset\n
 595:Drivers/STM32G0xx_HAL_Driver/Inc/stm32g0xx_ll_bus.h ****   *         APBRSTR1     TIM3RST       LL_APB1_GRP1_ReleaseReset\n
 596:Drivers/STM32G0xx_HAL_Driver/Inc/stm32g0xx_ll_bus.h ****   *         APBRSTR1     TIM6RST       LL_APB1_GRP1_ReleaseReset\n
 597:Drivers/STM32G0xx_HAL_Driver/Inc/stm32g0xx_ll_bus.h ****   *         APBRSTR1     TIM7RST       LL_APB1_GRP1_ReleaseReset\n
 598:Drivers/STM32G0xx_HAL_Driver/Inc/stm32g0xx_ll_bus.h ****   *         APBRSTR1     RTCRST        LL_APB1_GRP1_ReleaseReset\n
 599:Drivers/STM32G0xx_HAL_Driver/Inc/stm32g0xx_ll_bus.h ****   *         APBRSTR1     WWDGRST       LL_APB1_GRP1_ReleaseReset\n
 600:Drivers/STM32G0xx_HAL_Driver/Inc/stm32g0xx_ll_bus.h ****   *         APBRSTR1     SPI2RST       LL_APB1_GRP1_ReleaseReset\n
 601:Drivers/STM32G0xx_HAL_Driver/Inc/stm32g0xx_ll_bus.h ****   *         APBRSTR1     USART2RST     LL_APB1_GRP1_ReleaseReset\n
 602:Drivers/STM32G0xx_HAL_Driver/Inc/stm32g0xx_ll_bus.h ****   *         APBRSTR1     USART3RST     LL_APB1_GRP1_ReleaseReset\n
 603:Drivers/STM32G0xx_HAL_Driver/Inc/stm32g0xx_ll_bus.h ****   *         APBRSTR1     USART4RST     LL_APB1_GRP1_ReleaseReset\n
ARM GAS  /tmp/ccdnVxo0.s 			page 12


 604:Drivers/STM32G0xx_HAL_Driver/Inc/stm32g0xx_ll_bus.h ****   *         APBRSTR1     LPUART1RST    LL_APB1_GRP1_ReleaseReset\n
 605:Drivers/STM32G0xx_HAL_Driver/Inc/stm32g0xx_ll_bus.h ****   *         APBRSTR1     I2C1RST       LL_APB1_GRP1_ReleaseReset\n
 606:Drivers/STM32G0xx_HAL_Driver/Inc/stm32g0xx_ll_bus.h ****   *         APBRSTR1     I2C2RST       LL_APB1_GRP1_ReleaseReset\n
 607:Drivers/STM32G0xx_HAL_Driver/Inc/stm32g0xx_ll_bus.h ****   *         APBRSTR1     CECRST        LL_APB1_GRP1_ReleaseReset\n
 608:Drivers/STM32G0xx_HAL_Driver/Inc/stm32g0xx_ll_bus.h ****   *         APBRSTR1     UCPD1RST      LL_APB1_GRP1_ReleaseReset\n
 609:Drivers/STM32G0xx_HAL_Driver/Inc/stm32g0xx_ll_bus.h ****   *         APBRSTR1     UCPD2RST      LL_APB1_GRP1_ReleaseReset\n
 610:Drivers/STM32G0xx_HAL_Driver/Inc/stm32g0xx_ll_bus.h ****   *         APBRSTR1     DBGRST        LL_APB1_GRP1_ReleaseReset\n
 611:Drivers/STM32G0xx_HAL_Driver/Inc/stm32g0xx_ll_bus.h ****   *         APBRSTR1     PWRRST        LL_APB1_GRP1_ReleaseReset\n
 612:Drivers/STM32G0xx_HAL_Driver/Inc/stm32g0xx_ll_bus.h ****   *         APBRSTR1     DAC1RST       LL_APB1_GRP1_ReleaseReset\n
 613:Drivers/STM32G0xx_HAL_Driver/Inc/stm32g0xx_ll_bus.h ****   *         APBRSTR1     LPTIM2RST     LL_APB1_GRP1_ReleaseReset\n
 614:Drivers/STM32G0xx_HAL_Driver/Inc/stm32g0xx_ll_bus.h ****   *         APBRSTR1     LPTIM1RST     LL_APB1_GRP1_ReleaseReset
 615:Drivers/STM32G0xx_HAL_Driver/Inc/stm32g0xx_ll_bus.h ****   * @param  Periphs This parameter can be a combination of the following values:
 616:Drivers/STM32G0xx_HAL_Driver/Inc/stm32g0xx_ll_bus.h ****   *         @arg @ref LL_APB1_GRP1_PERIPH_ALL
 617:Drivers/STM32G0xx_HAL_Driver/Inc/stm32g0xx_ll_bus.h ****   *         @arg @ref LL_APB1_GRP1_PERIPH_TIM2    (1)
 618:Drivers/STM32G0xx_HAL_Driver/Inc/stm32g0xx_ll_bus.h ****   *         @arg @ref LL_APB1_GRP1_PERIPH_TIM3
 619:Drivers/STM32G0xx_HAL_Driver/Inc/stm32g0xx_ll_bus.h ****   *         @arg @ref LL_APB1_GRP1_PERIPH_TIM6    (1)
 620:Drivers/STM32G0xx_HAL_Driver/Inc/stm32g0xx_ll_bus.h ****   *         @arg @ref LL_APB1_GRP1_PERIPH_TIM7    (1)
 621:Drivers/STM32G0xx_HAL_Driver/Inc/stm32g0xx_ll_bus.h ****   *         @arg @ref LL_APB1_GRP1_PERIPH_RTC
 622:Drivers/STM32G0xx_HAL_Driver/Inc/stm32g0xx_ll_bus.h ****   *         @arg @ref LL_APB1_GRP1_PERIPH_WWDG
 623:Drivers/STM32G0xx_HAL_Driver/Inc/stm32g0xx_ll_bus.h ****   *         @arg @ref LL_APB1_GRP1_PERIPH_SPI2
 624:Drivers/STM32G0xx_HAL_Driver/Inc/stm32g0xx_ll_bus.h ****   *         @arg @ref LL_APB1_GRP1_PERIPH_USART2
 625:Drivers/STM32G0xx_HAL_Driver/Inc/stm32g0xx_ll_bus.h ****   *         @arg @ref LL_APB1_GRP1_PERIPH_USART3  (1)
 626:Drivers/STM32G0xx_HAL_Driver/Inc/stm32g0xx_ll_bus.h ****   *         @arg @ref LL_APB1_GRP1_PERIPH_USART4  (1)
 627:Drivers/STM32G0xx_HAL_Driver/Inc/stm32g0xx_ll_bus.h ****   *         @arg @ref LL_APB1_GRP1_PERIPH_LPUART1 (1)
 628:Drivers/STM32G0xx_HAL_Driver/Inc/stm32g0xx_ll_bus.h ****   *         @arg @ref LL_APB1_GRP1_PERIPH_I2C1
 629:Drivers/STM32G0xx_HAL_Driver/Inc/stm32g0xx_ll_bus.h ****   *         @arg @ref LL_APB1_GRP1_PERIPH_I2C2
 630:Drivers/STM32G0xx_HAL_Driver/Inc/stm32g0xx_ll_bus.h ****   *         @arg @ref LL_APB1_GRP1_PERIPH_CEC     (1)
 631:Drivers/STM32G0xx_HAL_Driver/Inc/stm32g0xx_ll_bus.h ****   *         @arg @ref LL_APB1_GRP1_PERIPH_UCPD1   (1)
 632:Drivers/STM32G0xx_HAL_Driver/Inc/stm32g0xx_ll_bus.h ****   *         @arg @ref LL_APB1_GRP1_PERIPH_UCPD2   (1)
 633:Drivers/STM32G0xx_HAL_Driver/Inc/stm32g0xx_ll_bus.h ****   *         @arg @ref LL_APB1_GRP1_PERIPH_DBGMCU
 634:Drivers/STM32G0xx_HAL_Driver/Inc/stm32g0xx_ll_bus.h ****   *         @arg @ref LL_APB1_GRP1_PERIPH_PWR
 635:Drivers/STM32G0xx_HAL_Driver/Inc/stm32g0xx_ll_bus.h ****   *         @arg @ref LL_APB1_GRP1_PERIPH_DAC1    (1)
 636:Drivers/STM32G0xx_HAL_Driver/Inc/stm32g0xx_ll_bus.h ****   *         @arg @ref LL_APB1_GRP1_PERIPH_LPTIM2  (1)
 637:Drivers/STM32G0xx_HAL_Driver/Inc/stm32g0xx_ll_bus.h ****   *         @arg @ref LL_APB1_GRP1_PERIPH_LPTIM1  (1)
 638:Drivers/STM32G0xx_HAL_Driver/Inc/stm32g0xx_ll_bus.h ****   * @note Peripheral marked with (1) are not available all devices
 639:Drivers/STM32G0xx_HAL_Driver/Inc/stm32g0xx_ll_bus.h ****   * @retval None
 640:Drivers/STM32G0xx_HAL_Driver/Inc/stm32g0xx_ll_bus.h **** */
 641:Drivers/STM32G0xx_HAL_Driver/Inc/stm32g0xx_ll_bus.h **** __STATIC_INLINE void LL_APB1_GRP1_ReleaseReset(uint32_t Periphs)
 642:Drivers/STM32G0xx_HAL_Driver/Inc/stm32g0xx_ll_bus.h **** {
 643:Drivers/STM32G0xx_HAL_Driver/Inc/stm32g0xx_ll_bus.h ****   CLEAR_BIT(RCC->APBRSTR1, Periphs);
 644:Drivers/STM32G0xx_HAL_Driver/Inc/stm32g0xx_ll_bus.h **** }
 645:Drivers/STM32G0xx_HAL_Driver/Inc/stm32g0xx_ll_bus.h **** 
 646:Drivers/STM32G0xx_HAL_Driver/Inc/stm32g0xx_ll_bus.h **** /**
 647:Drivers/STM32G0xx_HAL_Driver/Inc/stm32g0xx_ll_bus.h ****   * @brief  Enable APB1 peripheral clocks in Sleep and Stop modes
 648:Drivers/STM32G0xx_HAL_Driver/Inc/stm32g0xx_ll_bus.h ****   * @rmtoll APBSMENR1    TIM2SMEN      LL_APB1_GRP1_EnableClockStopSleep\n
 649:Drivers/STM32G0xx_HAL_Driver/Inc/stm32g0xx_ll_bus.h ****   *         APBSMENR1    TIM3SMEN      LL_APB1_GRP1_EnableClockStopSleep\n
 650:Drivers/STM32G0xx_HAL_Driver/Inc/stm32g0xx_ll_bus.h ****   *         APBSMENR1    TIM6SMEN      LL_APB1_GRP1_EnableClockStopSleep\n
 651:Drivers/STM32G0xx_HAL_Driver/Inc/stm32g0xx_ll_bus.h ****   *         APBSMENR1    TIM7SMEN      LL_APB1_GRP1_EnableClockStopSleep\n
 652:Drivers/STM32G0xx_HAL_Driver/Inc/stm32g0xx_ll_bus.h ****   *         APBSMENR1    RTCAPBSMEN    LL_APB1_GRP1_EnableClockStopSleep\n
 653:Drivers/STM32G0xx_HAL_Driver/Inc/stm32g0xx_ll_bus.h ****   *         APBSMENR1    WWDGSMEN      LL_APB1_GRP1_EnableClockStopSleep\n
 654:Drivers/STM32G0xx_HAL_Driver/Inc/stm32g0xx_ll_bus.h ****   *         APBSMENR1    SPI2SMEN      LL_APB1_GRP1_EnableClockStopSleep\n
 655:Drivers/STM32G0xx_HAL_Driver/Inc/stm32g0xx_ll_bus.h ****   *         APBSMENR1    USART2SMEN    LL_APB1_GRP1_EnableClockStopSleep\n
 656:Drivers/STM32G0xx_HAL_Driver/Inc/stm32g0xx_ll_bus.h ****   *         APBSMENR1    USART3SMEN    LL_APB1_GRP1_EnableClockStopSleep\n
 657:Drivers/STM32G0xx_HAL_Driver/Inc/stm32g0xx_ll_bus.h ****   *         APBSMENR1    USART4SMEN    LL_APB1_GRP1_EnableClockStopSleep\n
 658:Drivers/STM32G0xx_HAL_Driver/Inc/stm32g0xx_ll_bus.h ****   *         APBSMENR1    LPUART1SMEN   LL_APB1_GRP1_EnableClockStopSleep\n
 659:Drivers/STM32G0xx_HAL_Driver/Inc/stm32g0xx_ll_bus.h ****   *         APBSMENR1    I2C1SMEN      LL_APB1_GRP1_EnableClockStopSleep\n
 660:Drivers/STM32G0xx_HAL_Driver/Inc/stm32g0xx_ll_bus.h ****   *         APBSMENR1    I2C2SMEN      LL_APB1_GRP1_EnableClockStopSleep\n
ARM GAS  /tmp/ccdnVxo0.s 			page 13


 661:Drivers/STM32G0xx_HAL_Driver/Inc/stm32g0xx_ll_bus.h ****   *         APBSMENR1    CECSMEN       LL_APB1_GRP1_EnableClockStopSleep\n
 662:Drivers/STM32G0xx_HAL_Driver/Inc/stm32g0xx_ll_bus.h ****   *         APBSMENR1    UCPD1SMEN     LL_APB1_GRP1_EnableClockStopSleep\n
 663:Drivers/STM32G0xx_HAL_Driver/Inc/stm32g0xx_ll_bus.h ****   *         APBSMENR1    UCPD2SMEN     LL_APB1_GRP1_EnableClockStopSleep\n
 664:Drivers/STM32G0xx_HAL_Driver/Inc/stm32g0xx_ll_bus.h ****   *         APBSMENR1    DBGSMEN       LL_APB1_GRP1_EnableClockStopSleep\n
 665:Drivers/STM32G0xx_HAL_Driver/Inc/stm32g0xx_ll_bus.h ****   *         APBSMENR1    PWRSMEN       LL_APB1_GRP1_EnableClockStopSleep\n
 666:Drivers/STM32G0xx_HAL_Driver/Inc/stm32g0xx_ll_bus.h ****   *         APBSMENR1    DAC1SMEN      LL_APB1_GRP1_EnableClockStopSleep\n
 667:Drivers/STM32G0xx_HAL_Driver/Inc/stm32g0xx_ll_bus.h ****   *         APBSMENR1    LPTIM2SMEN    LL_APB1_GRP1_EnableClockStopSleep\n
 668:Drivers/STM32G0xx_HAL_Driver/Inc/stm32g0xx_ll_bus.h ****   *         APBSMENR1    LPTIM1SMEN    LL_APB1_GRP1_EnableClockStopSleep
 669:Drivers/STM32G0xx_HAL_Driver/Inc/stm32g0xx_ll_bus.h ****   * @param  Periphs This parameter can be a combination of the following values:
 670:Drivers/STM32G0xx_HAL_Driver/Inc/stm32g0xx_ll_bus.h ****   *         @arg @ref LL_APB1_GRP1_PERIPH_TIM2    (1)
 671:Drivers/STM32G0xx_HAL_Driver/Inc/stm32g0xx_ll_bus.h ****   *         @arg @ref LL_APB1_GRP1_PERIPH_TIM3
 672:Drivers/STM32G0xx_HAL_Driver/Inc/stm32g0xx_ll_bus.h ****   *         @arg @ref LL_APB1_GRP1_PERIPH_TIM6    (1)
 673:Drivers/STM32G0xx_HAL_Driver/Inc/stm32g0xx_ll_bus.h ****   *         @arg @ref LL_APB1_GRP1_PERIPH_TIM7    (1)
 674:Drivers/STM32G0xx_HAL_Driver/Inc/stm32g0xx_ll_bus.h ****   *         @arg @ref LL_APB1_GRP1_PERIPH_RTC
 675:Drivers/STM32G0xx_HAL_Driver/Inc/stm32g0xx_ll_bus.h ****   *         @arg @ref LL_APB1_GRP1_PERIPH_WWDG
 676:Drivers/STM32G0xx_HAL_Driver/Inc/stm32g0xx_ll_bus.h ****   *         @arg @ref LL_APB1_GRP1_PERIPH_SPI2
 677:Drivers/STM32G0xx_HAL_Driver/Inc/stm32g0xx_ll_bus.h ****   *         @arg @ref LL_APB1_GRP1_PERIPH_USART2
 678:Drivers/STM32G0xx_HAL_Driver/Inc/stm32g0xx_ll_bus.h ****   *         @arg @ref LL_APB1_GRP1_PERIPH_USART3  (1)
 679:Drivers/STM32G0xx_HAL_Driver/Inc/stm32g0xx_ll_bus.h ****   *         @arg @ref LL_APB1_GRP1_PERIPH_USART4  (1)
 680:Drivers/STM32G0xx_HAL_Driver/Inc/stm32g0xx_ll_bus.h ****   *         @arg @ref LL_APB1_GRP1_PERIPH_LPUART1 (1)
 681:Drivers/STM32G0xx_HAL_Driver/Inc/stm32g0xx_ll_bus.h ****   *         @arg @ref LL_APB1_GRP1_PERIPH_I2C1
 682:Drivers/STM32G0xx_HAL_Driver/Inc/stm32g0xx_ll_bus.h ****   *         @arg @ref LL_APB1_GRP1_PERIPH_I2C2
 683:Drivers/STM32G0xx_HAL_Driver/Inc/stm32g0xx_ll_bus.h ****   *         @arg @ref LL_APB1_GRP1_PERIPH_CEC     (1)
 684:Drivers/STM32G0xx_HAL_Driver/Inc/stm32g0xx_ll_bus.h ****   *         @arg @ref LL_APB1_GRP1_PERIPH_UCPD1   (1)
 685:Drivers/STM32G0xx_HAL_Driver/Inc/stm32g0xx_ll_bus.h ****   *         @arg @ref LL_APB1_GRP1_PERIPH_UCPD2   (1)
 686:Drivers/STM32G0xx_HAL_Driver/Inc/stm32g0xx_ll_bus.h ****   *         @arg @ref LL_APB1_GRP1_PERIPH_DBGMCU
 687:Drivers/STM32G0xx_HAL_Driver/Inc/stm32g0xx_ll_bus.h ****   *         @arg @ref LL_APB1_GRP1_PERIPH_PWR
 688:Drivers/STM32G0xx_HAL_Driver/Inc/stm32g0xx_ll_bus.h ****   *         @arg @ref LL_APB1_GRP1_PERIPH_DAC1    (1)
 689:Drivers/STM32G0xx_HAL_Driver/Inc/stm32g0xx_ll_bus.h ****   *         @arg @ref LL_APB1_GRP1_PERIPH_LPTIM2  (1)
 690:Drivers/STM32G0xx_HAL_Driver/Inc/stm32g0xx_ll_bus.h ****   *         @arg @ref LL_APB1_GRP1_PERIPH_LPTIM1  (1)
 691:Drivers/STM32G0xx_HAL_Driver/Inc/stm32g0xx_ll_bus.h ****   * @note Peripheral marked with (1) are not available all devices
 692:Drivers/STM32G0xx_HAL_Driver/Inc/stm32g0xx_ll_bus.h ****   * @retval None
 693:Drivers/STM32G0xx_HAL_Driver/Inc/stm32g0xx_ll_bus.h **** */
 694:Drivers/STM32G0xx_HAL_Driver/Inc/stm32g0xx_ll_bus.h **** __STATIC_INLINE void LL_APB1_GRP1_EnableClockStopSleep(uint32_t Periphs)
 695:Drivers/STM32G0xx_HAL_Driver/Inc/stm32g0xx_ll_bus.h **** {
 696:Drivers/STM32G0xx_HAL_Driver/Inc/stm32g0xx_ll_bus.h ****   __IO uint32_t tmpreg;
 697:Drivers/STM32G0xx_HAL_Driver/Inc/stm32g0xx_ll_bus.h ****   SET_BIT(RCC->APBSMENR1, Periphs);
 698:Drivers/STM32G0xx_HAL_Driver/Inc/stm32g0xx_ll_bus.h ****   /* Delay after an RCC peripheral clock enabling */
 699:Drivers/STM32G0xx_HAL_Driver/Inc/stm32g0xx_ll_bus.h ****   tmpreg = READ_BIT(RCC->APBSMENR1, Periphs);
 700:Drivers/STM32G0xx_HAL_Driver/Inc/stm32g0xx_ll_bus.h ****   (void)tmpreg;
 701:Drivers/STM32G0xx_HAL_Driver/Inc/stm32g0xx_ll_bus.h **** }
 702:Drivers/STM32G0xx_HAL_Driver/Inc/stm32g0xx_ll_bus.h **** 
 703:Drivers/STM32G0xx_HAL_Driver/Inc/stm32g0xx_ll_bus.h **** /**
 704:Drivers/STM32G0xx_HAL_Driver/Inc/stm32g0xx_ll_bus.h ****   * @brief  Disable APB1 peripheral clocks in Sleep and Stop modes
 705:Drivers/STM32G0xx_HAL_Driver/Inc/stm32g0xx_ll_bus.h ****   * @rmtoll APBSMENR1    TIM2SMEN      LL_APB1_GRP1_DisableClockStopSleep\n
 706:Drivers/STM32G0xx_HAL_Driver/Inc/stm32g0xx_ll_bus.h ****   *         APBSMENR1    TIM3SMEN      LL_APB1_GRP1_DisableClockStopSleep\n
 707:Drivers/STM32G0xx_HAL_Driver/Inc/stm32g0xx_ll_bus.h ****   *         APBSMENR1    TIM6SMEN      LL_APB1_GRP1_DisableClockStopSleep\n
 708:Drivers/STM32G0xx_HAL_Driver/Inc/stm32g0xx_ll_bus.h ****   *         APBSMENR1    TIM7SMEN      LL_APB1_GRP1_DisableClockStopSleep\n
 709:Drivers/STM32G0xx_HAL_Driver/Inc/stm32g0xx_ll_bus.h ****   *         APBSMENR1    RTCAPBSMEN    LL_APB1_GRP1_DisableClockStopSleep\n
 710:Drivers/STM32G0xx_HAL_Driver/Inc/stm32g0xx_ll_bus.h ****   *         APBSMENR1    WWDGSMEN      LL_APB1_GRP1_DisableClockStopSleep\n
 711:Drivers/STM32G0xx_HAL_Driver/Inc/stm32g0xx_ll_bus.h ****   *         APBSMENR1    SPI2SMEN      LL_APB1_GRP1_DisableClockStopSleep\n
 712:Drivers/STM32G0xx_HAL_Driver/Inc/stm32g0xx_ll_bus.h ****   *         APBSMENR1    USART2SMEN    LL_APB1_GRP1_DisableClockStopSleep\n
 713:Drivers/STM32G0xx_HAL_Driver/Inc/stm32g0xx_ll_bus.h ****   *         APBSMENR1    USART3SMEN    LL_APB1_GRP1_DisableClockStopSleep\n
 714:Drivers/STM32G0xx_HAL_Driver/Inc/stm32g0xx_ll_bus.h ****   *         APBSMENR1    USART4SMEN    LL_APB1_GRP1_DisableClockStopSleep\n
 715:Drivers/STM32G0xx_HAL_Driver/Inc/stm32g0xx_ll_bus.h ****   *         APBSMENR1    LPUART1SMEN   LL_APB1_GRP1_DisableClockStopSleep\n
 716:Drivers/STM32G0xx_HAL_Driver/Inc/stm32g0xx_ll_bus.h ****   *         APBSMENR1    I2C1SMEN      LL_APB1_GRP1_DisableClockStopSleep\n
 717:Drivers/STM32G0xx_HAL_Driver/Inc/stm32g0xx_ll_bus.h ****   *         APBSMENR1    I2C2SMEN      LL_APB1_GRP1_DisableClockStopSleep\n
ARM GAS  /tmp/ccdnVxo0.s 			page 14


 718:Drivers/STM32G0xx_HAL_Driver/Inc/stm32g0xx_ll_bus.h ****   *         APBSMENR1    CECSMEN       LL_APB1_GRP1_DisableClockStopSleep\n
 719:Drivers/STM32G0xx_HAL_Driver/Inc/stm32g0xx_ll_bus.h ****   *         APBSMENR1    UCPD1SMEN     LL_APB1_GRP1_DisableClockStopSleep\n
 720:Drivers/STM32G0xx_HAL_Driver/Inc/stm32g0xx_ll_bus.h ****   *         APBSMENR1    UCPD2SMEN     LL_APB1_GRP1_DisableClockStopSleep\n
 721:Drivers/STM32G0xx_HAL_Driver/Inc/stm32g0xx_ll_bus.h ****   *         APBSMENR1    DBGSMEN       LL_APB1_GRP1_DisableClockStopSleep\n
 722:Drivers/STM32G0xx_HAL_Driver/Inc/stm32g0xx_ll_bus.h ****   *         APBSMENR1    PWRSMEN       LL_APB1_GRP1_DisableClockStopSleep\n
 723:Drivers/STM32G0xx_HAL_Driver/Inc/stm32g0xx_ll_bus.h ****   *         APBSMENR1    DAC1SMEN      LL_APB1_GRP1_DisableClockStopSleep\n
 724:Drivers/STM32G0xx_HAL_Driver/Inc/stm32g0xx_ll_bus.h ****   *         APBSMENR1    LPTIM2SMEN    LL_APB1_GRP1_DisableClockStopSleep\n
 725:Drivers/STM32G0xx_HAL_Driver/Inc/stm32g0xx_ll_bus.h ****   *         APBSMENR1    LPTIM1SMEN    LL_APB1_GRP1_DisableClockStopSleep
 726:Drivers/STM32G0xx_HAL_Driver/Inc/stm32g0xx_ll_bus.h ****   * @param  Periphs This parameter can be a combination of the following values:
 727:Drivers/STM32G0xx_HAL_Driver/Inc/stm32g0xx_ll_bus.h ****   *         @arg @ref LL_APB1_GRP1_PERIPH_TIM2    (1)
 728:Drivers/STM32G0xx_HAL_Driver/Inc/stm32g0xx_ll_bus.h ****   *         @arg @ref LL_APB1_GRP1_PERIPH_TIM3
 729:Drivers/STM32G0xx_HAL_Driver/Inc/stm32g0xx_ll_bus.h ****   *         @arg @ref LL_APB1_GRP1_PERIPH_TIM6    (1)
 730:Drivers/STM32G0xx_HAL_Driver/Inc/stm32g0xx_ll_bus.h ****   *         @arg @ref LL_APB1_GRP1_PERIPH_TIM7    (1)
 731:Drivers/STM32G0xx_HAL_Driver/Inc/stm32g0xx_ll_bus.h ****   *         @arg @ref LL_APB1_GRP1_PERIPH_RTC
 732:Drivers/STM32G0xx_HAL_Driver/Inc/stm32g0xx_ll_bus.h ****   *         @arg @ref LL_APB1_GRP1_PERIPH_WWDG
 733:Drivers/STM32G0xx_HAL_Driver/Inc/stm32g0xx_ll_bus.h ****   *         @arg @ref LL_APB1_GRP1_PERIPH_SPI2
 734:Drivers/STM32G0xx_HAL_Driver/Inc/stm32g0xx_ll_bus.h ****   *         @arg @ref LL_APB1_GRP1_PERIPH_USART2
 735:Drivers/STM32G0xx_HAL_Driver/Inc/stm32g0xx_ll_bus.h ****   *         @arg @ref LL_APB1_GRP1_PERIPH_USART3  (1)
 736:Drivers/STM32G0xx_HAL_Driver/Inc/stm32g0xx_ll_bus.h ****   *         @arg @ref LL_APB1_GRP1_PERIPH_USART4  (1)
 737:Drivers/STM32G0xx_HAL_Driver/Inc/stm32g0xx_ll_bus.h ****   *         @arg @ref LL_APB1_GRP1_PERIPH_LPUART1 (1)
 738:Drivers/STM32G0xx_HAL_Driver/Inc/stm32g0xx_ll_bus.h ****   *         @arg @ref LL_APB1_GRP1_PERIPH_I2C1
 739:Drivers/STM32G0xx_HAL_Driver/Inc/stm32g0xx_ll_bus.h ****   *         @arg @ref LL_APB1_GRP1_PERIPH_I2C2
 740:Drivers/STM32G0xx_HAL_Driver/Inc/stm32g0xx_ll_bus.h ****   *         @arg @ref LL_APB1_GRP1_PERIPH_CEC     (1)
 741:Drivers/STM32G0xx_HAL_Driver/Inc/stm32g0xx_ll_bus.h ****   *         @arg @ref LL_APB1_GRP1_PERIPH_UCPD1   (1)
 742:Drivers/STM32G0xx_HAL_Driver/Inc/stm32g0xx_ll_bus.h ****   *         @arg @ref LL_APB1_GRP1_PERIPH_UCPD2   (1)
 743:Drivers/STM32G0xx_HAL_Driver/Inc/stm32g0xx_ll_bus.h ****   *         @arg @ref LL_APB1_GRP1_PERIPH_DBGMCU
 744:Drivers/STM32G0xx_HAL_Driver/Inc/stm32g0xx_ll_bus.h ****   *         @arg @ref LL_APB1_GRP1_PERIPH_PWR
 745:Drivers/STM32G0xx_HAL_Driver/Inc/stm32g0xx_ll_bus.h ****   *         @arg @ref LL_APB1_GRP1_PERIPH_DAC1    (1)
 746:Drivers/STM32G0xx_HAL_Driver/Inc/stm32g0xx_ll_bus.h ****   *         @arg @ref LL_APB1_GRP1_PERIPH_LPTIM2  (1)
 747:Drivers/STM32G0xx_HAL_Driver/Inc/stm32g0xx_ll_bus.h ****   *         @arg @ref LL_APB1_GRP1_PERIPH_LPTIM1  (1)
 748:Drivers/STM32G0xx_HAL_Driver/Inc/stm32g0xx_ll_bus.h ****   * @note Peripheral marked with (1) are not available all devices
 749:Drivers/STM32G0xx_HAL_Driver/Inc/stm32g0xx_ll_bus.h ****   * @retval None
 750:Drivers/STM32G0xx_HAL_Driver/Inc/stm32g0xx_ll_bus.h **** */
 751:Drivers/STM32G0xx_HAL_Driver/Inc/stm32g0xx_ll_bus.h **** __STATIC_INLINE void LL_APB1_GRP1_DisableClockStopSleep(uint32_t Periphs)
 752:Drivers/STM32G0xx_HAL_Driver/Inc/stm32g0xx_ll_bus.h **** {
 753:Drivers/STM32G0xx_HAL_Driver/Inc/stm32g0xx_ll_bus.h ****   CLEAR_BIT(RCC->APBSMENR1, Periphs);
 754:Drivers/STM32G0xx_HAL_Driver/Inc/stm32g0xx_ll_bus.h **** }
 755:Drivers/STM32G0xx_HAL_Driver/Inc/stm32g0xx_ll_bus.h **** 
 756:Drivers/STM32G0xx_HAL_Driver/Inc/stm32g0xx_ll_bus.h **** /**
 757:Drivers/STM32G0xx_HAL_Driver/Inc/stm32g0xx_ll_bus.h ****   * @}
 758:Drivers/STM32G0xx_HAL_Driver/Inc/stm32g0xx_ll_bus.h ****   */
 759:Drivers/STM32G0xx_HAL_Driver/Inc/stm32g0xx_ll_bus.h **** 
 760:Drivers/STM32G0xx_HAL_Driver/Inc/stm32g0xx_ll_bus.h **** /** @defgroup BUS_LL_EF_APB2 APB2
 761:Drivers/STM32G0xx_HAL_Driver/Inc/stm32g0xx_ll_bus.h ****   * @{
 762:Drivers/STM32G0xx_HAL_Driver/Inc/stm32g0xx_ll_bus.h ****   */
 763:Drivers/STM32G0xx_HAL_Driver/Inc/stm32g0xx_ll_bus.h **** 
 764:Drivers/STM32G0xx_HAL_Driver/Inc/stm32g0xx_ll_bus.h **** /**
 765:Drivers/STM32G0xx_HAL_Driver/Inc/stm32g0xx_ll_bus.h ****   * @brief  Enable APB2 peripherals clock.
 766:Drivers/STM32G0xx_HAL_Driver/Inc/stm32g0xx_ll_bus.h ****   * @rmtoll APBENR2      SYSCFGEN      LL_APB2_GRP1_EnableClock\n
 767:Drivers/STM32G0xx_HAL_Driver/Inc/stm32g0xx_ll_bus.h ****   *         APBENR2      TIM1EN        LL_APB2_GRP1_EnableClock\n
 768:Drivers/STM32G0xx_HAL_Driver/Inc/stm32g0xx_ll_bus.h ****   *         APBENR2      SPI1EN        LL_APB2_GRP1_EnableClock\n
 769:Drivers/STM32G0xx_HAL_Driver/Inc/stm32g0xx_ll_bus.h ****   *         APBENR2      USART1EN      LL_APB2_GRP1_EnableClock\n
 770:Drivers/STM32G0xx_HAL_Driver/Inc/stm32g0xx_ll_bus.h ****   *         APBENR2      TIM14EN       LL_APB2_GRP1_EnableClock\n
 771:Drivers/STM32G0xx_HAL_Driver/Inc/stm32g0xx_ll_bus.h ****   *         APBENR2      TIM15EN       LL_APB2_GRP1_EnableClock\n (*)
 772:Drivers/STM32G0xx_HAL_Driver/Inc/stm32g0xx_ll_bus.h ****   *         APBENR2      TIM16EN       LL_APB2_GRP1_EnableClock\n
 773:Drivers/STM32G0xx_HAL_Driver/Inc/stm32g0xx_ll_bus.h ****   *         APBENR2      TIM17EN       LL_APB2_GRP1_EnableClock\n
 774:Drivers/STM32G0xx_HAL_Driver/Inc/stm32g0xx_ll_bus.h ****   *         APBENR2      ADCEN         LL_APB2_GRP1_EnableClock
ARM GAS  /tmp/ccdnVxo0.s 			page 15


 775:Drivers/STM32G0xx_HAL_Driver/Inc/stm32g0xx_ll_bus.h ****   * @param  Periphs This parameter can be a combination of the following values:
 776:Drivers/STM32G0xx_HAL_Driver/Inc/stm32g0xx_ll_bus.h ****   *         @arg @ref LL_APB2_GRP1_PERIPH_SYSCFG
 777:Drivers/STM32G0xx_HAL_Driver/Inc/stm32g0xx_ll_bus.h ****   *         @arg @ref LL_APB2_GRP1_PERIPH_TIM1
 778:Drivers/STM32G0xx_HAL_Driver/Inc/stm32g0xx_ll_bus.h ****   *         @arg @ref LL_APB2_GRP1_PERIPH_SPI1
 779:Drivers/STM32G0xx_HAL_Driver/Inc/stm32g0xx_ll_bus.h ****   *         @arg @ref LL_APB2_GRP1_PERIPH_USART1
 780:Drivers/STM32G0xx_HAL_Driver/Inc/stm32g0xx_ll_bus.h ****   *         @arg @ref LL_APB2_GRP1_PERIPH_TIM14
 781:Drivers/STM32G0xx_HAL_Driver/Inc/stm32g0xx_ll_bus.h ****   *         @arg @ref LL_APB2_GRP1_PERIPH_TIM15 (*)
 782:Drivers/STM32G0xx_HAL_Driver/Inc/stm32g0xx_ll_bus.h ****   *         @arg @ref LL_APB2_GRP1_PERIPH_TIM16
 783:Drivers/STM32G0xx_HAL_Driver/Inc/stm32g0xx_ll_bus.h ****   *         @arg @ref LL_APB2_GRP1_PERIPH_TIM17
 784:Drivers/STM32G0xx_HAL_Driver/Inc/stm32g0xx_ll_bus.h ****   *         @arg @ref LL_APB2_GRP1_PERIPH_ADC
 785:Drivers/STM32G0xx_HAL_Driver/Inc/stm32g0xx_ll_bus.h ****   * @note (*) peripheral not available on all devices
 786:Drivers/STM32G0xx_HAL_Driver/Inc/stm32g0xx_ll_bus.h ****   * @retval None
 787:Drivers/STM32G0xx_HAL_Driver/Inc/stm32g0xx_ll_bus.h **** */
 788:Drivers/STM32G0xx_HAL_Driver/Inc/stm32g0xx_ll_bus.h **** __STATIC_INLINE void LL_APB2_GRP1_EnableClock(uint32_t Periphs)
  26              		.loc 1 788 22 view -0
  27              		.cfi_startproc
  28              		@ args = 0, pretend = 0, frame = 8
  29              		@ frame_needed = 0, uses_anonymous_args = 0
  30              		@ link register save eliminated.
  31              	.LVL0:
 789:Drivers/STM32G0xx_HAL_Driver/Inc/stm32g0xx_ll_bus.h **** {
 790:Drivers/STM32G0xx_HAL_Driver/Inc/stm32g0xx_ll_bus.h ****   __IO uint32_t tmpreg;
  32              		.loc 1 790 3 view .LVU1
 791:Drivers/STM32G0xx_HAL_Driver/Inc/stm32g0xx_ll_bus.h ****   SET_BIT(RCC->APBENR2, Periphs);
  33              		.loc 1 791 3 view .LVU2
  34 0000 0120     		movs	r0, #1
  35 0002 054A     		ldr	r2, .L2
 788:Drivers/STM32G0xx_HAL_Driver/Inc/stm32g0xx_ll_bus.h **** {
  36              		.loc 1 788 22 is_stmt 0 view .LVU3
  37 0004 82B0     		sub	sp, sp, #8
  38              	.LCFI0:
  39              		.cfi_def_cfa_offset 8
  40              		.loc 1 791 3 view .LVU4
  41 0006 116C     		ldr	r1, [r2, #64]
  42 0008 0143     		orrs	r1, r0
  43 000a 1164     		str	r1, [r2, #64]
 792:Drivers/STM32G0xx_HAL_Driver/Inc/stm32g0xx_ll_bus.h ****   /* Delay after an RCC peripheral clock enabling */
 793:Drivers/STM32G0xx_HAL_Driver/Inc/stm32g0xx_ll_bus.h ****   tmpreg = READ_BIT(RCC->APBENR2, Periphs);
  44              		.loc 1 793 3 is_stmt 1 view .LVU5
  45              		.loc 1 793 12 is_stmt 0 view .LVU6
  46 000c 136C     		ldr	r3, [r2, #64]
  47 000e 0340     		ands	r3, r0
  48              		.loc 1 793 10 view .LVU7
  49 0010 0193     		str	r3, [sp, #4]
 794:Drivers/STM32G0xx_HAL_Driver/Inc/stm32g0xx_ll_bus.h ****   (void)tmpreg;
  50              		.loc 1 794 3 is_stmt 1 view .LVU8
  51 0012 019B     		ldr	r3, [sp, #4]
 795:Drivers/STM32G0xx_HAL_Driver/Inc/stm32g0xx_ll_bus.h **** }
  52              		.loc 1 795 1 is_stmt 0 view .LVU9
  53 0014 02B0     		add	sp, sp, #8
  54              		@ sp needed
  55 0016 7047     		bx	lr
  56              	.L3:
  57              		.align	2
  58              	.L2:
  59 0018 00100240 		.word	1073876992
  60              		.cfi_endproc
ARM GAS  /tmp/ccdnVxo0.s 			page 16


  61              	.LFE851:
  63              		.section	.text.USBPD_HW_IF_GlobalHwInit,"ax",%progbits
  64              		.align	1
  65              		.global	USBPD_HW_IF_GlobalHwInit
  66              		.syntax unified
  67              		.code	16
  68              		.thumb_func
  69              		.fpu softvfp
  71              	USBPD_HW_IF_GlobalHwInit:
  72              	.LFB829:
  73              		.file 2 "Middlewares/ST/STM32_USBPD_Library/Devices/STM32G0XX/src/usbpd_phy_hw_if.c"
   1:Middlewares/ST/STM32_USBPD_Library/Devices/STM32G0XX/src/usbpd_phy_hw_if.c **** /**
   2:Middlewares/ST/STM32_USBPD_Library/Devices/STM32G0XX/src/usbpd_phy_hw_if.c ****   ******************************************************************************
   3:Middlewares/ST/STM32_USBPD_Library/Devices/STM32G0XX/src/usbpd_phy_hw_if.c ****   * @file    usbpd_phy_hw_if.c
   4:Middlewares/ST/STM32_USBPD_Library/Devices/STM32G0XX/src/usbpd_phy_hw_if.c ****   * @author  MCD Application Team
   5:Middlewares/ST/STM32_USBPD_Library/Devices/STM32G0XX/src/usbpd_phy_hw_if.c ****   * @brief   This file contains phy interface control functions.
   6:Middlewares/ST/STM32_USBPD_Library/Devices/STM32G0XX/src/usbpd_phy_hw_if.c ****   ******************************************************************************
   7:Middlewares/ST/STM32_USBPD_Library/Devices/STM32G0XX/src/usbpd_phy_hw_if.c ****   * @attention
   8:Middlewares/ST/STM32_USBPD_Library/Devices/STM32G0XX/src/usbpd_phy_hw_if.c ****   *
   9:Middlewares/ST/STM32_USBPD_Library/Devices/STM32G0XX/src/usbpd_phy_hw_if.c ****   * <h2><center>&copy; Copyright (c) 2017 STMicroelectronics.
  10:Middlewares/ST/STM32_USBPD_Library/Devices/STM32G0XX/src/usbpd_phy_hw_if.c ****   * All rights reserved.</center></h2>
  11:Middlewares/ST/STM32_USBPD_Library/Devices/STM32G0XX/src/usbpd_phy_hw_if.c ****   *
  12:Middlewares/ST/STM32_USBPD_Library/Devices/STM32G0XX/src/usbpd_phy_hw_if.c ****   * This software component is licensed by ST under Ultimate Liberty license
  13:Middlewares/ST/STM32_USBPD_Library/Devices/STM32G0XX/src/usbpd_phy_hw_if.c ****   * SLA0044, the "License"; You may not use this file except in compliance with
  14:Middlewares/ST/STM32_USBPD_Library/Devices/STM32G0XX/src/usbpd_phy_hw_if.c ****   * the License. You may obtain a copy of the License at:
  15:Middlewares/ST/STM32_USBPD_Library/Devices/STM32G0XX/src/usbpd_phy_hw_if.c ****   *                             www.st.com/SLA0044
  16:Middlewares/ST/STM32_USBPD_Library/Devices/STM32G0XX/src/usbpd_phy_hw_if.c ****   *
  17:Middlewares/ST/STM32_USBPD_Library/Devices/STM32G0XX/src/usbpd_phy_hw_if.c ****   ******************************************************************************
  18:Middlewares/ST/STM32_USBPD_Library/Devices/STM32G0XX/src/usbpd_phy_hw_if.c ****   */
  19:Middlewares/ST/STM32_USBPD_Library/Devices/STM32G0XX/src/usbpd_phy_hw_if.c **** 
  20:Middlewares/ST/STM32_USBPD_Library/Devices/STM32G0XX/src/usbpd_phy_hw_if.c **** /* Includes ------------------------------------------------------------------*/
  21:Middlewares/ST/STM32_USBPD_Library/Devices/STM32G0XX/src/usbpd_phy_hw_if.c **** #define USBPD_PHY_HW_IF_C
  22:Middlewares/ST/STM32_USBPD_Library/Devices/STM32G0XX/src/usbpd_phy_hw_if.c **** 
  23:Middlewares/ST/STM32_USBPD_Library/Devices/STM32G0XX/src/usbpd_phy_hw_if.c **** #include "usbpd_devices_conf.h"
  24:Middlewares/ST/STM32_USBPD_Library/Devices/STM32G0XX/src/usbpd_phy_hw_if.c **** #include "usbpd_hw.h"
  25:Middlewares/ST/STM32_USBPD_Library/Devices/STM32G0XX/src/usbpd_phy_hw_if.c **** #include "usbpd_core.h"
  26:Middlewares/ST/STM32_USBPD_Library/Devices/STM32G0XX/src/usbpd_phy_hw_if.c **** #include "usbpd_hw_if.h"
  27:Middlewares/ST/STM32_USBPD_Library/Devices/STM32G0XX/src/usbpd_phy_hw_if.c **** #include "usbpd_timersserver.h"
  28:Middlewares/ST/STM32_USBPD_Library/Devices/STM32G0XX/src/usbpd_phy_hw_if.c **** 
  29:Middlewares/ST/STM32_USBPD_Library/Devices/STM32G0XX/src/usbpd_phy_hw_if.c **** /* Private typedef -----------------------------------------------------------*/
  30:Middlewares/ST/STM32_USBPD_Library/Devices/STM32G0XX/src/usbpd_phy_hw_if.c **** 
  31:Middlewares/ST/STM32_USBPD_Library/Devices/STM32G0XX/src/usbpd_phy_hw_if.c **** /* Private function prototypes -----------------------------------------------*/
  32:Middlewares/ST/STM32_USBPD_Library/Devices/STM32G0XX/src/usbpd_phy_hw_if.c **** USBPD_PORT_HandleTypeDef Ports[USBPD_PORT_COUNT];
  33:Middlewares/ST/STM32_USBPD_Library/Devices/STM32G0XX/src/usbpd_phy_hw_if.c **** 
  34:Middlewares/ST/STM32_USBPD_Library/Devices/STM32G0XX/src/usbpd_phy_hw_if.c **** 
  35:Middlewares/ST/STM32_USBPD_Library/Devices/STM32G0XX/src/usbpd_phy_hw_if.c **** /* Private functions ---------------------------------------------------------*/
  36:Middlewares/ST/STM32_USBPD_Library/Devices/STM32G0XX/src/usbpd_phy_hw_if.c **** 
  37:Middlewares/ST/STM32_USBPD_Library/Devices/STM32G0XX/src/usbpd_phy_hw_if.c **** 
  38:Middlewares/ST/STM32_USBPD_Library/Devices/STM32G0XX/src/usbpd_phy_hw_if.c **** void USBPD_HW_IF_GlobalHwInit(void)
  39:Middlewares/ST/STM32_USBPD_Library/Devices/STM32G0XX/src/usbpd_phy_hw_if.c **** {
  74              		.loc 2 39 1 is_stmt 1 view -0
  75              		.cfi_startproc
  76              		@ args = 0, pretend = 0, frame = 8
  77              		@ frame_needed = 0, uses_anonymous_args = 0
  40:Middlewares/ST/STM32_USBPD_Library/Devices/STM32G0XX/src/usbpd_phy_hw_if.c ****   /* ## Backup register access ## */
  41:Middlewares/ST/STM32_USBPD_Library/Devices/STM32G0XX/src/usbpd_phy_hw_if.c ****   RCC->APBENR1 |= RCC_APBENR1_PWREN;
  78              		.loc 2 41 3 view .LVU11
ARM GAS  /tmp/ccdnVxo0.s 			page 17


  39:Middlewares/ST/STM32_USBPD_Library/Devices/STM32G0XX/src/usbpd_phy_hw_if.c ****   /* ## Backup register access ## */
  79              		.loc 2 39 1 is_stmt 0 view .LVU12
  80 0000 07B5     		push	{r0, r1, r2, lr}
  81              	.LCFI1:
  82              		.cfi_def_cfa_offset 16
  83              		.cfi_offset 0, -16
  84              		.cfi_offset 1, -12
  85              		.cfi_offset 2, -8
  86              		.cfi_offset 14, -4
  87              		.loc 2 41 16 view .LVU13
  88 0002 8022     		movs	r2, #128
  89 0004 094B     		ldr	r3, .L5
  90 0006 5205     		lsls	r2, r2, #21
  91 0008 D96B     		ldr	r1, [r3, #60]
  42:Middlewares/ST/STM32_USBPD_Library/Devices/STM32G0XX/src/usbpd_phy_hw_if.c ****   LL_AHB1_GRP1_EnableClock(LL_AHB1_GRP1_PERIPH_CRC);
  43:Middlewares/ST/STM32_USBPD_Library/Devices/STM32G0XX/src/usbpd_phy_hw_if.c **** 
  44:Middlewares/ST/STM32_USBPD_Library/Devices/STM32G0XX/src/usbpd_phy_hw_if.c ****   /* Init timer to detect the reception of goodCRC */
  45:Middlewares/ST/STM32_USBPD_Library/Devices/STM32G0XX/src/usbpd_phy_hw_if.c ****   USBPD_TIM_Init();
  46:Middlewares/ST/STM32_USBPD_Library/Devices/STM32G0XX/src/usbpd_phy_hw_if.c **** 
  47:Middlewares/ST/STM32_USBPD_Library/Devices/STM32G0XX/src/usbpd_phy_hw_if.c ****   /* Initialise VBUS power */
  48:Middlewares/ST/STM32_USBPD_Library/Devices/STM32G0XX/src/usbpd_phy_hw_if.c ****   (void)BSP_PWR_VBUSInit(0);
  49:Middlewares/ST/STM32_USBPD_Library/Devices/STM32G0XX/src/usbpd_phy_hw_if.c **** #if USBPD_PORT_COUNT >= 2
  50:Middlewares/ST/STM32_USBPD_Library/Devices/STM32G0XX/src/usbpd_phy_hw_if.c ****   (void)BSP_PWR_VBUSInit(1);
  51:Middlewares/ST/STM32_USBPD_Library/Devices/STM32G0XX/src/usbpd_phy_hw_if.c **** #endif
  52:Middlewares/ST/STM32_USBPD_Library/Devices/STM32G0XX/src/usbpd_phy_hw_if.c **** }
  92              		.loc 2 52 1 view .LVU14
  93              		@ sp needed
  41:Middlewares/ST/STM32_USBPD_Library/Devices/STM32G0XX/src/usbpd_phy_hw_if.c ****   LL_AHB1_GRP1_EnableClock(LL_AHB1_GRP1_PERIPH_CRC);
  94              		.loc 2 41 16 view .LVU15
  95 000a 0A43     		orrs	r2, r1
  96              	.LBB108:
  97              	.LBB109:
 225:Drivers/STM32G0xx_HAL_Driver/Inc/stm32g0xx_ll_bus.h ****   /* Delay after an RCC peripheral clock enabling */
  98              		.loc 1 225 3 view .LVU16
  99 000c 8021     		movs	r1, #128
 100              	.LBE109:
 101              	.LBE108:
  41:Middlewares/ST/STM32_USBPD_Library/Devices/STM32G0XX/src/usbpd_phy_hw_if.c ****   LL_AHB1_GRP1_EnableClock(LL_AHB1_GRP1_PERIPH_CRC);
 102              		.loc 2 41 16 view .LVU17
 103 000e DA63     		str	r2, [r3, #60]
  42:Middlewares/ST/STM32_USBPD_Library/Devices/STM32G0XX/src/usbpd_phy_hw_if.c ****   LL_AHB1_GRP1_EnableClock(LL_AHB1_GRP1_PERIPH_CRC);
 104              		.loc 2 42 3 is_stmt 1 view .LVU18
 105              	.LBB111:
 106              	.LBI108:
 222:Drivers/STM32G0xx_HAL_Driver/Inc/stm32g0xx_ll_bus.h **** {
 107              		.loc 1 222 22 view .LVU19
 108              	.LVL1:
 109              	.LBB110:
 224:Drivers/STM32G0xx_HAL_Driver/Inc/stm32g0xx_ll_bus.h ****   SET_BIT(RCC->AHBENR, Periphs);
 110              		.loc 1 224 3 view .LVU20
 225:Drivers/STM32G0xx_HAL_Driver/Inc/stm32g0xx_ll_bus.h ****   /* Delay after an RCC peripheral clock enabling */
 111              		.loc 1 225 3 view .LVU21
 112 0010 9A6B     		ldr	r2, [r3, #56]
 113 0012 4901     		lsls	r1, r1, #5
 114 0014 0A43     		orrs	r2, r1
 115 0016 9A63     		str	r2, [r3, #56]
 227:Drivers/STM32G0xx_HAL_Driver/Inc/stm32g0xx_ll_bus.h ****   (void)tmpreg;
ARM GAS  /tmp/ccdnVxo0.s 			page 18


 116              		.loc 1 227 3 view .LVU22
 227:Drivers/STM32G0xx_HAL_Driver/Inc/stm32g0xx_ll_bus.h ****   (void)tmpreg;
 117              		.loc 1 227 12 is_stmt 0 view .LVU23
 118 0018 9B6B     		ldr	r3, [r3, #56]
 119 001a 0B40     		ands	r3, r1
 227:Drivers/STM32G0xx_HAL_Driver/Inc/stm32g0xx_ll_bus.h ****   (void)tmpreg;
 120              		.loc 1 227 10 view .LVU24
 121 001c 0193     		str	r3, [sp, #4]
 228:Drivers/STM32G0xx_HAL_Driver/Inc/stm32g0xx_ll_bus.h **** }
 122              		.loc 1 228 3 is_stmt 1 view .LVU25
 123 001e 019B     		ldr	r3, [sp, #4]
 124              	.LVL2:
 228:Drivers/STM32G0xx_HAL_Driver/Inc/stm32g0xx_ll_bus.h **** }
 125              		.loc 1 228 3 is_stmt 0 view .LVU26
 126              	.LBE110:
 127              	.LBE111:
  45:Middlewares/ST/STM32_USBPD_Library/Devices/STM32G0XX/src/usbpd_phy_hw_if.c **** 
 128              		.loc 2 45 3 is_stmt 1 view .LVU27
 129 0020 FFF7FEFF 		bl	USBPD_TIM_Init
 130              	.LVL3:
  48:Middlewares/ST/STM32_USBPD_Library/Devices/STM32G0XX/src/usbpd_phy_hw_if.c **** #if USBPD_PORT_COUNT >= 2
 131              		.loc 2 48 3 view .LVU28
  48:Middlewares/ST/STM32_USBPD_Library/Devices/STM32G0XX/src/usbpd_phy_hw_if.c **** #if USBPD_PORT_COUNT >= 2
 132              		.loc 2 48 9 is_stmt 0 view .LVU29
 133 0024 0020     		movs	r0, #0
 134 0026 FFF7FEFF 		bl	BSP_PWR_VBUSInit
 135              	.LVL4:
 136              		.loc 2 52 1 view .LVU30
 137 002a 07BD     		pop	{r0, r1, r2, pc}
 138              	.L6:
 139              		.align	2
 140              	.L5:
 141 002c 00100240 		.word	1073876992
 142              		.cfi_endproc
 143              	.LFE829:
 145              		.section	.text.USBPD_HW_IF_StopBISTMode2,"ax",%progbits
 146              		.align	1
 147              		.global	USBPD_HW_IF_StopBISTMode2
 148              		.syntax unified
 149              		.code	16
 150              		.thumb_func
 151              		.fpu softvfp
 153              	USBPD_HW_IF_StopBISTMode2:
 154              	.LVL5:
 155              	.LFB830:
  53:Middlewares/ST/STM32_USBPD_Library/Devices/STM32G0XX/src/usbpd_phy_hw_if.c **** 
  54:Middlewares/ST/STM32_USBPD_Library/Devices/STM32G0XX/src/usbpd_phy_hw_if.c **** void USBPD_HW_IF_StopBISTMode2(uint8_t PortNum)
  55:Middlewares/ST/STM32_USBPD_Library/Devices/STM32G0XX/src/usbpd_phy_hw_if.c **** {
 156              		.loc 2 55 1 is_stmt 1 view -0
 157              		.cfi_startproc
 158              		@ args = 0, pretend = 0, frame = 0
 159              		@ frame_needed = 0, uses_anonymous_args = 0
 160              		@ link register save eliminated.
  56:Middlewares/ST/STM32_USBPD_Library/Devices/STM32G0XX/src/usbpd_phy_hw_if.c ****   uint32_t  _cr = READ_REG(Ports[PortNum].husbpd->CR) & ~(UCPD_CR_TXMODE | UCPD_CR_TXSEND);
 161              		.loc 2 56 3 view .LVU32
 162              		.loc 2 56 13 is_stmt 0 view .LVU33
 163 0000 0722     		movs	r2, #7
ARM GAS  /tmp/ccdnVxo0.s 			page 19


 164              		.loc 2 56 19 view .LVU34
 165 0002 084B     		ldr	r3, .L8
 166 0004 8001     		lsls	r0, r0, #6
 167              	.LVL6:
 168              		.loc 2 56 19 view .LVU35
 169 0006 C358     		ldr	r3, [r0, r3]
  57:Middlewares/ST/STM32_USBPD_Library/Devices/STM32G0XX/src/usbpd_phy_hw_if.c **** 
  58:Middlewares/ST/STM32_USBPD_Library/Devices/STM32G0XX/src/usbpd_phy_hw_if.c ****   LL_UCPD_Disable(Ports[PortNum].husbpd);
  59:Middlewares/ST/STM32_USBPD_Library/Devices/STM32G0XX/src/usbpd_phy_hw_if.c ****   LL_UCPD_Enable(Ports[PortNum].husbpd);
  60:Middlewares/ST/STM32_USBPD_Library/Devices/STM32G0XX/src/usbpd_phy_hw_if.c **** 
  61:Middlewares/ST/STM32_USBPD_Library/Devices/STM32G0XX/src/usbpd_phy_hw_if.c ****   Ports[PortNum].husbpd->CR = _cr;
  62:Middlewares/ST/STM32_USBPD_Library/Devices/STM32G0XX/src/usbpd_phy_hw_if.c **** }
 170              		.loc 2 62 1 view .LVU36
 171              		@ sp needed
  56:Middlewares/ST/STM32_USBPD_Library/Devices/STM32G0XX/src/usbpd_phy_hw_if.c ****   uint32_t  _cr = READ_REG(Ports[PortNum].husbpd->CR) & ~(UCPD_CR_TXMODE | UCPD_CR_TXSEND);
 172              		.loc 2 56 19 view .LVU37
 173 0008 D968     		ldr	r1, [r3, #12]
  56:Middlewares/ST/STM32_USBPD_Library/Devices/STM32G0XX/src/usbpd_phy_hw_if.c ****   uint32_t  _cr = READ_REG(Ports[PortNum].husbpd->CR) & ~(UCPD_CR_TXMODE | UCPD_CR_TXSEND);
 174              		.loc 2 56 13 view .LVU38
 175 000a 9143     		bics	r1, r2
 176              	.LVL7:
  58:Middlewares/ST/STM32_USBPD_Library/Devices/STM32G0XX/src/usbpd_phy_hw_if.c ****   LL_UCPD_Enable(Ports[PortNum].husbpd);
 177              		.loc 2 58 3 is_stmt 1 view .LVU39
 178              	.LBB112:
 179              	.LBI112:
 180              		.file 3 "Drivers/STM32G0xx_HAL_Driver/Inc/stm32g0xx_ll_ucpd.h"
   1:Drivers/STM32G0xx_HAL_Driver/Inc/stm32g0xx_ll_ucpd.h **** /**
   2:Drivers/STM32G0xx_HAL_Driver/Inc/stm32g0xx_ll_ucpd.h ****   ******************************************************************************
   3:Drivers/STM32G0xx_HAL_Driver/Inc/stm32g0xx_ll_ucpd.h ****   * @file    stm32g0xx_ll_ucpd.h
   4:Drivers/STM32G0xx_HAL_Driver/Inc/stm32g0xx_ll_ucpd.h ****   * @author  MCD Application Team
   5:Drivers/STM32G0xx_HAL_Driver/Inc/stm32g0xx_ll_ucpd.h ****   * @brief   Header file of UCPD LL module.
   6:Drivers/STM32G0xx_HAL_Driver/Inc/stm32g0xx_ll_ucpd.h ****   ******************************************************************************
   7:Drivers/STM32G0xx_HAL_Driver/Inc/stm32g0xx_ll_ucpd.h ****   * @attention
   8:Drivers/STM32G0xx_HAL_Driver/Inc/stm32g0xx_ll_ucpd.h ****   *
   9:Drivers/STM32G0xx_HAL_Driver/Inc/stm32g0xx_ll_ucpd.h ****   * <h2><center>&copy; Copyright (c) 2018 STMicroelectronics.
  10:Drivers/STM32G0xx_HAL_Driver/Inc/stm32g0xx_ll_ucpd.h ****   * All rights reserved.</center></h2>
  11:Drivers/STM32G0xx_HAL_Driver/Inc/stm32g0xx_ll_ucpd.h ****   *
  12:Drivers/STM32G0xx_HAL_Driver/Inc/stm32g0xx_ll_ucpd.h ****   * This software component is licensed by ST under BSD 3-Clause license,
  13:Drivers/STM32G0xx_HAL_Driver/Inc/stm32g0xx_ll_ucpd.h ****   * the "License"; You may not use this file except in compliance with the
  14:Drivers/STM32G0xx_HAL_Driver/Inc/stm32g0xx_ll_ucpd.h ****   * License. You may obtain a copy of the License at:
  15:Drivers/STM32G0xx_HAL_Driver/Inc/stm32g0xx_ll_ucpd.h ****   *                        opensource.org/licenses/BSD-3-Clause
  16:Drivers/STM32G0xx_HAL_Driver/Inc/stm32g0xx_ll_ucpd.h ****   *
  17:Drivers/STM32G0xx_HAL_Driver/Inc/stm32g0xx_ll_ucpd.h ****   ******************************************************************************
  18:Drivers/STM32G0xx_HAL_Driver/Inc/stm32g0xx_ll_ucpd.h ****   */
  19:Drivers/STM32G0xx_HAL_Driver/Inc/stm32g0xx_ll_ucpd.h **** 
  20:Drivers/STM32G0xx_HAL_Driver/Inc/stm32g0xx_ll_ucpd.h **** /* Define to prevent recursive inclusion -------------------------------------*/
  21:Drivers/STM32G0xx_HAL_Driver/Inc/stm32g0xx_ll_ucpd.h **** #ifndef STM32G0xx_LL_UCPD_H
  22:Drivers/STM32G0xx_HAL_Driver/Inc/stm32g0xx_ll_ucpd.h **** #define STM32G0xx_LL_UCPD_H
  23:Drivers/STM32G0xx_HAL_Driver/Inc/stm32g0xx_ll_ucpd.h **** 
  24:Drivers/STM32G0xx_HAL_Driver/Inc/stm32g0xx_ll_ucpd.h **** #ifdef __cplusplus
  25:Drivers/STM32G0xx_HAL_Driver/Inc/stm32g0xx_ll_ucpd.h **** extern "C" {
  26:Drivers/STM32G0xx_HAL_Driver/Inc/stm32g0xx_ll_ucpd.h **** #endif
  27:Drivers/STM32G0xx_HAL_Driver/Inc/stm32g0xx_ll_ucpd.h **** 
  28:Drivers/STM32G0xx_HAL_Driver/Inc/stm32g0xx_ll_ucpd.h **** /* Includes ------------------------------------------------------------------*/
  29:Drivers/STM32G0xx_HAL_Driver/Inc/stm32g0xx_ll_ucpd.h **** #include "stm32g0xx.h"
  30:Drivers/STM32G0xx_HAL_Driver/Inc/stm32g0xx_ll_ucpd.h **** 
  31:Drivers/STM32G0xx_HAL_Driver/Inc/stm32g0xx_ll_ucpd.h **** /** @addtogroup STM32G0xx_LL_Driver
ARM GAS  /tmp/ccdnVxo0.s 			page 20


  32:Drivers/STM32G0xx_HAL_Driver/Inc/stm32g0xx_ll_ucpd.h ****   * @{
  33:Drivers/STM32G0xx_HAL_Driver/Inc/stm32g0xx_ll_ucpd.h ****   */
  34:Drivers/STM32G0xx_HAL_Driver/Inc/stm32g0xx_ll_ucpd.h **** 
  35:Drivers/STM32G0xx_HAL_Driver/Inc/stm32g0xx_ll_ucpd.h **** #if defined (UCPD1) || defined (UCPD2)
  36:Drivers/STM32G0xx_HAL_Driver/Inc/stm32g0xx_ll_ucpd.h **** 
  37:Drivers/STM32G0xx_HAL_Driver/Inc/stm32g0xx_ll_ucpd.h **** /** @defgroup UCPD_LL UCPD
  38:Drivers/STM32G0xx_HAL_Driver/Inc/stm32g0xx_ll_ucpd.h ****   * @{
  39:Drivers/STM32G0xx_HAL_Driver/Inc/stm32g0xx_ll_ucpd.h ****   */
  40:Drivers/STM32G0xx_HAL_Driver/Inc/stm32g0xx_ll_ucpd.h **** 
  41:Drivers/STM32G0xx_HAL_Driver/Inc/stm32g0xx_ll_ucpd.h **** /* Private types -------------------------------------------------------------*/
  42:Drivers/STM32G0xx_HAL_Driver/Inc/stm32g0xx_ll_ucpd.h **** /* Private variables ---------------------------------------------------------*/
  43:Drivers/STM32G0xx_HAL_Driver/Inc/stm32g0xx_ll_ucpd.h **** /* Private macros ------------------------------------------------------------*/
  44:Drivers/STM32G0xx_HAL_Driver/Inc/stm32g0xx_ll_ucpd.h **** 
  45:Drivers/STM32G0xx_HAL_Driver/Inc/stm32g0xx_ll_ucpd.h **** /* Exported types ------------------------------------------------------------*/
  46:Drivers/STM32G0xx_HAL_Driver/Inc/stm32g0xx_ll_ucpd.h **** #if defined(USE_FULL_LL_DRIVER)
  47:Drivers/STM32G0xx_HAL_Driver/Inc/stm32g0xx_ll_ucpd.h **** /** @defgroup UCPD_LL_ES_INIT UCPD Exported Init structure
  48:Drivers/STM32G0xx_HAL_Driver/Inc/stm32g0xx_ll_ucpd.h ****   * @{
  49:Drivers/STM32G0xx_HAL_Driver/Inc/stm32g0xx_ll_ucpd.h ****   */
  50:Drivers/STM32G0xx_HAL_Driver/Inc/stm32g0xx_ll_ucpd.h **** 
  51:Drivers/STM32G0xx_HAL_Driver/Inc/stm32g0xx_ll_ucpd.h **** /**
  52:Drivers/STM32G0xx_HAL_Driver/Inc/stm32g0xx_ll_ucpd.h ****   * @brief  UCPD Init structures definition
  53:Drivers/STM32G0xx_HAL_Driver/Inc/stm32g0xx_ll_ucpd.h ****   */
  54:Drivers/STM32G0xx_HAL_Driver/Inc/stm32g0xx_ll_ucpd.h **** typedef struct
  55:Drivers/STM32G0xx_HAL_Driver/Inc/stm32g0xx_ll_ucpd.h **** {
  56:Drivers/STM32G0xx_HAL_Driver/Inc/stm32g0xx_ll_ucpd.h ****   uint32_t psc_ucpdclk;         /*!< Specifies the prescaler for the ucpd clock.
  57:Drivers/STM32G0xx_HAL_Driver/Inc/stm32g0xx_ll_ucpd.h ****                                      This parameter can be a value of @ref UCPD_LL_EC_PSC.
  58:Drivers/STM32G0xx_HAL_Driver/Inc/stm32g0xx_ll_ucpd.h ****                                      This feature can be modified afterwards using unitary function
  59:Drivers/STM32G0xx_HAL_Driver/Inc/stm32g0xx_ll_ucpd.h **** 
  60:Drivers/STM32G0xx_HAL_Driver/Inc/stm32g0xx_ll_ucpd.h ****   uint32_t transwin;            /*!< Specifies the number of cycles (minus 1) of the half bit clock
  61:Drivers/STM32G0xx_HAL_Driver/Inc/stm32g0xx_ll_ucpd.h ****                                     tTransitionWindow (set according to peripheral clock to define 
  62:Drivers/STM32G0xx_HAL_Driver/Inc/stm32g0xx_ll_ucpd.h ****                                     This parameter can be a value between Min_Data=0x1 and Max_Data
  63:Drivers/STM32G0xx_HAL_Driver/Inc/stm32g0xx_ll_ucpd.h ****                                     This value can be modified afterwards using unitary function @r
  64:Drivers/STM32G0xx_HAL_Driver/Inc/stm32g0xx_ll_ucpd.h **** 
  65:Drivers/STM32G0xx_HAL_Driver/Inc/stm32g0xx_ll_ucpd.h ****   uint32_t IfrGap;              /*!< Specifies the definition of the clock divider (minus 1) in ord
  66:Drivers/STM32G0xx_HAL_Driver/Inc/stm32g0xx_ll_ucpd.h ****                                     from the peripheral clock.
  67:Drivers/STM32G0xx_HAL_Driver/Inc/stm32g0xx_ll_ucpd.h ****                                     This parameter can be a value between Min_Data=0x1 and Max_Data
  68:Drivers/STM32G0xx_HAL_Driver/Inc/stm32g0xx_ll_ucpd.h ****                                     This feature can be modified afterwards using unitary function 
  69:Drivers/STM32G0xx_HAL_Driver/Inc/stm32g0xx_ll_ucpd.h **** 
  70:Drivers/STM32G0xx_HAL_Driver/Inc/stm32g0xx_ll_ucpd.h ****   uint32_t HbitClockDiv;        /*!< Specifies  the number of cycles (minus one) at UCPD peripheral
  71:Drivers/STM32G0xx_HAL_Driver/Inc/stm32g0xx_ll_ucpd.h ****                                      for a bit clock that takes 8 cycles of the peripheral clock "U
  72:Drivers/STM32G0xx_HAL_Driver/Inc/stm32g0xx_ll_ucpd.h ****                                      This parameter can be a value between Min_Data=0x0 and Max_Dat
  73:Drivers/STM32G0xx_HAL_Driver/Inc/stm32g0xx_ll_ucpd.h ****                                      This feature can be modified afterwards using unitary function
  74:Drivers/STM32G0xx_HAL_Driver/Inc/stm32g0xx_ll_ucpd.h **** 
  75:Drivers/STM32G0xx_HAL_Driver/Inc/stm32g0xx_ll_ucpd.h **** } LL_UCPD_InitTypeDef;
  76:Drivers/STM32G0xx_HAL_Driver/Inc/stm32g0xx_ll_ucpd.h **** 
  77:Drivers/STM32G0xx_HAL_Driver/Inc/stm32g0xx_ll_ucpd.h **** /**
  78:Drivers/STM32G0xx_HAL_Driver/Inc/stm32g0xx_ll_ucpd.h ****   * @}
  79:Drivers/STM32G0xx_HAL_Driver/Inc/stm32g0xx_ll_ucpd.h ****   */
  80:Drivers/STM32G0xx_HAL_Driver/Inc/stm32g0xx_ll_ucpd.h **** #endif /* USE_FULL_LL_DRIVER */
  81:Drivers/STM32G0xx_HAL_Driver/Inc/stm32g0xx_ll_ucpd.h **** 
  82:Drivers/STM32G0xx_HAL_Driver/Inc/stm32g0xx_ll_ucpd.h **** /* Exported constants --------------------------------------------------------*/
  83:Drivers/STM32G0xx_HAL_Driver/Inc/stm32g0xx_ll_ucpd.h **** /** @defgroup UCPD_LL_Exported_Constants UCPD Exported Constants
  84:Drivers/STM32G0xx_HAL_Driver/Inc/stm32g0xx_ll_ucpd.h ****   * @{
  85:Drivers/STM32G0xx_HAL_Driver/Inc/stm32g0xx_ll_ucpd.h ****   */
  86:Drivers/STM32G0xx_HAL_Driver/Inc/stm32g0xx_ll_ucpd.h **** 
  87:Drivers/STM32G0xx_HAL_Driver/Inc/stm32g0xx_ll_ucpd.h **** /** @defgroup UCPD_LL_EC_GET_FLAG Get Flags Defines
  88:Drivers/STM32G0xx_HAL_Driver/Inc/stm32g0xx_ll_ucpd.h ****   * @brief    Flags defines which can be used with LL_ucpd_ReadReg function
ARM GAS  /tmp/ccdnVxo0.s 			page 21


  89:Drivers/STM32G0xx_HAL_Driver/Inc/stm32g0xx_ll_ucpd.h ****   * @{
  90:Drivers/STM32G0xx_HAL_Driver/Inc/stm32g0xx_ll_ucpd.h ****   */
  91:Drivers/STM32G0xx_HAL_Driver/Inc/stm32g0xx_ll_ucpd.h **** #define LL_UCPD_SR_TXIS             UCPD_SR_TXIS               /*!< Transmit interrupt status      
  92:Drivers/STM32G0xx_HAL_Driver/Inc/stm32g0xx_ll_ucpd.h **** #define LL_UCPD_SR_TXMSGDISC        UCPD_SR_TXMSGDISC          /*!< Transmit message discarded inte
  93:Drivers/STM32G0xx_HAL_Driver/Inc/stm32g0xx_ll_ucpd.h **** #define LL_UCPD_SR_TXMSGSENT        UCPD_SR_TXMSGSENT          /*!< Transmit message sent interrupt
  94:Drivers/STM32G0xx_HAL_Driver/Inc/stm32g0xx_ll_ucpd.h **** #define LL_UCPD_SR_TXMSGABT         UCPD_SR_TXMSGABT           /*!< Transmit message abort interrup
  95:Drivers/STM32G0xx_HAL_Driver/Inc/stm32g0xx_ll_ucpd.h **** #define LL_UCPD_SR_HRSTDISC         UCPD_SR_HRSTDISC           /*!< HRST discarded interrupt       
  96:Drivers/STM32G0xx_HAL_Driver/Inc/stm32g0xx_ll_ucpd.h **** #define LL_UCPD_SR_HRSTSENT         UCPD_SR_HRSTSENT           /*!< HRST sent interrupt            
  97:Drivers/STM32G0xx_HAL_Driver/Inc/stm32g0xx_ll_ucpd.h **** #define LL_UCPD_SR_TXUND            UCPD_SR_TXUND              /*!< Tx data underrun condition inte
  98:Drivers/STM32G0xx_HAL_Driver/Inc/stm32g0xx_ll_ucpd.h **** #define LL_UCPD_SR_RXNE             UCPD_SR_RXNE               /*!< Receive data register not empty
  99:Drivers/STM32G0xx_HAL_Driver/Inc/stm32g0xx_ll_ucpd.h **** #define LL_UCPD_SR_RXORDDET         UCPD_SR_RXORDDET           /*!< Rx ordered set (4 K-codes) dete
 100:Drivers/STM32G0xx_HAL_Driver/Inc/stm32g0xx_ll_ucpd.h **** #define LL_UCPD_SR_RXHRSTDET        UCPD_SR_RXHRSTDET          /*!< Rx Hard Reset detect interrupt 
 101:Drivers/STM32G0xx_HAL_Driver/Inc/stm32g0xx_ll_ucpd.h **** #define LL_UCPD_SR_RXOVR            UCPD_SR_RXOVR              /*!< Rx data overflow interrupt  */
 102:Drivers/STM32G0xx_HAL_Driver/Inc/stm32g0xx_ll_ucpd.h **** #define LL_UCPD_SR_RXMSGEND         UCPD_SR_RXMSGEND           /*!< Rx message received  */
 103:Drivers/STM32G0xx_HAL_Driver/Inc/stm32g0xx_ll_ucpd.h **** #define LL_UCPD_SR_RXERR            UCPD_SR_RXERR              /*!< Rx error  */
 104:Drivers/STM32G0xx_HAL_Driver/Inc/stm32g0xx_ll_ucpd.h **** #define LL_UCPD_SR_TYPECEVT1        UCPD_SR_TYPECEVT1          /*!< Type C voltage level event on C
 105:Drivers/STM32G0xx_HAL_Driver/Inc/stm32g0xx_ll_ucpd.h **** #define LL_UCPD_SR_TYPECEVT2        UCPD_SR_TYPECEVT2          /*!< Type C voltage level event on C
 106:Drivers/STM32G0xx_HAL_Driver/Inc/stm32g0xx_ll_ucpd.h **** #define LL_UCPD_SR_TYPEC_VSTATE_CC1 UCPD_SR_TYPEC_VSTATE_CC1   /*!<Status of DC level on CC1 pin  *
 107:Drivers/STM32G0xx_HAL_Driver/Inc/stm32g0xx_ll_ucpd.h **** #define LL_UCPD_SR_TYPEC_VSTATE_CC2 UCPD_SR_TYPEC_VSTATE_CC2   /*!<Status of DC level on CC2 pin  *
 108:Drivers/STM32G0xx_HAL_Driver/Inc/stm32g0xx_ll_ucpd.h **** #define LL_UCPD_SR_FRSEVT           UCPD_SR_FRSEVT             /*!<Fast Role Swap detection event  
 109:Drivers/STM32G0xx_HAL_Driver/Inc/stm32g0xx_ll_ucpd.h **** 
 110:Drivers/STM32G0xx_HAL_Driver/Inc/stm32g0xx_ll_ucpd.h **** /**
 111:Drivers/STM32G0xx_HAL_Driver/Inc/stm32g0xx_ll_ucpd.h ****   * @}
 112:Drivers/STM32G0xx_HAL_Driver/Inc/stm32g0xx_ll_ucpd.h ****   */
 113:Drivers/STM32G0xx_HAL_Driver/Inc/stm32g0xx_ll_ucpd.h **** 
 114:Drivers/STM32G0xx_HAL_Driver/Inc/stm32g0xx_ll_ucpd.h **** /** @defgroup UCPD_LL_EC_IT IT Defines
 115:Drivers/STM32G0xx_HAL_Driver/Inc/stm32g0xx_ll_ucpd.h ****   * @brief    IT defines which can be used with LL_UCPD_ReadReg and  LL_UCPD_WriteReg functions
 116:Drivers/STM32G0xx_HAL_Driver/Inc/stm32g0xx_ll_ucpd.h ****   * @{
 117:Drivers/STM32G0xx_HAL_Driver/Inc/stm32g0xx_ll_ucpd.h ****   */
 118:Drivers/STM32G0xx_HAL_Driver/Inc/stm32g0xx_ll_ucpd.h **** #define LL_UCPD_IMR_TXIS             UCPD_IMR_TXISIE               /*!< Enable transmit interrupt s
 119:Drivers/STM32G0xx_HAL_Driver/Inc/stm32g0xx_ll_ucpd.h **** #define LL_UCPD_IMR_TXMSGDISC        UCPD_IMR_TXMSGDISCIE          /*!< Enable transmit message dis
 120:Drivers/STM32G0xx_HAL_Driver/Inc/stm32g0xx_ll_ucpd.h **** #define LL_UCPD_IMR_TXMSGSENT        UCPD_IMR_TXMSGSENTIE          /*!< Enable transmit message sen
 121:Drivers/STM32G0xx_HAL_Driver/Inc/stm32g0xx_ll_ucpd.h **** #define LL_UCPD_IMR_TXMSGABT         UCPD_IMR_TXMSGABTIE           /*!< Enable transmit message abo
 122:Drivers/STM32G0xx_HAL_Driver/Inc/stm32g0xx_ll_ucpd.h **** #define LL_UCPD_IMR_HRSTDISC         UCPD_IMR_HRSTDISCIE           /*!< Enable HRST discarded inter
 123:Drivers/STM32G0xx_HAL_Driver/Inc/stm32g0xx_ll_ucpd.h **** #define LL_UCPD_IMR_HRSTSENT         UCPD_IMR_HRSTSENTIE           /*!< Enable HRST sent interrupt 
 124:Drivers/STM32G0xx_HAL_Driver/Inc/stm32g0xx_ll_ucpd.h **** #define LL_UCPD_IMR_TXUND            UCPD_IMR_TXUNDIE              /*!< Enable tx data underrun con
 125:Drivers/STM32G0xx_HAL_Driver/Inc/stm32g0xx_ll_ucpd.h **** #define LL_UCPD_IMR_RXNE             UCPD_IMR_RXNEIE               /*!< Enable Receive data registe
 126:Drivers/STM32G0xx_HAL_Driver/Inc/stm32g0xx_ll_ucpd.h **** #define LL_UCPD_IMR_RXORDDET         UCPD_IMR_RXORDDETIE           /*!< Enable Rx ordered set (4 K-
 127:Drivers/STM32G0xx_HAL_Driver/Inc/stm32g0xx_ll_ucpd.h **** #define LL_UCPD_IMR_RXHRSTDET        UCPD_IMR_RXHRSTDETIE          /*!< Enable Rx Hard Reset detect
 128:Drivers/STM32G0xx_HAL_Driver/Inc/stm32g0xx_ll_ucpd.h **** #define LL_UCPD_IMR_RXOVR            UCPD_IMR_RXOVRIE              /*!< Enable Rx data overflow int
 129:Drivers/STM32G0xx_HAL_Driver/Inc/stm32g0xx_ll_ucpd.h **** #define LL_UCPD_IMR_RXMSGEND         UCPD_IMR_RXMSGEND             /*!< Enable Rx message received 
 130:Drivers/STM32G0xx_HAL_Driver/Inc/stm32g0xx_ll_ucpd.h **** #define LL_UCPD_IMR_RXERR            UCPD_IMR_RXMSGENDIE           /*!< Enable Rx error  */
 131:Drivers/STM32G0xx_HAL_Driver/Inc/stm32g0xx_ll_ucpd.h **** #define LL_UCPD_IMR_TYPECEVT1        UCPD_IMR_TYPECEVT1IE          /*!< Enable Type C voltage level
 132:Drivers/STM32G0xx_HAL_Driver/Inc/stm32g0xx_ll_ucpd.h **** #define LL_UCPD_IMR_TYPECEVT2        UCPD_IMR_TYPECEVT2IE          /*!< Enable Type C voltage level
 133:Drivers/STM32G0xx_HAL_Driver/Inc/stm32g0xx_ll_ucpd.h **** #define LL_UCPD_IMR_FRSEVT           UCPD_IMR_FRSEVTIE             /*!< Enable fast Role Swap detec
 134:Drivers/STM32G0xx_HAL_Driver/Inc/stm32g0xx_ll_ucpd.h **** /**
 135:Drivers/STM32G0xx_HAL_Driver/Inc/stm32g0xx_ll_ucpd.h ****   * @}
 136:Drivers/STM32G0xx_HAL_Driver/Inc/stm32g0xx_ll_ucpd.h ****   */
 137:Drivers/STM32G0xx_HAL_Driver/Inc/stm32g0xx_ll_ucpd.h **** 
 138:Drivers/STM32G0xx_HAL_Driver/Inc/stm32g0xx_ll_ucpd.h **** /** @defgroup UCPD_LL_EC_ORDERSET orderset value
 139:Drivers/STM32G0xx_HAL_Driver/Inc/stm32g0xx_ll_ucpd.h ****   * @brief    definition of the usual orderset
 140:Drivers/STM32G0xx_HAL_Driver/Inc/stm32g0xx_ll_ucpd.h ****   * @{
 141:Drivers/STM32G0xx_HAL_Driver/Inc/stm32g0xx_ll_ucpd.h ****   */
 142:Drivers/STM32G0xx_HAL_Driver/Inc/stm32g0xx_ll_ucpd.h **** #define LL_UCPD_SYNC1 0x18u
 143:Drivers/STM32G0xx_HAL_Driver/Inc/stm32g0xx_ll_ucpd.h **** #define LL_UCPD_SYNC2 0x11u
 144:Drivers/STM32G0xx_HAL_Driver/Inc/stm32g0xx_ll_ucpd.h **** #define LL_UCPD_SYNC3 0x06u
 145:Drivers/STM32G0xx_HAL_Driver/Inc/stm32g0xx_ll_ucpd.h **** #define LL_UCPD_RST1  0x07u
ARM GAS  /tmp/ccdnVxo0.s 			page 22


 146:Drivers/STM32G0xx_HAL_Driver/Inc/stm32g0xx_ll_ucpd.h **** #define LL_UCPD_RST2  0x19u
 147:Drivers/STM32G0xx_HAL_Driver/Inc/stm32g0xx_ll_ucpd.h **** #define LL_UCPD_EOP   0x0Du
 148:Drivers/STM32G0xx_HAL_Driver/Inc/stm32g0xx_ll_ucpd.h **** 
 149:Drivers/STM32G0xx_HAL_Driver/Inc/stm32g0xx_ll_ucpd.h **** #define LL_UCPD_ORDERED_SET_SOP         (LL_UCPD_SYNC1 | (LL_UCPD_SYNC1<<5u) | (LL_UCPD_SYNC1<<10u)
 150:Drivers/STM32G0xx_HAL_Driver/Inc/stm32g0xx_ll_ucpd.h **** #define LL_UCPD_ORDERED_SET_SOP1        (LL_UCPD_SYNC1 | (LL_UCPD_SYNC1<<5u) | (LL_UCPD_SYNC3<<10u)
 151:Drivers/STM32G0xx_HAL_Driver/Inc/stm32g0xx_ll_ucpd.h **** #define LL_UCPD_ORDERED_SET_SOP2        (LL_UCPD_SYNC1 | (LL_UCPD_SYNC3<<5u) | (LL_UCPD_SYNC1<<10u)
 152:Drivers/STM32G0xx_HAL_Driver/Inc/stm32g0xx_ll_ucpd.h **** #define LL_UCPD_ORDERED_SET_HARD_RESET  (LL_UCPD_RST1  | (LL_UCPD_RST1<<5u)  | (LL_UCPD_RST1<<10u) 
 153:Drivers/STM32G0xx_HAL_Driver/Inc/stm32g0xx_ll_ucpd.h **** #define LL_UCPD_ORDERED_SET_CABLE_RESET (LL_UCPD_RST1  | (LL_UCPD_SYNC1<<5u) | (LL_UCPD_RST1<<10u) 
 154:Drivers/STM32G0xx_HAL_Driver/Inc/stm32g0xx_ll_ucpd.h **** #define LL_UCPD_ORDERED_SET_SOP1_DEBUG  (LL_UCPD_SYNC1 | (LL_UCPD_RST2<<5u)  | (LL_UCPD_RST2<<10u) 
 155:Drivers/STM32G0xx_HAL_Driver/Inc/stm32g0xx_ll_ucpd.h **** #define LL_UCPD_ORDERED_SET_SOP2_DEBUG  (LL_UCPD_SYNC1 | (LL_UCPD_RST2<<5u)  | (LL_UCPD_SYNC3<<10u)
 156:Drivers/STM32G0xx_HAL_Driver/Inc/stm32g0xx_ll_ucpd.h **** /**
 157:Drivers/STM32G0xx_HAL_Driver/Inc/stm32g0xx_ll_ucpd.h ****   * @}
 158:Drivers/STM32G0xx_HAL_Driver/Inc/stm32g0xx_ll_ucpd.h ****   */
 159:Drivers/STM32G0xx_HAL_Driver/Inc/stm32g0xx_ll_ucpd.h **** 
 160:Drivers/STM32G0xx_HAL_Driver/Inc/stm32g0xx_ll_ucpd.h **** /** @defgroup UCPD_LL_EC_MODE Role Mode
 161:Drivers/STM32G0xx_HAL_Driver/Inc/stm32g0xx_ll_ucpd.h ****   * @{
 162:Drivers/STM32G0xx_HAL_Driver/Inc/stm32g0xx_ll_ucpd.h ****   */
 163:Drivers/STM32G0xx_HAL_Driver/Inc/stm32g0xx_ll_ucpd.h **** #define LL_UCPD_ROLE_SNK             UCPD_CR_ANAMODE        /*!< Mode SNK Rd         */
 164:Drivers/STM32G0xx_HAL_Driver/Inc/stm32g0xx_ll_ucpd.h **** #define LL_UCPD_ROLE_SRC             0x0U
 165:Drivers/STM32G0xx_HAL_Driver/Inc/stm32g0xx_ll_ucpd.h **** /**
 166:Drivers/STM32G0xx_HAL_Driver/Inc/stm32g0xx_ll_ucpd.h ****   * @}
 167:Drivers/STM32G0xx_HAL_Driver/Inc/stm32g0xx_ll_ucpd.h ****   */
 168:Drivers/STM32G0xx_HAL_Driver/Inc/stm32g0xx_ll_ucpd.h **** 
 169:Drivers/STM32G0xx_HAL_Driver/Inc/stm32g0xx_ll_ucpd.h **** /** @defgroup UCPD_LL_EC_RESISTOR resistor value
 170:Drivers/STM32G0xx_HAL_Driver/Inc/stm32g0xx_ll_ucpd.h ****   * @{
 171:Drivers/STM32G0xx_HAL_Driver/Inc/stm32g0xx_ll_ucpd.h ****   */
 172:Drivers/STM32G0xx_HAL_Driver/Inc/stm32g0xx_ll_ucpd.h **** #define LL_UCPD_RESISTOR_DEFAULT    UCPD_CR_ANASUBMODE_0   /*!< Rp default  */
 173:Drivers/STM32G0xx_HAL_Driver/Inc/stm32g0xx_ll_ucpd.h **** #define LL_UCPD_RESISTOR_1_5A       UCPD_CR_ANASUBMODE_1   /*!< Rp 1.5 A    */
 174:Drivers/STM32G0xx_HAL_Driver/Inc/stm32g0xx_ll_ucpd.h **** #define LL_UCPD_RESISTOR_3_0A       UCPD_CR_ANASUBMODE     /*!< Rp 3.0 A    */
 175:Drivers/STM32G0xx_HAL_Driver/Inc/stm32g0xx_ll_ucpd.h **** #define LL_UCPD_RESISTOR_NONE       0x0U                    /*!< No resistor */
 176:Drivers/STM32G0xx_HAL_Driver/Inc/stm32g0xx_ll_ucpd.h **** /**
 177:Drivers/STM32G0xx_HAL_Driver/Inc/stm32g0xx_ll_ucpd.h ****   * @}
 178:Drivers/STM32G0xx_HAL_Driver/Inc/stm32g0xx_ll_ucpd.h ****   */
 179:Drivers/STM32G0xx_HAL_Driver/Inc/stm32g0xx_ll_ucpd.h **** 
 180:Drivers/STM32G0xx_HAL_Driver/Inc/stm32g0xx_ll_ucpd.h **** /** @defgroup UCPD_LL_EC_CFG1_ORDERSET orderset configuration
 181:Drivers/STM32G0xx_HAL_Driver/Inc/stm32g0xx_ll_ucpd.h ****   * @{
 182:Drivers/STM32G0xx_HAL_Driver/Inc/stm32g0xx_ll_ucpd.h ****   */
 183:Drivers/STM32G0xx_HAL_Driver/Inc/stm32g0xx_ll_ucpd.h **** #define LL_UCPD_ORDERSET_SOP         UCPD_CFG1_RXORDSETEN_0
 184:Drivers/STM32G0xx_HAL_Driver/Inc/stm32g0xx_ll_ucpd.h **** #define LL_UCPD_ORDERSET_SOP1        UCPD_CFG1_RXORDSETEN_1
 185:Drivers/STM32G0xx_HAL_Driver/Inc/stm32g0xx_ll_ucpd.h **** #define LL_UCPD_ORDERSET_SOP2        UCPD_CFG1_RXORDSETEN_2
 186:Drivers/STM32G0xx_HAL_Driver/Inc/stm32g0xx_ll_ucpd.h **** #define LL_UCPD_ORDERSET_HARDRST     UCPD_CFG1_RXORDSETEN_3
 187:Drivers/STM32G0xx_HAL_Driver/Inc/stm32g0xx_ll_ucpd.h **** #define LL_UCPD_ORDERSET_CABLERST    UCPD_CFG1_RXORDSETEN_4
 188:Drivers/STM32G0xx_HAL_Driver/Inc/stm32g0xx_ll_ucpd.h **** #define LL_UCPD_ORDERSET_SOP1_DEBUG  UCPD_CFG1_RXORDSETEN_5
 189:Drivers/STM32G0xx_HAL_Driver/Inc/stm32g0xx_ll_ucpd.h **** #define LL_UCPD_ORDERSET_SOP2_DEBUG  UCPD_CFG1_RXORDSETEN_6
 190:Drivers/STM32G0xx_HAL_Driver/Inc/stm32g0xx_ll_ucpd.h **** #define LL_UCPD_ORDERSET_SOP_EXT1    UCPD_CFG1_RXORDSETEN_7
 191:Drivers/STM32G0xx_HAL_Driver/Inc/stm32g0xx_ll_ucpd.h **** #define LL_UCPD_ORDERSET_SOP_EXT2    UCPD_CFG1_RXORDSETEN_8
 192:Drivers/STM32G0xx_HAL_Driver/Inc/stm32g0xx_ll_ucpd.h **** /**
 193:Drivers/STM32G0xx_HAL_Driver/Inc/stm32g0xx_ll_ucpd.h ****   * @}
 194:Drivers/STM32G0xx_HAL_Driver/Inc/stm32g0xx_ll_ucpd.h ****   */
 195:Drivers/STM32G0xx_HAL_Driver/Inc/stm32g0xx_ll_ucpd.h **** 
 196:Drivers/STM32G0xx_HAL_Driver/Inc/stm32g0xx_ll_ucpd.h **** /** @defgroup UCPD_LL_EC_CCxEVT  ccxevt
 197:Drivers/STM32G0xx_HAL_Driver/Inc/stm32g0xx_ll_ucpd.h ****   * @{
 198:Drivers/STM32G0xx_HAL_Driver/Inc/stm32g0xx_ll_ucpd.h ****   */
 199:Drivers/STM32G0xx_HAL_Driver/Inc/stm32g0xx_ll_ucpd.h **** #define LL_UCPD_SNK_CC1_VOPEN      0x00u
 200:Drivers/STM32G0xx_HAL_Driver/Inc/stm32g0xx_ll_ucpd.h **** #define LL_UCPD_SNK_CC1_VRP        UCPD_SR_TYPEC_VSTATE_CC1_0
 201:Drivers/STM32G0xx_HAL_Driver/Inc/stm32g0xx_ll_ucpd.h **** #define LL_UCPD_SNK_CC1_VRP15A     UCPD_SR_TYPEC_VSTATE_CC1_1
 202:Drivers/STM32G0xx_HAL_Driver/Inc/stm32g0xx_ll_ucpd.h **** #define LL_UCPD_SNK_CC1_VRP30A     (UCPD_SR_TYPEC_VSTATE_CC1_0 | UCPD_SR_TYPEC_VSTATE_CC1_1)
ARM GAS  /tmp/ccdnVxo0.s 			page 23


 203:Drivers/STM32G0xx_HAL_Driver/Inc/stm32g0xx_ll_ucpd.h **** 
 204:Drivers/STM32G0xx_HAL_Driver/Inc/stm32g0xx_ll_ucpd.h **** #define LL_UCPD_SNK_CC2_VOPEN      0x00u
 205:Drivers/STM32G0xx_HAL_Driver/Inc/stm32g0xx_ll_ucpd.h **** #define LL_UCPD_SNK_CC2_VRP        UCPD_SR_TYPEC_VSTATE_CC2_0
 206:Drivers/STM32G0xx_HAL_Driver/Inc/stm32g0xx_ll_ucpd.h **** #define LL_UCPD_SNK_CC2_VRP15A     UCPD_SR_TYPEC_VSTATE_CC2_1
 207:Drivers/STM32G0xx_HAL_Driver/Inc/stm32g0xx_ll_ucpd.h **** #define LL_UCPD_SNK_CC2_VRP30A     (UCPD_SR_TYPEC_VSTATE_CC2_0 | UCPD_SR_TYPEC_VSTATE_CC2_1)
 208:Drivers/STM32G0xx_HAL_Driver/Inc/stm32g0xx_ll_ucpd.h **** 
 209:Drivers/STM32G0xx_HAL_Driver/Inc/stm32g0xx_ll_ucpd.h **** #define LL_UCPD_SRC_CC1_VRA        0x0U
 210:Drivers/STM32G0xx_HAL_Driver/Inc/stm32g0xx_ll_ucpd.h **** #define LL_UCPD_SRC_CC1_VRD        UCPD_SR_TYPEC_VSTATE_CC1_0
 211:Drivers/STM32G0xx_HAL_Driver/Inc/stm32g0xx_ll_ucpd.h **** #define LL_UCPD_SRC_CC1_OPEN       UCPD_SR_TYPEC_VSTATE_CC1_1
 212:Drivers/STM32G0xx_HAL_Driver/Inc/stm32g0xx_ll_ucpd.h **** 
 213:Drivers/STM32G0xx_HAL_Driver/Inc/stm32g0xx_ll_ucpd.h **** #define LL_UCPD_SRC_CC2_VRA        0x0U
 214:Drivers/STM32G0xx_HAL_Driver/Inc/stm32g0xx_ll_ucpd.h **** #define LL_UCPD_SRC_CC2_VRD        UCPD_SR_TYPEC_VSTATE_CC2_0
 215:Drivers/STM32G0xx_HAL_Driver/Inc/stm32g0xx_ll_ucpd.h **** #define LL_UCPD_SRC_CC2_OPEN       UCPD_SR_TYPEC_VSTATE_CC2_1
 216:Drivers/STM32G0xx_HAL_Driver/Inc/stm32g0xx_ll_ucpd.h **** /**
 217:Drivers/STM32G0xx_HAL_Driver/Inc/stm32g0xx_ll_ucpd.h ****   * @}
 218:Drivers/STM32G0xx_HAL_Driver/Inc/stm32g0xx_ll_ucpd.h ****   */
 219:Drivers/STM32G0xx_HAL_Driver/Inc/stm32g0xx_ll_ucpd.h **** 
 220:Drivers/STM32G0xx_HAL_Driver/Inc/stm32g0xx_ll_ucpd.h **** /** @defgroup UCPD_LL_EC_PSC prescaler for UCPDCLK
 221:Drivers/STM32G0xx_HAL_Driver/Inc/stm32g0xx_ll_ucpd.h ****   * @{
 222:Drivers/STM32G0xx_HAL_Driver/Inc/stm32g0xx_ll_ucpd.h ****   */
 223:Drivers/STM32G0xx_HAL_Driver/Inc/stm32g0xx_ll_ucpd.h **** #define LL_UCPD_PSC_DIV1            0x0u
 224:Drivers/STM32G0xx_HAL_Driver/Inc/stm32g0xx_ll_ucpd.h **** #define LL_UCPD_PSC_DIV2            UCPD_CFG1_PSC_UCPDCLK_0
 225:Drivers/STM32G0xx_HAL_Driver/Inc/stm32g0xx_ll_ucpd.h **** #define LL_UCPD_PSC_DIV4            UCPD_CFG1_PSC_UCPDCLK_1
 226:Drivers/STM32G0xx_HAL_Driver/Inc/stm32g0xx_ll_ucpd.h **** #define LL_UCPD_PSC_DIV8            (UCPD_CFG1_PSC_UCPDCLK_1 | UCPD_CFG1_PSC_UCPDCLK_0)
 227:Drivers/STM32G0xx_HAL_Driver/Inc/stm32g0xx_ll_ucpd.h **** #define LL_UCPD_PSC_DIV16           UCPD_CFG1_PSC_UCPDCLK_2
 228:Drivers/STM32G0xx_HAL_Driver/Inc/stm32g0xx_ll_ucpd.h **** /**
 229:Drivers/STM32G0xx_HAL_Driver/Inc/stm32g0xx_ll_ucpd.h ****   * @}
 230:Drivers/STM32G0xx_HAL_Driver/Inc/stm32g0xx_ll_ucpd.h ****   */
 231:Drivers/STM32G0xx_HAL_Driver/Inc/stm32g0xx_ll_ucpd.h **** 
 232:Drivers/STM32G0xx_HAL_Driver/Inc/stm32g0xx_ll_ucpd.h **** /** @defgroup UCPD_LL_EC_CCENABLE cc pin enable
 233:Drivers/STM32G0xx_HAL_Driver/Inc/stm32g0xx_ll_ucpd.h ****   * @{
 234:Drivers/STM32G0xx_HAL_Driver/Inc/stm32g0xx_ll_ucpd.h ****   */
 235:Drivers/STM32G0xx_HAL_Driver/Inc/stm32g0xx_ll_ucpd.h **** #define LL_UCPD_CCENABLE_NONE       0x0U
 236:Drivers/STM32G0xx_HAL_Driver/Inc/stm32g0xx_ll_ucpd.h **** #define LL_UCPD_CCENABLE_CC1        UCPD_CR_CCENABLE_0
 237:Drivers/STM32G0xx_HAL_Driver/Inc/stm32g0xx_ll_ucpd.h **** #define LL_UCPD_CCENABLE_CC2        UCPD_CR_CCENABLE_1
 238:Drivers/STM32G0xx_HAL_Driver/Inc/stm32g0xx_ll_ucpd.h **** #define LL_UCPD_CCENABLE_CC1CC2     (UCPD_CR_CCENABLE_0 | UCPD_CR_CCENABLE_1)
 239:Drivers/STM32G0xx_HAL_Driver/Inc/stm32g0xx_ll_ucpd.h **** /**
 240:Drivers/STM32G0xx_HAL_Driver/Inc/stm32g0xx_ll_ucpd.h ****   * @}
 241:Drivers/STM32G0xx_HAL_Driver/Inc/stm32g0xx_ll_ucpd.h ****   */
 242:Drivers/STM32G0xx_HAL_Driver/Inc/stm32g0xx_ll_ucpd.h **** 
 243:Drivers/STM32G0xx_HAL_Driver/Inc/stm32g0xx_ll_ucpd.h **** /** @defgroup UCPD_LL_EC_CCPIN cc pin selection
 244:Drivers/STM32G0xx_HAL_Driver/Inc/stm32g0xx_ll_ucpd.h ****   * @{
 245:Drivers/STM32G0xx_HAL_Driver/Inc/stm32g0xx_ll_ucpd.h ****   */
 246:Drivers/STM32G0xx_HAL_Driver/Inc/stm32g0xx_ll_ucpd.h **** #define LL_UCPD_CCPIN_CC1           0x0U
 247:Drivers/STM32G0xx_HAL_Driver/Inc/stm32g0xx_ll_ucpd.h **** #define LL_UCPD_CCPIN_CC2           UCPD_CR_PHYCCSEL
 248:Drivers/STM32G0xx_HAL_Driver/Inc/stm32g0xx_ll_ucpd.h **** /**
 249:Drivers/STM32G0xx_HAL_Driver/Inc/stm32g0xx_ll_ucpd.h ****   * @}
 250:Drivers/STM32G0xx_HAL_Driver/Inc/stm32g0xx_ll_ucpd.h ****   */
 251:Drivers/STM32G0xx_HAL_Driver/Inc/stm32g0xx_ll_ucpd.h **** 
 252:Drivers/STM32G0xx_HAL_Driver/Inc/stm32g0xx_ll_ucpd.h **** /** @defgroup UCPD_LL_EC_RXMODE rx mode
 253:Drivers/STM32G0xx_HAL_Driver/Inc/stm32g0xx_ll_ucpd.h ****   * @{
 254:Drivers/STM32G0xx_HAL_Driver/Inc/stm32g0xx_ll_ucpd.h ****   */
 255:Drivers/STM32G0xx_HAL_Driver/Inc/stm32g0xx_ll_ucpd.h **** #define LL_UCPD_RXMODE_NORMAL           0x0U
 256:Drivers/STM32G0xx_HAL_Driver/Inc/stm32g0xx_ll_ucpd.h **** #define LL_UCPD_RXMODE_BIST_TEST_DATA   UCPD_CR_RXMODE
 257:Drivers/STM32G0xx_HAL_Driver/Inc/stm32g0xx_ll_ucpd.h **** /**
 258:Drivers/STM32G0xx_HAL_Driver/Inc/stm32g0xx_ll_ucpd.h ****   * @}
 259:Drivers/STM32G0xx_HAL_Driver/Inc/stm32g0xx_ll_ucpd.h ****   */
ARM GAS  /tmp/ccdnVxo0.s 			page 24


 260:Drivers/STM32G0xx_HAL_Driver/Inc/stm32g0xx_ll_ucpd.h **** 
 261:Drivers/STM32G0xx_HAL_Driver/Inc/stm32g0xx_ll_ucpd.h **** /** @defgroup UCPD_LL_EC_TXMODE tx mode
 262:Drivers/STM32G0xx_HAL_Driver/Inc/stm32g0xx_ll_ucpd.h ****   * @{
 263:Drivers/STM32G0xx_HAL_Driver/Inc/stm32g0xx_ll_ucpd.h ****   */
 264:Drivers/STM32G0xx_HAL_Driver/Inc/stm32g0xx_ll_ucpd.h **** #define LL_UCPD_TXMODE_NORMAL           0x0U
 265:Drivers/STM32G0xx_HAL_Driver/Inc/stm32g0xx_ll_ucpd.h **** #define LL_UCPD_TXMODE_CABLE_RESET      UCPD_CR_TXMODE_0
 266:Drivers/STM32G0xx_HAL_Driver/Inc/stm32g0xx_ll_ucpd.h **** #define LL_UCPD_TXMODE_BIST_CARRIER2    UCPD_CR_TXMODE_1
 267:Drivers/STM32G0xx_HAL_Driver/Inc/stm32g0xx_ll_ucpd.h **** /**
 268:Drivers/STM32G0xx_HAL_Driver/Inc/stm32g0xx_ll_ucpd.h ****   * @}
 269:Drivers/STM32G0xx_HAL_Driver/Inc/stm32g0xx_ll_ucpd.h ****   */
 270:Drivers/STM32G0xx_HAL_Driver/Inc/stm32g0xx_ll_ucpd.h **** 
 271:Drivers/STM32G0xx_HAL_Driver/Inc/stm32g0xx_ll_ucpd.h **** /** @defgroup UCPD_LL_EC_RXORDSET rx orderset
 272:Drivers/STM32G0xx_HAL_Driver/Inc/stm32g0xx_ll_ucpd.h ****   * @{
 273:Drivers/STM32G0xx_HAL_Driver/Inc/stm32g0xx_ll_ucpd.h ****   */
 274:Drivers/STM32G0xx_HAL_Driver/Inc/stm32g0xx_ll_ucpd.h **** #define LL_UCPD_RXORDSET_SOP             0x0U
 275:Drivers/STM32G0xx_HAL_Driver/Inc/stm32g0xx_ll_ucpd.h **** #define LL_UCPD_RXORDSET_SOP1            UCPD_RX_ORDSET_RXORDSET_0
 276:Drivers/STM32G0xx_HAL_Driver/Inc/stm32g0xx_ll_ucpd.h **** #define LL_UCPD_RXORDSET_SOP2            UCPD_RX_ORDSET_RXORDSET_1
 277:Drivers/STM32G0xx_HAL_Driver/Inc/stm32g0xx_ll_ucpd.h **** #define LL_UCPD_RXORDSET_SOP1_DEBUG      (UCPD_RX_ORDSET_RXORDSET_0 | UCPD_RX_ORDSET_RXORDSET_1)
 278:Drivers/STM32G0xx_HAL_Driver/Inc/stm32g0xx_ll_ucpd.h **** #define LL_UCPD_RXORDSET_SOP2_DEBUG      UCPD_RX_ORDSET_RXORDSET_2
 279:Drivers/STM32G0xx_HAL_Driver/Inc/stm32g0xx_ll_ucpd.h **** #define LL_UCPD_RXORDSET_CABLE_RESET     (UCPD_RX_ORDSET_RXORDSET_2 | UCPD_RX_ORDSET_RXORDSET_0)
 280:Drivers/STM32G0xx_HAL_Driver/Inc/stm32g0xx_ll_ucpd.h **** #define LL_UCPD_RXORDSET_SOPEXT1         (UCPD_RX_ORDSET_RXORDSET_2 | UCPD_RX_ORDSET_RXORDSET_1)
 281:Drivers/STM32G0xx_HAL_Driver/Inc/stm32g0xx_ll_ucpd.h **** #define LL_UCPD_RXORDSET_SOPEXT2         (UCPD_RX_ORDSET_RXORDSET_2 | UCPD_RX_ORDSET_RXORDSET_1 | U
 282:Drivers/STM32G0xx_HAL_Driver/Inc/stm32g0xx_ll_ucpd.h **** /**
 283:Drivers/STM32G0xx_HAL_Driver/Inc/stm32g0xx_ll_ucpd.h ****   * @}
 284:Drivers/STM32G0xx_HAL_Driver/Inc/stm32g0xx_ll_ucpd.h ****   */
 285:Drivers/STM32G0xx_HAL_Driver/Inc/stm32g0xx_ll_ucpd.h **** 
 286:Drivers/STM32G0xx_HAL_Driver/Inc/stm32g0xx_ll_ucpd.h **** /**
 287:Drivers/STM32G0xx_HAL_Driver/Inc/stm32g0xx_ll_ucpd.h ****   * @}
 288:Drivers/STM32G0xx_HAL_Driver/Inc/stm32g0xx_ll_ucpd.h ****   */
 289:Drivers/STM32G0xx_HAL_Driver/Inc/stm32g0xx_ll_ucpd.h **** 
 290:Drivers/STM32G0xx_HAL_Driver/Inc/stm32g0xx_ll_ucpd.h **** /* Exported macro ------------------------------------------------------------*/
 291:Drivers/STM32G0xx_HAL_Driver/Inc/stm32g0xx_ll_ucpd.h **** /** @defgroup UCPD_LL_Exported_Macros UCPD Exported Macros
 292:Drivers/STM32G0xx_HAL_Driver/Inc/stm32g0xx_ll_ucpd.h ****   * @{
 293:Drivers/STM32G0xx_HAL_Driver/Inc/stm32g0xx_ll_ucpd.h ****   */
 294:Drivers/STM32G0xx_HAL_Driver/Inc/stm32g0xx_ll_ucpd.h **** 
 295:Drivers/STM32G0xx_HAL_Driver/Inc/stm32g0xx_ll_ucpd.h **** /** @defgroup UCPD_LL_EM_WRITE_READ Common Write and read registers Macros
 296:Drivers/STM32G0xx_HAL_Driver/Inc/stm32g0xx_ll_ucpd.h ****   * @{
 297:Drivers/STM32G0xx_HAL_Driver/Inc/stm32g0xx_ll_ucpd.h ****   */
 298:Drivers/STM32G0xx_HAL_Driver/Inc/stm32g0xx_ll_ucpd.h **** 
 299:Drivers/STM32G0xx_HAL_Driver/Inc/stm32g0xx_ll_ucpd.h **** /**
 300:Drivers/STM32G0xx_HAL_Driver/Inc/stm32g0xx_ll_ucpd.h ****   * @brief  Write a value in UCPD register
 301:Drivers/STM32G0xx_HAL_Driver/Inc/stm32g0xx_ll_ucpd.h ****   * @param  __INSTANCE__ UCPD Instance
 302:Drivers/STM32G0xx_HAL_Driver/Inc/stm32g0xx_ll_ucpd.h ****   * @param  __REG__ Register to be written
 303:Drivers/STM32G0xx_HAL_Driver/Inc/stm32g0xx_ll_ucpd.h ****   * @param  __VALUE__ Value to be written in the register
 304:Drivers/STM32G0xx_HAL_Driver/Inc/stm32g0xx_ll_ucpd.h ****   * @retval None
 305:Drivers/STM32G0xx_HAL_Driver/Inc/stm32g0xx_ll_ucpd.h ****   */
 306:Drivers/STM32G0xx_HAL_Driver/Inc/stm32g0xx_ll_ucpd.h **** #define LL_UCPD_WriteReg(__INSTANCE__, __REG__, __VALUE__) WRITE_REG((__INSTANCE__)->__REG__, (__VA
 307:Drivers/STM32G0xx_HAL_Driver/Inc/stm32g0xx_ll_ucpd.h **** 
 308:Drivers/STM32G0xx_HAL_Driver/Inc/stm32g0xx_ll_ucpd.h **** /**
 309:Drivers/STM32G0xx_HAL_Driver/Inc/stm32g0xx_ll_ucpd.h ****   * @brief  Read a value in UCPD register
 310:Drivers/STM32G0xx_HAL_Driver/Inc/stm32g0xx_ll_ucpd.h ****   * @param  __INSTANCE__ UCPD Instance
 311:Drivers/STM32G0xx_HAL_Driver/Inc/stm32g0xx_ll_ucpd.h ****   * @param  __REG__ Register to be read
 312:Drivers/STM32G0xx_HAL_Driver/Inc/stm32g0xx_ll_ucpd.h ****   * @retval Register value
 313:Drivers/STM32G0xx_HAL_Driver/Inc/stm32g0xx_ll_ucpd.h ****   */
 314:Drivers/STM32G0xx_HAL_Driver/Inc/stm32g0xx_ll_ucpd.h **** #define LL_UCPD_ReadReg(__INSTANCE__, __REG__) READ_REG((__INSTANCE__)->__REG__)
 315:Drivers/STM32G0xx_HAL_Driver/Inc/stm32g0xx_ll_ucpd.h **** /**
 316:Drivers/STM32G0xx_HAL_Driver/Inc/stm32g0xx_ll_ucpd.h ****   * @}
ARM GAS  /tmp/ccdnVxo0.s 			page 25


 317:Drivers/STM32G0xx_HAL_Driver/Inc/stm32g0xx_ll_ucpd.h ****   */
 318:Drivers/STM32G0xx_HAL_Driver/Inc/stm32g0xx_ll_ucpd.h **** 
 319:Drivers/STM32G0xx_HAL_Driver/Inc/stm32g0xx_ll_ucpd.h **** /**
 320:Drivers/STM32G0xx_HAL_Driver/Inc/stm32g0xx_ll_ucpd.h ****   * @}
 321:Drivers/STM32G0xx_HAL_Driver/Inc/stm32g0xx_ll_ucpd.h ****   */
 322:Drivers/STM32G0xx_HAL_Driver/Inc/stm32g0xx_ll_ucpd.h **** 
 323:Drivers/STM32G0xx_HAL_Driver/Inc/stm32g0xx_ll_ucpd.h **** /* Exported functions --------------------------------------------------------*/
 324:Drivers/STM32G0xx_HAL_Driver/Inc/stm32g0xx_ll_ucpd.h **** /** @defgroup UCPD_LL_Exported_Functions UCPD Exported Functions
 325:Drivers/STM32G0xx_HAL_Driver/Inc/stm32g0xx_ll_ucpd.h ****   * @{
 326:Drivers/STM32G0xx_HAL_Driver/Inc/stm32g0xx_ll_ucpd.h ****   */
 327:Drivers/STM32G0xx_HAL_Driver/Inc/stm32g0xx_ll_ucpd.h **** 
 328:Drivers/STM32G0xx_HAL_Driver/Inc/stm32g0xx_ll_ucpd.h **** /** @defgroup UCPD_LL_EF_Configuration Configuration
 329:Drivers/STM32G0xx_HAL_Driver/Inc/stm32g0xx_ll_ucpd.h ****   * @{
 330:Drivers/STM32G0xx_HAL_Driver/Inc/stm32g0xx_ll_ucpd.h ****   */
 331:Drivers/STM32G0xx_HAL_Driver/Inc/stm32g0xx_ll_ucpd.h **** 
 332:Drivers/STM32G0xx_HAL_Driver/Inc/stm32g0xx_ll_ucpd.h **** /** @defgroup UCPD_LL_EF_CFG1 CFG1 register
 333:Drivers/STM32G0xx_HAL_Driver/Inc/stm32g0xx_ll_ucpd.h ****   * @{
 334:Drivers/STM32G0xx_HAL_Driver/Inc/stm32g0xx_ll_ucpd.h ****   */
 335:Drivers/STM32G0xx_HAL_Driver/Inc/stm32g0xx_ll_ucpd.h **** /**
 336:Drivers/STM32G0xx_HAL_Driver/Inc/stm32g0xx_ll_ucpd.h ****   * @brief  Enable UCPD peripheral
 337:Drivers/STM32G0xx_HAL_Driver/Inc/stm32g0xx_ll_ucpd.h ****   * @rmtoll CFG1          UCPDEN           LL_UCPD_Enable
 338:Drivers/STM32G0xx_HAL_Driver/Inc/stm32g0xx_ll_ucpd.h ****   * @param  UCPDx UCPD Instance
 339:Drivers/STM32G0xx_HAL_Driver/Inc/stm32g0xx_ll_ucpd.h ****   * @retval None
 340:Drivers/STM32G0xx_HAL_Driver/Inc/stm32g0xx_ll_ucpd.h ****   */
 341:Drivers/STM32G0xx_HAL_Driver/Inc/stm32g0xx_ll_ucpd.h **** __STATIC_INLINE void LL_UCPD_Enable(UCPD_TypeDef *UCPDx)
 342:Drivers/STM32G0xx_HAL_Driver/Inc/stm32g0xx_ll_ucpd.h **** {
 343:Drivers/STM32G0xx_HAL_Driver/Inc/stm32g0xx_ll_ucpd.h ****   SET_BIT(UCPDx->CFG1, UCPD_CFG1_UCPDEN);
 344:Drivers/STM32G0xx_HAL_Driver/Inc/stm32g0xx_ll_ucpd.h **** }
 345:Drivers/STM32G0xx_HAL_Driver/Inc/stm32g0xx_ll_ucpd.h **** 
 346:Drivers/STM32G0xx_HAL_Driver/Inc/stm32g0xx_ll_ucpd.h **** /**
 347:Drivers/STM32G0xx_HAL_Driver/Inc/stm32g0xx_ll_ucpd.h ****   * @brief  Disable UCPD peripheral
 348:Drivers/STM32G0xx_HAL_Driver/Inc/stm32g0xx_ll_ucpd.h ****   * @note   When disabling the UCPD, follow the procedure described in the Reference Manual.
 349:Drivers/STM32G0xx_HAL_Driver/Inc/stm32g0xx_ll_ucpd.h ****   * @rmtoll CFG1          UCPDEN           LL_UCPD_Disable
 350:Drivers/STM32G0xx_HAL_Driver/Inc/stm32g0xx_ll_ucpd.h ****   * @param  UCPDx UCPD Instance
 351:Drivers/STM32G0xx_HAL_Driver/Inc/stm32g0xx_ll_ucpd.h ****   * @retval None
 352:Drivers/STM32G0xx_HAL_Driver/Inc/stm32g0xx_ll_ucpd.h ****   */
 353:Drivers/STM32G0xx_HAL_Driver/Inc/stm32g0xx_ll_ucpd.h **** __STATIC_INLINE void LL_UCPD_Disable(UCPD_TypeDef *UCPDx)
 181              		.loc 3 353 22 view .LVU40
 182              	.LBB113:
 354:Drivers/STM32G0xx_HAL_Driver/Inc/stm32g0xx_ll_ucpd.h **** {
 355:Drivers/STM32G0xx_HAL_Driver/Inc/stm32g0xx_ll_ucpd.h ****   CLEAR_BIT(UCPDx->CFG1, UCPD_CFG1_UCPDEN);
 183              		.loc 3 355 3 view .LVU41
 184 000c 1A68     		ldr	r2, [r3]
 185 000e 5200     		lsls	r2, r2, #1
 186 0010 5208     		lsrs	r2, r2, #1
 187 0012 1A60     		str	r2, [r3]
 188              	.LVL8:
 189              		.loc 3 355 3 is_stmt 0 view .LVU42
 190              	.LBE113:
 191              	.LBE112:
  59:Middlewares/ST/STM32_USBPD_Library/Devices/STM32G0XX/src/usbpd_phy_hw_if.c **** 
 192              		.loc 2 59 3 is_stmt 1 view .LVU43
 193              	.LBB114:
 194              	.LBI114:
 341:Drivers/STM32G0xx_HAL_Driver/Inc/stm32g0xx_ll_ucpd.h **** {
 195              		.loc 3 341 22 view .LVU44
 196              	.LBB115:
ARM GAS  /tmp/ccdnVxo0.s 			page 26


 343:Drivers/STM32G0xx_HAL_Driver/Inc/stm32g0xx_ll_ucpd.h **** }
 197              		.loc 3 343 3 view .LVU45
 198 0014 8022     		movs	r2, #128
 199 0016 1868     		ldr	r0, [r3]
 200 0018 1206     		lsls	r2, r2, #24
 201 001a 0243     		orrs	r2, r0
 202 001c 1A60     		str	r2, [r3]
 203              	.LVL9:
 343:Drivers/STM32G0xx_HAL_Driver/Inc/stm32g0xx_ll_ucpd.h **** }
 204              		.loc 3 343 3 is_stmt 0 view .LVU46
 205              	.LBE115:
 206              	.LBE114:
  61:Middlewares/ST/STM32_USBPD_Library/Devices/STM32G0XX/src/usbpd_phy_hw_if.c **** }
 207              		.loc 2 61 3 is_stmt 1 view .LVU47
  61:Middlewares/ST/STM32_USBPD_Library/Devices/STM32G0XX/src/usbpd_phy_hw_if.c **** }
 208              		.loc 2 61 29 is_stmt 0 view .LVU48
 209 001e D960     		str	r1, [r3, #12]
 210              		.loc 2 62 1 view .LVU49
 211 0020 7047     		bx	lr
 212              	.L9:
 213 0022 C046     		.align	2
 214              	.L8:
 215 0024 00000000 		.word	Ports
 216              		.cfi_endproc
 217              	.LFE830:
 219              		.section	.text.USBPD_HW_IF_SendBuffer,"ax",%progbits
 220              		.align	1
 221              		.global	USBPD_HW_IF_SendBuffer
 222              		.syntax unified
 223              		.code	16
 224              		.thumb_func
 225              		.fpu softvfp
 227              	USBPD_HW_IF_SendBuffer:
 228              	.LVL10:
 229              	.LFB831:
  63:Middlewares/ST/STM32_USBPD_Library/Devices/STM32G0XX/src/usbpd_phy_hw_if.c **** 
  64:Middlewares/ST/STM32_USBPD_Library/Devices/STM32G0XX/src/usbpd_phy_hw_if.c **** USBPD_StatusTypeDef USBPD_HW_IF_SendBuffer(uint8_t PortNum, USBPD_SOPType_TypeDef Type, uint8_t *pB
  65:Middlewares/ST/STM32_USBPD_Library/Devices/STM32G0XX/src/usbpd_phy_hw_if.c **** {
 230              		.loc 2 65 1 is_stmt 1 view -0
 231              		.cfi_startproc
 232              		@ args = 0, pretend = 0, frame = 0
 233              		@ frame_needed = 0, uses_anonymous_args = 0
  66:Middlewares/ST/STM32_USBPD_Library/Devices/STM32G0XX/src/usbpd_phy_hw_if.c ****   USBPD_StatusTypeDef _status = USBPD_OK;
 234              		.loc 2 66 3 view .LVU51
  67:Middlewares/ST/STM32_USBPD_Library/Devices/STM32G0XX/src/usbpd_phy_hw_if.c **** 
  68:Middlewares/ST/STM32_USBPD_Library/Devices/STM32G0XX/src/usbpd_phy_hw_if.c ****   if (USBPD_SOPTYPE_HARD_RESET == Type)
 235              		.loc 2 68 3 view .LVU52
  65:Middlewares/ST/STM32_USBPD_Library/Devices/STM32G0XX/src/usbpd_phy_hw_if.c ****   USBPD_StatusTypeDef _status = USBPD_OK;
 236              		.loc 2 65 1 is_stmt 0 view .LVU53
 237 0000 30B5     		push	{r4, r5, lr}
 238              	.LCFI2:
 239              		.cfi_def_cfa_offset 12
 240              		.cfi_offset 4, -12
 241              		.cfi_offset 5, -8
 242              		.cfi_offset 14, -4
  65:Middlewares/ST/STM32_USBPD_Library/Devices/STM32G0XX/src/usbpd_phy_hw_if.c ****   USBPD_StatusTypeDef _status = USBPD_OK;
 243              		.loc 2 65 1 view .LVU54
ARM GAS  /tmp/ccdnVxo0.s 			page 27


 244 0002 0400     		movs	r4, r0
 245 0004 0800     		movs	r0, r1
 246              	.LVL11:
 247              		.loc 2 68 6 view .LVU55
 248 0006 0529     		cmp	r1, #5
 249 0008 08D1     		bne	.L11
  69:Middlewares/ST/STM32_USBPD_Library/Devices/STM32G0XX/src/usbpd_phy_hw_if.c ****   {
  70:Middlewares/ST/STM32_USBPD_Library/Devices/STM32G0XX/src/usbpd_phy_hw_if.c ****     LL_UCPD_SendHardReset(Ports[PortNum].husbpd);
 250              		.loc 2 70 5 is_stmt 1 view .LVU56
 251 000a 244B     		ldr	r3, .L24
 252              	.LVL12:
 253              		.loc 2 70 5 is_stmt 0 view .LVU57
 254 000c A401     		lsls	r4, r4, #6
 255 000e E258     		ldr	r2, [r4, r3]
 256              	.LVL13:
 257              	.LBB116:
 258              	.LBI116:
 356:Drivers/STM32G0xx_HAL_Driver/Inc/stm32g0xx_ll_ucpd.h **** }
 357:Drivers/STM32G0xx_HAL_Driver/Inc/stm32g0xx_ll_ucpd.h **** 
 358:Drivers/STM32G0xx_HAL_Driver/Inc/stm32g0xx_ll_ucpd.h **** /**
 359:Drivers/STM32G0xx_HAL_Driver/Inc/stm32g0xx_ll_ucpd.h ****   * @brief  Check if UCPD peripheral is enabled
 360:Drivers/STM32G0xx_HAL_Driver/Inc/stm32g0xx_ll_ucpd.h ****   * @rmtoll CFG1          UCPDEN           LL_UCPD_IsEnabled
 361:Drivers/STM32G0xx_HAL_Driver/Inc/stm32g0xx_ll_ucpd.h ****   * @param  UCPDx UCPD Instance
 362:Drivers/STM32G0xx_HAL_Driver/Inc/stm32g0xx_ll_ucpd.h ****   * @retval State of bit (1 or 0).
 363:Drivers/STM32G0xx_HAL_Driver/Inc/stm32g0xx_ll_ucpd.h ****   */
 364:Drivers/STM32G0xx_HAL_Driver/Inc/stm32g0xx_ll_ucpd.h **** __STATIC_INLINE uint32_t LL_UCPD_IsEnabled(UCPD_TypeDef const * const UCPDx)
 365:Drivers/STM32G0xx_HAL_Driver/Inc/stm32g0xx_ll_ucpd.h **** {
 366:Drivers/STM32G0xx_HAL_Driver/Inc/stm32g0xx_ll_ucpd.h ****   return ((READ_BIT(UCPDx->CFG1, UCPD_CFG1_UCPDEN) == (UCPD_CFG1_UCPDEN)) ? 1UL : 0UL);
 367:Drivers/STM32G0xx_HAL_Driver/Inc/stm32g0xx_ll_ucpd.h **** }
 368:Drivers/STM32G0xx_HAL_Driver/Inc/stm32g0xx_ll_ucpd.h **** 
 369:Drivers/STM32G0xx_HAL_Driver/Inc/stm32g0xx_ll_ucpd.h **** /**
 370:Drivers/STM32G0xx_HAL_Driver/Inc/stm32g0xx_ll_ucpd.h ****   * @brief  Set the receiver ordered set detection enable
 371:Drivers/STM32G0xx_HAL_Driver/Inc/stm32g0xx_ll_ucpd.h ****   * @rmtoll CFG1          RXORDSETEN          LL_UCPD_SetRxOrderSet
 372:Drivers/STM32G0xx_HAL_Driver/Inc/stm32g0xx_ll_ucpd.h ****   * @param  UCPDx UCPD Instance
 373:Drivers/STM32G0xx_HAL_Driver/Inc/stm32g0xx_ll_ucpd.h ****   * @param  OrderSet This parameter can be combination of the following values:
 374:Drivers/STM32G0xx_HAL_Driver/Inc/stm32g0xx_ll_ucpd.h ****   *         @arg @ref LL_UCPD_ORDERSET_SOP
 375:Drivers/STM32G0xx_HAL_Driver/Inc/stm32g0xx_ll_ucpd.h ****   *         @arg @ref LL_UCPD_ORDERSET_SOP1
 376:Drivers/STM32G0xx_HAL_Driver/Inc/stm32g0xx_ll_ucpd.h ****   *         @arg @ref LL_UCPD_ORDERSET_SOP2
 377:Drivers/STM32G0xx_HAL_Driver/Inc/stm32g0xx_ll_ucpd.h ****   *         @arg @ref LL_UCPD_ORDERSET_HARDRST
 378:Drivers/STM32G0xx_HAL_Driver/Inc/stm32g0xx_ll_ucpd.h ****   *         @arg @ref LL_UCPD_ORDERSET_CABLERST
 379:Drivers/STM32G0xx_HAL_Driver/Inc/stm32g0xx_ll_ucpd.h ****   *         @arg @ref LL_UCPD_ORDERSET_SOP1_DEBUG
 380:Drivers/STM32G0xx_HAL_Driver/Inc/stm32g0xx_ll_ucpd.h ****   *         @arg @ref LL_UCPD_ORDERSET_SOP2_DEBUG
 381:Drivers/STM32G0xx_HAL_Driver/Inc/stm32g0xx_ll_ucpd.h ****   *         @arg @ref LL_UCPD_ORDERSET_SOP_EXT1
 382:Drivers/STM32G0xx_HAL_Driver/Inc/stm32g0xx_ll_ucpd.h ****   *         @arg @ref LL_UCPD_ORDERSET_SOP_EXT2
 383:Drivers/STM32G0xx_HAL_Driver/Inc/stm32g0xx_ll_ucpd.h ****   * @retval None
 384:Drivers/STM32G0xx_HAL_Driver/Inc/stm32g0xx_ll_ucpd.h ****   */
 385:Drivers/STM32G0xx_HAL_Driver/Inc/stm32g0xx_ll_ucpd.h **** __STATIC_INLINE void LL_UCPD_SetRxOrderSet(UCPD_TypeDef *UCPDx, uint32_t OrderSet)
 386:Drivers/STM32G0xx_HAL_Driver/Inc/stm32g0xx_ll_ucpd.h **** {
 387:Drivers/STM32G0xx_HAL_Driver/Inc/stm32g0xx_ll_ucpd.h ****   MODIFY_REG(UCPDx->CFG1, UCPD_CFG1_RXORDSETEN, OrderSet);
 388:Drivers/STM32G0xx_HAL_Driver/Inc/stm32g0xx_ll_ucpd.h **** }
 389:Drivers/STM32G0xx_HAL_Driver/Inc/stm32g0xx_ll_ucpd.h **** 
 390:Drivers/STM32G0xx_HAL_Driver/Inc/stm32g0xx_ll_ucpd.h **** /**
 391:Drivers/STM32G0xx_HAL_Driver/Inc/stm32g0xx_ll_ucpd.h ****   * @brief  Set the prescaler for ucpd clock
 392:Drivers/STM32G0xx_HAL_Driver/Inc/stm32g0xx_ll_ucpd.h ****   * @rmtoll CFG1          UCPDCLK          LL_UCPD_SetPSCClk
 393:Drivers/STM32G0xx_HAL_Driver/Inc/stm32g0xx_ll_ucpd.h ****   * @param  UCPDx UCPD Instance
 394:Drivers/STM32G0xx_HAL_Driver/Inc/stm32g0xx_ll_ucpd.h ****   * @param  Psc This parameter can be one of the following values:
 395:Drivers/STM32G0xx_HAL_Driver/Inc/stm32g0xx_ll_ucpd.h ****   *         @arg @ref LL_UCPD_PSC_DIV1
ARM GAS  /tmp/ccdnVxo0.s 			page 28


 396:Drivers/STM32G0xx_HAL_Driver/Inc/stm32g0xx_ll_ucpd.h ****   *         @arg @ref LL_UCPD_PSC_DIV2
 397:Drivers/STM32G0xx_HAL_Driver/Inc/stm32g0xx_ll_ucpd.h ****   *         @arg @ref LL_UCPD_PSC_DIV4
 398:Drivers/STM32G0xx_HAL_Driver/Inc/stm32g0xx_ll_ucpd.h ****   *         @arg @ref LL_UCPD_PSC_DIV8
 399:Drivers/STM32G0xx_HAL_Driver/Inc/stm32g0xx_ll_ucpd.h ****   *         @arg @ref LL_UCPD_PSC_DIV16
 400:Drivers/STM32G0xx_HAL_Driver/Inc/stm32g0xx_ll_ucpd.h ****   * @retval None
 401:Drivers/STM32G0xx_HAL_Driver/Inc/stm32g0xx_ll_ucpd.h ****   */
 402:Drivers/STM32G0xx_HAL_Driver/Inc/stm32g0xx_ll_ucpd.h **** __STATIC_INLINE void LL_UCPD_SetPSCClk(UCPD_TypeDef *UCPDx, uint32_t Psc)
 403:Drivers/STM32G0xx_HAL_Driver/Inc/stm32g0xx_ll_ucpd.h **** {
 404:Drivers/STM32G0xx_HAL_Driver/Inc/stm32g0xx_ll_ucpd.h ****   MODIFY_REG(UCPDx->CFG1, UCPD_CFG1_PSC_UCPDCLK, Psc);
 405:Drivers/STM32G0xx_HAL_Driver/Inc/stm32g0xx_ll_ucpd.h **** }
 406:Drivers/STM32G0xx_HAL_Driver/Inc/stm32g0xx_ll_ucpd.h **** 
 407:Drivers/STM32G0xx_HAL_Driver/Inc/stm32g0xx_ll_ucpd.h **** /**
 408:Drivers/STM32G0xx_HAL_Driver/Inc/stm32g0xx_ll_ucpd.h ****   * @brief  Set the number of cycles (minus 1) of the half bit clock
 409:Drivers/STM32G0xx_HAL_Driver/Inc/stm32g0xx_ll_ucpd.h ****   * @rmtoll CFG1          TRANSWIN          LL_UCPD_SetTransWin
 410:Drivers/STM32G0xx_HAL_Driver/Inc/stm32g0xx_ll_ucpd.h ****   * @param  UCPDx UCPD Instance
 411:Drivers/STM32G0xx_HAL_Driver/Inc/stm32g0xx_ll_ucpd.h ****   * @param  TransWin a value between Min_Data=0x1 and Max_Data=0x1F
 412:Drivers/STM32G0xx_HAL_Driver/Inc/stm32g0xx_ll_ucpd.h ****   * @retval None
 413:Drivers/STM32G0xx_HAL_Driver/Inc/stm32g0xx_ll_ucpd.h ****   */
 414:Drivers/STM32G0xx_HAL_Driver/Inc/stm32g0xx_ll_ucpd.h **** __STATIC_INLINE void LL_UCPD_SetTransWin(UCPD_TypeDef *UCPDx, uint32_t TransWin)
 415:Drivers/STM32G0xx_HAL_Driver/Inc/stm32g0xx_ll_ucpd.h **** {
 416:Drivers/STM32G0xx_HAL_Driver/Inc/stm32g0xx_ll_ucpd.h ****   MODIFY_REG(UCPDx->CFG1, UCPD_CFG1_TRANSWIN, TransWin << UCPD_CFG1_TRANSWIN_Pos);
 417:Drivers/STM32G0xx_HAL_Driver/Inc/stm32g0xx_ll_ucpd.h **** }
 418:Drivers/STM32G0xx_HAL_Driver/Inc/stm32g0xx_ll_ucpd.h **** 
 419:Drivers/STM32G0xx_HAL_Driver/Inc/stm32g0xx_ll_ucpd.h **** /**
 420:Drivers/STM32G0xx_HAL_Driver/Inc/stm32g0xx_ll_ucpd.h ****   * @brief  Set the clock divider value to generate an interframe gap
 421:Drivers/STM32G0xx_HAL_Driver/Inc/stm32g0xx_ll_ucpd.h ****   * @rmtoll CFG1          IFRGAP          LL_UCPD_SetIfrGap
 422:Drivers/STM32G0xx_HAL_Driver/Inc/stm32g0xx_ll_ucpd.h ****   * @param  UCPDx UCPD Instance
 423:Drivers/STM32G0xx_HAL_Driver/Inc/stm32g0xx_ll_ucpd.h ****   * @param  IfrGap a value between Min_Data=0x1 and Max_Data=0x1F
 424:Drivers/STM32G0xx_HAL_Driver/Inc/stm32g0xx_ll_ucpd.h ****   * @retval None
 425:Drivers/STM32G0xx_HAL_Driver/Inc/stm32g0xx_ll_ucpd.h ****   */
 426:Drivers/STM32G0xx_HAL_Driver/Inc/stm32g0xx_ll_ucpd.h **** __STATIC_INLINE void LL_UCPD_SetIfrGap(UCPD_TypeDef *UCPDx, uint32_t IfrGap)
 427:Drivers/STM32G0xx_HAL_Driver/Inc/stm32g0xx_ll_ucpd.h **** {
 428:Drivers/STM32G0xx_HAL_Driver/Inc/stm32g0xx_ll_ucpd.h ****   MODIFY_REG(UCPDx->CFG1, UCPD_CFG1_IFRGAP, IfrGap << UCPD_CFG1_IFRGAP_Pos);
 429:Drivers/STM32G0xx_HAL_Driver/Inc/stm32g0xx_ll_ucpd.h **** }
 430:Drivers/STM32G0xx_HAL_Driver/Inc/stm32g0xx_ll_ucpd.h **** 
 431:Drivers/STM32G0xx_HAL_Driver/Inc/stm32g0xx_ll_ucpd.h **** /**
 432:Drivers/STM32G0xx_HAL_Driver/Inc/stm32g0xx_ll_ucpd.h ****   * @brief  Set the clock divider value to generate an interframe gap
 433:Drivers/STM32G0xx_HAL_Driver/Inc/stm32g0xx_ll_ucpd.h ****   * @rmtoll CFG1          HBITCLKDIV          LL_UCPD_SetHbitClockDiv
 434:Drivers/STM32G0xx_HAL_Driver/Inc/stm32g0xx_ll_ucpd.h ****   * @param  UCPDx UCPD Instance
 435:Drivers/STM32G0xx_HAL_Driver/Inc/stm32g0xx_ll_ucpd.h ****   * @param  HbitClock a value between Min_Data=0x0 and Max_Data=0x3F
 436:Drivers/STM32G0xx_HAL_Driver/Inc/stm32g0xx_ll_ucpd.h ****   * @retval None
 437:Drivers/STM32G0xx_HAL_Driver/Inc/stm32g0xx_ll_ucpd.h ****   */
 438:Drivers/STM32G0xx_HAL_Driver/Inc/stm32g0xx_ll_ucpd.h **** __STATIC_INLINE void LL_UCPD_SetHbitClockDiv(UCPD_TypeDef *UCPDx, uint32_t HbitClock)
 439:Drivers/STM32G0xx_HAL_Driver/Inc/stm32g0xx_ll_ucpd.h **** {
 440:Drivers/STM32G0xx_HAL_Driver/Inc/stm32g0xx_ll_ucpd.h ****   MODIFY_REG(UCPDx->CFG1, UCPD_CFG1_HBITCLKDIV, HbitClock << UCPD_CFG1_HBITCLKDIV_Pos);
 441:Drivers/STM32G0xx_HAL_Driver/Inc/stm32g0xx_ll_ucpd.h **** }
 442:Drivers/STM32G0xx_HAL_Driver/Inc/stm32g0xx_ll_ucpd.h **** 
 443:Drivers/STM32G0xx_HAL_Driver/Inc/stm32g0xx_ll_ucpd.h **** /**
 444:Drivers/STM32G0xx_HAL_Driver/Inc/stm32g0xx_ll_ucpd.h ****   * @}
 445:Drivers/STM32G0xx_HAL_Driver/Inc/stm32g0xx_ll_ucpd.h ****   */
 446:Drivers/STM32G0xx_HAL_Driver/Inc/stm32g0xx_ll_ucpd.h **** 
 447:Drivers/STM32G0xx_HAL_Driver/Inc/stm32g0xx_ll_ucpd.h **** /** @defgroup UCPD_LL_EF_CFG2 CFG2 register
 448:Drivers/STM32G0xx_HAL_Driver/Inc/stm32g0xx_ll_ucpd.h ****   * @{
 449:Drivers/STM32G0xx_HAL_Driver/Inc/stm32g0xx_ll_ucpd.h ****   */
 450:Drivers/STM32G0xx_HAL_Driver/Inc/stm32g0xx_ll_ucpd.h **** 
 451:Drivers/STM32G0xx_HAL_Driver/Inc/stm32g0xx_ll_ucpd.h **** /**
 452:Drivers/STM32G0xx_HAL_Driver/Inc/stm32g0xx_ll_ucpd.h ****   * @brief  Enable the wakeup mode
ARM GAS  /tmp/ccdnVxo0.s 			page 29


 453:Drivers/STM32G0xx_HAL_Driver/Inc/stm32g0xx_ll_ucpd.h ****   * @rmtoll CFG2          WUPEN          LL_UCPD_WakeUpEnable
 454:Drivers/STM32G0xx_HAL_Driver/Inc/stm32g0xx_ll_ucpd.h ****   * @param  UCPDx UCPD Instance
 455:Drivers/STM32G0xx_HAL_Driver/Inc/stm32g0xx_ll_ucpd.h ****   * @retval None
 456:Drivers/STM32G0xx_HAL_Driver/Inc/stm32g0xx_ll_ucpd.h ****   */
 457:Drivers/STM32G0xx_HAL_Driver/Inc/stm32g0xx_ll_ucpd.h **** __STATIC_INLINE void LL_UCPD_WakeUpEnable(UCPD_TypeDef *UCPDx)
 458:Drivers/STM32G0xx_HAL_Driver/Inc/stm32g0xx_ll_ucpd.h **** {
 459:Drivers/STM32G0xx_HAL_Driver/Inc/stm32g0xx_ll_ucpd.h ****   SET_BIT(UCPDx->CFG2, UCPD_CFG2_WUPEN);
 460:Drivers/STM32G0xx_HAL_Driver/Inc/stm32g0xx_ll_ucpd.h **** }
 461:Drivers/STM32G0xx_HAL_Driver/Inc/stm32g0xx_ll_ucpd.h **** 
 462:Drivers/STM32G0xx_HAL_Driver/Inc/stm32g0xx_ll_ucpd.h **** /**
 463:Drivers/STM32G0xx_HAL_Driver/Inc/stm32g0xx_ll_ucpd.h ****   * @brief  Disable the wakeup mode
 464:Drivers/STM32G0xx_HAL_Driver/Inc/stm32g0xx_ll_ucpd.h ****   * @rmtoll CFG2          WUPEN          LL_UCPD_WakeUpDisable
 465:Drivers/STM32G0xx_HAL_Driver/Inc/stm32g0xx_ll_ucpd.h ****   * @param  UCPDx UCPD Instance
 466:Drivers/STM32G0xx_HAL_Driver/Inc/stm32g0xx_ll_ucpd.h ****   * @retval None
 467:Drivers/STM32G0xx_HAL_Driver/Inc/stm32g0xx_ll_ucpd.h ****   */
 468:Drivers/STM32G0xx_HAL_Driver/Inc/stm32g0xx_ll_ucpd.h **** __STATIC_INLINE void LL_UCPD_WakeUpDisable(UCPD_TypeDef *UCPDx)
 469:Drivers/STM32G0xx_HAL_Driver/Inc/stm32g0xx_ll_ucpd.h **** {
 470:Drivers/STM32G0xx_HAL_Driver/Inc/stm32g0xx_ll_ucpd.h ****   CLEAR_BIT(UCPDx->CFG2, UCPD_CFG2_WUPEN);
 471:Drivers/STM32G0xx_HAL_Driver/Inc/stm32g0xx_ll_ucpd.h **** }
 472:Drivers/STM32G0xx_HAL_Driver/Inc/stm32g0xx_ll_ucpd.h **** 
 473:Drivers/STM32G0xx_HAL_Driver/Inc/stm32g0xx_ll_ucpd.h **** /**
 474:Drivers/STM32G0xx_HAL_Driver/Inc/stm32g0xx_ll_ucpd.h ****   * @brief  Force clock enable
 475:Drivers/STM32G0xx_HAL_Driver/Inc/stm32g0xx_ll_ucpd.h ****   * @rmtoll CFG2          FORCECLK          LL_UCPD_ForceClockEnable
 476:Drivers/STM32G0xx_HAL_Driver/Inc/stm32g0xx_ll_ucpd.h ****   * @param  UCPDx UCPD Instance
 477:Drivers/STM32G0xx_HAL_Driver/Inc/stm32g0xx_ll_ucpd.h ****   * @retval None
 478:Drivers/STM32G0xx_HAL_Driver/Inc/stm32g0xx_ll_ucpd.h ****   */
 479:Drivers/STM32G0xx_HAL_Driver/Inc/stm32g0xx_ll_ucpd.h **** __STATIC_INLINE void LL_UCPD_ForceClockEnable(UCPD_TypeDef *UCPDx)
 480:Drivers/STM32G0xx_HAL_Driver/Inc/stm32g0xx_ll_ucpd.h **** {
 481:Drivers/STM32G0xx_HAL_Driver/Inc/stm32g0xx_ll_ucpd.h ****   SET_BIT(UCPDx->CFG2, UCPD_CFG2_FORCECLK);
 482:Drivers/STM32G0xx_HAL_Driver/Inc/stm32g0xx_ll_ucpd.h **** }
 483:Drivers/STM32G0xx_HAL_Driver/Inc/stm32g0xx_ll_ucpd.h **** 
 484:Drivers/STM32G0xx_HAL_Driver/Inc/stm32g0xx_ll_ucpd.h **** /**
 485:Drivers/STM32G0xx_HAL_Driver/Inc/stm32g0xx_ll_ucpd.h ****   * @brief  Force clock disable
 486:Drivers/STM32G0xx_HAL_Driver/Inc/stm32g0xx_ll_ucpd.h ****   * @rmtoll CFG2          FORCECLK          LL_UCPD_ForceClockDisable
 487:Drivers/STM32G0xx_HAL_Driver/Inc/stm32g0xx_ll_ucpd.h ****   * @param  UCPDx UCPD Instance
 488:Drivers/STM32G0xx_HAL_Driver/Inc/stm32g0xx_ll_ucpd.h ****   * @retval None
 489:Drivers/STM32G0xx_HAL_Driver/Inc/stm32g0xx_ll_ucpd.h ****   */
 490:Drivers/STM32G0xx_HAL_Driver/Inc/stm32g0xx_ll_ucpd.h **** __STATIC_INLINE void LL_UCPD_ForceClockDisable(UCPD_TypeDef *UCPDx)
 491:Drivers/STM32G0xx_HAL_Driver/Inc/stm32g0xx_ll_ucpd.h **** {
 492:Drivers/STM32G0xx_HAL_Driver/Inc/stm32g0xx_ll_ucpd.h ****   CLEAR_BIT(UCPDx->CFG2, UCPD_CFG2_FORCECLK);
 493:Drivers/STM32G0xx_HAL_Driver/Inc/stm32g0xx_ll_ucpd.h **** }
 494:Drivers/STM32G0xx_HAL_Driver/Inc/stm32g0xx_ll_ucpd.h **** 
 495:Drivers/STM32G0xx_HAL_Driver/Inc/stm32g0xx_ll_ucpd.h **** /**
 496:Drivers/STM32G0xx_HAL_Driver/Inc/stm32g0xx_ll_ucpd.h ****   * @brief  RxFilter enable
 497:Drivers/STM32G0xx_HAL_Driver/Inc/stm32g0xx_ll_ucpd.h ****   * @rmtoll CFG2          RXFILTDIS          LL_UCPD_RxFilterEnable
 498:Drivers/STM32G0xx_HAL_Driver/Inc/stm32g0xx_ll_ucpd.h ****   * @param  UCPDx UCPD Instance
 499:Drivers/STM32G0xx_HAL_Driver/Inc/stm32g0xx_ll_ucpd.h ****   * @retval None
 500:Drivers/STM32G0xx_HAL_Driver/Inc/stm32g0xx_ll_ucpd.h ****   */
 501:Drivers/STM32G0xx_HAL_Driver/Inc/stm32g0xx_ll_ucpd.h **** __STATIC_INLINE void LL_UCPD_RxFilterEnable(UCPD_TypeDef *UCPDx)
 502:Drivers/STM32G0xx_HAL_Driver/Inc/stm32g0xx_ll_ucpd.h **** {
 503:Drivers/STM32G0xx_HAL_Driver/Inc/stm32g0xx_ll_ucpd.h ****   CLEAR_BIT(UCPDx->CFG2, UCPD_CFG2_RXFILTDIS);
 504:Drivers/STM32G0xx_HAL_Driver/Inc/stm32g0xx_ll_ucpd.h **** }
 505:Drivers/STM32G0xx_HAL_Driver/Inc/stm32g0xx_ll_ucpd.h **** 
 506:Drivers/STM32G0xx_HAL_Driver/Inc/stm32g0xx_ll_ucpd.h **** /**
 507:Drivers/STM32G0xx_HAL_Driver/Inc/stm32g0xx_ll_ucpd.h ****   * @brief  RxFilter disable
 508:Drivers/STM32G0xx_HAL_Driver/Inc/stm32g0xx_ll_ucpd.h ****   * @rmtoll CFG2          RXFILTDIS          LL_UCPD_RxFilterDisable
 509:Drivers/STM32G0xx_HAL_Driver/Inc/stm32g0xx_ll_ucpd.h ****   * @param  UCPDx UCPD Instance
ARM GAS  /tmp/ccdnVxo0.s 			page 30


 510:Drivers/STM32G0xx_HAL_Driver/Inc/stm32g0xx_ll_ucpd.h ****   * @retval None
 511:Drivers/STM32G0xx_HAL_Driver/Inc/stm32g0xx_ll_ucpd.h ****   */
 512:Drivers/STM32G0xx_HAL_Driver/Inc/stm32g0xx_ll_ucpd.h **** __STATIC_INLINE void LL_UCPD_RxFilterDisable(UCPD_TypeDef *UCPDx)
 513:Drivers/STM32G0xx_HAL_Driver/Inc/stm32g0xx_ll_ucpd.h **** {
 514:Drivers/STM32G0xx_HAL_Driver/Inc/stm32g0xx_ll_ucpd.h ****   SET_BIT(UCPDx->CFG2, UCPD_CFG2_RXFILTDIS);
 515:Drivers/STM32G0xx_HAL_Driver/Inc/stm32g0xx_ll_ucpd.h **** }
 516:Drivers/STM32G0xx_HAL_Driver/Inc/stm32g0xx_ll_ucpd.h **** 
 517:Drivers/STM32G0xx_HAL_Driver/Inc/stm32g0xx_ll_ucpd.h **** /**
 518:Drivers/STM32G0xx_HAL_Driver/Inc/stm32g0xx_ll_ucpd.h ****   * @}
 519:Drivers/STM32G0xx_HAL_Driver/Inc/stm32g0xx_ll_ucpd.h ****   */
 520:Drivers/STM32G0xx_HAL_Driver/Inc/stm32g0xx_ll_ucpd.h **** 
 521:Drivers/STM32G0xx_HAL_Driver/Inc/stm32g0xx_ll_ucpd.h **** /**
 522:Drivers/STM32G0xx_HAL_Driver/Inc/stm32g0xx_ll_ucpd.h ****   * @}
 523:Drivers/STM32G0xx_HAL_Driver/Inc/stm32g0xx_ll_ucpd.h ****   */
 524:Drivers/STM32G0xx_HAL_Driver/Inc/stm32g0xx_ll_ucpd.h **** 
 525:Drivers/STM32G0xx_HAL_Driver/Inc/stm32g0xx_ll_ucpd.h **** /** @defgroup UCPD_LL_EF_CR CR register
 526:Drivers/STM32G0xx_HAL_Driver/Inc/stm32g0xx_ll_ucpd.h ****   * @{
 527:Drivers/STM32G0xx_HAL_Driver/Inc/stm32g0xx_ll_ucpd.h ****   */
 528:Drivers/STM32G0xx_HAL_Driver/Inc/stm32g0xx_ll_ucpd.h **** /**
 529:Drivers/STM32G0xx_HAL_Driver/Inc/stm32g0xx_ll_ucpd.h ****   * @brief  Type C detector for CC2 enable
 530:Drivers/STM32G0xx_HAL_Driver/Inc/stm32g0xx_ll_ucpd.h ****   * @rmtoll CR          CC2TCDIS          LL_UCPD_TypeCDetectionCC2Enable
 531:Drivers/STM32G0xx_HAL_Driver/Inc/stm32g0xx_ll_ucpd.h ****   * @param  UCPDx UCPD Instance
 532:Drivers/STM32G0xx_HAL_Driver/Inc/stm32g0xx_ll_ucpd.h ****   * @retval None
 533:Drivers/STM32G0xx_HAL_Driver/Inc/stm32g0xx_ll_ucpd.h ****   */
 534:Drivers/STM32G0xx_HAL_Driver/Inc/stm32g0xx_ll_ucpd.h **** __STATIC_INLINE void LL_UCPD_TypeCDetectionCC2Enable(UCPD_TypeDef *UCPDx)
 535:Drivers/STM32G0xx_HAL_Driver/Inc/stm32g0xx_ll_ucpd.h **** {
 536:Drivers/STM32G0xx_HAL_Driver/Inc/stm32g0xx_ll_ucpd.h ****   CLEAR_BIT(UCPDx->CR, UCPD_CR_CC2TCDIS);
 537:Drivers/STM32G0xx_HAL_Driver/Inc/stm32g0xx_ll_ucpd.h **** }
 538:Drivers/STM32G0xx_HAL_Driver/Inc/stm32g0xx_ll_ucpd.h **** 
 539:Drivers/STM32G0xx_HAL_Driver/Inc/stm32g0xx_ll_ucpd.h **** /**
 540:Drivers/STM32G0xx_HAL_Driver/Inc/stm32g0xx_ll_ucpd.h ****   * @brief  Type C detector for CC2 disable
 541:Drivers/STM32G0xx_HAL_Driver/Inc/stm32g0xx_ll_ucpd.h ****   * @rmtoll CR          CC2TCDIS          LL_UCPD_TypeCDetectionCC2Disable
 542:Drivers/STM32G0xx_HAL_Driver/Inc/stm32g0xx_ll_ucpd.h ****   * @param  UCPDx UCPD Instance
 543:Drivers/STM32G0xx_HAL_Driver/Inc/stm32g0xx_ll_ucpd.h ****   * @retval None
 544:Drivers/STM32G0xx_HAL_Driver/Inc/stm32g0xx_ll_ucpd.h ****   */
 545:Drivers/STM32G0xx_HAL_Driver/Inc/stm32g0xx_ll_ucpd.h **** __STATIC_INLINE void LL_UCPD_TypeCDetectionCC2Disable(UCPD_TypeDef *UCPDx)
 546:Drivers/STM32G0xx_HAL_Driver/Inc/stm32g0xx_ll_ucpd.h **** {
 547:Drivers/STM32G0xx_HAL_Driver/Inc/stm32g0xx_ll_ucpd.h ****   SET_BIT(UCPDx->CR, UCPD_CR_CC2TCDIS);
 548:Drivers/STM32G0xx_HAL_Driver/Inc/stm32g0xx_ll_ucpd.h **** }
 549:Drivers/STM32G0xx_HAL_Driver/Inc/stm32g0xx_ll_ucpd.h **** 
 550:Drivers/STM32G0xx_HAL_Driver/Inc/stm32g0xx_ll_ucpd.h **** /**
 551:Drivers/STM32G0xx_HAL_Driver/Inc/stm32g0xx_ll_ucpd.h ****   * @brief  Type C detector for CC1 enable
 552:Drivers/STM32G0xx_HAL_Driver/Inc/stm32g0xx_ll_ucpd.h ****   * @rmtoll CR          CC1TCDIS          LL_UCPD_TypeCDetectionCC1Enable
 553:Drivers/STM32G0xx_HAL_Driver/Inc/stm32g0xx_ll_ucpd.h ****   * @param  UCPDx UCPD Instance
 554:Drivers/STM32G0xx_HAL_Driver/Inc/stm32g0xx_ll_ucpd.h ****   * @retval None
 555:Drivers/STM32G0xx_HAL_Driver/Inc/stm32g0xx_ll_ucpd.h ****   */
 556:Drivers/STM32G0xx_HAL_Driver/Inc/stm32g0xx_ll_ucpd.h **** __STATIC_INLINE void LL_UCPD_TypeCDetectionCC1Enable(UCPD_TypeDef *UCPDx)
 557:Drivers/STM32G0xx_HAL_Driver/Inc/stm32g0xx_ll_ucpd.h **** {
 558:Drivers/STM32G0xx_HAL_Driver/Inc/stm32g0xx_ll_ucpd.h ****   CLEAR_BIT(UCPDx->CR, UCPD_CR_CC1TCDIS);
 559:Drivers/STM32G0xx_HAL_Driver/Inc/stm32g0xx_ll_ucpd.h **** }
 560:Drivers/STM32G0xx_HAL_Driver/Inc/stm32g0xx_ll_ucpd.h **** 
 561:Drivers/STM32G0xx_HAL_Driver/Inc/stm32g0xx_ll_ucpd.h **** /**
 562:Drivers/STM32G0xx_HAL_Driver/Inc/stm32g0xx_ll_ucpd.h ****   * @brief  Type C detector for CC1 disable
 563:Drivers/STM32G0xx_HAL_Driver/Inc/stm32g0xx_ll_ucpd.h ****   * @rmtoll CR          CC1TCDIS          LL_UCPD_TypeCDetectionCC1Disable
 564:Drivers/STM32G0xx_HAL_Driver/Inc/stm32g0xx_ll_ucpd.h ****   * @param  UCPDx UCPD Instance
 565:Drivers/STM32G0xx_HAL_Driver/Inc/stm32g0xx_ll_ucpd.h ****   * @retval None
 566:Drivers/STM32G0xx_HAL_Driver/Inc/stm32g0xx_ll_ucpd.h ****   */
ARM GAS  /tmp/ccdnVxo0.s 			page 31


 567:Drivers/STM32G0xx_HAL_Driver/Inc/stm32g0xx_ll_ucpd.h **** __STATIC_INLINE void LL_UCPD_TypeCDetectionCC1Disable(UCPD_TypeDef *UCPDx)
 568:Drivers/STM32G0xx_HAL_Driver/Inc/stm32g0xx_ll_ucpd.h **** {
 569:Drivers/STM32G0xx_HAL_Driver/Inc/stm32g0xx_ll_ucpd.h ****   SET_BIT(UCPDx->CR, UCPD_CR_CC1TCDIS);
 570:Drivers/STM32G0xx_HAL_Driver/Inc/stm32g0xx_ll_ucpd.h **** }
 571:Drivers/STM32G0xx_HAL_Driver/Inc/stm32g0xx_ll_ucpd.h **** 
 572:Drivers/STM32G0xx_HAL_Driver/Inc/stm32g0xx_ll_ucpd.h **** /**
 573:Drivers/STM32G0xx_HAL_Driver/Inc/stm32g0xx_ll_ucpd.h ****   * @brief  Source Vconn discharge enable
 574:Drivers/STM32G0xx_HAL_Driver/Inc/stm32g0xx_ll_ucpd.h ****   * @rmtoll CR          RDCH          LL_UCPD_VconnDischargeEnable
 575:Drivers/STM32G0xx_HAL_Driver/Inc/stm32g0xx_ll_ucpd.h ****   * @param  UCPDx UCPD Instance
 576:Drivers/STM32G0xx_HAL_Driver/Inc/stm32g0xx_ll_ucpd.h ****   * @retval None
 577:Drivers/STM32G0xx_HAL_Driver/Inc/stm32g0xx_ll_ucpd.h ****   */
 578:Drivers/STM32G0xx_HAL_Driver/Inc/stm32g0xx_ll_ucpd.h **** __STATIC_INLINE void LL_UCPD_VconnDischargeEnable(UCPD_TypeDef *UCPDx)
 579:Drivers/STM32G0xx_HAL_Driver/Inc/stm32g0xx_ll_ucpd.h **** {
 580:Drivers/STM32G0xx_HAL_Driver/Inc/stm32g0xx_ll_ucpd.h ****   SET_BIT(UCPDx->CR, UCPD_CR_RDCH);
 581:Drivers/STM32G0xx_HAL_Driver/Inc/stm32g0xx_ll_ucpd.h **** }
 582:Drivers/STM32G0xx_HAL_Driver/Inc/stm32g0xx_ll_ucpd.h **** 
 583:Drivers/STM32G0xx_HAL_Driver/Inc/stm32g0xx_ll_ucpd.h **** /**
 584:Drivers/STM32G0xx_HAL_Driver/Inc/stm32g0xx_ll_ucpd.h ****   * @brief  Source Vconn discharge disable
 585:Drivers/STM32G0xx_HAL_Driver/Inc/stm32g0xx_ll_ucpd.h ****   * @rmtoll CR          RDCH          LL_UCPD_VconnDischargeDisable
 586:Drivers/STM32G0xx_HAL_Driver/Inc/stm32g0xx_ll_ucpd.h ****   * @param  UCPDx UCPD Instance
 587:Drivers/STM32G0xx_HAL_Driver/Inc/stm32g0xx_ll_ucpd.h ****   * @retval None
 588:Drivers/STM32G0xx_HAL_Driver/Inc/stm32g0xx_ll_ucpd.h ****   */
 589:Drivers/STM32G0xx_HAL_Driver/Inc/stm32g0xx_ll_ucpd.h **** __STATIC_INLINE void LL_UCPD_VconnDischargeDisable(UCPD_TypeDef *UCPDx)
 590:Drivers/STM32G0xx_HAL_Driver/Inc/stm32g0xx_ll_ucpd.h **** {
 591:Drivers/STM32G0xx_HAL_Driver/Inc/stm32g0xx_ll_ucpd.h ****   CLEAR_BIT(UCPDx->CR, UCPD_CR_RDCH);
 592:Drivers/STM32G0xx_HAL_Driver/Inc/stm32g0xx_ll_ucpd.h **** }
 593:Drivers/STM32G0xx_HAL_Driver/Inc/stm32g0xx_ll_ucpd.h **** 
 594:Drivers/STM32G0xx_HAL_Driver/Inc/stm32g0xx_ll_ucpd.h **** /**
 595:Drivers/STM32G0xx_HAL_Driver/Inc/stm32g0xx_ll_ucpd.h ****   * @brief  Signal Fast Role Swap request
 596:Drivers/STM32G0xx_HAL_Driver/Inc/stm32g0xx_ll_ucpd.h ****   * @rmtoll CR          FRSTX          LL_UCPD_VconnDischargeDisable
 597:Drivers/STM32G0xx_HAL_Driver/Inc/stm32g0xx_ll_ucpd.h ****   * @param  UCPDx UCPD Instance
 598:Drivers/STM32G0xx_HAL_Driver/Inc/stm32g0xx_ll_ucpd.h ****   * @retval None
 599:Drivers/STM32G0xx_HAL_Driver/Inc/stm32g0xx_ll_ucpd.h ****   */
 600:Drivers/STM32G0xx_HAL_Driver/Inc/stm32g0xx_ll_ucpd.h **** __STATIC_INLINE void LL_UCPD_SignalFRSTX(UCPD_TypeDef *UCPDx)
 601:Drivers/STM32G0xx_HAL_Driver/Inc/stm32g0xx_ll_ucpd.h **** {
 602:Drivers/STM32G0xx_HAL_Driver/Inc/stm32g0xx_ll_ucpd.h ****   SET_BIT(UCPDx->CR, UCPD_CR_FRSTX);
 603:Drivers/STM32G0xx_HAL_Driver/Inc/stm32g0xx_ll_ucpd.h **** }
 604:Drivers/STM32G0xx_HAL_Driver/Inc/stm32g0xx_ll_ucpd.h **** 
 605:Drivers/STM32G0xx_HAL_Driver/Inc/stm32g0xx_ll_ucpd.h **** /**
 606:Drivers/STM32G0xx_HAL_Driver/Inc/stm32g0xx_ll_ucpd.h ****   * @brief  Fast Role swap RX detection enable
 607:Drivers/STM32G0xx_HAL_Driver/Inc/stm32g0xx_ll_ucpd.h ****   * @rmtoll CR          FRSRXEN          LL_UCPD_FRSDetectionEnable
 608:Drivers/STM32G0xx_HAL_Driver/Inc/stm32g0xx_ll_ucpd.h ****   * @param  UCPDx UCPD Instance
 609:Drivers/STM32G0xx_HAL_Driver/Inc/stm32g0xx_ll_ucpd.h ****   * @retval None
 610:Drivers/STM32G0xx_HAL_Driver/Inc/stm32g0xx_ll_ucpd.h ****   */
 611:Drivers/STM32G0xx_HAL_Driver/Inc/stm32g0xx_ll_ucpd.h **** __STATIC_INLINE void LL_UCPD_FRSDetectionEnable(UCPD_TypeDef *UCPDx)
 612:Drivers/STM32G0xx_HAL_Driver/Inc/stm32g0xx_ll_ucpd.h **** {
 613:Drivers/STM32G0xx_HAL_Driver/Inc/stm32g0xx_ll_ucpd.h ****   SET_BIT(UCPDx->CR, UCPD_CR_FRSRXEN);
 614:Drivers/STM32G0xx_HAL_Driver/Inc/stm32g0xx_ll_ucpd.h **** }
 615:Drivers/STM32G0xx_HAL_Driver/Inc/stm32g0xx_ll_ucpd.h **** 
 616:Drivers/STM32G0xx_HAL_Driver/Inc/stm32g0xx_ll_ucpd.h **** /**
 617:Drivers/STM32G0xx_HAL_Driver/Inc/stm32g0xx_ll_ucpd.h ****   * @brief  Fast Role swap RX detection disable
 618:Drivers/STM32G0xx_HAL_Driver/Inc/stm32g0xx_ll_ucpd.h ****   * @rmtoll CR          FRSRXEN          LL_UCPD_FRSDetectionDisable
 619:Drivers/STM32G0xx_HAL_Driver/Inc/stm32g0xx_ll_ucpd.h ****   * @param  UCPDx UCPD Instance
 620:Drivers/STM32G0xx_HAL_Driver/Inc/stm32g0xx_ll_ucpd.h ****   * @retval None
 621:Drivers/STM32G0xx_HAL_Driver/Inc/stm32g0xx_ll_ucpd.h ****   */
 622:Drivers/STM32G0xx_HAL_Driver/Inc/stm32g0xx_ll_ucpd.h **** __STATIC_INLINE void LL_UCPD_FRSDetectionDisable(UCPD_TypeDef *UCPDx)
 623:Drivers/STM32G0xx_HAL_Driver/Inc/stm32g0xx_ll_ucpd.h **** {
ARM GAS  /tmp/ccdnVxo0.s 			page 32


 624:Drivers/STM32G0xx_HAL_Driver/Inc/stm32g0xx_ll_ucpd.h ****   CLEAR_BIT(UCPDx->CR, UCPD_CR_FRSRXEN);
 625:Drivers/STM32G0xx_HAL_Driver/Inc/stm32g0xx_ll_ucpd.h **** }
 626:Drivers/STM32G0xx_HAL_Driver/Inc/stm32g0xx_ll_ucpd.h **** 
 627:Drivers/STM32G0xx_HAL_Driver/Inc/stm32g0xx_ll_ucpd.h **** /**
 628:Drivers/STM32G0xx_HAL_Driver/Inc/stm32g0xx_ll_ucpd.h ****   * @brief  Set cc enable
 629:Drivers/STM32G0xx_HAL_Driver/Inc/stm32g0xx_ll_ucpd.h ****   * @rmtoll CR          CC1VCONNEN          LL_UCPD_SetccEnable
 630:Drivers/STM32G0xx_HAL_Driver/Inc/stm32g0xx_ll_ucpd.h ****   * @param  UCPDx UCPD Instance
 631:Drivers/STM32G0xx_HAL_Driver/Inc/stm32g0xx_ll_ucpd.h ****   * @param  CCEnable This parameter can be one of the following values:
 632:Drivers/STM32G0xx_HAL_Driver/Inc/stm32g0xx_ll_ucpd.h ****   *         @arg @ref LL_UCPD_CCENABLE_NONE
 633:Drivers/STM32G0xx_HAL_Driver/Inc/stm32g0xx_ll_ucpd.h ****   *         @arg @ref LL_UCPD_CCENABLE_CC1
 634:Drivers/STM32G0xx_HAL_Driver/Inc/stm32g0xx_ll_ucpd.h ****   *         @arg @ref LL_UCPD_CCENABLE_CC2
 635:Drivers/STM32G0xx_HAL_Driver/Inc/stm32g0xx_ll_ucpd.h ****   *         @arg @ref LL_UCPD_CCENABLE_CC1CC2
 636:Drivers/STM32G0xx_HAL_Driver/Inc/stm32g0xx_ll_ucpd.h ****   * @retval None
 637:Drivers/STM32G0xx_HAL_Driver/Inc/stm32g0xx_ll_ucpd.h ****   */
 638:Drivers/STM32G0xx_HAL_Driver/Inc/stm32g0xx_ll_ucpd.h **** __STATIC_INLINE void LL_UCPD_SetccEnable(UCPD_TypeDef *UCPDx, uint32_t CCEnable)
 639:Drivers/STM32G0xx_HAL_Driver/Inc/stm32g0xx_ll_ucpd.h **** {
 640:Drivers/STM32G0xx_HAL_Driver/Inc/stm32g0xx_ll_ucpd.h ****   MODIFY_REG(UCPDx->CR, UCPD_CR_CCENABLE, CCEnable);
 641:Drivers/STM32G0xx_HAL_Driver/Inc/stm32g0xx_ll_ucpd.h **** }
 642:Drivers/STM32G0xx_HAL_Driver/Inc/stm32g0xx_ll_ucpd.h **** 
 643:Drivers/STM32G0xx_HAL_Driver/Inc/stm32g0xx_ll_ucpd.h **** /**
 644:Drivers/STM32G0xx_HAL_Driver/Inc/stm32g0xx_ll_ucpd.h ****   * @brief  Set UCPD SNK role
 645:Drivers/STM32G0xx_HAL_Driver/Inc/stm32g0xx_ll_ucpd.h ****   * @rmtoll CR        ANAMODE          LL_UCPD_SetSNKRole
 646:Drivers/STM32G0xx_HAL_Driver/Inc/stm32g0xx_ll_ucpd.h ****   * @param  UCPDx UCPD Instance
 647:Drivers/STM32G0xx_HAL_Driver/Inc/stm32g0xx_ll_ucpd.h ****   * @retval None
 648:Drivers/STM32G0xx_HAL_Driver/Inc/stm32g0xx_ll_ucpd.h ****   */
 649:Drivers/STM32G0xx_HAL_Driver/Inc/stm32g0xx_ll_ucpd.h **** __STATIC_INLINE void LL_UCPD_SetSNKRole(UCPD_TypeDef *UCPDx)
 650:Drivers/STM32G0xx_HAL_Driver/Inc/stm32g0xx_ll_ucpd.h **** {
 651:Drivers/STM32G0xx_HAL_Driver/Inc/stm32g0xx_ll_ucpd.h ****   SET_BIT(UCPDx->CR, UCPD_CR_ANAMODE);
 652:Drivers/STM32G0xx_HAL_Driver/Inc/stm32g0xx_ll_ucpd.h **** }
 653:Drivers/STM32G0xx_HAL_Driver/Inc/stm32g0xx_ll_ucpd.h **** 
 654:Drivers/STM32G0xx_HAL_Driver/Inc/stm32g0xx_ll_ucpd.h **** /**
 655:Drivers/STM32G0xx_HAL_Driver/Inc/stm32g0xx_ll_ucpd.h ****   * @brief  Set UCPD SRC role
 656:Drivers/STM32G0xx_HAL_Driver/Inc/stm32g0xx_ll_ucpd.h ****   * @rmtoll CR        ANAMODE          LL_UCPD_SetSRCRole
 657:Drivers/STM32G0xx_HAL_Driver/Inc/stm32g0xx_ll_ucpd.h ****   * @param  UCPDx UCPD Instance
 658:Drivers/STM32G0xx_HAL_Driver/Inc/stm32g0xx_ll_ucpd.h ****   * @retval None
 659:Drivers/STM32G0xx_HAL_Driver/Inc/stm32g0xx_ll_ucpd.h ****   */
 660:Drivers/STM32G0xx_HAL_Driver/Inc/stm32g0xx_ll_ucpd.h **** __STATIC_INLINE void LL_UCPD_SetSRCRole(UCPD_TypeDef *UCPDx)
 661:Drivers/STM32G0xx_HAL_Driver/Inc/stm32g0xx_ll_ucpd.h **** {
 662:Drivers/STM32G0xx_HAL_Driver/Inc/stm32g0xx_ll_ucpd.h ****   CLEAR_BIT(UCPDx->CR, UCPD_CR_ANAMODE);
 663:Drivers/STM32G0xx_HAL_Driver/Inc/stm32g0xx_ll_ucpd.h **** }
 664:Drivers/STM32G0xx_HAL_Driver/Inc/stm32g0xx_ll_ucpd.h **** 
 665:Drivers/STM32G0xx_HAL_Driver/Inc/stm32g0xx_ll_ucpd.h **** /**
 666:Drivers/STM32G0xx_HAL_Driver/Inc/stm32g0xx_ll_ucpd.h ****   * @brief  Get UCPD Role
 667:Drivers/STM32G0xx_HAL_Driver/Inc/stm32g0xx_ll_ucpd.h ****   * @rmtoll CR          ANAMODE          LL_UCPD_GetRole
 668:Drivers/STM32G0xx_HAL_Driver/Inc/stm32g0xx_ll_ucpd.h ****   * @param  UCPDx UCPD Instance
 669:Drivers/STM32G0xx_HAL_Driver/Inc/stm32g0xx_ll_ucpd.h ****   * @retval Returned value can be one of the following values:
 670:Drivers/STM32G0xx_HAL_Driver/Inc/stm32g0xx_ll_ucpd.h ****   *         @arg @ref LL_UCPD_ROLE_SNK
 671:Drivers/STM32G0xx_HAL_Driver/Inc/stm32g0xx_ll_ucpd.h ****   *         @arg @ref LL_UCPD_ROLE_SRC
 672:Drivers/STM32G0xx_HAL_Driver/Inc/stm32g0xx_ll_ucpd.h ****   */
 673:Drivers/STM32G0xx_HAL_Driver/Inc/stm32g0xx_ll_ucpd.h **** __STATIC_INLINE uint32_t LL_UCPD_GetRole(UCPD_TypeDef const * const UCPDx)
 674:Drivers/STM32G0xx_HAL_Driver/Inc/stm32g0xx_ll_ucpd.h **** {
 675:Drivers/STM32G0xx_HAL_Driver/Inc/stm32g0xx_ll_ucpd.h ****   return (uint32_t)(READ_BIT(UCPDx->CR, UCPD_CR_ANAMODE));
 676:Drivers/STM32G0xx_HAL_Driver/Inc/stm32g0xx_ll_ucpd.h **** }
 677:Drivers/STM32G0xx_HAL_Driver/Inc/stm32g0xx_ll_ucpd.h **** 
 678:Drivers/STM32G0xx_HAL_Driver/Inc/stm32g0xx_ll_ucpd.h **** /**
 679:Drivers/STM32G0xx_HAL_Driver/Inc/stm32g0xx_ll_ucpd.h ****   * @brief  Set Rp resistor
 680:Drivers/STM32G0xx_HAL_Driver/Inc/stm32g0xx_ll_ucpd.h ****   * @rmtoll CR        ANASUBMODE          LL_UCPD_SetRpResistor
ARM GAS  /tmp/ccdnVxo0.s 			page 33


 681:Drivers/STM32G0xx_HAL_Driver/Inc/stm32g0xx_ll_ucpd.h ****   * @param  UCPDx UCPD Instance
 682:Drivers/STM32G0xx_HAL_Driver/Inc/stm32g0xx_ll_ucpd.h ****   * @param  Resistor This parameter can be one of the following values:
 683:Drivers/STM32G0xx_HAL_Driver/Inc/stm32g0xx_ll_ucpd.h ****   *         @arg @ref LL_UCPD_RESISTOR_DEFAULT
 684:Drivers/STM32G0xx_HAL_Driver/Inc/stm32g0xx_ll_ucpd.h ****   *         @arg @ref LL_UCPD_RESISTOR_1_5A
 685:Drivers/STM32G0xx_HAL_Driver/Inc/stm32g0xx_ll_ucpd.h ****   *         @arg @ref LL_UCPD_RESISTOR_3_0A
 686:Drivers/STM32G0xx_HAL_Driver/Inc/stm32g0xx_ll_ucpd.h ****   *         @arg @ref LL_UCPD_RESISTOR_NONE
 687:Drivers/STM32G0xx_HAL_Driver/Inc/stm32g0xx_ll_ucpd.h ****   * @retval None
 688:Drivers/STM32G0xx_HAL_Driver/Inc/stm32g0xx_ll_ucpd.h ****   */
 689:Drivers/STM32G0xx_HAL_Driver/Inc/stm32g0xx_ll_ucpd.h **** __STATIC_INLINE void LL_UCPD_SetRpResistor(UCPD_TypeDef *UCPDx, uint32_t Resistor)
 690:Drivers/STM32G0xx_HAL_Driver/Inc/stm32g0xx_ll_ucpd.h **** {
 691:Drivers/STM32G0xx_HAL_Driver/Inc/stm32g0xx_ll_ucpd.h ****   MODIFY_REG(UCPDx->CR, UCPD_CR_ANASUBMODE,  Resistor);
 692:Drivers/STM32G0xx_HAL_Driver/Inc/stm32g0xx_ll_ucpd.h **** }
 693:Drivers/STM32G0xx_HAL_Driver/Inc/stm32g0xx_ll_ucpd.h **** 
 694:Drivers/STM32G0xx_HAL_Driver/Inc/stm32g0xx_ll_ucpd.h **** /**
 695:Drivers/STM32G0xx_HAL_Driver/Inc/stm32g0xx_ll_ucpd.h ****   * @brief  Set CC pin
 696:Drivers/STM32G0xx_HAL_Driver/Inc/stm32g0xx_ll_ucpd.h ****   * @rmtoll CR        PHYCCSEL          LL_UCPD_SetCCPin
 697:Drivers/STM32G0xx_HAL_Driver/Inc/stm32g0xx_ll_ucpd.h ****   * @param  UCPDx UCPD Instance
 698:Drivers/STM32G0xx_HAL_Driver/Inc/stm32g0xx_ll_ucpd.h ****   * @param  CCPin This parameter can be one of the following values:
 699:Drivers/STM32G0xx_HAL_Driver/Inc/stm32g0xx_ll_ucpd.h ****   *         @arg @ref LL_UCPD_CCPIN_CC1
 700:Drivers/STM32G0xx_HAL_Driver/Inc/stm32g0xx_ll_ucpd.h ****   *         @arg @ref LL_UCPD_CCPIN_CC2
 701:Drivers/STM32G0xx_HAL_Driver/Inc/stm32g0xx_ll_ucpd.h ****   * @retval None
 702:Drivers/STM32G0xx_HAL_Driver/Inc/stm32g0xx_ll_ucpd.h ****   */
 703:Drivers/STM32G0xx_HAL_Driver/Inc/stm32g0xx_ll_ucpd.h **** __STATIC_INLINE void LL_UCPD_SetCCPin(UCPD_TypeDef *UCPDx, uint32_t CCPin)
 704:Drivers/STM32G0xx_HAL_Driver/Inc/stm32g0xx_ll_ucpd.h **** {
 705:Drivers/STM32G0xx_HAL_Driver/Inc/stm32g0xx_ll_ucpd.h ****   MODIFY_REG(UCPDx->CR, UCPD_CR_PHYCCSEL,  CCPin);
 706:Drivers/STM32G0xx_HAL_Driver/Inc/stm32g0xx_ll_ucpd.h **** }
 707:Drivers/STM32G0xx_HAL_Driver/Inc/stm32g0xx_ll_ucpd.h **** 
 708:Drivers/STM32G0xx_HAL_Driver/Inc/stm32g0xx_ll_ucpd.h **** /**
 709:Drivers/STM32G0xx_HAL_Driver/Inc/stm32g0xx_ll_ucpd.h ****   * @brief  Rx enable
 710:Drivers/STM32G0xx_HAL_Driver/Inc/stm32g0xx_ll_ucpd.h ****   * @rmtoll CR        PHYRXEN          LL_UCPD_RxEnable
 711:Drivers/STM32G0xx_HAL_Driver/Inc/stm32g0xx_ll_ucpd.h ****   * @param  UCPDx UCPD Instance
 712:Drivers/STM32G0xx_HAL_Driver/Inc/stm32g0xx_ll_ucpd.h ****   * @retval None
 713:Drivers/STM32G0xx_HAL_Driver/Inc/stm32g0xx_ll_ucpd.h ****   */
 714:Drivers/STM32G0xx_HAL_Driver/Inc/stm32g0xx_ll_ucpd.h **** __STATIC_INLINE void LL_UCPD_RxEnable(UCPD_TypeDef *UCPDx)
 715:Drivers/STM32G0xx_HAL_Driver/Inc/stm32g0xx_ll_ucpd.h **** {
 716:Drivers/STM32G0xx_HAL_Driver/Inc/stm32g0xx_ll_ucpd.h ****   SET_BIT(UCPDx->CR, UCPD_CR_PHYRXEN);
 717:Drivers/STM32G0xx_HAL_Driver/Inc/stm32g0xx_ll_ucpd.h **** }
 718:Drivers/STM32G0xx_HAL_Driver/Inc/stm32g0xx_ll_ucpd.h **** 
 719:Drivers/STM32G0xx_HAL_Driver/Inc/stm32g0xx_ll_ucpd.h **** /**
 720:Drivers/STM32G0xx_HAL_Driver/Inc/stm32g0xx_ll_ucpd.h ****   * @brief  Rx disable
 721:Drivers/STM32G0xx_HAL_Driver/Inc/stm32g0xx_ll_ucpd.h ****   * @rmtoll CR        PHYRXEN          LL_UCPD_RxDisable
 722:Drivers/STM32G0xx_HAL_Driver/Inc/stm32g0xx_ll_ucpd.h ****   * @param  UCPDx UCPD Instance
 723:Drivers/STM32G0xx_HAL_Driver/Inc/stm32g0xx_ll_ucpd.h ****   * @retval None
 724:Drivers/STM32G0xx_HAL_Driver/Inc/stm32g0xx_ll_ucpd.h ****   */
 725:Drivers/STM32G0xx_HAL_Driver/Inc/stm32g0xx_ll_ucpd.h **** __STATIC_INLINE void LL_UCPD_RxDisable(UCPD_TypeDef *UCPDx)
 726:Drivers/STM32G0xx_HAL_Driver/Inc/stm32g0xx_ll_ucpd.h **** {
 727:Drivers/STM32G0xx_HAL_Driver/Inc/stm32g0xx_ll_ucpd.h ****   CLEAR_BIT(UCPDx->CR, UCPD_CR_PHYRXEN);
 728:Drivers/STM32G0xx_HAL_Driver/Inc/stm32g0xx_ll_ucpd.h **** }
 729:Drivers/STM32G0xx_HAL_Driver/Inc/stm32g0xx_ll_ucpd.h **** 
 730:Drivers/STM32G0xx_HAL_Driver/Inc/stm32g0xx_ll_ucpd.h **** /**
 731:Drivers/STM32G0xx_HAL_Driver/Inc/stm32g0xx_ll_ucpd.h ****   * @brief  Set Rx mode
 732:Drivers/STM32G0xx_HAL_Driver/Inc/stm32g0xx_ll_ucpd.h ****   * @rmtoll CR        RXMODE          LL_UCPD_SetRxMode
 733:Drivers/STM32G0xx_HAL_Driver/Inc/stm32g0xx_ll_ucpd.h ****   * @param  UCPDx UCPD Instance
 734:Drivers/STM32G0xx_HAL_Driver/Inc/stm32g0xx_ll_ucpd.h ****   * @param  RxMode This parameter can be one of the following values:
 735:Drivers/STM32G0xx_HAL_Driver/Inc/stm32g0xx_ll_ucpd.h ****   *         @arg @ref LL_UCPD_RXMODE_NORMAL
 736:Drivers/STM32G0xx_HAL_Driver/Inc/stm32g0xx_ll_ucpd.h ****   *         @arg @ref LL_UCPD_RXMODE_BIST_TEST_DATA
 737:Drivers/STM32G0xx_HAL_Driver/Inc/stm32g0xx_ll_ucpd.h ****   * @retval None
ARM GAS  /tmp/ccdnVxo0.s 			page 34


 738:Drivers/STM32G0xx_HAL_Driver/Inc/stm32g0xx_ll_ucpd.h ****   */
 739:Drivers/STM32G0xx_HAL_Driver/Inc/stm32g0xx_ll_ucpd.h **** __STATIC_INLINE void LL_UCPD_SetRxMode(UCPD_TypeDef *UCPDx, uint32_t RxMode)
 740:Drivers/STM32G0xx_HAL_Driver/Inc/stm32g0xx_ll_ucpd.h **** {
 741:Drivers/STM32G0xx_HAL_Driver/Inc/stm32g0xx_ll_ucpd.h ****   MODIFY_REG(UCPDx->CR, UCPD_CR_RXMODE, RxMode);
 742:Drivers/STM32G0xx_HAL_Driver/Inc/stm32g0xx_ll_ucpd.h **** }
 743:Drivers/STM32G0xx_HAL_Driver/Inc/stm32g0xx_ll_ucpd.h **** 
 744:Drivers/STM32G0xx_HAL_Driver/Inc/stm32g0xx_ll_ucpd.h **** /**
 745:Drivers/STM32G0xx_HAL_Driver/Inc/stm32g0xx_ll_ucpd.h ****   * @brief  Send Hard Reset
 746:Drivers/STM32G0xx_HAL_Driver/Inc/stm32g0xx_ll_ucpd.h ****   * @rmtoll CR        TXHRST          LL_UCPD_SendHardReset
 747:Drivers/STM32G0xx_HAL_Driver/Inc/stm32g0xx_ll_ucpd.h ****   * @param  UCPDx UCPD Instance
 748:Drivers/STM32G0xx_HAL_Driver/Inc/stm32g0xx_ll_ucpd.h ****   * @retval None
 749:Drivers/STM32G0xx_HAL_Driver/Inc/stm32g0xx_ll_ucpd.h ****   */
 750:Drivers/STM32G0xx_HAL_Driver/Inc/stm32g0xx_ll_ucpd.h **** __STATIC_INLINE void LL_UCPD_SendHardReset(UCPD_TypeDef *UCPDx)
 259              		.loc 3 750 22 is_stmt 1 view .LVU58
 260              	.LBB117:
 751:Drivers/STM32G0xx_HAL_Driver/Inc/stm32g0xx_ll_ucpd.h **** {
 752:Drivers/STM32G0xx_HAL_Driver/Inc/stm32g0xx_ll_ucpd.h ****   SET_BIT(UCPDx->CR, UCPD_CR_TXHRST);
 261              		.loc 3 752 3 view .LVU59
 262 0010 0823     		movs	r3, #8
 263 0012 D168     		ldr	r1, [r2, #12]
 264              	.LVL14:
 265              	.L23:
 266              		.loc 3 752 3 is_stmt 0 view .LVU60
 267              	.LBE117:
 268              	.LBE116:
 269              	.LBB118:
 270              	.LBB119:
 753:Drivers/STM32G0xx_HAL_Driver/Inc/stm32g0xx_ll_ucpd.h **** }
 754:Drivers/STM32G0xx_HAL_Driver/Inc/stm32g0xx_ll_ucpd.h **** 
 755:Drivers/STM32G0xx_HAL_Driver/Inc/stm32g0xx_ll_ucpd.h **** /**
 756:Drivers/STM32G0xx_HAL_Driver/Inc/stm32g0xx_ll_ucpd.h ****   * @brief  Send message
 757:Drivers/STM32G0xx_HAL_Driver/Inc/stm32g0xx_ll_ucpd.h ****   * @rmtoll CR        TXSEND          LL_UCPD_SendMessage
 758:Drivers/STM32G0xx_HAL_Driver/Inc/stm32g0xx_ll_ucpd.h ****   * @param  UCPDx UCPD Instance
 759:Drivers/STM32G0xx_HAL_Driver/Inc/stm32g0xx_ll_ucpd.h ****   * @retval None
 760:Drivers/STM32G0xx_HAL_Driver/Inc/stm32g0xx_ll_ucpd.h ****   */
 761:Drivers/STM32G0xx_HAL_Driver/Inc/stm32g0xx_ll_ucpd.h **** __STATIC_INLINE void LL_UCPD_SendMessage(UCPD_TypeDef *UCPDx)
 762:Drivers/STM32G0xx_HAL_Driver/Inc/stm32g0xx_ll_ucpd.h **** {
 763:Drivers/STM32G0xx_HAL_Driver/Inc/stm32g0xx_ll_ucpd.h ****   SET_BIT(UCPDx->CR, UCPD_CR_TXSEND);
 764:Drivers/STM32G0xx_HAL_Driver/Inc/stm32g0xx_ll_ucpd.h **** }
 271              		.loc 3 764 1 view .LVU61
 272 0014 0020     		movs	r0, #0
 763:Drivers/STM32G0xx_HAL_Driver/Inc/stm32g0xx_ll_ucpd.h **** }
 273              		.loc 3 763 3 view .LVU62
 274 0016 0B43     		orrs	r3, r1
 275 0018 D360     		str	r3, [r2, #12]
 276              	.L12:
 277              	.LVL15:
 763:Drivers/STM32G0xx_HAL_Driver/Inc/stm32g0xx_ll_ucpd.h **** }
 278              		.loc 3 763 3 view .LVU63
 279              	.LBE119:
 280              	.LBE118:
  71:Middlewares/ST/STM32_USBPD_Library/Devices/STM32G0XX/src/usbpd_phy_hw_if.c ****   }
  72:Middlewares/ST/STM32_USBPD_Library/Devices/STM32G0XX/src/usbpd_phy_hw_if.c ****   else
  73:Middlewares/ST/STM32_USBPD_Library/Devices/STM32G0XX/src/usbpd_phy_hw_if.c ****   {
  74:Middlewares/ST/STM32_USBPD_Library/Devices/STM32G0XX/src/usbpd_phy_hw_if.c ****     switch (Type)
  75:Middlewares/ST/STM32_USBPD_Library/Devices/STM32G0XX/src/usbpd_phy_hw_if.c ****     {
  76:Middlewares/ST/STM32_USBPD_Library/Devices/STM32G0XX/src/usbpd_phy_hw_if.c ****     case USBPD_SOPTYPE_SOP :
ARM GAS  /tmp/ccdnVxo0.s 			page 35


  77:Middlewares/ST/STM32_USBPD_Library/Devices/STM32G0XX/src/usbpd_phy_hw_if.c ****       {
  78:Middlewares/ST/STM32_USBPD_Library/Devices/STM32G0XX/src/usbpd_phy_hw_if.c ****         LL_UCPD_WriteTxOrderSet(Ports[PortNum].husbpd, LL_UCPD_ORDERED_SET_SOP);
  79:Middlewares/ST/STM32_USBPD_Library/Devices/STM32G0XX/src/usbpd_phy_hw_if.c ****         LL_UCPD_SetTxMode(Ports[PortNum].husbpd, LL_UCPD_TXMODE_NORMAL);
  80:Middlewares/ST/STM32_USBPD_Library/Devices/STM32G0XX/src/usbpd_phy_hw_if.c ****         break;
  81:Middlewares/ST/STM32_USBPD_Library/Devices/STM32G0XX/src/usbpd_phy_hw_if.c ****       }
  82:Middlewares/ST/STM32_USBPD_Library/Devices/STM32G0XX/src/usbpd_phy_hw_if.c ****     case USBPD_SOPTYPE_SOP1 :
  83:Middlewares/ST/STM32_USBPD_Library/Devices/STM32G0XX/src/usbpd_phy_hw_if.c ****       {
  84:Middlewares/ST/STM32_USBPD_Library/Devices/STM32G0XX/src/usbpd_phy_hw_if.c ****         LL_UCPD_WriteTxOrderSet(Ports[PortNum].husbpd, LL_UCPD_ORDERED_SET_SOP1);
  85:Middlewares/ST/STM32_USBPD_Library/Devices/STM32G0XX/src/usbpd_phy_hw_if.c ****         LL_UCPD_SetTxMode(Ports[PortNum].husbpd, LL_UCPD_TXMODE_NORMAL);
  86:Middlewares/ST/STM32_USBPD_Library/Devices/STM32G0XX/src/usbpd_phy_hw_if.c ****         break;
  87:Middlewares/ST/STM32_USBPD_Library/Devices/STM32G0XX/src/usbpd_phy_hw_if.c ****       }
  88:Middlewares/ST/STM32_USBPD_Library/Devices/STM32G0XX/src/usbpd_phy_hw_if.c ****     case USBPD_SOPTYPE_SOP2 :
  89:Middlewares/ST/STM32_USBPD_Library/Devices/STM32G0XX/src/usbpd_phy_hw_if.c ****       {
  90:Middlewares/ST/STM32_USBPD_Library/Devices/STM32G0XX/src/usbpd_phy_hw_if.c ****         LL_UCPD_WriteTxOrderSet(Ports[PortNum].husbpd, LL_UCPD_ORDERED_SET_SOP2);
  91:Middlewares/ST/STM32_USBPD_Library/Devices/STM32G0XX/src/usbpd_phy_hw_if.c ****         LL_UCPD_SetTxMode(Ports[PortNum].husbpd, LL_UCPD_TXMODE_NORMAL);
  92:Middlewares/ST/STM32_USBPD_Library/Devices/STM32G0XX/src/usbpd_phy_hw_if.c ****         break;
  93:Middlewares/ST/STM32_USBPD_Library/Devices/STM32G0XX/src/usbpd_phy_hw_if.c ****       }
  94:Middlewares/ST/STM32_USBPD_Library/Devices/STM32G0XX/src/usbpd_phy_hw_if.c ****     case USBPD_SOPTYPE_CABLE_RESET :
  95:Middlewares/ST/STM32_USBPD_Library/Devices/STM32G0XX/src/usbpd_phy_hw_if.c ****       {
  96:Middlewares/ST/STM32_USBPD_Library/Devices/STM32G0XX/src/usbpd_phy_hw_if.c ****         LL_UCPD_SetTxMode(Ports[PortNum].husbpd, LL_UCPD_TXMODE_CABLE_RESET);
  97:Middlewares/ST/STM32_USBPD_Library/Devices/STM32G0XX/src/usbpd_phy_hw_if.c ****         break;
  98:Middlewares/ST/STM32_USBPD_Library/Devices/STM32G0XX/src/usbpd_phy_hw_if.c ****       }
  99:Middlewares/ST/STM32_USBPD_Library/Devices/STM32G0XX/src/usbpd_phy_hw_if.c ****     case USBPD_SOPTYPE_BIST_MODE_2 :
 100:Middlewares/ST/STM32_USBPD_Library/Devices/STM32G0XX/src/usbpd_phy_hw_if.c ****       {
 101:Middlewares/ST/STM32_USBPD_Library/Devices/STM32G0XX/src/usbpd_phy_hw_if.c ****         LL_UCPD_SetTxMode(Ports[PortNum].husbpd, LL_UCPD_TXMODE_BIST_CARRIER2);
 102:Middlewares/ST/STM32_USBPD_Library/Devices/STM32G0XX/src/usbpd_phy_hw_if.c ****         break;
 103:Middlewares/ST/STM32_USBPD_Library/Devices/STM32G0XX/src/usbpd_phy_hw_if.c ****       }
 104:Middlewares/ST/STM32_USBPD_Library/Devices/STM32G0XX/src/usbpd_phy_hw_if.c ****     default :
 105:Middlewares/ST/STM32_USBPD_Library/Devices/STM32G0XX/src/usbpd_phy_hw_if.c ****       _status = USBPD_ERROR;
 106:Middlewares/ST/STM32_USBPD_Library/Devices/STM32G0XX/src/usbpd_phy_hw_if.c ****       break;
 107:Middlewares/ST/STM32_USBPD_Library/Devices/STM32G0XX/src/usbpd_phy_hw_if.c ****     }
 108:Middlewares/ST/STM32_USBPD_Library/Devices/STM32G0XX/src/usbpd_phy_hw_if.c **** 
 109:Middlewares/ST/STM32_USBPD_Library/Devices/STM32G0XX/src/usbpd_phy_hw_if.c ****     if (USBPD_OK == _status)
 110:Middlewares/ST/STM32_USBPD_Library/Devices/STM32G0XX/src/usbpd_phy_hw_if.c ****     {
 111:Middlewares/ST/STM32_USBPD_Library/Devices/STM32G0XX/src/usbpd_phy_hw_if.c ****       WRITE_REG(Ports[PortNum].hdmatx->CMAR, (uint32_t)pBuffer);
 112:Middlewares/ST/STM32_USBPD_Library/Devices/STM32G0XX/src/usbpd_phy_hw_if.c ****       WRITE_REG(Ports[PortNum].hdmatx->CNDTR, Size);
 113:Middlewares/ST/STM32_USBPD_Library/Devices/STM32G0XX/src/usbpd_phy_hw_if.c ****       Ports[PortNum].hdmatx->CCR |= DMA_CCR_EN;
 114:Middlewares/ST/STM32_USBPD_Library/Devices/STM32G0XX/src/usbpd_phy_hw_if.c **** 
 115:Middlewares/ST/STM32_USBPD_Library/Devices/STM32G0XX/src/usbpd_phy_hw_if.c ****       LL_UCPD_WriteTxPaySize(Ports[PortNum].husbpd, Size);
 116:Middlewares/ST/STM32_USBPD_Library/Devices/STM32G0XX/src/usbpd_phy_hw_if.c ****       LL_UCPD_SendMessage(Ports[PortNum].husbpd);
 117:Middlewares/ST/STM32_USBPD_Library/Devices/STM32G0XX/src/usbpd_phy_hw_if.c ****     }
 118:Middlewares/ST/STM32_USBPD_Library/Devices/STM32G0XX/src/usbpd_phy_hw_if.c ****   }
 119:Middlewares/ST/STM32_USBPD_Library/Devices/STM32G0XX/src/usbpd_phy_hw_if.c ****   return _status;
 281              		.loc 2 119 3 is_stmt 1 view .LVU64
 120:Middlewares/ST/STM32_USBPD_Library/Devices/STM32G0XX/src/usbpd_phy_hw_if.c **** }
 282              		.loc 2 120 1 is_stmt 0 view .LVU65
 283              		@ sp needed
 284 001a 30BD     		pop	{r4, r5, pc}
 285              	.LVL16:
 286              	.L11:
  74:Middlewares/ST/STM32_USBPD_Library/Devices/STM32G0XX/src/usbpd_phy_hw_if.c ****     {
 287              		.loc 2 74 5 is_stmt 1 view .LVU66
 288 001c 0729     		cmp	r1, #7
 289 001e 3BD8     		bhi	.L20
 290 0020 FFF7FEFF 		bl	__gnu_thumb1_case_uqi
 291              	.L14:
 292 0024 04       		.byte	(.L18-.L14)/2
ARM GAS  /tmp/ccdnVxo0.s 			page 36


 293 0025 1C       		.byte	(.L17-.L14)/2
 294 0026 21       		.byte	(.L16-.L14)/2
 295 0027 3A       		.byte	(.L20-.L14)/2
 296 0028 3A       		.byte	(.L20-.L14)/2
 297 0029 3A       		.byte	(.L20-.L14)/2
 298 002a 26       		.byte	(.L15-.L14)/2
 299 002b 31       		.byte	(.L13-.L14)/2
 300              		.p2align 1
 301              	.L18:
  78:Middlewares/ST/STM32_USBPD_Library/Devices/STM32G0XX/src/usbpd_phy_hw_if.c ****         LL_UCPD_SetTxMode(Ports[PortNum].husbpd, LL_UCPD_TXMODE_NORMAL);
 302              		.loc 2 78 9 view .LVU67
 303 002c 1B49     		ldr	r1, .L24
 304              	.LVL17:
  78:Middlewares/ST/STM32_USBPD_Library/Devices/STM32G0XX/src/usbpd_phy_hw_if.c ****         LL_UCPD_SetTxMode(Ports[PortNum].husbpd, LL_UCPD_TXMODE_NORMAL);
 305              		.loc 2 78 9 is_stmt 0 view .LVU68
 306 002e A001     		lsls	r0, r4, #6
 307 0030 4158     		ldr	r1, [r0, r1]
 308              	.LVL18:
 309              	.LBB121:
 310              	.LBI121:
 765:Drivers/STM32G0xx_HAL_Driver/Inc/stm32g0xx_ll_ucpd.h **** 
 766:Drivers/STM32G0xx_HAL_Driver/Inc/stm32g0xx_ll_ucpd.h **** /**
 767:Drivers/STM32G0xx_HAL_Driver/Inc/stm32g0xx_ll_ucpd.h ****   * @brief  Set Tx mode
 768:Drivers/STM32G0xx_HAL_Driver/Inc/stm32g0xx_ll_ucpd.h ****   * @rmtoll CR        TXMODE          LL_UCPD_SetTxMode
 769:Drivers/STM32G0xx_HAL_Driver/Inc/stm32g0xx_ll_ucpd.h ****   * @param  UCPDx UCPD Instance
 770:Drivers/STM32G0xx_HAL_Driver/Inc/stm32g0xx_ll_ucpd.h ****   * @param  TxMode This parameter can be one of the following values:
 771:Drivers/STM32G0xx_HAL_Driver/Inc/stm32g0xx_ll_ucpd.h ****   *         @arg @ref LL_UCPD_TXMODE_NORMAL
 772:Drivers/STM32G0xx_HAL_Driver/Inc/stm32g0xx_ll_ucpd.h ****   *         @arg @ref LL_UCPD_TXMODE_CABLE_RESET
 773:Drivers/STM32G0xx_HAL_Driver/Inc/stm32g0xx_ll_ucpd.h ****   *         @arg @ref LL_UCPD_TXMODE_BIST_CARRIER2
 774:Drivers/STM32G0xx_HAL_Driver/Inc/stm32g0xx_ll_ucpd.h ****   * @retval None
 775:Drivers/STM32G0xx_HAL_Driver/Inc/stm32g0xx_ll_ucpd.h ****   */
 776:Drivers/STM32G0xx_HAL_Driver/Inc/stm32g0xx_ll_ucpd.h **** __STATIC_INLINE void LL_UCPD_SetTxMode(UCPD_TypeDef *UCPDx, uint32_t TxMode)
 777:Drivers/STM32G0xx_HAL_Driver/Inc/stm32g0xx_ll_ucpd.h **** {
 778:Drivers/STM32G0xx_HAL_Driver/Inc/stm32g0xx_ll_ucpd.h ****   MODIFY_REG(UCPDx->CR, UCPD_CR_TXMODE, TxMode);
 779:Drivers/STM32G0xx_HAL_Driver/Inc/stm32g0xx_ll_ucpd.h **** }
 780:Drivers/STM32G0xx_HAL_Driver/Inc/stm32g0xx_ll_ucpd.h **** 
 781:Drivers/STM32G0xx_HAL_Driver/Inc/stm32g0xx_ll_ucpd.h **** /**
 782:Drivers/STM32G0xx_HAL_Driver/Inc/stm32g0xx_ll_ucpd.h ****   * @}
 783:Drivers/STM32G0xx_HAL_Driver/Inc/stm32g0xx_ll_ucpd.h ****   */
 784:Drivers/STM32G0xx_HAL_Driver/Inc/stm32g0xx_ll_ucpd.h **** 
 785:Drivers/STM32G0xx_HAL_Driver/Inc/stm32g0xx_ll_ucpd.h **** /** @defgroup UCPD_LL_EF_IT_Management Interrupt Management
 786:Drivers/STM32G0xx_HAL_Driver/Inc/stm32g0xx_ll_ucpd.h ****   * @{
 787:Drivers/STM32G0xx_HAL_Driver/Inc/stm32g0xx_ll_ucpd.h ****   */
 788:Drivers/STM32G0xx_HAL_Driver/Inc/stm32g0xx_ll_ucpd.h **** 
 789:Drivers/STM32G0xx_HAL_Driver/Inc/stm32g0xx_ll_ucpd.h **** /**
 790:Drivers/STM32G0xx_HAL_Driver/Inc/stm32g0xx_ll_ucpd.h ****   * @brief  Enable FRS interrupt
 791:Drivers/STM32G0xx_HAL_Driver/Inc/stm32g0xx_ll_ucpd.h ****   * @rmtoll IMR          FRSEVTIE         LL_UCPD_EnableIT_FRS
 792:Drivers/STM32G0xx_HAL_Driver/Inc/stm32g0xx_ll_ucpd.h ****   * @param  UCPDx UCPD Instance
 793:Drivers/STM32G0xx_HAL_Driver/Inc/stm32g0xx_ll_ucpd.h ****   * @retval None
 794:Drivers/STM32G0xx_HAL_Driver/Inc/stm32g0xx_ll_ucpd.h ****   */
 795:Drivers/STM32G0xx_HAL_Driver/Inc/stm32g0xx_ll_ucpd.h **** __STATIC_INLINE void LL_UCPD_EnableIT_FRS(UCPD_TypeDef *UCPDx)
 796:Drivers/STM32G0xx_HAL_Driver/Inc/stm32g0xx_ll_ucpd.h **** {
 797:Drivers/STM32G0xx_HAL_Driver/Inc/stm32g0xx_ll_ucpd.h ****   SET_BIT(UCPDx->IMR, UCPD_IMR_FRSEVTIE);
 798:Drivers/STM32G0xx_HAL_Driver/Inc/stm32g0xx_ll_ucpd.h **** }
 799:Drivers/STM32G0xx_HAL_Driver/Inc/stm32g0xx_ll_ucpd.h **** 
 800:Drivers/STM32G0xx_HAL_Driver/Inc/stm32g0xx_ll_ucpd.h **** /**
 801:Drivers/STM32G0xx_HAL_Driver/Inc/stm32g0xx_ll_ucpd.h ****   * @brief  Enable type c event on CC2
ARM GAS  /tmp/ccdnVxo0.s 			page 37


 802:Drivers/STM32G0xx_HAL_Driver/Inc/stm32g0xx_ll_ucpd.h ****   * @rmtoll IMR          TYPECEVT2IE        LL_UCPD_EnableIT_TypeCEventCC2
 803:Drivers/STM32G0xx_HAL_Driver/Inc/stm32g0xx_ll_ucpd.h ****   * @param  UCPDx UCPD Instance
 804:Drivers/STM32G0xx_HAL_Driver/Inc/stm32g0xx_ll_ucpd.h ****   * @retval None
 805:Drivers/STM32G0xx_HAL_Driver/Inc/stm32g0xx_ll_ucpd.h ****   */
 806:Drivers/STM32G0xx_HAL_Driver/Inc/stm32g0xx_ll_ucpd.h **** __STATIC_INLINE void LL_UCPD_EnableIT_TypeCEventCC2(UCPD_TypeDef *UCPDx)
 807:Drivers/STM32G0xx_HAL_Driver/Inc/stm32g0xx_ll_ucpd.h **** {
 808:Drivers/STM32G0xx_HAL_Driver/Inc/stm32g0xx_ll_ucpd.h ****   SET_BIT(UCPDx->IMR, UCPD_IMR_TYPECEVT2IE);
 809:Drivers/STM32G0xx_HAL_Driver/Inc/stm32g0xx_ll_ucpd.h **** }
 810:Drivers/STM32G0xx_HAL_Driver/Inc/stm32g0xx_ll_ucpd.h **** 
 811:Drivers/STM32G0xx_HAL_Driver/Inc/stm32g0xx_ll_ucpd.h **** /**
 812:Drivers/STM32G0xx_HAL_Driver/Inc/stm32g0xx_ll_ucpd.h ****   * @brief  Enable type c event on CC1
 813:Drivers/STM32G0xx_HAL_Driver/Inc/stm32g0xx_ll_ucpd.h ****   * @rmtoll IMR          TYPECEVT1IE        LL_UCPD_EnableIT_TypeCEventCC1
 814:Drivers/STM32G0xx_HAL_Driver/Inc/stm32g0xx_ll_ucpd.h ****   * @param  UCPDx UCPD Instance
 815:Drivers/STM32G0xx_HAL_Driver/Inc/stm32g0xx_ll_ucpd.h ****   * @retval None
 816:Drivers/STM32G0xx_HAL_Driver/Inc/stm32g0xx_ll_ucpd.h ****   */
 817:Drivers/STM32G0xx_HAL_Driver/Inc/stm32g0xx_ll_ucpd.h **** __STATIC_INLINE void LL_UCPD_EnableIT_TypeCEventCC1(UCPD_TypeDef *UCPDx)
 818:Drivers/STM32G0xx_HAL_Driver/Inc/stm32g0xx_ll_ucpd.h **** {
 819:Drivers/STM32G0xx_HAL_Driver/Inc/stm32g0xx_ll_ucpd.h ****   SET_BIT(UCPDx->IMR, UCPD_IMR_TYPECEVT1IE);
 820:Drivers/STM32G0xx_HAL_Driver/Inc/stm32g0xx_ll_ucpd.h **** }
 821:Drivers/STM32G0xx_HAL_Driver/Inc/stm32g0xx_ll_ucpd.h **** 
 822:Drivers/STM32G0xx_HAL_Driver/Inc/stm32g0xx_ll_ucpd.h **** /**
 823:Drivers/STM32G0xx_HAL_Driver/Inc/stm32g0xx_ll_ucpd.h ****   * @brief  Enable Rx message end interrupt
 824:Drivers/STM32G0xx_HAL_Driver/Inc/stm32g0xx_ll_ucpd.h ****   * @rmtoll IMR          RXMSGENDIE         LL_UCPD_EnableIT_RxMsgEnd
 825:Drivers/STM32G0xx_HAL_Driver/Inc/stm32g0xx_ll_ucpd.h ****   * @param  UCPDx UCPD Instance
 826:Drivers/STM32G0xx_HAL_Driver/Inc/stm32g0xx_ll_ucpd.h ****   * @retval None
 827:Drivers/STM32G0xx_HAL_Driver/Inc/stm32g0xx_ll_ucpd.h ****   */
 828:Drivers/STM32G0xx_HAL_Driver/Inc/stm32g0xx_ll_ucpd.h **** __STATIC_INLINE void LL_UCPD_EnableIT_RxMsgEnd(UCPD_TypeDef *UCPDx)
 829:Drivers/STM32G0xx_HAL_Driver/Inc/stm32g0xx_ll_ucpd.h **** {
 830:Drivers/STM32G0xx_HAL_Driver/Inc/stm32g0xx_ll_ucpd.h ****   SET_BIT(UCPDx->IMR, UCPD_IMR_RXMSGENDIE);
 831:Drivers/STM32G0xx_HAL_Driver/Inc/stm32g0xx_ll_ucpd.h **** }
 832:Drivers/STM32G0xx_HAL_Driver/Inc/stm32g0xx_ll_ucpd.h **** 
 833:Drivers/STM32G0xx_HAL_Driver/Inc/stm32g0xx_ll_ucpd.h **** /**
 834:Drivers/STM32G0xx_HAL_Driver/Inc/stm32g0xx_ll_ucpd.h ****   * @brief  Enable Rx overrun interrupt
 835:Drivers/STM32G0xx_HAL_Driver/Inc/stm32g0xx_ll_ucpd.h ****   * @rmtoll IMR          RXOVRIE         LL_UCPD_EnableIT_RxOvr
 836:Drivers/STM32G0xx_HAL_Driver/Inc/stm32g0xx_ll_ucpd.h ****   * @param  UCPDx UCPD Instance
 837:Drivers/STM32G0xx_HAL_Driver/Inc/stm32g0xx_ll_ucpd.h ****   * @retval None
 838:Drivers/STM32G0xx_HAL_Driver/Inc/stm32g0xx_ll_ucpd.h ****   */
 839:Drivers/STM32G0xx_HAL_Driver/Inc/stm32g0xx_ll_ucpd.h **** __STATIC_INLINE void LL_UCPD_EnableIT_RxOvr(UCPD_TypeDef *UCPDx)
 840:Drivers/STM32G0xx_HAL_Driver/Inc/stm32g0xx_ll_ucpd.h **** {
 841:Drivers/STM32G0xx_HAL_Driver/Inc/stm32g0xx_ll_ucpd.h ****   SET_BIT(UCPDx->IMR, UCPD_IMR_RXOVRIE);
 842:Drivers/STM32G0xx_HAL_Driver/Inc/stm32g0xx_ll_ucpd.h **** }
 843:Drivers/STM32G0xx_HAL_Driver/Inc/stm32g0xx_ll_ucpd.h **** 
 844:Drivers/STM32G0xx_HAL_Driver/Inc/stm32g0xx_ll_ucpd.h **** /**
 845:Drivers/STM32G0xx_HAL_Driver/Inc/stm32g0xx_ll_ucpd.h ****   * @brief  Enable Rx hard resrt interrupt
 846:Drivers/STM32G0xx_HAL_Driver/Inc/stm32g0xx_ll_ucpd.h ****   * @rmtoll IMR          RXHRSTDETIE         LL_UCPD_EnableIT_RxHRST
 847:Drivers/STM32G0xx_HAL_Driver/Inc/stm32g0xx_ll_ucpd.h ****   * @param  UCPDx UCPD Instance
 848:Drivers/STM32G0xx_HAL_Driver/Inc/stm32g0xx_ll_ucpd.h ****   * @retval None
 849:Drivers/STM32G0xx_HAL_Driver/Inc/stm32g0xx_ll_ucpd.h ****   */
 850:Drivers/STM32G0xx_HAL_Driver/Inc/stm32g0xx_ll_ucpd.h **** __STATIC_INLINE void LL_UCPD_EnableIT_RxHRST(UCPD_TypeDef *UCPDx)
 851:Drivers/STM32G0xx_HAL_Driver/Inc/stm32g0xx_ll_ucpd.h **** {
 852:Drivers/STM32G0xx_HAL_Driver/Inc/stm32g0xx_ll_ucpd.h ****   SET_BIT(UCPDx->IMR, UCPD_IMR_RXHRSTDETIE);
 853:Drivers/STM32G0xx_HAL_Driver/Inc/stm32g0xx_ll_ucpd.h **** }
 854:Drivers/STM32G0xx_HAL_Driver/Inc/stm32g0xx_ll_ucpd.h **** 
 855:Drivers/STM32G0xx_HAL_Driver/Inc/stm32g0xx_ll_ucpd.h **** /**
 856:Drivers/STM32G0xx_HAL_Driver/Inc/stm32g0xx_ll_ucpd.h ****   * @brief  Enable Rx orderset interrupt
 857:Drivers/STM32G0xx_HAL_Driver/Inc/stm32g0xx_ll_ucpd.h ****   * @rmtoll IMR          RXORDDETIE         LL_UCPD_EnableIT_RxOrderSet
 858:Drivers/STM32G0xx_HAL_Driver/Inc/stm32g0xx_ll_ucpd.h ****   * @param  UCPDx UCPD Instance
ARM GAS  /tmp/ccdnVxo0.s 			page 38


 859:Drivers/STM32G0xx_HAL_Driver/Inc/stm32g0xx_ll_ucpd.h ****   * @retval None
 860:Drivers/STM32G0xx_HAL_Driver/Inc/stm32g0xx_ll_ucpd.h ****   */
 861:Drivers/STM32G0xx_HAL_Driver/Inc/stm32g0xx_ll_ucpd.h **** __STATIC_INLINE void LL_UCPD_EnableIT_RxOrderSet(UCPD_TypeDef *UCPDx)
 862:Drivers/STM32G0xx_HAL_Driver/Inc/stm32g0xx_ll_ucpd.h **** {
 863:Drivers/STM32G0xx_HAL_Driver/Inc/stm32g0xx_ll_ucpd.h ****   SET_BIT(UCPDx->IMR, UCPD_IMR_RXORDDETIE);
 864:Drivers/STM32G0xx_HAL_Driver/Inc/stm32g0xx_ll_ucpd.h **** }
 865:Drivers/STM32G0xx_HAL_Driver/Inc/stm32g0xx_ll_ucpd.h **** 
 866:Drivers/STM32G0xx_HAL_Driver/Inc/stm32g0xx_ll_ucpd.h **** /**
 867:Drivers/STM32G0xx_HAL_Driver/Inc/stm32g0xx_ll_ucpd.h ****   * @brief  Enable Rx non empty interrupt
 868:Drivers/STM32G0xx_HAL_Driver/Inc/stm32g0xx_ll_ucpd.h ****   * @rmtoll IMR          RXNEIE         LL_UCPD_EnableIT_RxNE
 869:Drivers/STM32G0xx_HAL_Driver/Inc/stm32g0xx_ll_ucpd.h ****   * @param  UCPDx UCPD Instance
 870:Drivers/STM32G0xx_HAL_Driver/Inc/stm32g0xx_ll_ucpd.h ****   * @retval None
 871:Drivers/STM32G0xx_HAL_Driver/Inc/stm32g0xx_ll_ucpd.h ****   */
 872:Drivers/STM32G0xx_HAL_Driver/Inc/stm32g0xx_ll_ucpd.h **** __STATIC_INLINE void LL_UCPD_EnableIT_RxNE(UCPD_TypeDef *UCPDx)
 873:Drivers/STM32G0xx_HAL_Driver/Inc/stm32g0xx_ll_ucpd.h **** {
 874:Drivers/STM32G0xx_HAL_Driver/Inc/stm32g0xx_ll_ucpd.h ****   SET_BIT(UCPDx->IMR, UCPD_IMR_RXNEIE);
 875:Drivers/STM32G0xx_HAL_Driver/Inc/stm32g0xx_ll_ucpd.h **** }
 876:Drivers/STM32G0xx_HAL_Driver/Inc/stm32g0xx_ll_ucpd.h **** 
 877:Drivers/STM32G0xx_HAL_Driver/Inc/stm32g0xx_ll_ucpd.h **** /**
 878:Drivers/STM32G0xx_HAL_Driver/Inc/stm32g0xx_ll_ucpd.h ****   * @brief  Enable TX underrun interrupt
 879:Drivers/STM32G0xx_HAL_Driver/Inc/stm32g0xx_ll_ucpd.h ****   * @rmtoll IMR          TXUNDIE         LL_UCPD_EnableIT_TxUND
 880:Drivers/STM32G0xx_HAL_Driver/Inc/stm32g0xx_ll_ucpd.h ****   * @param  UCPDx UCPD Instance
 881:Drivers/STM32G0xx_HAL_Driver/Inc/stm32g0xx_ll_ucpd.h ****   * @retval None
 882:Drivers/STM32G0xx_HAL_Driver/Inc/stm32g0xx_ll_ucpd.h ****   */
 883:Drivers/STM32G0xx_HAL_Driver/Inc/stm32g0xx_ll_ucpd.h **** __STATIC_INLINE void LL_UCPD_EnableIT_TxUND(UCPD_TypeDef *UCPDx)
 884:Drivers/STM32G0xx_HAL_Driver/Inc/stm32g0xx_ll_ucpd.h **** {
 885:Drivers/STM32G0xx_HAL_Driver/Inc/stm32g0xx_ll_ucpd.h ****   SET_BIT(UCPDx->IMR, UCPD_IMR_TXUNDIE);
 886:Drivers/STM32G0xx_HAL_Driver/Inc/stm32g0xx_ll_ucpd.h **** }
 887:Drivers/STM32G0xx_HAL_Driver/Inc/stm32g0xx_ll_ucpd.h **** 
 888:Drivers/STM32G0xx_HAL_Driver/Inc/stm32g0xx_ll_ucpd.h **** /**
 889:Drivers/STM32G0xx_HAL_Driver/Inc/stm32g0xx_ll_ucpd.h ****   * @brief  Enable hard reset sent interrupt
 890:Drivers/STM32G0xx_HAL_Driver/Inc/stm32g0xx_ll_ucpd.h ****   * @rmtoll IMR          HRSTSENTIE         LL_UCPD_EnableIT_TxHRSTSENT
 891:Drivers/STM32G0xx_HAL_Driver/Inc/stm32g0xx_ll_ucpd.h ****   * @param  UCPDx UCPD Instance
 892:Drivers/STM32G0xx_HAL_Driver/Inc/stm32g0xx_ll_ucpd.h ****   * @retval None
 893:Drivers/STM32G0xx_HAL_Driver/Inc/stm32g0xx_ll_ucpd.h ****   */
 894:Drivers/STM32G0xx_HAL_Driver/Inc/stm32g0xx_ll_ucpd.h **** __STATIC_INLINE void LL_UCPD_EnableIT_TxHRSTSENT(UCPD_TypeDef *UCPDx)
 895:Drivers/STM32G0xx_HAL_Driver/Inc/stm32g0xx_ll_ucpd.h **** {
 896:Drivers/STM32G0xx_HAL_Driver/Inc/stm32g0xx_ll_ucpd.h ****   SET_BIT(UCPDx->IMR, UCPD_IMR_HRSTSENTIE);
 897:Drivers/STM32G0xx_HAL_Driver/Inc/stm32g0xx_ll_ucpd.h **** }
 898:Drivers/STM32G0xx_HAL_Driver/Inc/stm32g0xx_ll_ucpd.h **** 
 899:Drivers/STM32G0xx_HAL_Driver/Inc/stm32g0xx_ll_ucpd.h **** /**
 900:Drivers/STM32G0xx_HAL_Driver/Inc/stm32g0xx_ll_ucpd.h ****   * @brief  Enable hard reset discard interrupt
 901:Drivers/STM32G0xx_HAL_Driver/Inc/stm32g0xx_ll_ucpd.h ****   * @rmtoll IMR          HRSTDISCIE         LL_UCPD_EnableIT_TxHRSTDISC
 902:Drivers/STM32G0xx_HAL_Driver/Inc/stm32g0xx_ll_ucpd.h ****   * @param  UCPDx UCPD Instance
 903:Drivers/STM32G0xx_HAL_Driver/Inc/stm32g0xx_ll_ucpd.h ****   * @retval None
 904:Drivers/STM32G0xx_HAL_Driver/Inc/stm32g0xx_ll_ucpd.h ****   */
 905:Drivers/STM32G0xx_HAL_Driver/Inc/stm32g0xx_ll_ucpd.h **** __STATIC_INLINE void LL_UCPD_EnableIT_TxHRSTDISC(UCPD_TypeDef *UCPDx)
 906:Drivers/STM32G0xx_HAL_Driver/Inc/stm32g0xx_ll_ucpd.h **** {
 907:Drivers/STM32G0xx_HAL_Driver/Inc/stm32g0xx_ll_ucpd.h ****   SET_BIT(UCPDx->IMR, UCPD_IMR_HRSTDISCIE);
 908:Drivers/STM32G0xx_HAL_Driver/Inc/stm32g0xx_ll_ucpd.h **** }
 909:Drivers/STM32G0xx_HAL_Driver/Inc/stm32g0xx_ll_ucpd.h **** 
 910:Drivers/STM32G0xx_HAL_Driver/Inc/stm32g0xx_ll_ucpd.h **** /**
 911:Drivers/STM32G0xx_HAL_Driver/Inc/stm32g0xx_ll_ucpd.h ****   * @brief  Enable Tx message abort interrupt
 912:Drivers/STM32G0xx_HAL_Driver/Inc/stm32g0xx_ll_ucpd.h ****   * @rmtoll IMR          TXMSGABTIE         LL_UCPD_EnableIT_TxMSGABT
 913:Drivers/STM32G0xx_HAL_Driver/Inc/stm32g0xx_ll_ucpd.h ****   * @param  UCPDx UCPD Instance
 914:Drivers/STM32G0xx_HAL_Driver/Inc/stm32g0xx_ll_ucpd.h ****   * @retval None
 915:Drivers/STM32G0xx_HAL_Driver/Inc/stm32g0xx_ll_ucpd.h ****   */
ARM GAS  /tmp/ccdnVxo0.s 			page 39


 916:Drivers/STM32G0xx_HAL_Driver/Inc/stm32g0xx_ll_ucpd.h **** __STATIC_INLINE void LL_UCPD_EnableIT_TxMSGABT(UCPD_TypeDef *UCPDx)
 917:Drivers/STM32G0xx_HAL_Driver/Inc/stm32g0xx_ll_ucpd.h **** {
 918:Drivers/STM32G0xx_HAL_Driver/Inc/stm32g0xx_ll_ucpd.h ****   SET_BIT(UCPDx->IMR, UCPD_IMR_TXMSGABTIE);
 919:Drivers/STM32G0xx_HAL_Driver/Inc/stm32g0xx_ll_ucpd.h **** }
 920:Drivers/STM32G0xx_HAL_Driver/Inc/stm32g0xx_ll_ucpd.h **** 
 921:Drivers/STM32G0xx_HAL_Driver/Inc/stm32g0xx_ll_ucpd.h **** /**
 922:Drivers/STM32G0xx_HAL_Driver/Inc/stm32g0xx_ll_ucpd.h ****   * @brief  Enable Tx message sent interrupt
 923:Drivers/STM32G0xx_HAL_Driver/Inc/stm32g0xx_ll_ucpd.h ****   * @rmtoll IMR          TXMSGSENTIE         LL_UCPD_EnableIT_TxMSGSENT
 924:Drivers/STM32G0xx_HAL_Driver/Inc/stm32g0xx_ll_ucpd.h ****   * @param  UCPDx UCPD Instance
 925:Drivers/STM32G0xx_HAL_Driver/Inc/stm32g0xx_ll_ucpd.h ****   * @retval None
 926:Drivers/STM32G0xx_HAL_Driver/Inc/stm32g0xx_ll_ucpd.h ****   */
 927:Drivers/STM32G0xx_HAL_Driver/Inc/stm32g0xx_ll_ucpd.h **** __STATIC_INLINE void LL_UCPD_EnableIT_TxMSGSENT(UCPD_TypeDef *UCPDx)
 928:Drivers/STM32G0xx_HAL_Driver/Inc/stm32g0xx_ll_ucpd.h **** {
 929:Drivers/STM32G0xx_HAL_Driver/Inc/stm32g0xx_ll_ucpd.h ****   SET_BIT(UCPDx->IMR, UCPD_IMR_TXMSGSENTIE);
 930:Drivers/STM32G0xx_HAL_Driver/Inc/stm32g0xx_ll_ucpd.h **** }
 931:Drivers/STM32G0xx_HAL_Driver/Inc/stm32g0xx_ll_ucpd.h **** 
 932:Drivers/STM32G0xx_HAL_Driver/Inc/stm32g0xx_ll_ucpd.h **** /**
 933:Drivers/STM32G0xx_HAL_Driver/Inc/stm32g0xx_ll_ucpd.h ****   * @brief  Enable Tx message discarded interrupt
 934:Drivers/STM32G0xx_HAL_Driver/Inc/stm32g0xx_ll_ucpd.h ****   * @rmtoll IMR          TXMSGDISCIE         LL_UCPD_EnableIT_TxMSGDISC
 935:Drivers/STM32G0xx_HAL_Driver/Inc/stm32g0xx_ll_ucpd.h ****   * @param  UCPDx UCPD Instance
 936:Drivers/STM32G0xx_HAL_Driver/Inc/stm32g0xx_ll_ucpd.h ****   * @retval None
 937:Drivers/STM32G0xx_HAL_Driver/Inc/stm32g0xx_ll_ucpd.h ****   */
 938:Drivers/STM32G0xx_HAL_Driver/Inc/stm32g0xx_ll_ucpd.h **** __STATIC_INLINE void LL_UCPD_EnableIT_TxMSGDISC(UCPD_TypeDef *UCPDx)
 939:Drivers/STM32G0xx_HAL_Driver/Inc/stm32g0xx_ll_ucpd.h **** {
 940:Drivers/STM32G0xx_HAL_Driver/Inc/stm32g0xx_ll_ucpd.h ****   SET_BIT(UCPDx->IMR, UCPD_IMR_TXMSGDISCIE);
 941:Drivers/STM32G0xx_HAL_Driver/Inc/stm32g0xx_ll_ucpd.h **** }
 942:Drivers/STM32G0xx_HAL_Driver/Inc/stm32g0xx_ll_ucpd.h **** 
 943:Drivers/STM32G0xx_HAL_Driver/Inc/stm32g0xx_ll_ucpd.h **** /**
 944:Drivers/STM32G0xx_HAL_Driver/Inc/stm32g0xx_ll_ucpd.h ****   * @brief  Enable Tx data receive interrupt
 945:Drivers/STM32G0xx_HAL_Driver/Inc/stm32g0xx_ll_ucpd.h ****   * @rmtoll IMR          TXISIE         LL_UCPD_EnableIT_TxIS
 946:Drivers/STM32G0xx_HAL_Driver/Inc/stm32g0xx_ll_ucpd.h ****   * @param  UCPDx UCPD Instance
 947:Drivers/STM32G0xx_HAL_Driver/Inc/stm32g0xx_ll_ucpd.h ****   * @retval None
 948:Drivers/STM32G0xx_HAL_Driver/Inc/stm32g0xx_ll_ucpd.h ****   */
 949:Drivers/STM32G0xx_HAL_Driver/Inc/stm32g0xx_ll_ucpd.h **** __STATIC_INLINE void LL_UCPD_EnableIT_TxIS(UCPD_TypeDef *UCPDx)
 950:Drivers/STM32G0xx_HAL_Driver/Inc/stm32g0xx_ll_ucpd.h **** {
 951:Drivers/STM32G0xx_HAL_Driver/Inc/stm32g0xx_ll_ucpd.h ****   SET_BIT(UCPDx->IMR, UCPD_IMR_TXISIE);
 952:Drivers/STM32G0xx_HAL_Driver/Inc/stm32g0xx_ll_ucpd.h **** }
 953:Drivers/STM32G0xx_HAL_Driver/Inc/stm32g0xx_ll_ucpd.h **** 
 954:Drivers/STM32G0xx_HAL_Driver/Inc/stm32g0xx_ll_ucpd.h **** /**
 955:Drivers/STM32G0xx_HAL_Driver/Inc/stm32g0xx_ll_ucpd.h ****   * @brief  Disable FRS interrupt
 956:Drivers/STM32G0xx_HAL_Driver/Inc/stm32g0xx_ll_ucpd.h ****   * @rmtoll IMR          FRSEVTIE         LL_UCPD_DisableIT_FRS
 957:Drivers/STM32G0xx_HAL_Driver/Inc/stm32g0xx_ll_ucpd.h ****   * @param  UCPDx UCPD Instance
 958:Drivers/STM32G0xx_HAL_Driver/Inc/stm32g0xx_ll_ucpd.h ****   * @retval None
 959:Drivers/STM32G0xx_HAL_Driver/Inc/stm32g0xx_ll_ucpd.h ****   */
 960:Drivers/STM32G0xx_HAL_Driver/Inc/stm32g0xx_ll_ucpd.h **** __STATIC_INLINE void LL_UCPD_DisableIT_FRS(UCPD_TypeDef *UCPDx)
 961:Drivers/STM32G0xx_HAL_Driver/Inc/stm32g0xx_ll_ucpd.h **** {
 962:Drivers/STM32G0xx_HAL_Driver/Inc/stm32g0xx_ll_ucpd.h ****   CLEAR_BIT(UCPDx->IMR, UCPD_IMR_FRSEVTIE);
 963:Drivers/STM32G0xx_HAL_Driver/Inc/stm32g0xx_ll_ucpd.h **** }
 964:Drivers/STM32G0xx_HAL_Driver/Inc/stm32g0xx_ll_ucpd.h **** 
 965:Drivers/STM32G0xx_HAL_Driver/Inc/stm32g0xx_ll_ucpd.h **** /**
 966:Drivers/STM32G0xx_HAL_Driver/Inc/stm32g0xx_ll_ucpd.h ****   * @brief  Disable type c event on CC2
 967:Drivers/STM32G0xx_HAL_Driver/Inc/stm32g0xx_ll_ucpd.h ****   * @rmtoll IMR          TYPECEVT2IE        LL_UCPD_DisableIT_TypeCEventCC2
 968:Drivers/STM32G0xx_HAL_Driver/Inc/stm32g0xx_ll_ucpd.h ****   * @param  UCPDx UCPD Instance
 969:Drivers/STM32G0xx_HAL_Driver/Inc/stm32g0xx_ll_ucpd.h ****   * @retval None
 970:Drivers/STM32G0xx_HAL_Driver/Inc/stm32g0xx_ll_ucpd.h ****   */
 971:Drivers/STM32G0xx_HAL_Driver/Inc/stm32g0xx_ll_ucpd.h **** __STATIC_INLINE void LL_UCPD_DisableIT_TypeCEventCC2(UCPD_TypeDef *UCPDx)
 972:Drivers/STM32G0xx_HAL_Driver/Inc/stm32g0xx_ll_ucpd.h **** {
ARM GAS  /tmp/ccdnVxo0.s 			page 40


 973:Drivers/STM32G0xx_HAL_Driver/Inc/stm32g0xx_ll_ucpd.h ****   CLEAR_BIT(UCPDx->IMR, UCPD_IMR_TYPECEVT2IE);
 974:Drivers/STM32G0xx_HAL_Driver/Inc/stm32g0xx_ll_ucpd.h **** }
 975:Drivers/STM32G0xx_HAL_Driver/Inc/stm32g0xx_ll_ucpd.h **** 
 976:Drivers/STM32G0xx_HAL_Driver/Inc/stm32g0xx_ll_ucpd.h **** /**
 977:Drivers/STM32G0xx_HAL_Driver/Inc/stm32g0xx_ll_ucpd.h ****   * @brief  Disable type c event on CC1
 978:Drivers/STM32G0xx_HAL_Driver/Inc/stm32g0xx_ll_ucpd.h ****   * @rmtoll IMR          TYPECEVT1IE        LL_UCPD_DisableIT_TypeCEventCC1
 979:Drivers/STM32G0xx_HAL_Driver/Inc/stm32g0xx_ll_ucpd.h ****   * @param  UCPDx UCPD Instance
 980:Drivers/STM32G0xx_HAL_Driver/Inc/stm32g0xx_ll_ucpd.h ****   * @retval None
 981:Drivers/STM32G0xx_HAL_Driver/Inc/stm32g0xx_ll_ucpd.h ****   */
 982:Drivers/STM32G0xx_HAL_Driver/Inc/stm32g0xx_ll_ucpd.h **** __STATIC_INLINE void LL_UCPD_DisableIT_TypeCEventCC1(UCPD_TypeDef *UCPDx)
 983:Drivers/STM32G0xx_HAL_Driver/Inc/stm32g0xx_ll_ucpd.h **** {
 984:Drivers/STM32G0xx_HAL_Driver/Inc/stm32g0xx_ll_ucpd.h ****   CLEAR_BIT(UCPDx->IMR, UCPD_IMR_TYPECEVT1IE);
 985:Drivers/STM32G0xx_HAL_Driver/Inc/stm32g0xx_ll_ucpd.h **** }
 986:Drivers/STM32G0xx_HAL_Driver/Inc/stm32g0xx_ll_ucpd.h **** 
 987:Drivers/STM32G0xx_HAL_Driver/Inc/stm32g0xx_ll_ucpd.h **** /**
 988:Drivers/STM32G0xx_HAL_Driver/Inc/stm32g0xx_ll_ucpd.h ****   * @brief  Disable Rx message end interrupt
 989:Drivers/STM32G0xx_HAL_Driver/Inc/stm32g0xx_ll_ucpd.h ****   * @rmtoll IMR          RXMSGENDIE         LL_UCPD_DisableIT_RxMsgEnd
 990:Drivers/STM32G0xx_HAL_Driver/Inc/stm32g0xx_ll_ucpd.h ****   * @param  UCPDx UCPD Instance
 991:Drivers/STM32G0xx_HAL_Driver/Inc/stm32g0xx_ll_ucpd.h ****   * @retval None
 992:Drivers/STM32G0xx_HAL_Driver/Inc/stm32g0xx_ll_ucpd.h ****   */
 993:Drivers/STM32G0xx_HAL_Driver/Inc/stm32g0xx_ll_ucpd.h **** __STATIC_INLINE void LL_UCPD_DisableIT_RxMsgEnd(UCPD_TypeDef *UCPDx)
 994:Drivers/STM32G0xx_HAL_Driver/Inc/stm32g0xx_ll_ucpd.h **** {
 995:Drivers/STM32G0xx_HAL_Driver/Inc/stm32g0xx_ll_ucpd.h ****   CLEAR_BIT(UCPDx->IMR, UCPD_IMR_RXMSGENDIE);
 996:Drivers/STM32G0xx_HAL_Driver/Inc/stm32g0xx_ll_ucpd.h **** }
 997:Drivers/STM32G0xx_HAL_Driver/Inc/stm32g0xx_ll_ucpd.h **** 
 998:Drivers/STM32G0xx_HAL_Driver/Inc/stm32g0xx_ll_ucpd.h **** /**
 999:Drivers/STM32G0xx_HAL_Driver/Inc/stm32g0xx_ll_ucpd.h ****   * @brief  Disable Rx overrun interrupt
1000:Drivers/STM32G0xx_HAL_Driver/Inc/stm32g0xx_ll_ucpd.h ****   * @rmtoll IMR          RXOVRIE         LL_UCPD_DisableIT_RxOvr
1001:Drivers/STM32G0xx_HAL_Driver/Inc/stm32g0xx_ll_ucpd.h ****   * @param  UCPDx UCPD Instance
1002:Drivers/STM32G0xx_HAL_Driver/Inc/stm32g0xx_ll_ucpd.h ****   * @retval None
1003:Drivers/STM32G0xx_HAL_Driver/Inc/stm32g0xx_ll_ucpd.h ****   */
1004:Drivers/STM32G0xx_HAL_Driver/Inc/stm32g0xx_ll_ucpd.h **** __STATIC_INLINE void LL_UCPD_DisableIT_RxOvr(UCPD_TypeDef *UCPDx)
1005:Drivers/STM32G0xx_HAL_Driver/Inc/stm32g0xx_ll_ucpd.h **** {
1006:Drivers/STM32G0xx_HAL_Driver/Inc/stm32g0xx_ll_ucpd.h ****   CLEAR_BIT(UCPDx->IMR, UCPD_IMR_RXOVRIE);
1007:Drivers/STM32G0xx_HAL_Driver/Inc/stm32g0xx_ll_ucpd.h **** }
1008:Drivers/STM32G0xx_HAL_Driver/Inc/stm32g0xx_ll_ucpd.h **** 
1009:Drivers/STM32G0xx_HAL_Driver/Inc/stm32g0xx_ll_ucpd.h **** /**
1010:Drivers/STM32G0xx_HAL_Driver/Inc/stm32g0xx_ll_ucpd.h ****   * @brief  Disable Rx hard resrt interrupt
1011:Drivers/STM32G0xx_HAL_Driver/Inc/stm32g0xx_ll_ucpd.h ****   * @rmtoll IMR          RXHRSTDETIE         LL_UCPD_DisableIT_RxHRST
1012:Drivers/STM32G0xx_HAL_Driver/Inc/stm32g0xx_ll_ucpd.h ****   * @param  UCPDx UCPD Instance
1013:Drivers/STM32G0xx_HAL_Driver/Inc/stm32g0xx_ll_ucpd.h ****   * @retval None
1014:Drivers/STM32G0xx_HAL_Driver/Inc/stm32g0xx_ll_ucpd.h ****   */
1015:Drivers/STM32G0xx_HAL_Driver/Inc/stm32g0xx_ll_ucpd.h **** __STATIC_INLINE void LL_UCPD_DisableIT_RxHRST(UCPD_TypeDef *UCPDx)
1016:Drivers/STM32G0xx_HAL_Driver/Inc/stm32g0xx_ll_ucpd.h **** {
1017:Drivers/STM32G0xx_HAL_Driver/Inc/stm32g0xx_ll_ucpd.h ****   CLEAR_BIT(UCPDx->IMR, UCPD_IMR_RXHRSTDETIE);
1018:Drivers/STM32G0xx_HAL_Driver/Inc/stm32g0xx_ll_ucpd.h **** }
1019:Drivers/STM32G0xx_HAL_Driver/Inc/stm32g0xx_ll_ucpd.h **** 
1020:Drivers/STM32G0xx_HAL_Driver/Inc/stm32g0xx_ll_ucpd.h **** /**
1021:Drivers/STM32G0xx_HAL_Driver/Inc/stm32g0xx_ll_ucpd.h ****   * @brief  Disable Rx orderset interrupt
1022:Drivers/STM32G0xx_HAL_Driver/Inc/stm32g0xx_ll_ucpd.h ****   * @rmtoll IMR          RXORDDETIE         LL_UCPD_DisableIT_RxOrderSet
1023:Drivers/STM32G0xx_HAL_Driver/Inc/stm32g0xx_ll_ucpd.h ****   * @param  UCPDx UCPD Instance
1024:Drivers/STM32G0xx_HAL_Driver/Inc/stm32g0xx_ll_ucpd.h ****   * @retval None
1025:Drivers/STM32G0xx_HAL_Driver/Inc/stm32g0xx_ll_ucpd.h ****   */
1026:Drivers/STM32G0xx_HAL_Driver/Inc/stm32g0xx_ll_ucpd.h **** __STATIC_INLINE void LL_UCPD_DisableIT_RxOrderSet(UCPD_TypeDef *UCPDx)
1027:Drivers/STM32G0xx_HAL_Driver/Inc/stm32g0xx_ll_ucpd.h **** {
1028:Drivers/STM32G0xx_HAL_Driver/Inc/stm32g0xx_ll_ucpd.h ****   CLEAR_BIT(UCPDx->IMR, UCPD_IMR_RXORDDETIE);
1029:Drivers/STM32G0xx_HAL_Driver/Inc/stm32g0xx_ll_ucpd.h **** }
ARM GAS  /tmp/ccdnVxo0.s 			page 41


1030:Drivers/STM32G0xx_HAL_Driver/Inc/stm32g0xx_ll_ucpd.h **** 
1031:Drivers/STM32G0xx_HAL_Driver/Inc/stm32g0xx_ll_ucpd.h **** /**
1032:Drivers/STM32G0xx_HAL_Driver/Inc/stm32g0xx_ll_ucpd.h ****   * @brief  Disable Rx non empty interrupt
1033:Drivers/STM32G0xx_HAL_Driver/Inc/stm32g0xx_ll_ucpd.h ****   * @rmtoll IMR          RXNEIE         LL_UCPD_DisableIT_RxNE
1034:Drivers/STM32G0xx_HAL_Driver/Inc/stm32g0xx_ll_ucpd.h ****   * @param  UCPDx UCPD Instance
1035:Drivers/STM32G0xx_HAL_Driver/Inc/stm32g0xx_ll_ucpd.h ****   * @retval None
1036:Drivers/STM32G0xx_HAL_Driver/Inc/stm32g0xx_ll_ucpd.h ****   */
1037:Drivers/STM32G0xx_HAL_Driver/Inc/stm32g0xx_ll_ucpd.h **** __STATIC_INLINE void LL_UCPD_DisableIT_RxNE(UCPD_TypeDef *UCPDx)
1038:Drivers/STM32G0xx_HAL_Driver/Inc/stm32g0xx_ll_ucpd.h **** {
1039:Drivers/STM32G0xx_HAL_Driver/Inc/stm32g0xx_ll_ucpd.h ****   CLEAR_BIT(UCPDx->IMR, UCPD_IMR_RXNEIE);
1040:Drivers/STM32G0xx_HAL_Driver/Inc/stm32g0xx_ll_ucpd.h **** }
1041:Drivers/STM32G0xx_HAL_Driver/Inc/stm32g0xx_ll_ucpd.h **** 
1042:Drivers/STM32G0xx_HAL_Driver/Inc/stm32g0xx_ll_ucpd.h **** /**
1043:Drivers/STM32G0xx_HAL_Driver/Inc/stm32g0xx_ll_ucpd.h ****   * @brief  Disable TX underrun interrupt
1044:Drivers/STM32G0xx_HAL_Driver/Inc/stm32g0xx_ll_ucpd.h ****   * @rmtoll IMR          TXUNDIE         LL_UCPD_DisableIT_TxUND
1045:Drivers/STM32G0xx_HAL_Driver/Inc/stm32g0xx_ll_ucpd.h ****   * @param  UCPDx UCPD Instance
1046:Drivers/STM32G0xx_HAL_Driver/Inc/stm32g0xx_ll_ucpd.h ****   * @retval None
1047:Drivers/STM32G0xx_HAL_Driver/Inc/stm32g0xx_ll_ucpd.h ****   */
1048:Drivers/STM32G0xx_HAL_Driver/Inc/stm32g0xx_ll_ucpd.h **** __STATIC_INLINE void LL_UCPD_DisableIT_TxUND(UCPD_TypeDef *UCPDx)
1049:Drivers/STM32G0xx_HAL_Driver/Inc/stm32g0xx_ll_ucpd.h **** {
1050:Drivers/STM32G0xx_HAL_Driver/Inc/stm32g0xx_ll_ucpd.h ****   CLEAR_BIT(UCPDx->IMR, UCPD_IMR_TXUNDIE);
1051:Drivers/STM32G0xx_HAL_Driver/Inc/stm32g0xx_ll_ucpd.h **** }
1052:Drivers/STM32G0xx_HAL_Driver/Inc/stm32g0xx_ll_ucpd.h **** 
1053:Drivers/STM32G0xx_HAL_Driver/Inc/stm32g0xx_ll_ucpd.h **** /**
1054:Drivers/STM32G0xx_HAL_Driver/Inc/stm32g0xx_ll_ucpd.h ****   * @brief  Disable hard reset sent interrupt
1055:Drivers/STM32G0xx_HAL_Driver/Inc/stm32g0xx_ll_ucpd.h ****   * @rmtoll IMR          HRSTSENTIE         LL_UCPD_DisableIT_TxHRSTSENT
1056:Drivers/STM32G0xx_HAL_Driver/Inc/stm32g0xx_ll_ucpd.h ****   * @param  UCPDx UCPD Instance
1057:Drivers/STM32G0xx_HAL_Driver/Inc/stm32g0xx_ll_ucpd.h ****   * @retval None
1058:Drivers/STM32G0xx_HAL_Driver/Inc/stm32g0xx_ll_ucpd.h ****   */
1059:Drivers/STM32G0xx_HAL_Driver/Inc/stm32g0xx_ll_ucpd.h **** __STATIC_INLINE void LL_UCPD_DisableIT_TxHRSTSENT(UCPD_TypeDef *UCPDx)
1060:Drivers/STM32G0xx_HAL_Driver/Inc/stm32g0xx_ll_ucpd.h **** {
1061:Drivers/STM32G0xx_HAL_Driver/Inc/stm32g0xx_ll_ucpd.h ****   CLEAR_BIT(UCPDx->IMR, UCPD_IMR_HRSTSENTIE);
1062:Drivers/STM32G0xx_HAL_Driver/Inc/stm32g0xx_ll_ucpd.h **** }
1063:Drivers/STM32G0xx_HAL_Driver/Inc/stm32g0xx_ll_ucpd.h **** 
1064:Drivers/STM32G0xx_HAL_Driver/Inc/stm32g0xx_ll_ucpd.h **** /**
1065:Drivers/STM32G0xx_HAL_Driver/Inc/stm32g0xx_ll_ucpd.h ****   * @brief  Disable hard reset discard interrupt
1066:Drivers/STM32G0xx_HAL_Driver/Inc/stm32g0xx_ll_ucpd.h ****   * @rmtoll IMR          HRSTDISCIE         LL_UCPD_DisableIT_TxHRSTDISC
1067:Drivers/STM32G0xx_HAL_Driver/Inc/stm32g0xx_ll_ucpd.h ****   * @param  UCPDx UCPD Instance
1068:Drivers/STM32G0xx_HAL_Driver/Inc/stm32g0xx_ll_ucpd.h ****   * @retval None
1069:Drivers/STM32G0xx_HAL_Driver/Inc/stm32g0xx_ll_ucpd.h ****   */
1070:Drivers/STM32G0xx_HAL_Driver/Inc/stm32g0xx_ll_ucpd.h **** __STATIC_INLINE void LL_UCPD_DisableIT_TxHRSTDISC(UCPD_TypeDef *UCPDx)
1071:Drivers/STM32G0xx_HAL_Driver/Inc/stm32g0xx_ll_ucpd.h **** {
1072:Drivers/STM32G0xx_HAL_Driver/Inc/stm32g0xx_ll_ucpd.h ****   CLEAR_BIT(UCPDx->IMR, UCPD_IMR_HRSTDISCIE);
1073:Drivers/STM32G0xx_HAL_Driver/Inc/stm32g0xx_ll_ucpd.h **** }
1074:Drivers/STM32G0xx_HAL_Driver/Inc/stm32g0xx_ll_ucpd.h **** 
1075:Drivers/STM32G0xx_HAL_Driver/Inc/stm32g0xx_ll_ucpd.h **** /**
1076:Drivers/STM32G0xx_HAL_Driver/Inc/stm32g0xx_ll_ucpd.h ****   * @brief  Disable Tx message abort interrupt
1077:Drivers/STM32G0xx_HAL_Driver/Inc/stm32g0xx_ll_ucpd.h ****   * @rmtoll IMR          TXMSGABTIE         LL_UCPD_DisableIT_TxMSGABT
1078:Drivers/STM32G0xx_HAL_Driver/Inc/stm32g0xx_ll_ucpd.h ****   * @param  UCPDx UCPD Instance
1079:Drivers/STM32G0xx_HAL_Driver/Inc/stm32g0xx_ll_ucpd.h ****   * @retval None
1080:Drivers/STM32G0xx_HAL_Driver/Inc/stm32g0xx_ll_ucpd.h ****   */
1081:Drivers/STM32G0xx_HAL_Driver/Inc/stm32g0xx_ll_ucpd.h **** __STATIC_INLINE void LL_UCPD_DisableIT_TxMSGABT(UCPD_TypeDef *UCPDx)
1082:Drivers/STM32G0xx_HAL_Driver/Inc/stm32g0xx_ll_ucpd.h **** {
1083:Drivers/STM32G0xx_HAL_Driver/Inc/stm32g0xx_ll_ucpd.h ****   CLEAR_BIT(UCPDx->IMR, UCPD_IMR_TXMSGABTIE);
1084:Drivers/STM32G0xx_HAL_Driver/Inc/stm32g0xx_ll_ucpd.h **** }
1085:Drivers/STM32G0xx_HAL_Driver/Inc/stm32g0xx_ll_ucpd.h **** 
1086:Drivers/STM32G0xx_HAL_Driver/Inc/stm32g0xx_ll_ucpd.h **** /**
ARM GAS  /tmp/ccdnVxo0.s 			page 42


1087:Drivers/STM32G0xx_HAL_Driver/Inc/stm32g0xx_ll_ucpd.h ****   * @brief  Disable Tx message sent interrupt
1088:Drivers/STM32G0xx_HAL_Driver/Inc/stm32g0xx_ll_ucpd.h ****   * @rmtoll IMR          TXMSGSENTIE         LL_UCPD_DisableIT_TxMSGSENT
1089:Drivers/STM32G0xx_HAL_Driver/Inc/stm32g0xx_ll_ucpd.h ****   * @param  UCPDx UCPD Instance
1090:Drivers/STM32G0xx_HAL_Driver/Inc/stm32g0xx_ll_ucpd.h ****   * @retval None
1091:Drivers/STM32G0xx_HAL_Driver/Inc/stm32g0xx_ll_ucpd.h ****   */
1092:Drivers/STM32G0xx_HAL_Driver/Inc/stm32g0xx_ll_ucpd.h **** __STATIC_INLINE void LL_UCPD_DisableIT_TxMSGSENT(UCPD_TypeDef *UCPDx)
1093:Drivers/STM32G0xx_HAL_Driver/Inc/stm32g0xx_ll_ucpd.h **** {
1094:Drivers/STM32G0xx_HAL_Driver/Inc/stm32g0xx_ll_ucpd.h ****   CLEAR_BIT(UCPDx->IMR, UCPD_IMR_TXMSGSENTIE);
1095:Drivers/STM32G0xx_HAL_Driver/Inc/stm32g0xx_ll_ucpd.h **** }
1096:Drivers/STM32G0xx_HAL_Driver/Inc/stm32g0xx_ll_ucpd.h **** 
1097:Drivers/STM32G0xx_HAL_Driver/Inc/stm32g0xx_ll_ucpd.h **** /**
1098:Drivers/STM32G0xx_HAL_Driver/Inc/stm32g0xx_ll_ucpd.h ****   * @brief  Disable Tx message discarded interrupt
1099:Drivers/STM32G0xx_HAL_Driver/Inc/stm32g0xx_ll_ucpd.h ****   * @rmtoll IMR          TXMSGDISCIE         LL_UCPD_DisableIT_TxMSGDISC
1100:Drivers/STM32G0xx_HAL_Driver/Inc/stm32g0xx_ll_ucpd.h ****   * @param  UCPDx UCPD Instance
1101:Drivers/STM32G0xx_HAL_Driver/Inc/stm32g0xx_ll_ucpd.h ****   * @retval None
1102:Drivers/STM32G0xx_HAL_Driver/Inc/stm32g0xx_ll_ucpd.h ****   */
1103:Drivers/STM32G0xx_HAL_Driver/Inc/stm32g0xx_ll_ucpd.h **** __STATIC_INLINE void LL_UCPD_DisableIT_TxMSGDISC(UCPD_TypeDef *UCPDx)
1104:Drivers/STM32G0xx_HAL_Driver/Inc/stm32g0xx_ll_ucpd.h **** {
1105:Drivers/STM32G0xx_HAL_Driver/Inc/stm32g0xx_ll_ucpd.h ****   CLEAR_BIT(UCPDx->IMR, UCPD_IMR_TXMSGDISCIE);
1106:Drivers/STM32G0xx_HAL_Driver/Inc/stm32g0xx_ll_ucpd.h **** }
1107:Drivers/STM32G0xx_HAL_Driver/Inc/stm32g0xx_ll_ucpd.h **** 
1108:Drivers/STM32G0xx_HAL_Driver/Inc/stm32g0xx_ll_ucpd.h **** /**
1109:Drivers/STM32G0xx_HAL_Driver/Inc/stm32g0xx_ll_ucpd.h ****   * @brief  Disable Tx data receive interrupt
1110:Drivers/STM32G0xx_HAL_Driver/Inc/stm32g0xx_ll_ucpd.h ****   * @rmtoll IMR          TXISIE         LL_UCPD_DisableIT_TxIS
1111:Drivers/STM32G0xx_HAL_Driver/Inc/stm32g0xx_ll_ucpd.h ****   * @param  UCPDx UCPD Instance
1112:Drivers/STM32G0xx_HAL_Driver/Inc/stm32g0xx_ll_ucpd.h ****   * @retval None
1113:Drivers/STM32G0xx_HAL_Driver/Inc/stm32g0xx_ll_ucpd.h ****   */
1114:Drivers/STM32G0xx_HAL_Driver/Inc/stm32g0xx_ll_ucpd.h **** __STATIC_INLINE void LL_UCPD_DisableIT_TxIS(UCPD_TypeDef *UCPDx)
1115:Drivers/STM32G0xx_HAL_Driver/Inc/stm32g0xx_ll_ucpd.h **** {
1116:Drivers/STM32G0xx_HAL_Driver/Inc/stm32g0xx_ll_ucpd.h ****   CLEAR_BIT(UCPDx->IMR, UCPD_IMR_TXISIE);
1117:Drivers/STM32G0xx_HAL_Driver/Inc/stm32g0xx_ll_ucpd.h **** }
1118:Drivers/STM32G0xx_HAL_Driver/Inc/stm32g0xx_ll_ucpd.h **** 
1119:Drivers/STM32G0xx_HAL_Driver/Inc/stm32g0xx_ll_ucpd.h **** /**
1120:Drivers/STM32G0xx_HAL_Driver/Inc/stm32g0xx_ll_ucpd.h ****   * @brief  Check if FRS interrupt enabled
1121:Drivers/STM32G0xx_HAL_Driver/Inc/stm32g0xx_ll_ucpd.h ****   * @rmtoll IMR          FRSEVTIE         LL_UCPD_DisableIT_FRS
1122:Drivers/STM32G0xx_HAL_Driver/Inc/stm32g0xx_ll_ucpd.h ****   * @param  UCPDx UCPD Instance
1123:Drivers/STM32G0xx_HAL_Driver/Inc/stm32g0xx_ll_ucpd.h ****   * @retval State of bit (1 or 0).
1124:Drivers/STM32G0xx_HAL_Driver/Inc/stm32g0xx_ll_ucpd.h ****   */
1125:Drivers/STM32G0xx_HAL_Driver/Inc/stm32g0xx_ll_ucpd.h **** __STATIC_INLINE uint32_t LL_UCPD_IsEnableIT_FRS(UCPD_TypeDef const * const UCPDx)
1126:Drivers/STM32G0xx_HAL_Driver/Inc/stm32g0xx_ll_ucpd.h **** {
1127:Drivers/STM32G0xx_HAL_Driver/Inc/stm32g0xx_ll_ucpd.h ****   return ((READ_BIT(UCPDx->IMR, UCPD_IMR_FRSEVTIE) == UCPD_IMR_FRSEVTIE) ? 1UL : 0UL);
1128:Drivers/STM32G0xx_HAL_Driver/Inc/stm32g0xx_ll_ucpd.h **** }
1129:Drivers/STM32G0xx_HAL_Driver/Inc/stm32g0xx_ll_ucpd.h **** 
1130:Drivers/STM32G0xx_HAL_Driver/Inc/stm32g0xx_ll_ucpd.h **** /**
1131:Drivers/STM32G0xx_HAL_Driver/Inc/stm32g0xx_ll_ucpd.h ****   * @brief  Check if type c event on CC2 enabled
1132:Drivers/STM32G0xx_HAL_Driver/Inc/stm32g0xx_ll_ucpd.h ****   * @rmtoll IMR          TYPECEVT2IE        LL_UCPD_DisableIT_TypeCEventCC2
1133:Drivers/STM32G0xx_HAL_Driver/Inc/stm32g0xx_ll_ucpd.h ****   * @param  UCPDx UCPD Instance
1134:Drivers/STM32G0xx_HAL_Driver/Inc/stm32g0xx_ll_ucpd.h ****   * @retval State of bit (1 or 0).
1135:Drivers/STM32G0xx_HAL_Driver/Inc/stm32g0xx_ll_ucpd.h ****   */
1136:Drivers/STM32G0xx_HAL_Driver/Inc/stm32g0xx_ll_ucpd.h **** __STATIC_INLINE uint32_t LL_UCPD_IsEnableIT_TypeCEventCC2(UCPD_TypeDef const * const UCPDx)
1137:Drivers/STM32G0xx_HAL_Driver/Inc/stm32g0xx_ll_ucpd.h **** {
1138:Drivers/STM32G0xx_HAL_Driver/Inc/stm32g0xx_ll_ucpd.h ****   return ((READ_BIT(UCPDx->IMR, UCPD_IMR_TYPECEVT2IE) == UCPD_IMR_TYPECEVT2IE) ? 1UL : 0UL);
1139:Drivers/STM32G0xx_HAL_Driver/Inc/stm32g0xx_ll_ucpd.h **** }
1140:Drivers/STM32G0xx_HAL_Driver/Inc/stm32g0xx_ll_ucpd.h **** 
1141:Drivers/STM32G0xx_HAL_Driver/Inc/stm32g0xx_ll_ucpd.h **** /**
1142:Drivers/STM32G0xx_HAL_Driver/Inc/stm32g0xx_ll_ucpd.h ****   * @brief  Check if type c event on CC1 enabled
1143:Drivers/STM32G0xx_HAL_Driver/Inc/stm32g0xx_ll_ucpd.h ****   * @rmtoll IMR2          TYPECEVT1IE        LL_UCPD_IsEnableIT_TypeCEventCC1
ARM GAS  /tmp/ccdnVxo0.s 			page 43


1144:Drivers/STM32G0xx_HAL_Driver/Inc/stm32g0xx_ll_ucpd.h ****   * @param  UCPDx UCPD Instance
1145:Drivers/STM32G0xx_HAL_Driver/Inc/stm32g0xx_ll_ucpd.h ****   * @retval State of bit (1 or 0).
1146:Drivers/STM32G0xx_HAL_Driver/Inc/stm32g0xx_ll_ucpd.h ****   */
1147:Drivers/STM32G0xx_HAL_Driver/Inc/stm32g0xx_ll_ucpd.h **** __STATIC_INLINE uint32_t LL_UCPD_IsEnableIT_TypeCEventCC1(UCPD_TypeDef const * const UCPDx)
1148:Drivers/STM32G0xx_HAL_Driver/Inc/stm32g0xx_ll_ucpd.h **** {
1149:Drivers/STM32G0xx_HAL_Driver/Inc/stm32g0xx_ll_ucpd.h ****   return ((READ_BIT(UCPDx->IMR, UCPD_IMR_TYPECEVT1IE) == UCPD_IMR_TYPECEVT1IE) ? 1UL : 0UL);
1150:Drivers/STM32G0xx_HAL_Driver/Inc/stm32g0xx_ll_ucpd.h **** }
1151:Drivers/STM32G0xx_HAL_Driver/Inc/stm32g0xx_ll_ucpd.h **** 
1152:Drivers/STM32G0xx_HAL_Driver/Inc/stm32g0xx_ll_ucpd.h **** /**
1153:Drivers/STM32G0xx_HAL_Driver/Inc/stm32g0xx_ll_ucpd.h ****   * @brief  Check if Rx message end interrupt enabled
1154:Drivers/STM32G0xx_HAL_Driver/Inc/stm32g0xx_ll_ucpd.h ****   * @rmtoll IMR          RXMSGENDIE         LL_UCPD_IsEnableIT_RxMsgEnd
1155:Drivers/STM32G0xx_HAL_Driver/Inc/stm32g0xx_ll_ucpd.h ****   * @param  UCPDx UCPD Instance
1156:Drivers/STM32G0xx_HAL_Driver/Inc/stm32g0xx_ll_ucpd.h ****   * @retval State of bit (1 or 0).
1157:Drivers/STM32G0xx_HAL_Driver/Inc/stm32g0xx_ll_ucpd.h ****   */
1158:Drivers/STM32G0xx_HAL_Driver/Inc/stm32g0xx_ll_ucpd.h **** __STATIC_INLINE uint32_t LL_UCPD_IsEnableIT_RxMsgEnd(UCPD_TypeDef const * const UCPDx)
1159:Drivers/STM32G0xx_HAL_Driver/Inc/stm32g0xx_ll_ucpd.h **** {
1160:Drivers/STM32G0xx_HAL_Driver/Inc/stm32g0xx_ll_ucpd.h ****   return ((READ_BIT(UCPDx->IMR, UCPD_IMR_RXMSGENDIE) == UCPD_IMR_RXMSGENDIE) ? 1UL : 0UL);
1161:Drivers/STM32G0xx_HAL_Driver/Inc/stm32g0xx_ll_ucpd.h **** }
1162:Drivers/STM32G0xx_HAL_Driver/Inc/stm32g0xx_ll_ucpd.h **** 
1163:Drivers/STM32G0xx_HAL_Driver/Inc/stm32g0xx_ll_ucpd.h **** /**
1164:Drivers/STM32G0xx_HAL_Driver/Inc/stm32g0xx_ll_ucpd.h ****   * @brief  Check if Rx overrun interrupt enabled
1165:Drivers/STM32G0xx_HAL_Driver/Inc/stm32g0xx_ll_ucpd.h ****   * @rmtoll IMR          RXOVRIE         LL_UCPD_IsEnableIT_RxOvr
1166:Drivers/STM32G0xx_HAL_Driver/Inc/stm32g0xx_ll_ucpd.h ****   * @param  UCPDx UCPD Instance
1167:Drivers/STM32G0xx_HAL_Driver/Inc/stm32g0xx_ll_ucpd.h ****   * @retval State of bit (1 or 0).
1168:Drivers/STM32G0xx_HAL_Driver/Inc/stm32g0xx_ll_ucpd.h ****   */
1169:Drivers/STM32G0xx_HAL_Driver/Inc/stm32g0xx_ll_ucpd.h **** __STATIC_INLINE uint32_t LL_UCPD_IsEnableIT_RxOvr(UCPD_TypeDef const * const UCPDx)
1170:Drivers/STM32G0xx_HAL_Driver/Inc/stm32g0xx_ll_ucpd.h **** {
1171:Drivers/STM32G0xx_HAL_Driver/Inc/stm32g0xx_ll_ucpd.h ****   return ((READ_BIT(UCPDx->IMR, UCPD_IMR_RXOVRIE) == UCPD_IMR_RXOVRIE) ? 1UL : 0UL);
1172:Drivers/STM32G0xx_HAL_Driver/Inc/stm32g0xx_ll_ucpd.h **** }
1173:Drivers/STM32G0xx_HAL_Driver/Inc/stm32g0xx_ll_ucpd.h **** 
1174:Drivers/STM32G0xx_HAL_Driver/Inc/stm32g0xx_ll_ucpd.h **** /**
1175:Drivers/STM32G0xx_HAL_Driver/Inc/stm32g0xx_ll_ucpd.h ****   * @brief  Check if Rx hard resrt interrupt enabled
1176:Drivers/STM32G0xx_HAL_Driver/Inc/stm32g0xx_ll_ucpd.h ****   * @rmtoll IMR          RXHRSTDETIE         LL_UCPD_IsEnableIT_RxHRST
1177:Drivers/STM32G0xx_HAL_Driver/Inc/stm32g0xx_ll_ucpd.h ****   * @param  UCPDx UCPD Instance
1178:Drivers/STM32G0xx_HAL_Driver/Inc/stm32g0xx_ll_ucpd.h ****   * @retval State of bit (1 or 0).
1179:Drivers/STM32G0xx_HAL_Driver/Inc/stm32g0xx_ll_ucpd.h ****   */
1180:Drivers/STM32G0xx_HAL_Driver/Inc/stm32g0xx_ll_ucpd.h **** __STATIC_INLINE uint32_t LL_UCPD_IsEnableIT_RxHRST(UCPD_TypeDef const * const UCPDx)
1181:Drivers/STM32G0xx_HAL_Driver/Inc/stm32g0xx_ll_ucpd.h **** {
1182:Drivers/STM32G0xx_HAL_Driver/Inc/stm32g0xx_ll_ucpd.h ****   return ((READ_BIT(UCPDx->IMR, UCPD_IMR_RXHRSTDETIE) == UCPD_IMR_RXHRSTDETIE) ? 1UL : 0UL);
1183:Drivers/STM32G0xx_HAL_Driver/Inc/stm32g0xx_ll_ucpd.h **** }
1184:Drivers/STM32G0xx_HAL_Driver/Inc/stm32g0xx_ll_ucpd.h **** 
1185:Drivers/STM32G0xx_HAL_Driver/Inc/stm32g0xx_ll_ucpd.h **** /**
1186:Drivers/STM32G0xx_HAL_Driver/Inc/stm32g0xx_ll_ucpd.h ****   * @brief  Check if Rx orderset interrupt enabled
1187:Drivers/STM32G0xx_HAL_Driver/Inc/stm32g0xx_ll_ucpd.h ****   * @rmtoll IMR          RXORDDETIE         LL_UCPD_IsEnableIT_RxOrderSet
1188:Drivers/STM32G0xx_HAL_Driver/Inc/stm32g0xx_ll_ucpd.h ****   * @param  UCPDx UCPD Instance
1189:Drivers/STM32G0xx_HAL_Driver/Inc/stm32g0xx_ll_ucpd.h ****   * @retval State of bit (1 or 0).
1190:Drivers/STM32G0xx_HAL_Driver/Inc/stm32g0xx_ll_ucpd.h ****   */
1191:Drivers/STM32G0xx_HAL_Driver/Inc/stm32g0xx_ll_ucpd.h **** __STATIC_INLINE uint32_t LL_UCPD_IsEnableIT_RxOrderSet(UCPD_TypeDef const * const UCPDx)
1192:Drivers/STM32G0xx_HAL_Driver/Inc/stm32g0xx_ll_ucpd.h **** {
1193:Drivers/STM32G0xx_HAL_Driver/Inc/stm32g0xx_ll_ucpd.h ****   return ((READ_BIT(UCPDx->IMR, UCPD_IMR_RXORDDETIE) == UCPD_IMR_RXORDDETIE) ? 1UL : 0UL);
1194:Drivers/STM32G0xx_HAL_Driver/Inc/stm32g0xx_ll_ucpd.h **** }
1195:Drivers/STM32G0xx_HAL_Driver/Inc/stm32g0xx_ll_ucpd.h **** 
1196:Drivers/STM32G0xx_HAL_Driver/Inc/stm32g0xx_ll_ucpd.h **** /**
1197:Drivers/STM32G0xx_HAL_Driver/Inc/stm32g0xx_ll_ucpd.h ****   * @brief  Check if Rx non empty interrupt enabled
1198:Drivers/STM32G0xx_HAL_Driver/Inc/stm32g0xx_ll_ucpd.h ****   * @rmtoll IMR          RXNEIE         LL_UCPD_IsEnableIT_RxNE
1199:Drivers/STM32G0xx_HAL_Driver/Inc/stm32g0xx_ll_ucpd.h ****   * @param  UCPDx UCPD Instance
1200:Drivers/STM32G0xx_HAL_Driver/Inc/stm32g0xx_ll_ucpd.h ****   * @retval State of bit (1 or 0).
ARM GAS  /tmp/ccdnVxo0.s 			page 44


1201:Drivers/STM32G0xx_HAL_Driver/Inc/stm32g0xx_ll_ucpd.h ****   */
1202:Drivers/STM32G0xx_HAL_Driver/Inc/stm32g0xx_ll_ucpd.h **** __STATIC_INLINE uint32_t LL_UCPD_IsEnableIT_RxNE(UCPD_TypeDef const * const UCPDx)
1203:Drivers/STM32G0xx_HAL_Driver/Inc/stm32g0xx_ll_ucpd.h **** {
1204:Drivers/STM32G0xx_HAL_Driver/Inc/stm32g0xx_ll_ucpd.h ****   return ((READ_BIT(UCPDx->IMR, UCPD_IMR_RXNEIE) == UCPD_IMR_RXNEIE) ? 1UL : 0UL);
1205:Drivers/STM32G0xx_HAL_Driver/Inc/stm32g0xx_ll_ucpd.h **** }
1206:Drivers/STM32G0xx_HAL_Driver/Inc/stm32g0xx_ll_ucpd.h **** 
1207:Drivers/STM32G0xx_HAL_Driver/Inc/stm32g0xx_ll_ucpd.h **** /**
1208:Drivers/STM32G0xx_HAL_Driver/Inc/stm32g0xx_ll_ucpd.h ****   * @brief  Check if TX underrun interrupt enabled
1209:Drivers/STM32G0xx_HAL_Driver/Inc/stm32g0xx_ll_ucpd.h ****   * @rmtoll IMR          TXUNDIE         LL_UCPD_IsEnableIT_TxUND
1210:Drivers/STM32G0xx_HAL_Driver/Inc/stm32g0xx_ll_ucpd.h ****   * @param  UCPDx UCPD Instance
1211:Drivers/STM32G0xx_HAL_Driver/Inc/stm32g0xx_ll_ucpd.h ****   * @retval State of bit (1 or 0).
1212:Drivers/STM32G0xx_HAL_Driver/Inc/stm32g0xx_ll_ucpd.h ****   */
1213:Drivers/STM32G0xx_HAL_Driver/Inc/stm32g0xx_ll_ucpd.h **** __STATIC_INLINE uint32_t LL_UCPD_IsEnableIT_TxUND(UCPD_TypeDef const * const UCPDx)
1214:Drivers/STM32G0xx_HAL_Driver/Inc/stm32g0xx_ll_ucpd.h **** {
1215:Drivers/STM32G0xx_HAL_Driver/Inc/stm32g0xx_ll_ucpd.h ****   return ((READ_BIT(UCPDx->IMR, UCPD_IMR_TXUNDIE) == UCPD_IMR_TXUNDIE) ? 1UL : 0UL);
1216:Drivers/STM32G0xx_HAL_Driver/Inc/stm32g0xx_ll_ucpd.h **** }
1217:Drivers/STM32G0xx_HAL_Driver/Inc/stm32g0xx_ll_ucpd.h **** 
1218:Drivers/STM32G0xx_HAL_Driver/Inc/stm32g0xx_ll_ucpd.h **** /**
1219:Drivers/STM32G0xx_HAL_Driver/Inc/stm32g0xx_ll_ucpd.h ****   * @brief  Check if hard reset sent interrupt enabled
1220:Drivers/STM32G0xx_HAL_Driver/Inc/stm32g0xx_ll_ucpd.h ****   * @rmtoll IMR          HRSTSENTIE         LL_UCPD_IsEnableIT_TxHRSTSENT
1221:Drivers/STM32G0xx_HAL_Driver/Inc/stm32g0xx_ll_ucpd.h ****   * @param  UCPDx UCPD Instance
1222:Drivers/STM32G0xx_HAL_Driver/Inc/stm32g0xx_ll_ucpd.h ****   * @retval State of bit (1 or 0).
1223:Drivers/STM32G0xx_HAL_Driver/Inc/stm32g0xx_ll_ucpd.h ****   */
1224:Drivers/STM32G0xx_HAL_Driver/Inc/stm32g0xx_ll_ucpd.h **** __STATIC_INLINE uint32_t LL_UCPD_IsEnableIT_TxHRSTSENT(UCPD_TypeDef const * const UCPDx)
1225:Drivers/STM32G0xx_HAL_Driver/Inc/stm32g0xx_ll_ucpd.h **** {
1226:Drivers/STM32G0xx_HAL_Driver/Inc/stm32g0xx_ll_ucpd.h ****   return ((READ_BIT(UCPDx->IMR, UCPD_IMR_HRSTSENTIE) == UCPD_IMR_HRSTSENTIE) ? 1UL : 0UL);
1227:Drivers/STM32G0xx_HAL_Driver/Inc/stm32g0xx_ll_ucpd.h **** }
1228:Drivers/STM32G0xx_HAL_Driver/Inc/stm32g0xx_ll_ucpd.h **** 
1229:Drivers/STM32G0xx_HAL_Driver/Inc/stm32g0xx_ll_ucpd.h **** /**
1230:Drivers/STM32G0xx_HAL_Driver/Inc/stm32g0xx_ll_ucpd.h ****   * @brief  Check if hard reset discard interrupt enabled
1231:Drivers/STM32G0xx_HAL_Driver/Inc/stm32g0xx_ll_ucpd.h ****   * @rmtoll IMR          HRSTDISCIE         LL_UCPD_IsEnableIT_TxHRSTDISC
1232:Drivers/STM32G0xx_HAL_Driver/Inc/stm32g0xx_ll_ucpd.h ****   * @param  UCPDx UCPD Instance
1233:Drivers/STM32G0xx_HAL_Driver/Inc/stm32g0xx_ll_ucpd.h ****   * @retval State of bit (1 or 0).
1234:Drivers/STM32G0xx_HAL_Driver/Inc/stm32g0xx_ll_ucpd.h ****   */
1235:Drivers/STM32G0xx_HAL_Driver/Inc/stm32g0xx_ll_ucpd.h **** __STATIC_INLINE uint32_t LL_UCPD_IsEnableIT_TxHRSTDISC(UCPD_TypeDef const * const UCPDx)
1236:Drivers/STM32G0xx_HAL_Driver/Inc/stm32g0xx_ll_ucpd.h **** {
1237:Drivers/STM32G0xx_HAL_Driver/Inc/stm32g0xx_ll_ucpd.h ****   return ((READ_BIT(UCPDx->IMR, UCPD_IMR_HRSTDISCIE) == UCPD_IMR_HRSTDISCIE) ? 1UL : 0UL);
1238:Drivers/STM32G0xx_HAL_Driver/Inc/stm32g0xx_ll_ucpd.h **** }
1239:Drivers/STM32G0xx_HAL_Driver/Inc/stm32g0xx_ll_ucpd.h **** 
1240:Drivers/STM32G0xx_HAL_Driver/Inc/stm32g0xx_ll_ucpd.h **** /**
1241:Drivers/STM32G0xx_HAL_Driver/Inc/stm32g0xx_ll_ucpd.h ****   * @brief  Check if Tx message abort interrupt enabled
1242:Drivers/STM32G0xx_HAL_Driver/Inc/stm32g0xx_ll_ucpd.h ****   * @rmtoll IMR          TXMSGABTIE         LL_UCPD_IsEnableIT_TxMSGABT
1243:Drivers/STM32G0xx_HAL_Driver/Inc/stm32g0xx_ll_ucpd.h ****   * @param  UCPDx UCPD Instance
1244:Drivers/STM32G0xx_HAL_Driver/Inc/stm32g0xx_ll_ucpd.h ****   * @retval State of bit (1 or 0).
1245:Drivers/STM32G0xx_HAL_Driver/Inc/stm32g0xx_ll_ucpd.h ****   */
1246:Drivers/STM32G0xx_HAL_Driver/Inc/stm32g0xx_ll_ucpd.h **** __STATIC_INLINE uint32_t LL_UCPD_IsEnableIT_TxMSGABT(UCPD_TypeDef const * const UCPDx)
1247:Drivers/STM32G0xx_HAL_Driver/Inc/stm32g0xx_ll_ucpd.h **** {
1248:Drivers/STM32G0xx_HAL_Driver/Inc/stm32g0xx_ll_ucpd.h ****   return ((READ_BIT(UCPDx->IMR, UCPD_IMR_TXMSGABTIE) == UCPD_IMR_TXMSGABTIE) ? 1UL : 0UL);
1249:Drivers/STM32G0xx_HAL_Driver/Inc/stm32g0xx_ll_ucpd.h **** }
1250:Drivers/STM32G0xx_HAL_Driver/Inc/stm32g0xx_ll_ucpd.h **** 
1251:Drivers/STM32G0xx_HAL_Driver/Inc/stm32g0xx_ll_ucpd.h **** /**
1252:Drivers/STM32G0xx_HAL_Driver/Inc/stm32g0xx_ll_ucpd.h ****   * @brief  Check if Tx message sent interrupt enabled
1253:Drivers/STM32G0xx_HAL_Driver/Inc/stm32g0xx_ll_ucpd.h ****   * @rmtoll IMR          TXMSGSENTIE         LL_UCPD_IsEnableIT_TxMSGSENT
1254:Drivers/STM32G0xx_HAL_Driver/Inc/stm32g0xx_ll_ucpd.h ****   * @param  UCPDx UCPD Instance
1255:Drivers/STM32G0xx_HAL_Driver/Inc/stm32g0xx_ll_ucpd.h ****   * @retval State of bit (1 or 0).
1256:Drivers/STM32G0xx_HAL_Driver/Inc/stm32g0xx_ll_ucpd.h ****   */
1257:Drivers/STM32G0xx_HAL_Driver/Inc/stm32g0xx_ll_ucpd.h **** __STATIC_INLINE uint32_t LL_UCPD_IsEnableIT_TxMSGSENT(UCPD_TypeDef const * const UCPDx)
ARM GAS  /tmp/ccdnVxo0.s 			page 45


1258:Drivers/STM32G0xx_HAL_Driver/Inc/stm32g0xx_ll_ucpd.h **** {
1259:Drivers/STM32G0xx_HAL_Driver/Inc/stm32g0xx_ll_ucpd.h ****   return ((READ_BIT(UCPDx->IMR, UCPD_IMR_TXMSGSENTIE) == UCPD_IMR_TXMSGSENTIE) ? 1UL : 0UL);
1260:Drivers/STM32G0xx_HAL_Driver/Inc/stm32g0xx_ll_ucpd.h **** }
1261:Drivers/STM32G0xx_HAL_Driver/Inc/stm32g0xx_ll_ucpd.h **** 
1262:Drivers/STM32G0xx_HAL_Driver/Inc/stm32g0xx_ll_ucpd.h **** /**
1263:Drivers/STM32G0xx_HAL_Driver/Inc/stm32g0xx_ll_ucpd.h ****   * @brief  Check if Tx message discarded interrupt enabled
1264:Drivers/STM32G0xx_HAL_Driver/Inc/stm32g0xx_ll_ucpd.h ****   * @rmtoll IMR          TXMSGDISCIE         LL_UCPD_IsEnableIT_TxMSGDISC
1265:Drivers/STM32G0xx_HAL_Driver/Inc/stm32g0xx_ll_ucpd.h ****   * @param  UCPDx UCPD Instance
1266:Drivers/STM32G0xx_HAL_Driver/Inc/stm32g0xx_ll_ucpd.h ****   * @retval State of bit (1 or 0).
1267:Drivers/STM32G0xx_HAL_Driver/Inc/stm32g0xx_ll_ucpd.h ****   */
1268:Drivers/STM32G0xx_HAL_Driver/Inc/stm32g0xx_ll_ucpd.h **** __STATIC_INLINE uint32_t LL_UCPD_IsEnableIT_TxMSGDISC(UCPD_TypeDef const * const UCPDx)
1269:Drivers/STM32G0xx_HAL_Driver/Inc/stm32g0xx_ll_ucpd.h **** {
1270:Drivers/STM32G0xx_HAL_Driver/Inc/stm32g0xx_ll_ucpd.h ****   return ((READ_BIT(UCPDx->IMR, UCPD_IMR_TXMSGDISCIE) == UCPD_IMR_TXMSGDISCIE) ? 1UL : 0UL);
1271:Drivers/STM32G0xx_HAL_Driver/Inc/stm32g0xx_ll_ucpd.h **** }
1272:Drivers/STM32G0xx_HAL_Driver/Inc/stm32g0xx_ll_ucpd.h **** 
1273:Drivers/STM32G0xx_HAL_Driver/Inc/stm32g0xx_ll_ucpd.h **** /**
1274:Drivers/STM32G0xx_HAL_Driver/Inc/stm32g0xx_ll_ucpd.h ****   * @brief  Check if Tx data receive interrupt enabled
1275:Drivers/STM32G0xx_HAL_Driver/Inc/stm32g0xx_ll_ucpd.h ****   * @rmtoll IMR          TXISIE         LL_UCPD_IsEnableIT_TxIS
1276:Drivers/STM32G0xx_HAL_Driver/Inc/stm32g0xx_ll_ucpd.h ****   * @param  UCPDx UCPD Instance
1277:Drivers/STM32G0xx_HAL_Driver/Inc/stm32g0xx_ll_ucpd.h ****   * @retval State of bit (1 or 0).
1278:Drivers/STM32G0xx_HAL_Driver/Inc/stm32g0xx_ll_ucpd.h ****   */
1279:Drivers/STM32G0xx_HAL_Driver/Inc/stm32g0xx_ll_ucpd.h **** __STATIC_INLINE uint32_t LL_UCPD_IsEnableIT_TxIS(UCPD_TypeDef const * const UCPDx)
1280:Drivers/STM32G0xx_HAL_Driver/Inc/stm32g0xx_ll_ucpd.h **** {
1281:Drivers/STM32G0xx_HAL_Driver/Inc/stm32g0xx_ll_ucpd.h ****   return ((READ_BIT(UCPDx->IMR, UCPD_IMR_TXISIE) == UCPD_IMR_TXISIE) ? 1UL : 0UL);
1282:Drivers/STM32G0xx_HAL_Driver/Inc/stm32g0xx_ll_ucpd.h **** }
1283:Drivers/STM32G0xx_HAL_Driver/Inc/stm32g0xx_ll_ucpd.h **** 
1284:Drivers/STM32G0xx_HAL_Driver/Inc/stm32g0xx_ll_ucpd.h **** /**
1285:Drivers/STM32G0xx_HAL_Driver/Inc/stm32g0xx_ll_ucpd.h ****   * @}
1286:Drivers/STM32G0xx_HAL_Driver/Inc/stm32g0xx_ll_ucpd.h ****   */
1287:Drivers/STM32G0xx_HAL_Driver/Inc/stm32g0xx_ll_ucpd.h **** 
1288:Drivers/STM32G0xx_HAL_Driver/Inc/stm32g0xx_ll_ucpd.h **** /** @defgroup UCPD_LL_EF_IT_Clear Interrupt Clear
1289:Drivers/STM32G0xx_HAL_Driver/Inc/stm32g0xx_ll_ucpd.h ****   * @{
1290:Drivers/STM32G0xx_HAL_Driver/Inc/stm32g0xx_ll_ucpd.h ****   */
1291:Drivers/STM32G0xx_HAL_Driver/Inc/stm32g0xx_ll_ucpd.h **** /**
1292:Drivers/STM32G0xx_HAL_Driver/Inc/stm32g0xx_ll_ucpd.h ****   * @brief  Clear FRS interrupt
1293:Drivers/STM32G0xx_HAL_Driver/Inc/stm32g0xx_ll_ucpd.h ****   * @rmtoll ICR          FRSEVTIE         LL_UCPD_ClearFlag_FRS
1294:Drivers/STM32G0xx_HAL_Driver/Inc/stm32g0xx_ll_ucpd.h ****   * @param  UCPDx UCPD Instance
1295:Drivers/STM32G0xx_HAL_Driver/Inc/stm32g0xx_ll_ucpd.h ****   * @retval None
1296:Drivers/STM32G0xx_HAL_Driver/Inc/stm32g0xx_ll_ucpd.h ****   */
1297:Drivers/STM32G0xx_HAL_Driver/Inc/stm32g0xx_ll_ucpd.h **** __STATIC_INLINE void LL_UCPD_ClearFlag_FRS(UCPD_TypeDef *UCPDx)
1298:Drivers/STM32G0xx_HAL_Driver/Inc/stm32g0xx_ll_ucpd.h **** {
1299:Drivers/STM32G0xx_HAL_Driver/Inc/stm32g0xx_ll_ucpd.h ****   SET_BIT(UCPDx->ICR, UCPD_ICR_FRSEVTCF);
1300:Drivers/STM32G0xx_HAL_Driver/Inc/stm32g0xx_ll_ucpd.h **** }
1301:Drivers/STM32G0xx_HAL_Driver/Inc/stm32g0xx_ll_ucpd.h **** 
1302:Drivers/STM32G0xx_HAL_Driver/Inc/stm32g0xx_ll_ucpd.h **** /**
1303:Drivers/STM32G0xx_HAL_Driver/Inc/stm32g0xx_ll_ucpd.h ****   * @brief  Clear type c event on CC2
1304:Drivers/STM32G0xx_HAL_Driver/Inc/stm32g0xx_ll_ucpd.h ****   * @rmtoll IIMR          TYPECEVT2IE        LL_UCPD_ClearFlag_TypeCEventCC2
1305:Drivers/STM32G0xx_HAL_Driver/Inc/stm32g0xx_ll_ucpd.h ****   * @param  UCPDx UCPD Instance
1306:Drivers/STM32G0xx_HAL_Driver/Inc/stm32g0xx_ll_ucpd.h ****   * @retval None
1307:Drivers/STM32G0xx_HAL_Driver/Inc/stm32g0xx_ll_ucpd.h ****   */
1308:Drivers/STM32G0xx_HAL_Driver/Inc/stm32g0xx_ll_ucpd.h **** __STATIC_INLINE void LL_UCPD_ClearFlag_TypeCEventCC2(UCPD_TypeDef *UCPDx)
1309:Drivers/STM32G0xx_HAL_Driver/Inc/stm32g0xx_ll_ucpd.h **** {
1310:Drivers/STM32G0xx_HAL_Driver/Inc/stm32g0xx_ll_ucpd.h ****   SET_BIT(UCPDx->ICR, UCPD_ICR_TYPECEVT2CF);
1311:Drivers/STM32G0xx_HAL_Driver/Inc/stm32g0xx_ll_ucpd.h **** }
1312:Drivers/STM32G0xx_HAL_Driver/Inc/stm32g0xx_ll_ucpd.h **** 
1313:Drivers/STM32G0xx_HAL_Driver/Inc/stm32g0xx_ll_ucpd.h **** /**
1314:Drivers/STM32G0xx_HAL_Driver/Inc/stm32g0xx_ll_ucpd.h ****   * @brief  Clear type c event on CC1
ARM GAS  /tmp/ccdnVxo0.s 			page 46


1315:Drivers/STM32G0xx_HAL_Driver/Inc/stm32g0xx_ll_ucpd.h ****   * @rmtoll IIMR          TYPECEVT1IE        LL_UCPD_ClearFlag_TypeCEventCC1
1316:Drivers/STM32G0xx_HAL_Driver/Inc/stm32g0xx_ll_ucpd.h ****   * @param  UCPDx UCPD Instance
1317:Drivers/STM32G0xx_HAL_Driver/Inc/stm32g0xx_ll_ucpd.h ****   * @retval None
1318:Drivers/STM32G0xx_HAL_Driver/Inc/stm32g0xx_ll_ucpd.h ****   */
1319:Drivers/STM32G0xx_HAL_Driver/Inc/stm32g0xx_ll_ucpd.h **** __STATIC_INLINE void LL_UCPD_ClearFlag_TypeCEventCC1(UCPD_TypeDef *UCPDx)
1320:Drivers/STM32G0xx_HAL_Driver/Inc/stm32g0xx_ll_ucpd.h **** {
1321:Drivers/STM32G0xx_HAL_Driver/Inc/stm32g0xx_ll_ucpd.h ****   SET_BIT(UCPDx->ICR, UCPD_ICR_TYPECEVT1CF);
1322:Drivers/STM32G0xx_HAL_Driver/Inc/stm32g0xx_ll_ucpd.h **** }
1323:Drivers/STM32G0xx_HAL_Driver/Inc/stm32g0xx_ll_ucpd.h **** 
1324:Drivers/STM32G0xx_HAL_Driver/Inc/stm32g0xx_ll_ucpd.h **** /**
1325:Drivers/STM32G0xx_HAL_Driver/Inc/stm32g0xx_ll_ucpd.h ****   * @brief  Clear Rx message end interrupt
1326:Drivers/STM32G0xx_HAL_Driver/Inc/stm32g0xx_ll_ucpd.h ****   * @rmtoll ICR          RXMSGENDIE         LL_UCPD_ClearFlag_RxMsgEnd
1327:Drivers/STM32G0xx_HAL_Driver/Inc/stm32g0xx_ll_ucpd.h ****   * @param  UCPDx UCPD Instance
1328:Drivers/STM32G0xx_HAL_Driver/Inc/stm32g0xx_ll_ucpd.h ****   * @retval None
1329:Drivers/STM32G0xx_HAL_Driver/Inc/stm32g0xx_ll_ucpd.h ****   */
1330:Drivers/STM32G0xx_HAL_Driver/Inc/stm32g0xx_ll_ucpd.h **** __STATIC_INLINE void LL_UCPD_ClearFlag_RxMsgEnd(UCPD_TypeDef *UCPDx)
1331:Drivers/STM32G0xx_HAL_Driver/Inc/stm32g0xx_ll_ucpd.h **** {
1332:Drivers/STM32G0xx_HAL_Driver/Inc/stm32g0xx_ll_ucpd.h ****   SET_BIT(UCPDx->ICR, UCPD_ICR_RXMSGENDCF);
1333:Drivers/STM32G0xx_HAL_Driver/Inc/stm32g0xx_ll_ucpd.h **** }
1334:Drivers/STM32G0xx_HAL_Driver/Inc/stm32g0xx_ll_ucpd.h **** 
1335:Drivers/STM32G0xx_HAL_Driver/Inc/stm32g0xx_ll_ucpd.h **** /**
1336:Drivers/STM32G0xx_HAL_Driver/Inc/stm32g0xx_ll_ucpd.h ****   * @brief  Clear Rx overrun interrupt
1337:Drivers/STM32G0xx_HAL_Driver/Inc/stm32g0xx_ll_ucpd.h ****   * @rmtoll ICR          RXOVRIE         LL_UCPD_ClearFlag_RxOvr
1338:Drivers/STM32G0xx_HAL_Driver/Inc/stm32g0xx_ll_ucpd.h ****   * @param  UCPDx UCPD Instance
1339:Drivers/STM32G0xx_HAL_Driver/Inc/stm32g0xx_ll_ucpd.h ****   * @retval None
1340:Drivers/STM32G0xx_HAL_Driver/Inc/stm32g0xx_ll_ucpd.h ****   */
1341:Drivers/STM32G0xx_HAL_Driver/Inc/stm32g0xx_ll_ucpd.h **** __STATIC_INLINE void LL_UCPD_ClearFlag_RxOvr(UCPD_TypeDef *UCPDx)
1342:Drivers/STM32G0xx_HAL_Driver/Inc/stm32g0xx_ll_ucpd.h **** {
1343:Drivers/STM32G0xx_HAL_Driver/Inc/stm32g0xx_ll_ucpd.h ****   SET_BIT(UCPDx->ICR, UCPD_ICR_RXOVRCF);
1344:Drivers/STM32G0xx_HAL_Driver/Inc/stm32g0xx_ll_ucpd.h **** }
1345:Drivers/STM32G0xx_HAL_Driver/Inc/stm32g0xx_ll_ucpd.h **** 
1346:Drivers/STM32G0xx_HAL_Driver/Inc/stm32g0xx_ll_ucpd.h **** /**
1347:Drivers/STM32G0xx_HAL_Driver/Inc/stm32g0xx_ll_ucpd.h ****   * @brief  Clear Rx hard resrt interrupt
1348:Drivers/STM32G0xx_HAL_Driver/Inc/stm32g0xx_ll_ucpd.h ****   * @rmtoll ICR          RXHRSTDETIE         LL_UCPD_ClearFlag_RxHRST
1349:Drivers/STM32G0xx_HAL_Driver/Inc/stm32g0xx_ll_ucpd.h ****   * @param  UCPDx UCPD Instance
1350:Drivers/STM32G0xx_HAL_Driver/Inc/stm32g0xx_ll_ucpd.h ****   * @retval None
1351:Drivers/STM32G0xx_HAL_Driver/Inc/stm32g0xx_ll_ucpd.h ****   */
1352:Drivers/STM32G0xx_HAL_Driver/Inc/stm32g0xx_ll_ucpd.h **** __STATIC_INLINE void LL_UCPD_ClearFlag_RxHRST(UCPD_TypeDef *UCPDx)
1353:Drivers/STM32G0xx_HAL_Driver/Inc/stm32g0xx_ll_ucpd.h **** {
1354:Drivers/STM32G0xx_HAL_Driver/Inc/stm32g0xx_ll_ucpd.h ****   SET_BIT(UCPDx->ICR, UCPD_ICR_RXHRSTDETCF);
1355:Drivers/STM32G0xx_HAL_Driver/Inc/stm32g0xx_ll_ucpd.h **** }
1356:Drivers/STM32G0xx_HAL_Driver/Inc/stm32g0xx_ll_ucpd.h **** 
1357:Drivers/STM32G0xx_HAL_Driver/Inc/stm32g0xx_ll_ucpd.h **** /**
1358:Drivers/STM32G0xx_HAL_Driver/Inc/stm32g0xx_ll_ucpd.h ****   * @brief  Clear Rx orderset interrupt
1359:Drivers/STM32G0xx_HAL_Driver/Inc/stm32g0xx_ll_ucpd.h ****   * @rmtoll ICR          RXORDDETIE         LL_UCPD_ClearFlag_RxOrderSet
1360:Drivers/STM32G0xx_HAL_Driver/Inc/stm32g0xx_ll_ucpd.h ****   * @param  UCPDx UCPD Instance
1361:Drivers/STM32G0xx_HAL_Driver/Inc/stm32g0xx_ll_ucpd.h ****   * @retval None
1362:Drivers/STM32G0xx_HAL_Driver/Inc/stm32g0xx_ll_ucpd.h ****   */
1363:Drivers/STM32G0xx_HAL_Driver/Inc/stm32g0xx_ll_ucpd.h **** __STATIC_INLINE void LL_UCPD_ClearFlag_RxOrderSet(UCPD_TypeDef *UCPDx)
1364:Drivers/STM32G0xx_HAL_Driver/Inc/stm32g0xx_ll_ucpd.h **** {
1365:Drivers/STM32G0xx_HAL_Driver/Inc/stm32g0xx_ll_ucpd.h ****   SET_BIT(UCPDx->ICR, UCPD_ICR_RXORDDETCF);
1366:Drivers/STM32G0xx_HAL_Driver/Inc/stm32g0xx_ll_ucpd.h **** }
1367:Drivers/STM32G0xx_HAL_Driver/Inc/stm32g0xx_ll_ucpd.h **** 
1368:Drivers/STM32G0xx_HAL_Driver/Inc/stm32g0xx_ll_ucpd.h **** /**
1369:Drivers/STM32G0xx_HAL_Driver/Inc/stm32g0xx_ll_ucpd.h ****   * @brief  Clear TX underrun interrupt
1370:Drivers/STM32G0xx_HAL_Driver/Inc/stm32g0xx_ll_ucpd.h ****   * @rmtoll ICR          TXUNDIE         LL_UCPD_ClearFlag_TxUND
1371:Drivers/STM32G0xx_HAL_Driver/Inc/stm32g0xx_ll_ucpd.h ****   * @param  UCPDx UCPD Instance
ARM GAS  /tmp/ccdnVxo0.s 			page 47


1372:Drivers/STM32G0xx_HAL_Driver/Inc/stm32g0xx_ll_ucpd.h ****   * @retval None
1373:Drivers/STM32G0xx_HAL_Driver/Inc/stm32g0xx_ll_ucpd.h ****   */
1374:Drivers/STM32G0xx_HAL_Driver/Inc/stm32g0xx_ll_ucpd.h **** __STATIC_INLINE void LL_UCPD_ClearFlag_TxUND(UCPD_TypeDef *UCPDx)
1375:Drivers/STM32G0xx_HAL_Driver/Inc/stm32g0xx_ll_ucpd.h **** {
1376:Drivers/STM32G0xx_HAL_Driver/Inc/stm32g0xx_ll_ucpd.h ****   SET_BIT(UCPDx->ICR, UCPD_ICR_TXUNDCF);
1377:Drivers/STM32G0xx_HAL_Driver/Inc/stm32g0xx_ll_ucpd.h **** }
1378:Drivers/STM32G0xx_HAL_Driver/Inc/stm32g0xx_ll_ucpd.h **** 
1379:Drivers/STM32G0xx_HAL_Driver/Inc/stm32g0xx_ll_ucpd.h **** /**
1380:Drivers/STM32G0xx_HAL_Driver/Inc/stm32g0xx_ll_ucpd.h ****   * @brief  Clear hard reset sent interrupt
1381:Drivers/STM32G0xx_HAL_Driver/Inc/stm32g0xx_ll_ucpd.h ****   * @rmtoll ICR          HRSTSENTIE         LL_UCPD_ClearFlag_TxHRSTSENT
1382:Drivers/STM32G0xx_HAL_Driver/Inc/stm32g0xx_ll_ucpd.h ****   * @param  UCPDx UCPD Instance
1383:Drivers/STM32G0xx_HAL_Driver/Inc/stm32g0xx_ll_ucpd.h ****   * @retval None
1384:Drivers/STM32G0xx_HAL_Driver/Inc/stm32g0xx_ll_ucpd.h ****   */
1385:Drivers/STM32G0xx_HAL_Driver/Inc/stm32g0xx_ll_ucpd.h **** __STATIC_INLINE void LL_UCPD_ClearFlag_TxHRSTSENT(UCPD_TypeDef *UCPDx)
1386:Drivers/STM32G0xx_HAL_Driver/Inc/stm32g0xx_ll_ucpd.h **** {
1387:Drivers/STM32G0xx_HAL_Driver/Inc/stm32g0xx_ll_ucpd.h ****   SET_BIT(UCPDx->ICR, UCPD_ICR_HRSTSENTCF);
1388:Drivers/STM32G0xx_HAL_Driver/Inc/stm32g0xx_ll_ucpd.h **** }
1389:Drivers/STM32G0xx_HAL_Driver/Inc/stm32g0xx_ll_ucpd.h **** 
1390:Drivers/STM32G0xx_HAL_Driver/Inc/stm32g0xx_ll_ucpd.h **** /**
1391:Drivers/STM32G0xx_HAL_Driver/Inc/stm32g0xx_ll_ucpd.h ****   * @brief  Clear hard reset discard interrupt
1392:Drivers/STM32G0xx_HAL_Driver/Inc/stm32g0xx_ll_ucpd.h ****   * @rmtoll ICR          HRSTDISCIE         LL_UCPD_ClearFlag_TxHRSTDISC
1393:Drivers/STM32G0xx_HAL_Driver/Inc/stm32g0xx_ll_ucpd.h ****   * @param  UCPDx UCPD Instance
1394:Drivers/STM32G0xx_HAL_Driver/Inc/stm32g0xx_ll_ucpd.h ****   * @retval None
1395:Drivers/STM32G0xx_HAL_Driver/Inc/stm32g0xx_ll_ucpd.h ****   */
1396:Drivers/STM32G0xx_HAL_Driver/Inc/stm32g0xx_ll_ucpd.h **** __STATIC_INLINE void LL_UCPD_ClearFlag_TxHRSTDISC(UCPD_TypeDef *UCPDx)
1397:Drivers/STM32G0xx_HAL_Driver/Inc/stm32g0xx_ll_ucpd.h **** {
1398:Drivers/STM32G0xx_HAL_Driver/Inc/stm32g0xx_ll_ucpd.h ****   SET_BIT(UCPDx->ICR, UCPD_ICR_HRSTDISCCF);
1399:Drivers/STM32G0xx_HAL_Driver/Inc/stm32g0xx_ll_ucpd.h **** }
1400:Drivers/STM32G0xx_HAL_Driver/Inc/stm32g0xx_ll_ucpd.h **** 
1401:Drivers/STM32G0xx_HAL_Driver/Inc/stm32g0xx_ll_ucpd.h **** /**
1402:Drivers/STM32G0xx_HAL_Driver/Inc/stm32g0xx_ll_ucpd.h ****   * @brief  Clear Tx message abort interrupt
1403:Drivers/STM32G0xx_HAL_Driver/Inc/stm32g0xx_ll_ucpd.h ****   * @rmtoll ICR          TXMSGABTIE         LL_UCPD_ClearFlag_TxMSGABT
1404:Drivers/STM32G0xx_HAL_Driver/Inc/stm32g0xx_ll_ucpd.h ****   * @param  UCPDx UCPD Instance
1405:Drivers/STM32G0xx_HAL_Driver/Inc/stm32g0xx_ll_ucpd.h ****   * @retval None
1406:Drivers/STM32G0xx_HAL_Driver/Inc/stm32g0xx_ll_ucpd.h ****   */
1407:Drivers/STM32G0xx_HAL_Driver/Inc/stm32g0xx_ll_ucpd.h **** __STATIC_INLINE void LL_UCPD_ClearFlag_TxMSGABT(UCPD_TypeDef *UCPDx)
1408:Drivers/STM32G0xx_HAL_Driver/Inc/stm32g0xx_ll_ucpd.h **** {
1409:Drivers/STM32G0xx_HAL_Driver/Inc/stm32g0xx_ll_ucpd.h ****   SET_BIT(UCPDx->ICR, UCPD_ICR_TXMSGABTCF);
1410:Drivers/STM32G0xx_HAL_Driver/Inc/stm32g0xx_ll_ucpd.h **** }
1411:Drivers/STM32G0xx_HAL_Driver/Inc/stm32g0xx_ll_ucpd.h **** 
1412:Drivers/STM32G0xx_HAL_Driver/Inc/stm32g0xx_ll_ucpd.h **** /**
1413:Drivers/STM32G0xx_HAL_Driver/Inc/stm32g0xx_ll_ucpd.h ****   * @brief  Clear Tx message sent interrupt
1414:Drivers/STM32G0xx_HAL_Driver/Inc/stm32g0xx_ll_ucpd.h ****   * @rmtoll ICR          TXMSGSENTIE         LL_UCPD_ClearFlag_TxMSGSENT
1415:Drivers/STM32G0xx_HAL_Driver/Inc/stm32g0xx_ll_ucpd.h ****   * @param  UCPDx UCPD Instance
1416:Drivers/STM32G0xx_HAL_Driver/Inc/stm32g0xx_ll_ucpd.h ****   * @retval None
1417:Drivers/STM32G0xx_HAL_Driver/Inc/stm32g0xx_ll_ucpd.h ****   */
1418:Drivers/STM32G0xx_HAL_Driver/Inc/stm32g0xx_ll_ucpd.h **** __STATIC_INLINE void LL_UCPD_ClearFlag_TxMSGSENT(UCPD_TypeDef *UCPDx)
1419:Drivers/STM32G0xx_HAL_Driver/Inc/stm32g0xx_ll_ucpd.h **** {
1420:Drivers/STM32G0xx_HAL_Driver/Inc/stm32g0xx_ll_ucpd.h ****   SET_BIT(UCPDx->ICR, UCPD_ICR_TXMSGSENTCF);
1421:Drivers/STM32G0xx_HAL_Driver/Inc/stm32g0xx_ll_ucpd.h **** }
1422:Drivers/STM32G0xx_HAL_Driver/Inc/stm32g0xx_ll_ucpd.h **** 
1423:Drivers/STM32G0xx_HAL_Driver/Inc/stm32g0xx_ll_ucpd.h **** /**
1424:Drivers/STM32G0xx_HAL_Driver/Inc/stm32g0xx_ll_ucpd.h ****   * @brief  Clear Tx message discarded interrupt
1425:Drivers/STM32G0xx_HAL_Driver/Inc/stm32g0xx_ll_ucpd.h ****   * @rmtoll ICR          TXMSGDISCIE         LL_UCPD_ClearFlag_TxMSGDISC
1426:Drivers/STM32G0xx_HAL_Driver/Inc/stm32g0xx_ll_ucpd.h ****   * @param  UCPDx UCPD Instance
1427:Drivers/STM32G0xx_HAL_Driver/Inc/stm32g0xx_ll_ucpd.h ****   * @retval None
1428:Drivers/STM32G0xx_HAL_Driver/Inc/stm32g0xx_ll_ucpd.h ****   */
ARM GAS  /tmp/ccdnVxo0.s 			page 48


1429:Drivers/STM32G0xx_HAL_Driver/Inc/stm32g0xx_ll_ucpd.h **** __STATIC_INLINE void LL_UCPD_ClearFlag_TxMSGDISC(UCPD_TypeDef *UCPDx)
1430:Drivers/STM32G0xx_HAL_Driver/Inc/stm32g0xx_ll_ucpd.h **** {
1431:Drivers/STM32G0xx_HAL_Driver/Inc/stm32g0xx_ll_ucpd.h ****   SET_BIT(UCPDx->ICR, UCPD_ICR_TXMSGDISCCF);
1432:Drivers/STM32G0xx_HAL_Driver/Inc/stm32g0xx_ll_ucpd.h **** }
