ARM GAS  /tmp/ccHKcJQI.s 			page 1


   1              		.cpu cortex-m0plus
   2              		.eabi_attribute 20, 1
   3              		.eabi_attribute 21, 1
   4              		.eabi_attribute 23, 3
   5              		.eabi_attribute 24, 1
   6              		.eabi_attribute 25, 1
   7              		.eabi_attribute 26, 1
   8              		.eabi_attribute 30, 4
   9              		.eabi_attribute 34, 0
  10              		.eabi_attribute 18, 4
  11              		.file	"usbpd_timersserver.c"
  12              		.text
  13              	.Ltext0:
  14              		.cfi_sections	.debug_frame
  15              		.global	__aeabi_uidiv
  16              		.section	.text.USBPD_TIM_Init,"ax",%progbits
  17              		.align	1
  18              		.global	USBPD_TIM_Init
  19              		.arch armv6s-m
  20              		.syntax unified
  21              		.code	16
  22              		.thumb_func
  23              		.fpu softvfp
  25              	USBPD_TIM_Init:
  26              	.LFB829:
  27              		.file 1 "Middlewares/ST/STM32_USBPD_Library/Devices/STM32G0XX/src/usbpd_timersserver.c"
   1:Middlewares/ST/STM32_USBPD_Library/Devices/STM32G0XX/src/usbpd_timersserver.c **** /**
   2:Middlewares/ST/STM32_USBPD_Library/Devices/STM32G0XX/src/usbpd_timersserver.c ****   ******************************************************************************
   3:Middlewares/ST/STM32_USBPD_Library/Devices/STM32G0XX/src/usbpd_timersserver.c ****   * @file    usbpd_timersserver.c
   4:Middlewares/ST/STM32_USBPD_Library/Devices/STM32G0XX/src/usbpd_timersserver.c ****   * @author  MCD Application Team
   5:Middlewares/ST/STM32_USBPD_Library/Devices/STM32G0XX/src/usbpd_timersserver.c ****   * @brief   This file contains timer server functions.
   6:Middlewares/ST/STM32_USBPD_Library/Devices/STM32G0XX/src/usbpd_timersserver.c ****   ******************************************************************************
   7:Middlewares/ST/STM32_USBPD_Library/Devices/STM32G0XX/src/usbpd_timersserver.c ****   * @attention
   8:Middlewares/ST/STM32_USBPD_Library/Devices/STM32G0XX/src/usbpd_timersserver.c ****   *
   9:Middlewares/ST/STM32_USBPD_Library/Devices/STM32G0XX/src/usbpd_timersserver.c ****   * <h2><center>&copy; Copyright (c) 2017 STMicroelectronics.
  10:Middlewares/ST/STM32_USBPD_Library/Devices/STM32G0XX/src/usbpd_timersserver.c ****   * All rights reserved.</center></h2>
  11:Middlewares/ST/STM32_USBPD_Library/Devices/STM32G0XX/src/usbpd_timersserver.c ****   *
  12:Middlewares/ST/STM32_USBPD_Library/Devices/STM32G0XX/src/usbpd_timersserver.c ****   * This software component is licensed by ST under Ultimate Liberty license
  13:Middlewares/ST/STM32_USBPD_Library/Devices/STM32G0XX/src/usbpd_timersserver.c ****   * SLA0044, the "License"; You may not use this file except in compliance with
  14:Middlewares/ST/STM32_USBPD_Library/Devices/STM32G0XX/src/usbpd_timersserver.c ****   * the License. You may obtain a copy of the License at:
  15:Middlewares/ST/STM32_USBPD_Library/Devices/STM32G0XX/src/usbpd_timersserver.c ****   *                             www.st.com/SLA0044
  16:Middlewares/ST/STM32_USBPD_Library/Devices/STM32G0XX/src/usbpd_timersserver.c ****   *
  17:Middlewares/ST/STM32_USBPD_Library/Devices/STM32G0XX/src/usbpd_timersserver.c ****   ******************************************************************************
  18:Middlewares/ST/STM32_USBPD_Library/Devices/STM32G0XX/src/usbpd_timersserver.c ****   */
  19:Middlewares/ST/STM32_USBPD_Library/Devices/STM32G0XX/src/usbpd_timersserver.c **** 
  20:Middlewares/ST/STM32_USBPD_Library/Devices/STM32G0XX/src/usbpd_timersserver.c **** /* Includes ------------------------------------------------------------------*/
  21:Middlewares/ST/STM32_USBPD_Library/Devices/STM32G0XX/src/usbpd_timersserver.c **** #include "usbpd_devices_conf.h"
  22:Middlewares/ST/STM32_USBPD_Library/Devices/STM32G0XX/src/usbpd_timersserver.c **** #include "usbpd_timersserver.h"
  23:Middlewares/ST/STM32_USBPD_Library/Devices/STM32G0XX/src/usbpd_timersserver.c **** 
  24:Middlewares/ST/STM32_USBPD_Library/Devices/STM32G0XX/src/usbpd_timersserver.c **** /** @addtogroup STM32_USBPD_LIBRARY
  25:Middlewares/ST/STM32_USBPD_Library/Devices/STM32G0XX/src/usbpd_timersserver.c ****   * @{
  26:Middlewares/ST/STM32_USBPD_Library/Devices/STM32G0XX/src/usbpd_timersserver.c ****   */
  27:Middlewares/ST/STM32_USBPD_Library/Devices/STM32G0XX/src/usbpd_timersserver.c **** 
  28:Middlewares/ST/STM32_USBPD_Library/Devices/STM32G0XX/src/usbpd_timersserver.c **** /** @addtogroup USBPD_DEVICE
  29:Middlewares/ST/STM32_USBPD_Library/Devices/STM32G0XX/src/usbpd_timersserver.c ****   * @{
  30:Middlewares/ST/STM32_USBPD_Library/Devices/STM32G0XX/src/usbpd_timersserver.c ****   */
  31:Middlewares/ST/STM32_USBPD_Library/Devices/STM32G0XX/src/usbpd_timersserver.c **** 
ARM GAS  /tmp/ccHKcJQI.s 			page 2


  32:Middlewares/ST/STM32_USBPD_Library/Devices/STM32G0XX/src/usbpd_timersserver.c **** /** @addtogroup USBPD_DEVICE_TIMESERVER
  33:Middlewares/ST/STM32_USBPD_Library/Devices/STM32G0XX/src/usbpd_timersserver.c ****   * @{
  34:Middlewares/ST/STM32_USBPD_Library/Devices/STM32G0XX/src/usbpd_timersserver.c ****   */
  35:Middlewares/ST/STM32_USBPD_Library/Devices/STM32G0XX/src/usbpd_timersserver.c **** 
  36:Middlewares/ST/STM32_USBPD_Library/Devices/STM32G0XX/src/usbpd_timersserver.c **** /* Private typedef -----------------------------------------------------------*/
  37:Middlewares/ST/STM32_USBPD_Library/Devices/STM32G0XX/src/usbpd_timersserver.c **** /* Private define ------------------------------------------------------------*/
  38:Middlewares/ST/STM32_USBPD_Library/Devices/STM32G0XX/src/usbpd_timersserver.c **** /* Private macro -------------------------------------------------------------*/
  39:Middlewares/ST/STM32_USBPD_Library/Devices/STM32G0XX/src/usbpd_timersserver.c **** /* Private variables ---------------------------------------------------------*/
  40:Middlewares/ST/STM32_USBPD_Library/Devices/STM32G0XX/src/usbpd_timersserver.c **** /* Private function prototypes -----------------------------------------------*/
  41:Middlewares/ST/STM32_USBPD_Library/Devices/STM32G0XX/src/usbpd_timersserver.c **** /* Private functions ---------------------------------------------------------*/
  42:Middlewares/ST/STM32_USBPD_Library/Devices/STM32G0XX/src/usbpd_timersserver.c **** 
  43:Middlewares/ST/STM32_USBPD_Library/Devices/STM32G0XX/src/usbpd_timersserver.c **** /**
  44:Middlewares/ST/STM32_USBPD_Library/Devices/STM32G0XX/src/usbpd_timersserver.c ****   * @brief  Initialize Timer 2
  45:Middlewares/ST/STM32_USBPD_Library/Devices/STM32G0XX/src/usbpd_timersserver.c ****   * @retval None
  46:Middlewares/ST/STM32_USBPD_Library/Devices/STM32G0XX/src/usbpd_timersserver.c ****   */
  47:Middlewares/ST/STM32_USBPD_Library/Devices/STM32G0XX/src/usbpd_timersserver.c **** void USBPD_TIM_Init(void)
  48:Middlewares/ST/STM32_USBPD_Library/Devices/STM32G0XX/src/usbpd_timersserver.c **** {
  28              		.loc 1 48 1 view -0
  29              		.cfi_startproc
  30              		@ args = 0, pretend = 0, frame = 8
  31              		@ frame_needed = 0, uses_anonymous_args = 0
  49:Middlewares/ST/STM32_USBPD_Library/Devices/STM32G0XX/src/usbpd_timersserver.c ****   TIMX_CLK_ENABLE;
  32              		.loc 1 49 3 view .LVU1
  33              	.LBB60:
  34              	.LBI60:
  35              		.file 2 "Drivers/STM32G0xx_HAL_Driver/Inc/stm32g0xx_ll_bus.h"
   1:Drivers/STM32G0xx_HAL_Driver/Inc/stm32g0xx_ll_bus.h **** /**
   2:Drivers/STM32G0xx_HAL_Driver/Inc/stm32g0xx_ll_bus.h ****   ******************************************************************************
   3:Drivers/STM32G0xx_HAL_Driver/Inc/stm32g0xx_ll_bus.h ****   * @file    stm32g0xx_ll_bus.h
   4:Drivers/STM32G0xx_HAL_Driver/Inc/stm32g0xx_ll_bus.h ****   * @author  MCD Application Team
   5:Drivers/STM32G0xx_HAL_Driver/Inc/stm32g0xx_ll_bus.h ****   * @brief   Header file of BUS LL module.
   6:Drivers/STM32G0xx_HAL_Driver/Inc/stm32g0xx_ll_bus.h **** 
   7:Drivers/STM32G0xx_HAL_Driver/Inc/stm32g0xx_ll_bus.h ****   @verbatim
   8:Drivers/STM32G0xx_HAL_Driver/Inc/stm32g0xx_ll_bus.h ****                       ##### RCC Limitations #####
   9:Drivers/STM32G0xx_HAL_Driver/Inc/stm32g0xx_ll_bus.h ****   ==============================================================================
  10:Drivers/STM32G0xx_HAL_Driver/Inc/stm32g0xx_ll_bus.h ****     [..]
  11:Drivers/STM32G0xx_HAL_Driver/Inc/stm32g0xx_ll_bus.h ****       A delay between an RCC peripheral clock enable and the effective peripheral
  12:Drivers/STM32G0xx_HAL_Driver/Inc/stm32g0xx_ll_bus.h ****       enabling should be taken into account in order to manage the peripheral read/write
  13:Drivers/STM32G0xx_HAL_Driver/Inc/stm32g0xx_ll_bus.h ****       from/to registers.
  14:Drivers/STM32G0xx_HAL_Driver/Inc/stm32g0xx_ll_bus.h ****       (+) This delay depends on the peripheral mapping.
  15:Drivers/STM32G0xx_HAL_Driver/Inc/stm32g0xx_ll_bus.h ****         (++) AHB & APB peripherals, 1 dummy read is necessary
  16:Drivers/STM32G0xx_HAL_Driver/Inc/stm32g0xx_ll_bus.h **** 
  17:Drivers/STM32G0xx_HAL_Driver/Inc/stm32g0xx_ll_bus.h ****     [..]
  18:Drivers/STM32G0xx_HAL_Driver/Inc/stm32g0xx_ll_bus.h ****       Workarounds:
  19:Drivers/STM32G0xx_HAL_Driver/Inc/stm32g0xx_ll_bus.h ****       (#) For AHB & APB peripherals, a dummy read to the peripheral register has been
  20:Drivers/STM32G0xx_HAL_Driver/Inc/stm32g0xx_ll_bus.h ****           inserted in each LL_{BUS}_GRP{x}_EnableClock() function.
  21:Drivers/STM32G0xx_HAL_Driver/Inc/stm32g0xx_ll_bus.h **** 
  22:Drivers/STM32G0xx_HAL_Driver/Inc/stm32g0xx_ll_bus.h ****   @endverbatim
  23:Drivers/STM32G0xx_HAL_Driver/Inc/stm32g0xx_ll_bus.h ****   ******************************************************************************
  24:Drivers/STM32G0xx_HAL_Driver/Inc/stm32g0xx_ll_bus.h ****   * @attention
  25:Drivers/STM32G0xx_HAL_Driver/Inc/stm32g0xx_ll_bus.h ****   *
  26:Drivers/STM32G0xx_HAL_Driver/Inc/stm32g0xx_ll_bus.h ****   * <h2><center>&copy; Copyright (c) 2018 STMicroelectronics. 
  27:Drivers/STM32G0xx_HAL_Driver/Inc/stm32g0xx_ll_bus.h ****   * All rights reserved.</center></h2>
  28:Drivers/STM32G0xx_HAL_Driver/Inc/stm32g0xx_ll_bus.h ****   *
  29:Drivers/STM32G0xx_HAL_Driver/Inc/stm32g0xx_ll_bus.h ****   * This software component is licensed by ST under BSD 3-Clause license,
  30:Drivers/STM32G0xx_HAL_Driver/Inc/stm32g0xx_ll_bus.h ****   * the "License"; You may not use this file except in compliance with the 
  31:Drivers/STM32G0xx_HAL_Driver/Inc/stm32g0xx_ll_bus.h ****   * License. You may obtain a copy of the License at:
ARM GAS  /tmp/ccHKcJQI.s 			page 3


  32:Drivers/STM32G0xx_HAL_Driver/Inc/stm32g0xx_ll_bus.h ****   *                        opensource.org/licenses/BSD-3-Clause
  33:Drivers/STM32G0xx_HAL_Driver/Inc/stm32g0xx_ll_bus.h ****   *
  34:Drivers/STM32G0xx_HAL_Driver/Inc/stm32g0xx_ll_bus.h ****   ******************************************************************************
  35:Drivers/STM32G0xx_HAL_Driver/Inc/stm32g0xx_ll_bus.h ****   */
  36:Drivers/STM32G0xx_HAL_Driver/Inc/stm32g0xx_ll_bus.h **** 
  37:Drivers/STM32G0xx_HAL_Driver/Inc/stm32g0xx_ll_bus.h **** /* Define to prevent recursive inclusion -------------------------------------*/
  38:Drivers/STM32G0xx_HAL_Driver/Inc/stm32g0xx_ll_bus.h **** #ifndef STM32G0xx_LL_BUS_H
  39:Drivers/STM32G0xx_HAL_Driver/Inc/stm32g0xx_ll_bus.h **** #define STM32G0xx_LL_BUS_H
  40:Drivers/STM32G0xx_HAL_Driver/Inc/stm32g0xx_ll_bus.h **** 
  41:Drivers/STM32G0xx_HAL_Driver/Inc/stm32g0xx_ll_bus.h **** #ifdef __cplusplus
  42:Drivers/STM32G0xx_HAL_Driver/Inc/stm32g0xx_ll_bus.h **** extern "C" {
  43:Drivers/STM32G0xx_HAL_Driver/Inc/stm32g0xx_ll_bus.h **** #endif
  44:Drivers/STM32G0xx_HAL_Driver/Inc/stm32g0xx_ll_bus.h **** 
  45:Drivers/STM32G0xx_HAL_Driver/Inc/stm32g0xx_ll_bus.h **** /* Includes ------------------------------------------------------------------*/
  46:Drivers/STM32G0xx_HAL_Driver/Inc/stm32g0xx_ll_bus.h **** #include "stm32g0xx.h"
  47:Drivers/STM32G0xx_HAL_Driver/Inc/stm32g0xx_ll_bus.h **** 
  48:Drivers/STM32G0xx_HAL_Driver/Inc/stm32g0xx_ll_bus.h **** /** @addtogroup STM32G0xx_LL_Driver
  49:Drivers/STM32G0xx_HAL_Driver/Inc/stm32g0xx_ll_bus.h ****   * @{
  50:Drivers/STM32G0xx_HAL_Driver/Inc/stm32g0xx_ll_bus.h ****   */
  51:Drivers/STM32G0xx_HAL_Driver/Inc/stm32g0xx_ll_bus.h **** 
  52:Drivers/STM32G0xx_HAL_Driver/Inc/stm32g0xx_ll_bus.h **** #if defined(RCC)
  53:Drivers/STM32G0xx_HAL_Driver/Inc/stm32g0xx_ll_bus.h **** 
  54:Drivers/STM32G0xx_HAL_Driver/Inc/stm32g0xx_ll_bus.h **** /** @defgroup BUS_LL BUS
  55:Drivers/STM32G0xx_HAL_Driver/Inc/stm32g0xx_ll_bus.h ****   * @{
  56:Drivers/STM32G0xx_HAL_Driver/Inc/stm32g0xx_ll_bus.h ****   */
  57:Drivers/STM32G0xx_HAL_Driver/Inc/stm32g0xx_ll_bus.h **** 
  58:Drivers/STM32G0xx_HAL_Driver/Inc/stm32g0xx_ll_bus.h **** /* Private types -------------------------------------------------------------*/
  59:Drivers/STM32G0xx_HAL_Driver/Inc/stm32g0xx_ll_bus.h **** /* Private variables ---------------------------------------------------------*/
  60:Drivers/STM32G0xx_HAL_Driver/Inc/stm32g0xx_ll_bus.h **** 
  61:Drivers/STM32G0xx_HAL_Driver/Inc/stm32g0xx_ll_bus.h **** /* Private constants ---------------------------------------------------------*/
  62:Drivers/STM32G0xx_HAL_Driver/Inc/stm32g0xx_ll_bus.h **** 
  63:Drivers/STM32G0xx_HAL_Driver/Inc/stm32g0xx_ll_bus.h **** /* Private macros ------------------------------------------------------------*/
  64:Drivers/STM32G0xx_HAL_Driver/Inc/stm32g0xx_ll_bus.h **** 
  65:Drivers/STM32G0xx_HAL_Driver/Inc/stm32g0xx_ll_bus.h **** /* Exported types ------------------------------------------------------------*/
  66:Drivers/STM32G0xx_HAL_Driver/Inc/stm32g0xx_ll_bus.h **** /* Exported constants --------------------------------------------------------*/
  67:Drivers/STM32G0xx_HAL_Driver/Inc/stm32g0xx_ll_bus.h **** /** @defgroup BUS_LL_Exported_Constants BUS Exported Constants
  68:Drivers/STM32G0xx_HAL_Driver/Inc/stm32g0xx_ll_bus.h ****   * @{
  69:Drivers/STM32G0xx_HAL_Driver/Inc/stm32g0xx_ll_bus.h ****   */
  70:Drivers/STM32G0xx_HAL_Driver/Inc/stm32g0xx_ll_bus.h **** 
  71:Drivers/STM32G0xx_HAL_Driver/Inc/stm32g0xx_ll_bus.h **** /** @defgroup BUS_LL_EC_AHB1_GRP1_PERIPH  AHB1 GRP1 PERIPH
  72:Drivers/STM32G0xx_HAL_Driver/Inc/stm32g0xx_ll_bus.h ****   * @{
  73:Drivers/STM32G0xx_HAL_Driver/Inc/stm32g0xx_ll_bus.h ****   */
  74:Drivers/STM32G0xx_HAL_Driver/Inc/stm32g0xx_ll_bus.h **** #define LL_AHB1_GRP1_PERIPH_ALL            0xFFFFFFFFU
  75:Drivers/STM32G0xx_HAL_Driver/Inc/stm32g0xx_ll_bus.h **** #define LL_AHB1_GRP1_PERIPH_DMA1           RCC_AHBENR_DMA1EN
  76:Drivers/STM32G0xx_HAL_Driver/Inc/stm32g0xx_ll_bus.h **** #define LL_AHB1_GRP1_PERIPH_FLASH          RCC_AHBENR_FLASHEN
  77:Drivers/STM32G0xx_HAL_Driver/Inc/stm32g0xx_ll_bus.h **** #define LL_AHB1_GRP1_PERIPH_SRAM           RCC_AHBSMENR_SRAMSMEN
  78:Drivers/STM32G0xx_HAL_Driver/Inc/stm32g0xx_ll_bus.h **** #if defined(CRC)
  79:Drivers/STM32G0xx_HAL_Driver/Inc/stm32g0xx_ll_bus.h **** #define LL_AHB1_GRP1_PERIPH_CRC            RCC_AHBENR_CRCEN
  80:Drivers/STM32G0xx_HAL_Driver/Inc/stm32g0xx_ll_bus.h **** #endif
  81:Drivers/STM32G0xx_HAL_Driver/Inc/stm32g0xx_ll_bus.h **** #if defined(AES)
  82:Drivers/STM32G0xx_HAL_Driver/Inc/stm32g0xx_ll_bus.h **** #define LL_AHB1_GRP1_PERIPH_CRYP           RCC_AHBENR_AESEN
  83:Drivers/STM32G0xx_HAL_Driver/Inc/stm32g0xx_ll_bus.h **** #endif /* AES */
  84:Drivers/STM32G0xx_HAL_Driver/Inc/stm32g0xx_ll_bus.h **** #if defined(RNG)
  85:Drivers/STM32G0xx_HAL_Driver/Inc/stm32g0xx_ll_bus.h **** #define LL_AHB1_GRP1_PERIPH_RNG            RCC_AHBENR_RNGEN
  86:Drivers/STM32G0xx_HAL_Driver/Inc/stm32g0xx_ll_bus.h **** #endif
  87:Drivers/STM32G0xx_HAL_Driver/Inc/stm32g0xx_ll_bus.h **** /**
  88:Drivers/STM32G0xx_HAL_Driver/Inc/stm32g0xx_ll_bus.h ****   * @}
ARM GAS  /tmp/ccHKcJQI.s 			page 4


  89:Drivers/STM32G0xx_HAL_Driver/Inc/stm32g0xx_ll_bus.h ****   */
  90:Drivers/STM32G0xx_HAL_Driver/Inc/stm32g0xx_ll_bus.h **** 
  91:Drivers/STM32G0xx_HAL_Driver/Inc/stm32g0xx_ll_bus.h **** 
  92:Drivers/STM32G0xx_HAL_Driver/Inc/stm32g0xx_ll_bus.h **** /** @defgroup BUS_LL_EC_APB1_GRP1_PERIPH  APB1 GRP1 PERIPH
  93:Drivers/STM32G0xx_HAL_Driver/Inc/stm32g0xx_ll_bus.h ****   * @{
  94:Drivers/STM32G0xx_HAL_Driver/Inc/stm32g0xx_ll_bus.h ****   */
  95:Drivers/STM32G0xx_HAL_Driver/Inc/stm32g0xx_ll_bus.h **** #define LL_APB1_GRP1_PERIPH_ALL            0xFFFFFFFFU
  96:Drivers/STM32G0xx_HAL_Driver/Inc/stm32g0xx_ll_bus.h **** #if defined(TIM2)
  97:Drivers/STM32G0xx_HAL_Driver/Inc/stm32g0xx_ll_bus.h **** #define LL_APB1_GRP1_PERIPH_TIM2           RCC_APBENR1_TIM2EN
  98:Drivers/STM32G0xx_HAL_Driver/Inc/stm32g0xx_ll_bus.h **** #endif /* TIM2 */
  99:Drivers/STM32G0xx_HAL_Driver/Inc/stm32g0xx_ll_bus.h **** #if defined(TIM3)
 100:Drivers/STM32G0xx_HAL_Driver/Inc/stm32g0xx_ll_bus.h **** #define LL_APB1_GRP1_PERIPH_TIM3           RCC_APBENR1_TIM3EN
 101:Drivers/STM32G0xx_HAL_Driver/Inc/stm32g0xx_ll_bus.h **** #endif /* TIM3 */
 102:Drivers/STM32G0xx_HAL_Driver/Inc/stm32g0xx_ll_bus.h **** #if defined(TIM6)
 103:Drivers/STM32G0xx_HAL_Driver/Inc/stm32g0xx_ll_bus.h **** #define LL_APB1_GRP1_PERIPH_TIM6           RCC_APBENR1_TIM6EN
 104:Drivers/STM32G0xx_HAL_Driver/Inc/stm32g0xx_ll_bus.h **** #endif /* TIM6 */
 105:Drivers/STM32G0xx_HAL_Driver/Inc/stm32g0xx_ll_bus.h **** #if defined(TIM7)
 106:Drivers/STM32G0xx_HAL_Driver/Inc/stm32g0xx_ll_bus.h **** #define LL_APB1_GRP1_PERIPH_TIM7           RCC_APBENR1_TIM7EN
 107:Drivers/STM32G0xx_HAL_Driver/Inc/stm32g0xx_ll_bus.h **** #endif /* TIM7 */
 108:Drivers/STM32G0xx_HAL_Driver/Inc/stm32g0xx_ll_bus.h **** #define LL_APB1_GRP1_PERIPH_RTC            RCC_APBENR1_RTCAPBEN
 109:Drivers/STM32G0xx_HAL_Driver/Inc/stm32g0xx_ll_bus.h **** #define LL_APB1_GRP1_PERIPH_WWDG           RCC_APBENR1_WWDGEN
 110:Drivers/STM32G0xx_HAL_Driver/Inc/stm32g0xx_ll_bus.h **** #define LL_APB1_GRP1_PERIPH_SPI2           RCC_APBENR1_SPI2EN
 111:Drivers/STM32G0xx_HAL_Driver/Inc/stm32g0xx_ll_bus.h **** #define LL_APB1_GRP1_PERIPH_USART2         RCC_APBENR1_USART2EN
 112:Drivers/STM32G0xx_HAL_Driver/Inc/stm32g0xx_ll_bus.h **** #if defined(USART3)
 113:Drivers/STM32G0xx_HAL_Driver/Inc/stm32g0xx_ll_bus.h **** #define LL_APB1_GRP1_PERIPH_USART3         RCC_APBENR1_USART3EN
 114:Drivers/STM32G0xx_HAL_Driver/Inc/stm32g0xx_ll_bus.h **** #endif
 115:Drivers/STM32G0xx_HAL_Driver/Inc/stm32g0xx_ll_bus.h **** #if defined(USART4)
 116:Drivers/STM32G0xx_HAL_Driver/Inc/stm32g0xx_ll_bus.h **** #define LL_APB1_GRP1_PERIPH_USART4         RCC_APBENR1_USART4EN
 117:Drivers/STM32G0xx_HAL_Driver/Inc/stm32g0xx_ll_bus.h **** #endif /* USART4 */
 118:Drivers/STM32G0xx_HAL_Driver/Inc/stm32g0xx_ll_bus.h **** #if defined(LPUART1)
 119:Drivers/STM32G0xx_HAL_Driver/Inc/stm32g0xx_ll_bus.h **** #define LL_APB1_GRP1_PERIPH_LPUART1        RCC_APBENR1_LPUART1EN
 120:Drivers/STM32G0xx_HAL_Driver/Inc/stm32g0xx_ll_bus.h **** #endif
 121:Drivers/STM32G0xx_HAL_Driver/Inc/stm32g0xx_ll_bus.h **** #define LL_APB1_GRP1_PERIPH_I2C1           RCC_APBENR1_I2C1EN
 122:Drivers/STM32G0xx_HAL_Driver/Inc/stm32g0xx_ll_bus.h **** #define LL_APB1_GRP1_PERIPH_I2C2           RCC_APBENR1_I2C2EN
 123:Drivers/STM32G0xx_HAL_Driver/Inc/stm32g0xx_ll_bus.h **** #if defined(CEC)
 124:Drivers/STM32G0xx_HAL_Driver/Inc/stm32g0xx_ll_bus.h **** #define LL_APB1_GRP1_PERIPH_CEC            RCC_APBENR1_CECEN
 125:Drivers/STM32G0xx_HAL_Driver/Inc/stm32g0xx_ll_bus.h **** #endif /* CEC */
 126:Drivers/STM32G0xx_HAL_Driver/Inc/stm32g0xx_ll_bus.h **** #if defined(UCPD1)
 127:Drivers/STM32G0xx_HAL_Driver/Inc/stm32g0xx_ll_bus.h **** #define LL_APB1_GRP1_PERIPH_UCPD1          RCC_APBENR1_UCPD1EN
 128:Drivers/STM32G0xx_HAL_Driver/Inc/stm32g0xx_ll_bus.h **** #endif
 129:Drivers/STM32G0xx_HAL_Driver/Inc/stm32g0xx_ll_bus.h **** #if defined(UCPD2)
 130:Drivers/STM32G0xx_HAL_Driver/Inc/stm32g0xx_ll_bus.h **** #define LL_APB1_GRP1_PERIPH_UCPD2          RCC_APBENR1_UCPD2EN
 131:Drivers/STM32G0xx_HAL_Driver/Inc/stm32g0xx_ll_bus.h **** #endif
 132:Drivers/STM32G0xx_HAL_Driver/Inc/stm32g0xx_ll_bus.h **** #define LL_APB1_GRP1_PERIPH_DBGMCU         RCC_APBENR1_DBGEN
 133:Drivers/STM32G0xx_HAL_Driver/Inc/stm32g0xx_ll_bus.h **** #define LL_APB1_GRP1_PERIPH_PWR            RCC_APBENR1_PWREN
 134:Drivers/STM32G0xx_HAL_Driver/Inc/stm32g0xx_ll_bus.h **** #if defined(DAC1)
 135:Drivers/STM32G0xx_HAL_Driver/Inc/stm32g0xx_ll_bus.h **** #define LL_APB1_GRP1_PERIPH_DAC1           RCC_APBENR1_DAC1EN
 136:Drivers/STM32G0xx_HAL_Driver/Inc/stm32g0xx_ll_bus.h **** #endif
 137:Drivers/STM32G0xx_HAL_Driver/Inc/stm32g0xx_ll_bus.h **** #if defined(LPTIM2)
 138:Drivers/STM32G0xx_HAL_Driver/Inc/stm32g0xx_ll_bus.h **** #define LL_APB1_GRP1_PERIPH_LPTIM2         RCC_APBENR1_LPTIM2EN
 139:Drivers/STM32G0xx_HAL_Driver/Inc/stm32g0xx_ll_bus.h **** #endif
 140:Drivers/STM32G0xx_HAL_Driver/Inc/stm32g0xx_ll_bus.h **** #if defined(LPTIM1)
 141:Drivers/STM32G0xx_HAL_Driver/Inc/stm32g0xx_ll_bus.h **** #define LL_APB1_GRP1_PERIPH_LPTIM1         RCC_APBENR1_LPTIM1EN
 142:Drivers/STM32G0xx_HAL_Driver/Inc/stm32g0xx_ll_bus.h **** #endif
 143:Drivers/STM32G0xx_HAL_Driver/Inc/stm32g0xx_ll_bus.h **** /**
 144:Drivers/STM32G0xx_HAL_Driver/Inc/stm32g0xx_ll_bus.h ****   * @}
 145:Drivers/STM32G0xx_HAL_Driver/Inc/stm32g0xx_ll_bus.h ****   */
ARM GAS  /tmp/ccHKcJQI.s 			page 5


 146:Drivers/STM32G0xx_HAL_Driver/Inc/stm32g0xx_ll_bus.h **** 
 147:Drivers/STM32G0xx_HAL_Driver/Inc/stm32g0xx_ll_bus.h **** /** @defgroup BUS_LL_EC_APB2_GRP1_PERIPH  APB2 GRP1 PERIPH
 148:Drivers/STM32G0xx_HAL_Driver/Inc/stm32g0xx_ll_bus.h ****   * @{
 149:Drivers/STM32G0xx_HAL_Driver/Inc/stm32g0xx_ll_bus.h ****   */
 150:Drivers/STM32G0xx_HAL_Driver/Inc/stm32g0xx_ll_bus.h **** #define LL_APB2_GRP1_PERIPH_ALL            0xFFFFFFFFU
 151:Drivers/STM32G0xx_HAL_Driver/Inc/stm32g0xx_ll_bus.h **** #define LL_APB2_GRP1_PERIPH_SYSCFG         RCC_APBENR2_SYSCFGEN
 152:Drivers/STM32G0xx_HAL_Driver/Inc/stm32g0xx_ll_bus.h **** #define LL_APB2_GRP1_PERIPH_TIM1           RCC_APBENR2_TIM1EN
 153:Drivers/STM32G0xx_HAL_Driver/Inc/stm32g0xx_ll_bus.h **** #define LL_APB2_GRP1_PERIPH_SPI1           RCC_APBENR2_SPI1EN
 154:Drivers/STM32G0xx_HAL_Driver/Inc/stm32g0xx_ll_bus.h **** #define LL_APB2_GRP1_PERIPH_USART1         RCC_APBENR2_USART1EN
 155:Drivers/STM32G0xx_HAL_Driver/Inc/stm32g0xx_ll_bus.h **** #if defined(TIM14)
 156:Drivers/STM32G0xx_HAL_Driver/Inc/stm32g0xx_ll_bus.h **** #define LL_APB2_GRP1_PERIPH_TIM14          RCC_APBENR2_TIM14EN
 157:Drivers/STM32G0xx_HAL_Driver/Inc/stm32g0xx_ll_bus.h **** #endif /* TIM14 */
 158:Drivers/STM32G0xx_HAL_Driver/Inc/stm32g0xx_ll_bus.h **** #if defined(TIM15)
 159:Drivers/STM32G0xx_HAL_Driver/Inc/stm32g0xx_ll_bus.h **** #define LL_APB2_GRP1_PERIPH_TIM15          RCC_APBENR2_TIM15EN
 160:Drivers/STM32G0xx_HAL_Driver/Inc/stm32g0xx_ll_bus.h **** #endif
 161:Drivers/STM32G0xx_HAL_Driver/Inc/stm32g0xx_ll_bus.h **** #if defined(TIM16)
 162:Drivers/STM32G0xx_HAL_Driver/Inc/stm32g0xx_ll_bus.h **** #define LL_APB2_GRP1_PERIPH_TIM16          RCC_APBENR2_TIM16EN
 163:Drivers/STM32G0xx_HAL_Driver/Inc/stm32g0xx_ll_bus.h **** #endif
 164:Drivers/STM32G0xx_HAL_Driver/Inc/stm32g0xx_ll_bus.h **** #if defined(TIM17)
 165:Drivers/STM32G0xx_HAL_Driver/Inc/stm32g0xx_ll_bus.h **** #define LL_APB2_GRP1_PERIPH_TIM17          RCC_APBENR2_TIM17EN
 166:Drivers/STM32G0xx_HAL_Driver/Inc/stm32g0xx_ll_bus.h **** #endif /* TIM17 */
 167:Drivers/STM32G0xx_HAL_Driver/Inc/stm32g0xx_ll_bus.h **** #if defined(ADC)
 168:Drivers/STM32G0xx_HAL_Driver/Inc/stm32g0xx_ll_bus.h **** #define LL_APB2_GRP1_PERIPH_ADC            RCC_APBENR2_ADCEN
 169:Drivers/STM32G0xx_HAL_Driver/Inc/stm32g0xx_ll_bus.h **** #endif
 170:Drivers/STM32G0xx_HAL_Driver/Inc/stm32g0xx_ll_bus.h **** /**
 171:Drivers/STM32G0xx_HAL_Driver/Inc/stm32g0xx_ll_bus.h ****   * @}
 172:Drivers/STM32G0xx_HAL_Driver/Inc/stm32g0xx_ll_bus.h ****   */
 173:Drivers/STM32G0xx_HAL_Driver/Inc/stm32g0xx_ll_bus.h **** 
 174:Drivers/STM32G0xx_HAL_Driver/Inc/stm32g0xx_ll_bus.h **** /** @defgroup BUS_LL_EC_IOP_GRP1_PERIPH  IOP GRP1 PERIPH
 175:Drivers/STM32G0xx_HAL_Driver/Inc/stm32g0xx_ll_bus.h ****   * @{
 176:Drivers/STM32G0xx_HAL_Driver/Inc/stm32g0xx_ll_bus.h ****   */
 177:Drivers/STM32G0xx_HAL_Driver/Inc/stm32g0xx_ll_bus.h **** #define LL_IOP_GRP1_PERIPH_ALL             0xFFFFFFFFU
 178:Drivers/STM32G0xx_HAL_Driver/Inc/stm32g0xx_ll_bus.h **** #define LL_IOP_GRP1_PERIPH_GPIOA           RCC_IOPENR_GPIOAEN
 179:Drivers/STM32G0xx_HAL_Driver/Inc/stm32g0xx_ll_bus.h **** #define LL_IOP_GRP1_PERIPH_GPIOB           RCC_IOPENR_GPIOBEN
 180:Drivers/STM32G0xx_HAL_Driver/Inc/stm32g0xx_ll_bus.h **** #define LL_IOP_GRP1_PERIPH_GPIOC           RCC_IOPENR_GPIOCEN
 181:Drivers/STM32G0xx_HAL_Driver/Inc/stm32g0xx_ll_bus.h **** #define LL_IOP_GRP1_PERIPH_GPIOD           RCC_IOPENR_GPIODEN
 182:Drivers/STM32G0xx_HAL_Driver/Inc/stm32g0xx_ll_bus.h **** #if defined(GPIOE)
 183:Drivers/STM32G0xx_HAL_Driver/Inc/stm32g0xx_ll_bus.h **** #define LL_IOP_GRP1_PERIPH_GPIOE           RCC_IOPENR_GPIOEEN
 184:Drivers/STM32G0xx_HAL_Driver/Inc/stm32g0xx_ll_bus.h **** #endif /* GPIOE */
 185:Drivers/STM32G0xx_HAL_Driver/Inc/stm32g0xx_ll_bus.h **** #if defined(GPIOF)
 186:Drivers/STM32G0xx_HAL_Driver/Inc/stm32g0xx_ll_bus.h **** #define LL_IOP_GRP1_PERIPH_GPIOF           RCC_IOPENR_GPIOFEN
 187:Drivers/STM32G0xx_HAL_Driver/Inc/stm32g0xx_ll_bus.h **** #endif /* GPIOF */
 188:Drivers/STM32G0xx_HAL_Driver/Inc/stm32g0xx_ll_bus.h **** /**
 189:Drivers/STM32G0xx_HAL_Driver/Inc/stm32g0xx_ll_bus.h ****   * @}
 190:Drivers/STM32G0xx_HAL_Driver/Inc/stm32g0xx_ll_bus.h ****   */
 191:Drivers/STM32G0xx_HAL_Driver/Inc/stm32g0xx_ll_bus.h **** 
 192:Drivers/STM32G0xx_HAL_Driver/Inc/stm32g0xx_ll_bus.h **** /**
 193:Drivers/STM32G0xx_HAL_Driver/Inc/stm32g0xx_ll_bus.h ****   * @}
 194:Drivers/STM32G0xx_HAL_Driver/Inc/stm32g0xx_ll_bus.h ****   */
 195:Drivers/STM32G0xx_HAL_Driver/Inc/stm32g0xx_ll_bus.h **** 
 196:Drivers/STM32G0xx_HAL_Driver/Inc/stm32g0xx_ll_bus.h **** /* Exported macro ------------------------------------------------------------*/
 197:Drivers/STM32G0xx_HAL_Driver/Inc/stm32g0xx_ll_bus.h **** /* Exported functions --------------------------------------------------------*/
 198:Drivers/STM32G0xx_HAL_Driver/Inc/stm32g0xx_ll_bus.h **** /** @defgroup BUS_LL_Exported_Functions BUS Exported Functions
 199:Drivers/STM32G0xx_HAL_Driver/Inc/stm32g0xx_ll_bus.h ****   * @{
 200:Drivers/STM32G0xx_HAL_Driver/Inc/stm32g0xx_ll_bus.h ****   */
 201:Drivers/STM32G0xx_HAL_Driver/Inc/stm32g0xx_ll_bus.h **** 
 202:Drivers/STM32G0xx_HAL_Driver/Inc/stm32g0xx_ll_bus.h **** /** @defgroup BUS_LL_EF_AHB1 AHB1
ARM GAS  /tmp/ccHKcJQI.s 			page 6


 203:Drivers/STM32G0xx_HAL_Driver/Inc/stm32g0xx_ll_bus.h ****   * @{
 204:Drivers/STM32G0xx_HAL_Driver/Inc/stm32g0xx_ll_bus.h ****   */
 205:Drivers/STM32G0xx_HAL_Driver/Inc/stm32g0xx_ll_bus.h **** 
 206:Drivers/STM32G0xx_HAL_Driver/Inc/stm32g0xx_ll_bus.h **** /**
 207:Drivers/STM32G0xx_HAL_Driver/Inc/stm32g0xx_ll_bus.h ****   * @brief  Enable AHB1 peripherals clock.
 208:Drivers/STM32G0xx_HAL_Driver/Inc/stm32g0xx_ll_bus.h ****   * @rmtoll AHBENR       DMA1EN        LL_AHB1_GRP1_EnableClock\n
 209:Drivers/STM32G0xx_HAL_Driver/Inc/stm32g0xx_ll_bus.h ****   *         AHBENR       FLASHEN       LL_AHB1_GRP1_EnableClock\n
 210:Drivers/STM32G0xx_HAL_Driver/Inc/stm32g0xx_ll_bus.h ****   *         AHBENR       CRCEN         LL_AHB1_GRP1_EnableClock\n
 211:Drivers/STM32G0xx_HAL_Driver/Inc/stm32g0xx_ll_bus.h ****   *         AHBENR       AESEN         LL_AHB1_GRP1_EnableClock\n
 212:Drivers/STM32G0xx_HAL_Driver/Inc/stm32g0xx_ll_bus.h ****   *         AHBENR       RNGEN         LL_AHB1_GRP1_EnableClock
 213:Drivers/STM32G0xx_HAL_Driver/Inc/stm32g0xx_ll_bus.h ****   * @param  Periphs This parameter can be a combination of the following values:
 214:Drivers/STM32G0xx_HAL_Driver/Inc/stm32g0xx_ll_bus.h ****   *         @arg @ref LL_AHB1_GRP1_PERIPH_DMA1
 215:Drivers/STM32G0xx_HAL_Driver/Inc/stm32g0xx_ll_bus.h ****   *         @arg @ref LL_AHB1_GRP1_PERIPH_FLASH
 216:Drivers/STM32G0xx_HAL_Driver/Inc/stm32g0xx_ll_bus.h ****   *         @arg @ref LL_AHB1_GRP1_PERIPH_CRC
 217:Drivers/STM32G0xx_HAL_Driver/Inc/stm32g0xx_ll_bus.h ****   *         @arg @ref LL_AHB1_GRP1_PERIPH_CRYP (*)
 218:Drivers/STM32G0xx_HAL_Driver/Inc/stm32g0xx_ll_bus.h ****   *         @arg @ref LL_AHB1_GRP1_PERIPH_RNG  (*)
 219:Drivers/STM32G0xx_HAL_Driver/Inc/stm32g0xx_ll_bus.h ****   * @note   (*) RNG & CRYP Peripherals available only on STM32G081xx
 220:Drivers/STM32G0xx_HAL_Driver/Inc/stm32g0xx_ll_bus.h ****   * @retval None
 221:Drivers/STM32G0xx_HAL_Driver/Inc/stm32g0xx_ll_bus.h **** */
 222:Drivers/STM32G0xx_HAL_Driver/Inc/stm32g0xx_ll_bus.h **** __STATIC_INLINE void LL_AHB1_GRP1_EnableClock(uint32_t Periphs)
 223:Drivers/STM32G0xx_HAL_Driver/Inc/stm32g0xx_ll_bus.h **** {
 224:Drivers/STM32G0xx_HAL_Driver/Inc/stm32g0xx_ll_bus.h ****   __IO uint32_t tmpreg;
 225:Drivers/STM32G0xx_HAL_Driver/Inc/stm32g0xx_ll_bus.h ****   SET_BIT(RCC->AHBENR, Periphs);
 226:Drivers/STM32G0xx_HAL_Driver/Inc/stm32g0xx_ll_bus.h ****   /* Delay after an RCC peripheral clock enabling */
 227:Drivers/STM32G0xx_HAL_Driver/Inc/stm32g0xx_ll_bus.h ****   tmpreg = READ_BIT(RCC->AHBENR, Periphs);
 228:Drivers/STM32G0xx_HAL_Driver/Inc/stm32g0xx_ll_bus.h ****   (void)tmpreg;
 229:Drivers/STM32G0xx_HAL_Driver/Inc/stm32g0xx_ll_bus.h **** }
 230:Drivers/STM32G0xx_HAL_Driver/Inc/stm32g0xx_ll_bus.h **** 
 231:Drivers/STM32G0xx_HAL_Driver/Inc/stm32g0xx_ll_bus.h **** /**
 232:Drivers/STM32G0xx_HAL_Driver/Inc/stm32g0xx_ll_bus.h ****   * @brief  Check if AHB1 peripheral clock is enabled or not
 233:Drivers/STM32G0xx_HAL_Driver/Inc/stm32g0xx_ll_bus.h ****   * @rmtoll AHBENR       DMA1EN        LL_AHB1_GRP1_IsEnabledClock\n
 234:Drivers/STM32G0xx_HAL_Driver/Inc/stm32g0xx_ll_bus.h ****   *         AHBENR       FLASHEN       LL_AHB1_GRP1_IsEnabledClock\n
 235:Drivers/STM32G0xx_HAL_Driver/Inc/stm32g0xx_ll_bus.h ****   *         AHBENR       CRCEN         LL_AHB1_GRP1_IsEnabledClock\n
 236:Drivers/STM32G0xx_HAL_Driver/Inc/stm32g0xx_ll_bus.h ****   *         AHBENR       AESEN         LL_AHB1_GRP1_IsEnabledClock\n
 237:Drivers/STM32G0xx_HAL_Driver/Inc/stm32g0xx_ll_bus.h ****   *         AHBENR       RNGEN         LL_AHB1_GRP1_IsEnabledClock
 238:Drivers/STM32G0xx_HAL_Driver/Inc/stm32g0xx_ll_bus.h ****   * @param  Periphs This parameter can be a combination of the following values:
 239:Drivers/STM32G0xx_HAL_Driver/Inc/stm32g0xx_ll_bus.h ****   *         @arg @ref LL_AHB1_GRP1_PERIPH_DMA1
 240:Drivers/STM32G0xx_HAL_Driver/Inc/stm32g0xx_ll_bus.h ****   *         @arg @ref LL_AHB1_GRP1_PERIPH_FLASH
 241:Drivers/STM32G0xx_HAL_Driver/Inc/stm32g0xx_ll_bus.h ****   *         @arg @ref LL_AHB1_GRP1_PERIPH_CRC
 242:Drivers/STM32G0xx_HAL_Driver/Inc/stm32g0xx_ll_bus.h ****   *         @arg @ref LL_AHB1_GRP1_PERIPH_CRYP (*)
 243:Drivers/STM32G0xx_HAL_Driver/Inc/stm32g0xx_ll_bus.h ****   *         @arg @ref LL_AHB1_GRP1_PERIPH_RNG  (*)
 244:Drivers/STM32G0xx_HAL_Driver/Inc/stm32g0xx_ll_bus.h ****   * @note   (*) RNG & CRYP Peripherals available only on STM32G081xx
 245:Drivers/STM32G0xx_HAL_Driver/Inc/stm32g0xx_ll_bus.h ****   * @retval State of Periphs (1 or 0).
 246:Drivers/STM32G0xx_HAL_Driver/Inc/stm32g0xx_ll_bus.h **** */
 247:Drivers/STM32G0xx_HAL_Driver/Inc/stm32g0xx_ll_bus.h **** __STATIC_INLINE uint32_t LL_AHB1_GRP1_IsEnabledClock(uint32_t Periphs)
 248:Drivers/STM32G0xx_HAL_Driver/Inc/stm32g0xx_ll_bus.h **** {
 249:Drivers/STM32G0xx_HAL_Driver/Inc/stm32g0xx_ll_bus.h ****   return ((READ_BIT(RCC->AHBENR, Periphs) == Periphs) ? 1UL : 0UL);
 250:Drivers/STM32G0xx_HAL_Driver/Inc/stm32g0xx_ll_bus.h **** }
 251:Drivers/STM32G0xx_HAL_Driver/Inc/stm32g0xx_ll_bus.h **** 
 252:Drivers/STM32G0xx_HAL_Driver/Inc/stm32g0xx_ll_bus.h **** /**
 253:Drivers/STM32G0xx_HAL_Driver/Inc/stm32g0xx_ll_bus.h ****   * @brief  Disable AHB1 peripherals clock.
 254:Drivers/STM32G0xx_HAL_Driver/Inc/stm32g0xx_ll_bus.h ****   * @rmtoll AHBENR       DMA1EN        LL_AHB1_GRP1_DisableClock\n
 255:Drivers/STM32G0xx_HAL_Driver/Inc/stm32g0xx_ll_bus.h ****   *         AHBENR       FLASHEN       LL_AHB1_GRP1_DisableClock\n
 256:Drivers/STM32G0xx_HAL_Driver/Inc/stm32g0xx_ll_bus.h ****   *         AHBENR       CRCEN         LL_AHB1_GRP1_DisableClock\n
 257:Drivers/STM32G0xx_HAL_Driver/Inc/stm32g0xx_ll_bus.h ****   *         AHBENR       AESEN         LL_AHB1_GRP1_DisableClock\n
 258:Drivers/STM32G0xx_HAL_Driver/Inc/stm32g0xx_ll_bus.h ****   *         AHBENR       RNGEN         LL_AHB1_GRP1_DisableClock
 259:Drivers/STM32G0xx_HAL_Driver/Inc/stm32g0xx_ll_bus.h ****   * @param  Periphs This parameter can be a combination of the following values:
ARM GAS  /tmp/ccHKcJQI.s 			page 7


 260:Drivers/STM32G0xx_HAL_Driver/Inc/stm32g0xx_ll_bus.h ****   *         @arg @ref LL_AHB1_GRP1_PERIPH_DMA1
 261:Drivers/STM32G0xx_HAL_Driver/Inc/stm32g0xx_ll_bus.h ****   *         @arg @ref LL_AHB1_GRP1_PERIPH_FLASH
 262:Drivers/STM32G0xx_HAL_Driver/Inc/stm32g0xx_ll_bus.h ****   *         @arg @ref LL_AHB1_GRP1_PERIPH_CRC
 263:Drivers/STM32G0xx_HAL_Driver/Inc/stm32g0xx_ll_bus.h ****   *         @arg @ref LL_AHB1_GRP1_PERIPH_CRYP (*)
 264:Drivers/STM32G0xx_HAL_Driver/Inc/stm32g0xx_ll_bus.h ****   *         @arg @ref LL_AHB1_GRP1_PERIPH_RNG  (*)
 265:Drivers/STM32G0xx_HAL_Driver/Inc/stm32g0xx_ll_bus.h ****   * @note   (*) RNG & CRYP Peripherals available only on STM32G081xx
 266:Drivers/STM32G0xx_HAL_Driver/Inc/stm32g0xx_ll_bus.h ****   * @retval None
 267:Drivers/STM32G0xx_HAL_Driver/Inc/stm32g0xx_ll_bus.h **** */
 268:Drivers/STM32G0xx_HAL_Driver/Inc/stm32g0xx_ll_bus.h **** __STATIC_INLINE void LL_AHB1_GRP1_DisableClock(uint32_t Periphs)
 269:Drivers/STM32G0xx_HAL_Driver/Inc/stm32g0xx_ll_bus.h **** {
 270:Drivers/STM32G0xx_HAL_Driver/Inc/stm32g0xx_ll_bus.h ****   CLEAR_BIT(RCC->AHBENR, Periphs);
 271:Drivers/STM32G0xx_HAL_Driver/Inc/stm32g0xx_ll_bus.h **** }
 272:Drivers/STM32G0xx_HAL_Driver/Inc/stm32g0xx_ll_bus.h **** 
 273:Drivers/STM32G0xx_HAL_Driver/Inc/stm32g0xx_ll_bus.h **** /**
 274:Drivers/STM32G0xx_HAL_Driver/Inc/stm32g0xx_ll_bus.h ****   * @brief  Force AHB1 peripherals reset.
 275:Drivers/STM32G0xx_HAL_Driver/Inc/stm32g0xx_ll_bus.h ****   * @rmtoll AHBRSTR      DMA1RST       LL_AHB1_GRP1_ForceReset\n
 276:Drivers/STM32G0xx_HAL_Driver/Inc/stm32g0xx_ll_bus.h ****   *         AHBRSTR      FLASHRST      LL_AHB1_GRP1_ForceReset\n
 277:Drivers/STM32G0xx_HAL_Driver/Inc/stm32g0xx_ll_bus.h ****   *         AHBRSTR      CRCRST        LL_AHB1_GRP1_ForceReset\n
 278:Drivers/STM32G0xx_HAL_Driver/Inc/stm32g0xx_ll_bus.h ****   *         AHBRSTR      AESRST        LL_AHB1_GRP1_ForceReset\n
 279:Drivers/STM32G0xx_HAL_Driver/Inc/stm32g0xx_ll_bus.h ****   *         AHBRSTR      RNGRST        LL_AHB1_GRP1_ForceReset
 280:Drivers/STM32G0xx_HAL_Driver/Inc/stm32g0xx_ll_bus.h **** * @param  Periphs This parameter can be a combination of the following values:
 281:Drivers/STM32G0xx_HAL_Driver/Inc/stm32g0xx_ll_bus.h ****   *         @arg @ref LL_AHB1_GRP1_PERIPH_ALL
 282:Drivers/STM32G0xx_HAL_Driver/Inc/stm32g0xx_ll_bus.h ****   *         @arg @ref LL_AHB1_GRP1_PERIPH_DMA1
 283:Drivers/STM32G0xx_HAL_Driver/Inc/stm32g0xx_ll_bus.h ****   *         @arg @ref LL_AHB1_GRP1_PERIPH_FLASH
 284:Drivers/STM32G0xx_HAL_Driver/Inc/stm32g0xx_ll_bus.h ****   *         @arg @ref LL_AHB1_GRP1_PERIPH_CRC
 285:Drivers/STM32G0xx_HAL_Driver/Inc/stm32g0xx_ll_bus.h ****   *         @arg @ref LL_AHB1_GRP1_PERIPH_CRYP (*)
 286:Drivers/STM32G0xx_HAL_Driver/Inc/stm32g0xx_ll_bus.h ****   *         @arg @ref LL_AHB1_GRP1_PERIPH_RNG  (*)
 287:Drivers/STM32G0xx_HAL_Driver/Inc/stm32g0xx_ll_bus.h ****   * @note   (*) RNG & CRYP Peripherals available only on STM32G081xx
 288:Drivers/STM32G0xx_HAL_Driver/Inc/stm32g0xx_ll_bus.h ****   * @retval None
 289:Drivers/STM32G0xx_HAL_Driver/Inc/stm32g0xx_ll_bus.h **** */
 290:Drivers/STM32G0xx_HAL_Driver/Inc/stm32g0xx_ll_bus.h **** __STATIC_INLINE void LL_AHB1_GRP1_ForceReset(uint32_t Periphs)
 291:Drivers/STM32G0xx_HAL_Driver/Inc/stm32g0xx_ll_bus.h **** {
 292:Drivers/STM32G0xx_HAL_Driver/Inc/stm32g0xx_ll_bus.h ****   SET_BIT(RCC->AHBRSTR, Periphs);
 293:Drivers/STM32G0xx_HAL_Driver/Inc/stm32g0xx_ll_bus.h **** }
 294:Drivers/STM32G0xx_HAL_Driver/Inc/stm32g0xx_ll_bus.h **** 
 295:Drivers/STM32G0xx_HAL_Driver/Inc/stm32g0xx_ll_bus.h **** /**
 296:Drivers/STM32G0xx_HAL_Driver/Inc/stm32g0xx_ll_bus.h ****   * @brief  Release AHB1 peripherals reset.
 297:Drivers/STM32G0xx_HAL_Driver/Inc/stm32g0xx_ll_bus.h ****   * @rmtoll AHBRSTR      DMA1RST       LL_AHB1_GRP1_ReleaseReset\n
 298:Drivers/STM32G0xx_HAL_Driver/Inc/stm32g0xx_ll_bus.h ****   *         AHBRSTR      FLASHRST      LL_AHB1_GRP1_ReleaseReset\n
 299:Drivers/STM32G0xx_HAL_Driver/Inc/stm32g0xx_ll_bus.h ****   *         AHBRSTR      CRCRST        LL_AHB1_GRP1_ReleaseReset\n
 300:Drivers/STM32G0xx_HAL_Driver/Inc/stm32g0xx_ll_bus.h ****   *         AHBRSTR      AESRST        LL_AHB1_GRP1_ReleaseReset\n
 301:Drivers/STM32G0xx_HAL_Driver/Inc/stm32g0xx_ll_bus.h ****   *         AHBRSTR      RNGRST        LL_AHB1_GRP1_ReleaseReset
 302:Drivers/STM32G0xx_HAL_Driver/Inc/stm32g0xx_ll_bus.h ****   * @param  Periphs This parameter can be a combination of the following values:
 303:Drivers/STM32G0xx_HAL_Driver/Inc/stm32g0xx_ll_bus.h ****   *         @arg @ref LL_AHB1_GRP1_PERIPH_ALL
 304:Drivers/STM32G0xx_HAL_Driver/Inc/stm32g0xx_ll_bus.h ****   *         @arg @ref LL_AHB1_GRP1_PERIPH_DMA1
 305:Drivers/STM32G0xx_HAL_Driver/Inc/stm32g0xx_ll_bus.h ****   *         @arg @ref LL_AHB1_GRP1_PERIPH_FLASH
 306:Drivers/STM32G0xx_HAL_Driver/Inc/stm32g0xx_ll_bus.h ****   *         @arg @ref LL_AHB1_GRP1_PERIPH_CRC
 307:Drivers/STM32G0xx_HAL_Driver/Inc/stm32g0xx_ll_bus.h ****   *         @arg @ref LL_AHB1_GRP1_PERIPH_CRYP (*)
 308:Drivers/STM32G0xx_HAL_Driver/Inc/stm32g0xx_ll_bus.h ****   *         @arg @ref LL_AHB1_GRP1_PERIPH_RNG  (*)
 309:Drivers/STM32G0xx_HAL_Driver/Inc/stm32g0xx_ll_bus.h ****   * @note   (*) RNG & CRYP Peripherals available only on STM32G081xx
 310:Drivers/STM32G0xx_HAL_Driver/Inc/stm32g0xx_ll_bus.h ****   * @retval None
 311:Drivers/STM32G0xx_HAL_Driver/Inc/stm32g0xx_ll_bus.h **** */
 312:Drivers/STM32G0xx_HAL_Driver/Inc/stm32g0xx_ll_bus.h **** __STATIC_INLINE void LL_AHB1_GRP1_ReleaseReset(uint32_t Periphs)
 313:Drivers/STM32G0xx_HAL_Driver/Inc/stm32g0xx_ll_bus.h **** {
 314:Drivers/STM32G0xx_HAL_Driver/Inc/stm32g0xx_ll_bus.h ****   CLEAR_BIT(RCC->AHBRSTR, Periphs);
 315:Drivers/STM32G0xx_HAL_Driver/Inc/stm32g0xx_ll_bus.h **** }
 316:Drivers/STM32G0xx_HAL_Driver/Inc/stm32g0xx_ll_bus.h **** 
ARM GAS  /tmp/ccHKcJQI.s 			page 8


 317:Drivers/STM32G0xx_HAL_Driver/Inc/stm32g0xx_ll_bus.h **** /**
 318:Drivers/STM32G0xx_HAL_Driver/Inc/stm32g0xx_ll_bus.h ****   * @brief  Enable AHB1 peripheral clocks in Sleep and Stop modes
 319:Drivers/STM32G0xx_HAL_Driver/Inc/stm32g0xx_ll_bus.h ****   * @rmtoll AHBSMENR     DMA1SMEN      LL_AHB1_GRP1_EnableClockStopSleep\n
 320:Drivers/STM32G0xx_HAL_Driver/Inc/stm32g0xx_ll_bus.h ****   *         AHBSMENR     FLASHSMEN     LL_AHB1_GRP1_EnableClockStopSleep\n
 321:Drivers/STM32G0xx_HAL_Driver/Inc/stm32g0xx_ll_bus.h ****   *         AHBSMENR     SRAMSMEN      LL_AHB1_GRP1_EnableClockStopSleep\n
 322:Drivers/STM32G0xx_HAL_Driver/Inc/stm32g0xx_ll_bus.h ****   *         AHBSMENR     CRCSMEN       LL_AHB1_GRP1_EnableClockStopSleep\n
 323:Drivers/STM32G0xx_HAL_Driver/Inc/stm32g0xx_ll_bus.h ****   *         AHBSMENR     AESSMEN       LL_AHB1_GRP1_EnableClockStopSleep\n
 324:Drivers/STM32G0xx_HAL_Driver/Inc/stm32g0xx_ll_bus.h ****   *         AHBSMENR     RNGSMEN       LL_AHB1_GRP1_EnableClockStopSleep
 325:Drivers/STM32G0xx_HAL_Driver/Inc/stm32g0xx_ll_bus.h ****   * @param  Periphs This parameter can be a combination of the following values:
 326:Drivers/STM32G0xx_HAL_Driver/Inc/stm32g0xx_ll_bus.h ****   *         @arg @ref LL_AHB1_GRP1_PERIPH_DMA1
 327:Drivers/STM32G0xx_HAL_Driver/Inc/stm32g0xx_ll_bus.h ****   *         @arg @ref LL_AHB1_GRP1_PERIPH_FLASH
 328:Drivers/STM32G0xx_HAL_Driver/Inc/stm32g0xx_ll_bus.h ****   *         @arg @ref LL_AHB1_GRP1_PERIPH_SRAM
 329:Drivers/STM32G0xx_HAL_Driver/Inc/stm32g0xx_ll_bus.h ****   *         @arg @ref LL_AHB1_GRP1_PERIPH_CRC
 330:Drivers/STM32G0xx_HAL_Driver/Inc/stm32g0xx_ll_bus.h ****   *         @arg @ref LL_AHB1_GRP1_PERIPH_CRYP (*)
 331:Drivers/STM32G0xx_HAL_Driver/Inc/stm32g0xx_ll_bus.h ****   *         @arg @ref LL_AHB1_GRP1_PERIPH_RNG  (*)
 332:Drivers/STM32G0xx_HAL_Driver/Inc/stm32g0xx_ll_bus.h ****   * @note   (*) RNG & CRYP Peripherals available only on STM32G081xx
 333:Drivers/STM32G0xx_HAL_Driver/Inc/stm32g0xx_ll_bus.h ****   * @retval None
 334:Drivers/STM32G0xx_HAL_Driver/Inc/stm32g0xx_ll_bus.h **** */
 335:Drivers/STM32G0xx_HAL_Driver/Inc/stm32g0xx_ll_bus.h **** __STATIC_INLINE void LL_AHB1_GRP1_EnableClockStopSleep(uint32_t Periphs)
 336:Drivers/STM32G0xx_HAL_Driver/Inc/stm32g0xx_ll_bus.h **** {
 337:Drivers/STM32G0xx_HAL_Driver/Inc/stm32g0xx_ll_bus.h ****   __IO uint32_t tmpreg;
 338:Drivers/STM32G0xx_HAL_Driver/Inc/stm32g0xx_ll_bus.h ****   SET_BIT(RCC->AHBSMENR, Periphs);
 339:Drivers/STM32G0xx_HAL_Driver/Inc/stm32g0xx_ll_bus.h ****   /* Delay after an RCC peripheral clock enabling */
 340:Drivers/STM32G0xx_HAL_Driver/Inc/stm32g0xx_ll_bus.h ****   tmpreg = READ_BIT(RCC->AHBSMENR, Periphs);
 341:Drivers/STM32G0xx_HAL_Driver/Inc/stm32g0xx_ll_bus.h ****   (void)tmpreg;
 342:Drivers/STM32G0xx_HAL_Driver/Inc/stm32g0xx_ll_bus.h **** }
 343:Drivers/STM32G0xx_HAL_Driver/Inc/stm32g0xx_ll_bus.h **** 
 344:Drivers/STM32G0xx_HAL_Driver/Inc/stm32g0xx_ll_bus.h **** /**
 345:Drivers/STM32G0xx_HAL_Driver/Inc/stm32g0xx_ll_bus.h ****   * @brief  Disable AHB1 peripheral clocks in Sleep and Stop modes
 346:Drivers/STM32G0xx_HAL_Driver/Inc/stm32g0xx_ll_bus.h ****   * @rmtoll AHBSMENR     DMA1SMEN      LL_AHB1_GRP1_DisableClockStopSleep\n
 347:Drivers/STM32G0xx_HAL_Driver/Inc/stm32g0xx_ll_bus.h ****   *         AHBSMENR     FLASHSMEN     LL_AHB1_GRP1_DisableClockStopSleep\n
 348:Drivers/STM32G0xx_HAL_Driver/Inc/stm32g0xx_ll_bus.h ****   *         AHBSMENR     SRAMSMEN      LL_AHB1_GRP1_DisableClockStopSleep\n
 349:Drivers/STM32G0xx_HAL_Driver/Inc/stm32g0xx_ll_bus.h ****   *         AHBSMENR     CRCSMEN       LL_AHB1_GRP1_DisableClockStopSleep\n
 350:Drivers/STM32G0xx_HAL_Driver/Inc/stm32g0xx_ll_bus.h ****   *         AHBSMENR     AESSMEN       LL_AHB1_GRP1_DisableClockStopSleep\n
 351:Drivers/STM32G0xx_HAL_Driver/Inc/stm32g0xx_ll_bus.h ****   *         AHBSMENR     RNGSMEN       LL_AHB1_GRP1_DisableClockStopSleep
 352:Drivers/STM32G0xx_HAL_Driver/Inc/stm32g0xx_ll_bus.h ****   * @param  Periphs This parameter can be a combination of the following values:
 353:Drivers/STM32G0xx_HAL_Driver/Inc/stm32g0xx_ll_bus.h ****   *         @arg @ref LL_AHB1_GRP1_PERIPH_DMA1
 354:Drivers/STM32G0xx_HAL_Driver/Inc/stm32g0xx_ll_bus.h ****   *         @arg @ref LL_AHB1_GRP1_PERIPH_FLASH
 355:Drivers/STM32G0xx_HAL_Driver/Inc/stm32g0xx_ll_bus.h ****   *         @arg @ref LL_AHB1_GRP1_PERIPH_SRAM
 356:Drivers/STM32G0xx_HAL_Driver/Inc/stm32g0xx_ll_bus.h ****   *         @arg @ref LL_AHB1_GRP1_PERIPH_CRC
 357:Drivers/STM32G0xx_HAL_Driver/Inc/stm32g0xx_ll_bus.h ****   *         @arg @ref LL_AHB1_GRP1_PERIPH_CRYP (*)
 358:Drivers/STM32G0xx_HAL_Driver/Inc/stm32g0xx_ll_bus.h ****   *         @arg @ref LL_AHB1_GRP1_PERIPH_RNG  (*)
 359:Drivers/STM32G0xx_HAL_Driver/Inc/stm32g0xx_ll_bus.h ****   * @note   (*) RNG & CRYP Peripherals available only on STM32G081xx
 360:Drivers/STM32G0xx_HAL_Driver/Inc/stm32g0xx_ll_bus.h ****   * @retval None
 361:Drivers/STM32G0xx_HAL_Driver/Inc/stm32g0xx_ll_bus.h **** */
 362:Drivers/STM32G0xx_HAL_Driver/Inc/stm32g0xx_ll_bus.h **** __STATIC_INLINE void LL_AHB1_GRP1_DisableClockStopSleep(uint32_t Periphs)
 363:Drivers/STM32G0xx_HAL_Driver/Inc/stm32g0xx_ll_bus.h **** {
 364:Drivers/STM32G0xx_HAL_Driver/Inc/stm32g0xx_ll_bus.h ****   CLEAR_BIT(RCC->AHBSMENR, Periphs);
 365:Drivers/STM32G0xx_HAL_Driver/Inc/stm32g0xx_ll_bus.h **** }
 366:Drivers/STM32G0xx_HAL_Driver/Inc/stm32g0xx_ll_bus.h **** 
 367:Drivers/STM32G0xx_HAL_Driver/Inc/stm32g0xx_ll_bus.h **** /**
 368:Drivers/STM32G0xx_HAL_Driver/Inc/stm32g0xx_ll_bus.h ****   * @}
 369:Drivers/STM32G0xx_HAL_Driver/Inc/stm32g0xx_ll_bus.h ****   */
 370:Drivers/STM32G0xx_HAL_Driver/Inc/stm32g0xx_ll_bus.h **** 
 371:Drivers/STM32G0xx_HAL_Driver/Inc/stm32g0xx_ll_bus.h **** /** @defgroup BUS_LL_EF_APB1 APB1
 372:Drivers/STM32G0xx_HAL_Driver/Inc/stm32g0xx_ll_bus.h ****   * @{
 373:Drivers/STM32G0xx_HAL_Driver/Inc/stm32g0xx_ll_bus.h ****   */
ARM GAS  /tmp/ccHKcJQI.s 			page 9


 374:Drivers/STM32G0xx_HAL_Driver/Inc/stm32g0xx_ll_bus.h **** 
 375:Drivers/STM32G0xx_HAL_Driver/Inc/stm32g0xx_ll_bus.h **** /**
 376:Drivers/STM32G0xx_HAL_Driver/Inc/stm32g0xx_ll_bus.h ****   * @brief  Enable APB1 peripherals clock.
 377:Drivers/STM32G0xx_HAL_Driver/Inc/stm32g0xx_ll_bus.h ****   * @rmtoll APBENR1      TIM2EN        LL_APB1_GRP1_EnableClock\n
 378:Drivers/STM32G0xx_HAL_Driver/Inc/stm32g0xx_ll_bus.h ****   *         APBENR1      TIM3EN        LL_APB1_GRP1_EnableClock\n
 379:Drivers/STM32G0xx_HAL_Driver/Inc/stm32g0xx_ll_bus.h ****   *         APBENR1      TIM6EN        LL_APB1_GRP1_EnableClock\n
 380:Drivers/STM32G0xx_HAL_Driver/Inc/stm32g0xx_ll_bus.h ****   *         APBENR1      TIM7EN        LL_APB1_GRP1_EnableClock\n
 381:Drivers/STM32G0xx_HAL_Driver/Inc/stm32g0xx_ll_bus.h ****   *         APBENR1      RTCAPBEN      LL_APB1_GRP1_EnableClock\n
 382:Drivers/STM32G0xx_HAL_Driver/Inc/stm32g0xx_ll_bus.h ****   *         APBENR1      WWDGEN        LL_APB1_GRP1_EnableClock\n
 383:Drivers/STM32G0xx_HAL_Driver/Inc/stm32g0xx_ll_bus.h ****   *         APBENR1      SPI2EN        LL_APB1_GRP1_EnableClock\n
 384:Drivers/STM32G0xx_HAL_Driver/Inc/stm32g0xx_ll_bus.h ****   *         APBENR1      USART2EN      LL_APB1_GRP1_EnableClock\n
 385:Drivers/STM32G0xx_HAL_Driver/Inc/stm32g0xx_ll_bus.h ****   *         APBENR1      USART3EN      LL_APB1_GRP1_EnableClock\n
 386:Drivers/STM32G0xx_HAL_Driver/Inc/stm32g0xx_ll_bus.h ****   *         APBENR1      USART4EN      LL_APB1_GRP1_EnableClock\n
 387:Drivers/STM32G0xx_HAL_Driver/Inc/stm32g0xx_ll_bus.h ****   *         APBENR1      LPUART1EN     LL_APB1_GRP1_EnableClock\n
 388:Drivers/STM32G0xx_HAL_Driver/Inc/stm32g0xx_ll_bus.h ****   *         APBENR1      I2C1EN        LL_APB1_GRP1_EnableClock\n
 389:Drivers/STM32G0xx_HAL_Driver/Inc/stm32g0xx_ll_bus.h ****   *         APBENR1      I2C2EN        LL_APB1_GRP1_EnableClock\n
 390:Drivers/STM32G0xx_HAL_Driver/Inc/stm32g0xx_ll_bus.h ****   *         APBENR1      CECEN         LL_APB1_GRP1_EnableClock\n
 391:Drivers/STM32G0xx_HAL_Driver/Inc/stm32g0xx_ll_bus.h ****   *         APBENR1      UCPD1EN       LL_APB1_GRP1_EnableClock\n
 392:Drivers/STM32G0xx_HAL_Driver/Inc/stm32g0xx_ll_bus.h ****   *         APBENR1      UCPD2EN       LL_APB1_GRP1_EnableClock\n
 393:Drivers/STM32G0xx_HAL_Driver/Inc/stm32g0xx_ll_bus.h ****   *         APBENR1      DBGEN         LL_APB1_GRP1_EnableClock\n
 394:Drivers/STM32G0xx_HAL_Driver/Inc/stm32g0xx_ll_bus.h ****   *         APBENR1      PWREN         LL_APB1_GRP1_EnableClock\n
 395:Drivers/STM32G0xx_HAL_Driver/Inc/stm32g0xx_ll_bus.h ****   *         APBENR1      DAC1EN        LL_APB1_GRP1_EnableClock\n
 396:Drivers/STM32G0xx_HAL_Driver/Inc/stm32g0xx_ll_bus.h ****   *         APBENR1      LPTIM2EN      LL_APB1_GRP1_EnableClock\n
 397:Drivers/STM32G0xx_HAL_Driver/Inc/stm32g0xx_ll_bus.h ****   *         APBENR1      LPTIM1EN      LL_APB1_GRP1_EnableClock
 398:Drivers/STM32G0xx_HAL_Driver/Inc/stm32g0xx_ll_bus.h ****   * @param  Periphs This parameter can be a combination of the following values:
 399:Drivers/STM32G0xx_HAL_Driver/Inc/stm32g0xx_ll_bus.h ****   *         @arg @ref LL_APB1_GRP1_PERIPH_TIM2    (1)
 400:Drivers/STM32G0xx_HAL_Driver/Inc/stm32g0xx_ll_bus.h ****   *         @arg @ref LL_APB1_GRP1_PERIPH_TIM3
 401:Drivers/STM32G0xx_HAL_Driver/Inc/stm32g0xx_ll_bus.h ****   *         @arg @ref LL_APB1_GRP1_PERIPH_TIM6    (1)
 402:Drivers/STM32G0xx_HAL_Driver/Inc/stm32g0xx_ll_bus.h ****   *         @arg @ref LL_APB1_GRP1_PERIPH_TIM7    (1)
 403:Drivers/STM32G0xx_HAL_Driver/Inc/stm32g0xx_ll_bus.h ****   *         @arg @ref LL_APB1_GRP1_PERIPH_RTC
 404:Drivers/STM32G0xx_HAL_Driver/Inc/stm32g0xx_ll_bus.h ****   *         @arg @ref LL_APB1_GRP1_PERIPH_WWDG
 405:Drivers/STM32G0xx_HAL_Driver/Inc/stm32g0xx_ll_bus.h ****   *         @arg @ref LL_APB1_GRP1_PERIPH_SPI2
 406:Drivers/STM32G0xx_HAL_Driver/Inc/stm32g0xx_ll_bus.h ****   *         @arg @ref LL_APB1_GRP1_PERIPH_USART2
 407:Drivers/STM32G0xx_HAL_Driver/Inc/stm32g0xx_ll_bus.h ****   *         @arg @ref LL_APB1_GRP1_PERIPH_USART3  (1)
 408:Drivers/STM32G0xx_HAL_Driver/Inc/stm32g0xx_ll_bus.h ****   *         @arg @ref LL_APB1_GRP1_PERIPH_USART4  (1)
 409:Drivers/STM32G0xx_HAL_Driver/Inc/stm32g0xx_ll_bus.h ****   *         @arg @ref LL_APB1_GRP1_PERIPH_LPUART1 (1)
 410:Drivers/STM32G0xx_HAL_Driver/Inc/stm32g0xx_ll_bus.h ****   *         @arg @ref LL_APB1_GRP1_PERIPH_I2C1
 411:Drivers/STM32G0xx_HAL_Driver/Inc/stm32g0xx_ll_bus.h ****   *         @arg @ref LL_APB1_GRP1_PERIPH_I2C2
 412:Drivers/STM32G0xx_HAL_Driver/Inc/stm32g0xx_ll_bus.h ****   *         @arg @ref LL_APB1_GRP1_PERIPH_CEC     (1)
 413:Drivers/STM32G0xx_HAL_Driver/Inc/stm32g0xx_ll_bus.h ****   *         @arg @ref LL_APB1_GRP1_PERIPH_UCPD1   (1)
 414:Drivers/STM32G0xx_HAL_Driver/Inc/stm32g0xx_ll_bus.h ****   *         @arg @ref LL_APB1_GRP1_PERIPH_UCPD2   (1)
 415:Drivers/STM32G0xx_HAL_Driver/Inc/stm32g0xx_ll_bus.h ****   *         @arg @ref LL_APB1_GRP1_PERIPH_DBGMCU
 416:Drivers/STM32G0xx_HAL_Driver/Inc/stm32g0xx_ll_bus.h ****   *         @arg @ref LL_APB1_GRP1_PERIPH_PWR
 417:Drivers/STM32G0xx_HAL_Driver/Inc/stm32g0xx_ll_bus.h ****   *         @arg @ref LL_APB1_GRP1_PERIPH_DAC1    (1)
 418:Drivers/STM32G0xx_HAL_Driver/Inc/stm32g0xx_ll_bus.h ****   *         @arg @ref LL_APB1_GRP1_PERIPH_LPTIM2  (1)
 419:Drivers/STM32G0xx_HAL_Driver/Inc/stm32g0xx_ll_bus.h ****   *         @arg @ref LL_APB1_GRP1_PERIPH_LPTIM1  (1)
 420:Drivers/STM32G0xx_HAL_Driver/Inc/stm32g0xx_ll_bus.h ****   * @note Peripheral marked with (1) are not available all devices
 421:Drivers/STM32G0xx_HAL_Driver/Inc/stm32g0xx_ll_bus.h ****   * @retval None
 422:Drivers/STM32G0xx_HAL_Driver/Inc/stm32g0xx_ll_bus.h **** */
 423:Drivers/STM32G0xx_HAL_Driver/Inc/stm32g0xx_ll_bus.h **** __STATIC_INLINE void LL_APB1_GRP1_EnableClock(uint32_t Periphs)
 424:Drivers/STM32G0xx_HAL_Driver/Inc/stm32g0xx_ll_bus.h **** {
 425:Drivers/STM32G0xx_HAL_Driver/Inc/stm32g0xx_ll_bus.h ****   __IO uint32_t tmpreg;
 426:Drivers/STM32G0xx_HAL_Driver/Inc/stm32g0xx_ll_bus.h ****   SET_BIT(RCC->APBENR1, Periphs);
 427:Drivers/STM32G0xx_HAL_Driver/Inc/stm32g0xx_ll_bus.h ****   /* Delay after an RCC peripheral clock enabling */
 428:Drivers/STM32G0xx_HAL_Driver/Inc/stm32g0xx_ll_bus.h ****   tmpreg = READ_BIT(RCC->APBENR1, Periphs);
 429:Drivers/STM32G0xx_HAL_Driver/Inc/stm32g0xx_ll_bus.h ****   (void)tmpreg;
 430:Drivers/STM32G0xx_HAL_Driver/Inc/stm32g0xx_ll_bus.h **** }
ARM GAS  /tmp/ccHKcJQI.s 			page 10


 431:Drivers/STM32G0xx_HAL_Driver/Inc/stm32g0xx_ll_bus.h **** 
 432:Drivers/STM32G0xx_HAL_Driver/Inc/stm32g0xx_ll_bus.h **** /**
 433:Drivers/STM32G0xx_HAL_Driver/Inc/stm32g0xx_ll_bus.h ****   * @brief  Check if APB1 peripheral clock is enabled or not
 434:Drivers/STM32G0xx_HAL_Driver/Inc/stm32g0xx_ll_bus.h ****   * @rmtoll APBENR1      TIM2EN        LL_APB1_GRP1_IsEnabledClock\n
 435:Drivers/STM32G0xx_HAL_Driver/Inc/stm32g0xx_ll_bus.h ****   *         APBENR1      TIM3EN        LL_APB1_GRP1_IsEnabledClock\n
 436:Drivers/STM32G0xx_HAL_Driver/Inc/stm32g0xx_ll_bus.h ****   *         APBENR1      TIM6EN        LL_APB1_GRP1_IsEnabledClock\n
 437:Drivers/STM32G0xx_HAL_Driver/Inc/stm32g0xx_ll_bus.h ****   *         APBENR1      TIM7EN        LL_APB1_GRP1_IsEnabledClock\n
 438:Drivers/STM32G0xx_HAL_Driver/Inc/stm32g0xx_ll_bus.h ****   *         APBENR1      RTCAPBEN      LL_APB1_GRP1_IsEnabledClock\n
 439:Drivers/STM32G0xx_HAL_Driver/Inc/stm32g0xx_ll_bus.h ****   *         APBENR1      WWDGEN        LL_APB1_GRP1_IsEnabledClock\n
 440:Drivers/STM32G0xx_HAL_Driver/Inc/stm32g0xx_ll_bus.h ****   *         APBENR1      SPI2EN        LL_APB1_GRP1_IsEnabledClock\n
 441:Drivers/STM32G0xx_HAL_Driver/Inc/stm32g0xx_ll_bus.h ****   *         APBENR1      USART2EN      LL_APB1_GRP1_IsEnabledClock\n
 442:Drivers/STM32G0xx_HAL_Driver/Inc/stm32g0xx_ll_bus.h ****   *         APBENR1      USART3EN      LL_APB1_GRP1_IsEnabledClock\n
 443:Drivers/STM32G0xx_HAL_Driver/Inc/stm32g0xx_ll_bus.h ****   *         APBENR1      USART4EN      LL_APB1_GRP1_IsEnabledClock\n
 444:Drivers/STM32G0xx_HAL_Driver/Inc/stm32g0xx_ll_bus.h ****   *         APBENR1      LPUART1EN     LL_APB1_GRP1_IsEnabledClock\n
 445:Drivers/STM32G0xx_HAL_Driver/Inc/stm32g0xx_ll_bus.h ****   *         APBENR1      I2C1EN        LL_APB1_GRP1_IsEnabledClock\n
 446:Drivers/STM32G0xx_HAL_Driver/Inc/stm32g0xx_ll_bus.h ****   *         APBENR1      I2C2EN        LL_APB1_GRP1_IsEnabledClock\n
 447:Drivers/STM32G0xx_HAL_Driver/Inc/stm32g0xx_ll_bus.h ****   *         APBENR1      CECEN         LL_APB1_GRP1_IsEnabledClock\n
 448:Drivers/STM32G0xx_HAL_Driver/Inc/stm32g0xx_ll_bus.h ****   *         APBENR1      UCPD1EN       LL_APB1_GRP1_IsEnabledClock\n
 449:Drivers/STM32G0xx_HAL_Driver/Inc/stm32g0xx_ll_bus.h ****   *         APBENR1      UCPD2EN       LL_APB1_GRP1_IsEnabledClock\n
 450:Drivers/STM32G0xx_HAL_Driver/Inc/stm32g0xx_ll_bus.h ****   *         APBENR1      DBGEN         LL_APB1_GRP1_IsEnabledClock\n
 451:Drivers/STM32G0xx_HAL_Driver/Inc/stm32g0xx_ll_bus.h ****   *         APBENR1      PWREN         LL_APB1_GRP1_IsEnabledClock\n
 452:Drivers/STM32G0xx_HAL_Driver/Inc/stm32g0xx_ll_bus.h ****   *         APBENR1      DAC1EN        LL_APB1_GRP1_IsEnabledClock\n
 453:Drivers/STM32G0xx_HAL_Driver/Inc/stm32g0xx_ll_bus.h ****   *         APBENR1      LPTIM2EN      LL_APB1_GRP1_IsEnabledClock\n
 454:Drivers/STM32G0xx_HAL_Driver/Inc/stm32g0xx_ll_bus.h ****   *         APBENR1      LPTIM1EN      LL_APB1_GRP1_IsEnabledClock
 455:Drivers/STM32G0xx_HAL_Driver/Inc/stm32g0xx_ll_bus.h ****   * @param  Periphs This parameter can be a combination of the following values:
 456:Drivers/STM32G0xx_HAL_Driver/Inc/stm32g0xx_ll_bus.h ****   *         @arg @ref LL_APB1_GRP1_PERIPH_TIM2    (1)
 457:Drivers/STM32G0xx_HAL_Driver/Inc/stm32g0xx_ll_bus.h ****   *         @arg @ref LL_APB1_GRP1_PERIPH_TIM3
 458:Drivers/STM32G0xx_HAL_Driver/Inc/stm32g0xx_ll_bus.h ****   *         @arg @ref LL_APB1_GRP1_PERIPH_TIM6    (1)
 459:Drivers/STM32G0xx_HAL_Driver/Inc/stm32g0xx_ll_bus.h ****   *         @arg @ref LL_APB1_GRP1_PERIPH_TIM7    (1)
 460:Drivers/STM32G0xx_HAL_Driver/Inc/stm32g0xx_ll_bus.h ****   *         @arg @ref LL_APB1_GRP1_PERIPH_RTC
 461:Drivers/STM32G0xx_HAL_Driver/Inc/stm32g0xx_ll_bus.h ****   *         @arg @ref LL_APB1_GRP1_PERIPH_WWDG
 462:Drivers/STM32G0xx_HAL_Driver/Inc/stm32g0xx_ll_bus.h ****   *         @arg @ref LL_APB1_GRP1_PERIPH_SPI2
 463:Drivers/STM32G0xx_HAL_Driver/Inc/stm32g0xx_ll_bus.h ****   *         @arg @ref LL_APB1_GRP1_PERIPH_USART2
 464:Drivers/STM32G0xx_HAL_Driver/Inc/stm32g0xx_ll_bus.h ****   *         @arg @ref LL_APB1_GRP1_PERIPH_USART3  (1)
 465:Drivers/STM32G0xx_HAL_Driver/Inc/stm32g0xx_ll_bus.h ****   *         @arg @ref LL_APB1_GRP1_PERIPH_USART4  (1)
 466:Drivers/STM32G0xx_HAL_Driver/Inc/stm32g0xx_ll_bus.h ****   *         @arg @ref LL_APB1_GRP1_PERIPH_LPUART1 (1)
 467:Drivers/STM32G0xx_HAL_Driver/Inc/stm32g0xx_ll_bus.h ****   *         @arg @ref LL_APB1_GRP1_PERIPH_I2C1
 468:Drivers/STM32G0xx_HAL_Driver/Inc/stm32g0xx_ll_bus.h ****   *         @arg @ref LL_APB1_GRP1_PERIPH_I2C2
 469:Drivers/STM32G0xx_HAL_Driver/Inc/stm32g0xx_ll_bus.h ****   *         @arg @ref LL_APB1_GRP1_PERIPH_CEC     (1)
 470:Drivers/STM32G0xx_HAL_Driver/Inc/stm32g0xx_ll_bus.h ****   *         @arg @ref LL_APB1_GRP1_PERIPH_UCPD1   (1)
 471:Drivers/STM32G0xx_HAL_Driver/Inc/stm32g0xx_ll_bus.h ****   *         @arg @ref LL_APB1_GRP1_PERIPH_UCPD2   (1)
 472:Drivers/STM32G0xx_HAL_Driver/Inc/stm32g0xx_ll_bus.h ****   *         @arg @ref LL_APB1_GRP1_PERIPH_DBGMCU
 473:Drivers/STM32G0xx_HAL_Driver/Inc/stm32g0xx_ll_bus.h ****   *         @arg @ref LL_APB1_GRP1_PERIPH_PWR
 474:Drivers/STM32G0xx_HAL_Driver/Inc/stm32g0xx_ll_bus.h ****   *         @arg @ref LL_APB1_GRP1_PERIPH_DAC1    (1)
 475:Drivers/STM32G0xx_HAL_Driver/Inc/stm32g0xx_ll_bus.h ****   *         @arg @ref LL_APB1_GRP1_PERIPH_LPTIM2  (1)
 476:Drivers/STM32G0xx_HAL_Driver/Inc/stm32g0xx_ll_bus.h ****   *         @arg @ref LL_APB1_GRP1_PERIPH_LPTIM1  (1)
 477:Drivers/STM32G0xx_HAL_Driver/Inc/stm32g0xx_ll_bus.h ****   * @note Peripheral marked with (1) are not available all devices
 478:Drivers/STM32G0xx_HAL_Driver/Inc/stm32g0xx_ll_bus.h ****   * @retval State of Periphs (1 or 0).
 479:Drivers/STM32G0xx_HAL_Driver/Inc/stm32g0xx_ll_bus.h **** */
 480:Drivers/STM32G0xx_HAL_Driver/Inc/stm32g0xx_ll_bus.h **** __STATIC_INLINE uint32_t LL_APB1_GRP1_IsEnabledClock(uint32_t Periphs)
 481:Drivers/STM32G0xx_HAL_Driver/Inc/stm32g0xx_ll_bus.h **** {
 482:Drivers/STM32G0xx_HAL_Driver/Inc/stm32g0xx_ll_bus.h ****   return ((READ_BIT(RCC->APBENR1, Periphs) == (Periphs)) ? 1UL : 0UL);
 483:Drivers/STM32G0xx_HAL_Driver/Inc/stm32g0xx_ll_bus.h **** }
 484:Drivers/STM32G0xx_HAL_Driver/Inc/stm32g0xx_ll_bus.h **** 
 485:Drivers/STM32G0xx_HAL_Driver/Inc/stm32g0xx_ll_bus.h **** /**
 486:Drivers/STM32G0xx_HAL_Driver/Inc/stm32g0xx_ll_bus.h ****   * @brief  Disable APB1 peripherals clock.
 487:Drivers/STM32G0xx_HAL_Driver/Inc/stm32g0xx_ll_bus.h ****   * @rmtoll APBENR1      TIM2EN        LL_APB1_GRP1_DisableClock\n
ARM GAS  /tmp/ccHKcJQI.s 			page 11


 488:Drivers/STM32G0xx_HAL_Driver/Inc/stm32g0xx_ll_bus.h ****   *         APBENR1      TIM3EN        LL_APB1_GRP1_DisableClock\n
 489:Drivers/STM32G0xx_HAL_Driver/Inc/stm32g0xx_ll_bus.h ****   *         APBENR1      TIM6EN        LL_APB1_GRP1_DisableClock\n
 490:Drivers/STM32G0xx_HAL_Driver/Inc/stm32g0xx_ll_bus.h ****   *         APBENR1      TIM7EN        LL_APB1_GRP1_DisableClock\n
 491:Drivers/STM32G0xx_HAL_Driver/Inc/stm32g0xx_ll_bus.h ****   *         APBENR1      RTCAPBEN      LL_APB1_GRP1_DisableClock\n
 492:Drivers/STM32G0xx_HAL_Driver/Inc/stm32g0xx_ll_bus.h ****   *         APBENR1      WWDGEN        LL_APB1_GRP1_DisableClock\n
 493:Drivers/STM32G0xx_HAL_Driver/Inc/stm32g0xx_ll_bus.h ****   *         APBENR1      SPI2EN        LL_APB1_GRP1_DisableClock\n
 494:Drivers/STM32G0xx_HAL_Driver/Inc/stm32g0xx_ll_bus.h ****   *         APBENR1      USART2EN      LL_APB1_GRP1_DisableClock\n
 495:Drivers/STM32G0xx_HAL_Driver/Inc/stm32g0xx_ll_bus.h ****   *         APBENR1      USART3EN      LL_APB1_GRP1_DisableClock\n
 496:Drivers/STM32G0xx_HAL_Driver/Inc/stm32g0xx_ll_bus.h ****   *         APBENR1      USART4EN      LL_APB1_GRP1_DisableClock\n
 497:Drivers/STM32G0xx_HAL_Driver/Inc/stm32g0xx_ll_bus.h ****   *         APBENR1      LPUART1EN     LL_APB1_GRP1_DisableClock\n
 498:Drivers/STM32G0xx_HAL_Driver/Inc/stm32g0xx_ll_bus.h ****   *         APBENR1      I2C1EN        LL_APB1_GRP1_DisableClock\n
 499:Drivers/STM32G0xx_HAL_Driver/Inc/stm32g0xx_ll_bus.h ****   *         APBENR1      I2C2EN        LL_APB1_GRP1_DisableClock\n
 500:Drivers/STM32G0xx_HAL_Driver/Inc/stm32g0xx_ll_bus.h ****   *         APBENR1      CECEN         LL_APB1_GRP1_DisableClock\n
 501:Drivers/STM32G0xx_HAL_Driver/Inc/stm32g0xx_ll_bus.h ****   *         APBENR1      UCPD1EN       LL_APB1_GRP1_DisableClock\n
 502:Drivers/STM32G0xx_HAL_Driver/Inc/stm32g0xx_ll_bus.h ****   *         APBENR1      UCPD2EN       LL_APB1_GRP1_DisableClock\n
 503:Drivers/STM32G0xx_HAL_Driver/Inc/stm32g0xx_ll_bus.h ****   *         APBENR1      DBGEN         LL_APB1_GRP1_DisableClock\n
 504:Drivers/STM32G0xx_HAL_Driver/Inc/stm32g0xx_ll_bus.h ****   *         APBENR1      PWREN         LL_APB1_GRP1_DisableClock\n
 505:Drivers/STM32G0xx_HAL_Driver/Inc/stm32g0xx_ll_bus.h ****   *         APBENR1      DAC1EN        LL_APB1_GRP1_DisableClock\n
 506:Drivers/STM32G0xx_HAL_Driver/Inc/stm32g0xx_ll_bus.h ****   *         APBENR1      LPTIM2EN      LL_APB1_GRP1_DisableClock\n
 507:Drivers/STM32G0xx_HAL_Driver/Inc/stm32g0xx_ll_bus.h ****   *         APBENR1      LPTIM1EN      LL_APB1_GRP1_DisableClock
 508:Drivers/STM32G0xx_HAL_Driver/Inc/stm32g0xx_ll_bus.h ****   * @param  Periphs This parameter can be a combination of the following values:
 509:Drivers/STM32G0xx_HAL_Driver/Inc/stm32g0xx_ll_bus.h ****   *         @arg @ref LL_APB1_GRP1_PERIPH_TIM2    (1)
 510:Drivers/STM32G0xx_HAL_Driver/Inc/stm32g0xx_ll_bus.h ****   *         @arg @ref LL_APB1_GRP1_PERIPH_TIM3
 511:Drivers/STM32G0xx_HAL_Driver/Inc/stm32g0xx_ll_bus.h ****   *         @arg @ref LL_APB1_GRP1_PERIPH_TIM6    (1)
 512:Drivers/STM32G0xx_HAL_Driver/Inc/stm32g0xx_ll_bus.h ****   *         @arg @ref LL_APB1_GRP1_PERIPH_TIM7    (1)
 513:Drivers/STM32G0xx_HAL_Driver/Inc/stm32g0xx_ll_bus.h ****   *         @arg @ref LL_APB1_GRP1_PERIPH_RTC
 514:Drivers/STM32G0xx_HAL_Driver/Inc/stm32g0xx_ll_bus.h ****   *         @arg @ref LL_APB1_GRP1_PERIPH_WWDG
 515:Drivers/STM32G0xx_HAL_Driver/Inc/stm32g0xx_ll_bus.h ****   *         @arg @ref LL_APB1_GRP1_PERIPH_SPI2
 516:Drivers/STM32G0xx_HAL_Driver/Inc/stm32g0xx_ll_bus.h ****   *         @arg @ref LL_APB1_GRP1_PERIPH_USART2
 517:Drivers/STM32G0xx_HAL_Driver/Inc/stm32g0xx_ll_bus.h ****   *         @arg @ref LL_APB1_GRP1_PERIPH_USART3  (1)
 518:Drivers/STM32G0xx_HAL_Driver/Inc/stm32g0xx_ll_bus.h ****   *         @arg @ref LL_APB1_GRP1_PERIPH_USART4  (1)
 519:Drivers/STM32G0xx_HAL_Driver/Inc/stm32g0xx_ll_bus.h ****   *         @arg @ref LL_APB1_GRP1_PERIPH_LPUART1 (1)
 520:Drivers/STM32G0xx_HAL_Driver/Inc/stm32g0xx_ll_bus.h ****   *         @arg @ref LL_APB1_GRP1_PERIPH_I2C1
 521:Drivers/STM32G0xx_HAL_Driver/Inc/stm32g0xx_ll_bus.h ****   *         @arg @ref LL_APB1_GRP1_PERIPH_I2C2
 522:Drivers/STM32G0xx_HAL_Driver/Inc/stm32g0xx_ll_bus.h ****   *         @arg @ref LL_APB1_GRP1_PERIPH_CEC     (1)
 523:Drivers/STM32G0xx_HAL_Driver/Inc/stm32g0xx_ll_bus.h ****   *         @arg @ref LL_APB1_GRP1_PERIPH_UCPD1   (1)
 524:Drivers/STM32G0xx_HAL_Driver/Inc/stm32g0xx_ll_bus.h ****   *         @arg @ref LL_APB1_GRP1_PERIPH_UCPD2   (1)
 525:Drivers/STM32G0xx_HAL_Driver/Inc/stm32g0xx_ll_bus.h ****   *         @arg @ref LL_APB1_GRP1_PERIPH_DBGMCU
 526:Drivers/STM32G0xx_HAL_Driver/Inc/stm32g0xx_ll_bus.h ****   *         @arg @ref LL_APB1_GRP1_PERIPH_PWR
 527:Drivers/STM32G0xx_HAL_Driver/Inc/stm32g0xx_ll_bus.h ****   *         @arg @ref LL_APB1_GRP1_PERIPH_DAC1    (1)
 528:Drivers/STM32G0xx_HAL_Driver/Inc/stm32g0xx_ll_bus.h ****   *         @arg @ref LL_APB1_GRP1_PERIPH_LPTIM2  (1)
 529:Drivers/STM32G0xx_HAL_Driver/Inc/stm32g0xx_ll_bus.h ****   *         @arg @ref LL_APB1_GRP1_PERIPH_LPTIM1  (1)
 530:Drivers/STM32G0xx_HAL_Driver/Inc/stm32g0xx_ll_bus.h ****   * @note Peripheral marked with (1) are not available all devices
 531:Drivers/STM32G0xx_HAL_Driver/Inc/stm32g0xx_ll_bus.h ****   * @retval None
 532:Drivers/STM32G0xx_HAL_Driver/Inc/stm32g0xx_ll_bus.h **** */
 533:Drivers/STM32G0xx_HAL_Driver/Inc/stm32g0xx_ll_bus.h **** __STATIC_INLINE void LL_APB1_GRP1_DisableClock(uint32_t Periphs)
 534:Drivers/STM32G0xx_HAL_Driver/Inc/stm32g0xx_ll_bus.h **** {
 535:Drivers/STM32G0xx_HAL_Driver/Inc/stm32g0xx_ll_bus.h ****   CLEAR_BIT(RCC->APBENR1, Periphs);
 536:Drivers/STM32G0xx_HAL_Driver/Inc/stm32g0xx_ll_bus.h **** }
 537:Drivers/STM32G0xx_HAL_Driver/Inc/stm32g0xx_ll_bus.h **** 
 538:Drivers/STM32G0xx_HAL_Driver/Inc/stm32g0xx_ll_bus.h **** /**
 539:Drivers/STM32G0xx_HAL_Driver/Inc/stm32g0xx_ll_bus.h ****   * @brief  Force APB1 peripherals reset.
 540:Drivers/STM32G0xx_HAL_Driver/Inc/stm32g0xx_ll_bus.h ****   * @rmtoll APBRSTR1     TIM2RST       LL_APB1_GRP1_ForceReset\n
 541:Drivers/STM32G0xx_HAL_Driver/Inc/stm32g0xx_ll_bus.h ****   *         APBRSTR1     TIM3RST       LL_APB1_GRP1_ForceReset\n
 542:Drivers/STM32G0xx_HAL_Driver/Inc/stm32g0xx_ll_bus.h ****   *         APBRSTR1     TIM6RST       LL_APB1_GRP1_ForceReset\n
 543:Drivers/STM32G0xx_HAL_Driver/Inc/stm32g0xx_ll_bus.h ****   *         APBRSTR1     TIM7RST       LL_APB1_GRP1_ForceReset\n
 544:Drivers/STM32G0xx_HAL_Driver/Inc/stm32g0xx_ll_bus.h ****   *         APBRSTR1     RTCRST        LL_APB1_GRP1_ForceReset\n
ARM GAS  /tmp/ccHKcJQI.s 			page 12


 545:Drivers/STM32G0xx_HAL_Driver/Inc/stm32g0xx_ll_bus.h ****   *         APBRSTR1     WWDGRST       LL_APB1_GRP1_ForceReset\n
 546:Drivers/STM32G0xx_HAL_Driver/Inc/stm32g0xx_ll_bus.h ****   *         APBRSTR1     SPI2RST       LL_APB1_GRP1_ForceReset\n
 547:Drivers/STM32G0xx_HAL_Driver/Inc/stm32g0xx_ll_bus.h ****   *         APBRSTR1     USART2RST     LL_APB1_GRP1_ForceReset\n
 548:Drivers/STM32G0xx_HAL_Driver/Inc/stm32g0xx_ll_bus.h ****   *         APBRSTR1     USART3RST     LL_APB1_GRP1_ForceReset\n
 549:Drivers/STM32G0xx_HAL_Driver/Inc/stm32g0xx_ll_bus.h ****   *         APBRSTR1     USART4RST     LL_APB1_GRP1_ForceReset\n
 550:Drivers/STM32G0xx_HAL_Driver/Inc/stm32g0xx_ll_bus.h ****   *         APBRSTR1     LPUART1RST    LL_APB1_GRP1_ForceReset\n
 551:Drivers/STM32G0xx_HAL_Driver/Inc/stm32g0xx_ll_bus.h ****   *         APBRSTR1     I2C1RST       LL_APB1_GRP1_ForceReset\n
 552:Drivers/STM32G0xx_HAL_Driver/Inc/stm32g0xx_ll_bus.h ****   *         APBRSTR1     I2C2RST       LL_APB1_GRP1_ForceReset\n
 553:Drivers/STM32G0xx_HAL_Driver/Inc/stm32g0xx_ll_bus.h ****   *         APBRSTR1     CECRST        LL_APB1_GRP1_ForceReset\n
 554:Drivers/STM32G0xx_HAL_Driver/Inc/stm32g0xx_ll_bus.h ****   *         APBRSTR1     UCPD1RST      LL_APB1_GRP1_ForceReset\n
 555:Drivers/STM32G0xx_HAL_Driver/Inc/stm32g0xx_ll_bus.h ****   *         APBRSTR1     UCPD2RST      LL_APB1_GRP1_ForceReset\n
 556:Drivers/STM32G0xx_HAL_Driver/Inc/stm32g0xx_ll_bus.h ****   *         APBRSTR1     DBGRST        LL_APB1_GRP1_ForceReset\n
 557:Drivers/STM32G0xx_HAL_Driver/Inc/stm32g0xx_ll_bus.h ****   *         APBRSTR1     PWRRST        LL_APB1_GRP1_ForceReset\n
 558:Drivers/STM32G0xx_HAL_Driver/Inc/stm32g0xx_ll_bus.h ****   *         APBRSTR1     DAC1RST       LL_APB1_GRP1_ForceReset\n
 559:Drivers/STM32G0xx_HAL_Driver/Inc/stm32g0xx_ll_bus.h ****   *         APBRSTR1     LPTIM2RST     LL_APB1_GRP1_ForceReset\n
 560:Drivers/STM32G0xx_HAL_Driver/Inc/stm32g0xx_ll_bus.h ****   *         APBRSTR1     LPTIM1RST     LL_APB1_GRP1_ForceReset
 561:Drivers/STM32G0xx_HAL_Driver/Inc/stm32g0xx_ll_bus.h ****   * @param  Periphs This parameter can be a combination of the following values:
 562:Drivers/STM32G0xx_HAL_Driver/Inc/stm32g0xx_ll_bus.h ****   *         @arg @ref LL_APB1_GRP1_PERIPH_ALL
 563:Drivers/STM32G0xx_HAL_Driver/Inc/stm32g0xx_ll_bus.h ****   *         @arg @ref LL_APB1_GRP1_PERIPH_TIM2    (1)
 564:Drivers/STM32G0xx_HAL_Driver/Inc/stm32g0xx_ll_bus.h ****   *         @arg @ref LL_APB1_GRP1_PERIPH_TIM3
 565:Drivers/STM32G0xx_HAL_Driver/Inc/stm32g0xx_ll_bus.h ****   *         @arg @ref LL_APB1_GRP1_PERIPH_TIM6    (1)
 566:Drivers/STM32G0xx_HAL_Driver/Inc/stm32g0xx_ll_bus.h ****   *         @arg @ref LL_APB1_GRP1_PERIPH_TIM7    (1)
 567:Drivers/STM32G0xx_HAL_Driver/Inc/stm32g0xx_ll_bus.h ****   *         @arg @ref LL_APB1_GRP1_PERIPH_RTC
 568:Drivers/STM32G0xx_HAL_Driver/Inc/stm32g0xx_ll_bus.h ****   *         @arg @ref LL_APB1_GRP1_PERIPH_WWDG
 569:Drivers/STM32G0xx_HAL_Driver/Inc/stm32g0xx_ll_bus.h ****   *         @arg @ref LL_APB1_GRP1_PERIPH_SPI2
 570:Drivers/STM32G0xx_HAL_Driver/Inc/stm32g0xx_ll_bus.h ****   *         @arg @ref LL_APB1_GRP1_PERIPH_USART2
 571:Drivers/STM32G0xx_HAL_Driver/Inc/stm32g0xx_ll_bus.h ****   *         @arg @ref LL_APB1_GRP1_PERIPH_USART3  (1)
 572:Drivers/STM32G0xx_HAL_Driver/Inc/stm32g0xx_ll_bus.h ****   *         @arg @ref LL_APB1_GRP1_PERIPH_USART4  (1)
 573:Drivers/STM32G0xx_HAL_Driver/Inc/stm32g0xx_ll_bus.h ****   *         @arg @ref LL_APB1_GRP1_PERIPH_LPUART1 (1)
 574:Drivers/STM32G0xx_HAL_Driver/Inc/stm32g0xx_ll_bus.h ****   *         @arg @ref LL_APB1_GRP1_PERIPH_I2C1
 575:Drivers/STM32G0xx_HAL_Driver/Inc/stm32g0xx_ll_bus.h ****   *         @arg @ref LL_APB1_GRP1_PERIPH_I2C2
 576:Drivers/STM32G0xx_HAL_Driver/Inc/stm32g0xx_ll_bus.h ****   *         @arg @ref LL_APB1_GRP1_PERIPH_CEC     (1)
 577:Drivers/STM32G0xx_HAL_Driver/Inc/stm32g0xx_ll_bus.h ****   *         @arg @ref LL_APB1_GRP1_PERIPH_UCPD1   (1)
 578:Drivers/STM32G0xx_HAL_Driver/Inc/stm32g0xx_ll_bus.h ****   *         @arg @ref LL_APB1_GRP1_PERIPH_UCPD2   (1)
 579:Drivers/STM32G0xx_HAL_Driver/Inc/stm32g0xx_ll_bus.h ****   *         @arg @ref LL_APB1_GRP1_PERIPH_DBGMCU
 580:Drivers/STM32G0xx_HAL_Driver/Inc/stm32g0xx_ll_bus.h ****   *         @arg @ref LL_APB1_GRP1_PERIPH_PWR
 581:Drivers/STM32G0xx_HAL_Driver/Inc/stm32g0xx_ll_bus.h ****   *         @arg @ref LL_APB1_GRP1_PERIPH_DAC1    (1)
 582:Drivers/STM32G0xx_HAL_Driver/Inc/stm32g0xx_ll_bus.h ****   *         @arg @ref LL_APB1_GRP1_PERIPH_LPTIM2  (1)
 583:Drivers/STM32G0xx_HAL_Driver/Inc/stm32g0xx_ll_bus.h ****   *         @arg @ref LL_APB1_GRP1_PERIPH_LPTIM1  (1)
 584:Drivers/STM32G0xx_HAL_Driver/Inc/stm32g0xx_ll_bus.h ****   * @note Peripheral marked with (1) are not available all devices
 585:Drivers/STM32G0xx_HAL_Driver/Inc/stm32g0xx_ll_bus.h ****   * @retval None
 586:Drivers/STM32G0xx_HAL_Driver/Inc/stm32g0xx_ll_bus.h **** */
 587:Drivers/STM32G0xx_HAL_Driver/Inc/stm32g0xx_ll_bus.h **** __STATIC_INLINE void LL_APB1_GRP1_ForceReset(uint32_t Periphs)
 588:Drivers/STM32G0xx_HAL_Driver/Inc/stm32g0xx_ll_bus.h **** {
 589:Drivers/STM32G0xx_HAL_Driver/Inc/stm32g0xx_ll_bus.h ****   SET_BIT(RCC->APBRSTR1, Periphs);
 590:Drivers/STM32G0xx_HAL_Driver/Inc/stm32g0xx_ll_bus.h **** }
 591:Drivers/STM32G0xx_HAL_Driver/Inc/stm32g0xx_ll_bus.h **** 
 592:Drivers/STM32G0xx_HAL_Driver/Inc/stm32g0xx_ll_bus.h **** /**
 593:Drivers/STM32G0xx_HAL_Driver/Inc/stm32g0xx_ll_bus.h ****   * @brief  Release APB1 peripherals reset.
 594:Drivers/STM32G0xx_HAL_Driver/Inc/stm32g0xx_ll_bus.h ****   * @rmtoll APBRSTR1     TIM2RST       LL_APB1_GRP1_ReleaseReset\n
 595:Drivers/STM32G0xx_HAL_Driver/Inc/stm32g0xx_ll_bus.h ****   *         APBRSTR1     TIM3RST       LL_APB1_GRP1_ReleaseReset\n
 596:Drivers/STM32G0xx_HAL_Driver/Inc/stm32g0xx_ll_bus.h ****   *         APBRSTR1     TIM6RST       LL_APB1_GRP1_ReleaseReset\n
 597:Drivers/STM32G0xx_HAL_Driver/Inc/stm32g0xx_ll_bus.h ****   *         APBRSTR1     TIM7RST       LL_APB1_GRP1_ReleaseReset\n
 598:Drivers/STM32G0xx_HAL_Driver/Inc/stm32g0xx_ll_bus.h ****   *         APBRSTR1     RTCRST        LL_APB1_GRP1_ReleaseReset\n
 599:Drivers/STM32G0xx_HAL_Driver/Inc/stm32g0xx_ll_bus.h ****   *         APBRSTR1     WWDGRST       LL_APB1_GRP1_ReleaseReset\n
 600:Drivers/STM32G0xx_HAL_Driver/Inc/stm32g0xx_ll_bus.h ****   *         APBRSTR1     SPI2RST       LL_APB1_GRP1_ReleaseReset\n
 601:Drivers/STM32G0xx_HAL_Driver/Inc/stm32g0xx_ll_bus.h ****   *         APBRSTR1     USART2RST     LL_APB1_GRP1_ReleaseReset\n
ARM GAS  /tmp/ccHKcJQI.s 			page 13


 602:Drivers/STM32G0xx_HAL_Driver/Inc/stm32g0xx_ll_bus.h ****   *         APBRSTR1     USART3RST     LL_APB1_GRP1_ReleaseReset\n
 603:Drivers/STM32G0xx_HAL_Driver/Inc/stm32g0xx_ll_bus.h ****   *         APBRSTR1     USART4RST     LL_APB1_GRP1_ReleaseReset\n
 604:Drivers/STM32G0xx_HAL_Driver/Inc/stm32g0xx_ll_bus.h ****   *         APBRSTR1     LPUART1RST    LL_APB1_GRP1_ReleaseReset\n
 605:Drivers/STM32G0xx_HAL_Driver/Inc/stm32g0xx_ll_bus.h ****   *         APBRSTR1     I2C1RST       LL_APB1_GRP1_ReleaseReset\n
 606:Drivers/STM32G0xx_HAL_Driver/Inc/stm32g0xx_ll_bus.h ****   *         APBRSTR1     I2C2RST       LL_APB1_GRP1_ReleaseReset\n
 607:Drivers/STM32G0xx_HAL_Driver/Inc/stm32g0xx_ll_bus.h ****   *         APBRSTR1     CECRST        LL_APB1_GRP1_ReleaseReset\n
 608:Drivers/STM32G0xx_HAL_Driver/Inc/stm32g0xx_ll_bus.h ****   *         APBRSTR1     UCPD1RST      LL_APB1_GRP1_ReleaseReset\n
 609:Drivers/STM32G0xx_HAL_Driver/Inc/stm32g0xx_ll_bus.h ****   *         APBRSTR1     UCPD2RST      LL_APB1_GRP1_ReleaseReset\n
 610:Drivers/STM32G0xx_HAL_Driver/Inc/stm32g0xx_ll_bus.h ****   *         APBRSTR1     DBGRST        LL_APB1_GRP1_ReleaseReset\n
 611:Drivers/STM32G0xx_HAL_Driver/Inc/stm32g0xx_ll_bus.h ****   *         APBRSTR1     PWRRST        LL_APB1_GRP1_ReleaseReset\n
 612:Drivers/STM32G0xx_HAL_Driver/Inc/stm32g0xx_ll_bus.h ****   *         APBRSTR1     DAC1RST       LL_APB1_GRP1_ReleaseReset\n
 613:Drivers/STM32G0xx_HAL_Driver/Inc/stm32g0xx_ll_bus.h ****   *         APBRSTR1     LPTIM2RST     LL_APB1_GRP1_ReleaseReset\n
 614:Drivers/STM32G0xx_HAL_Driver/Inc/stm32g0xx_ll_bus.h ****   *         APBRSTR1     LPTIM1RST     LL_APB1_GRP1_ReleaseReset
 615:Drivers/STM32G0xx_HAL_Driver/Inc/stm32g0xx_ll_bus.h ****   * @param  Periphs This parameter can be a combination of the following values:
 616:Drivers/STM32G0xx_HAL_Driver/Inc/stm32g0xx_ll_bus.h ****   *         @arg @ref LL_APB1_GRP1_PERIPH_ALL
 617:Drivers/STM32G0xx_HAL_Driver/Inc/stm32g0xx_ll_bus.h ****   *         @arg @ref LL_APB1_GRP1_PERIPH_TIM2    (1)
 618:Drivers/STM32G0xx_HAL_Driver/Inc/stm32g0xx_ll_bus.h ****   *         @arg @ref LL_APB1_GRP1_PERIPH_TIM3
 619:Drivers/STM32G0xx_HAL_Driver/Inc/stm32g0xx_ll_bus.h ****   *         @arg @ref LL_APB1_GRP1_PERIPH_TIM6    (1)
 620:Drivers/STM32G0xx_HAL_Driver/Inc/stm32g0xx_ll_bus.h ****   *         @arg @ref LL_APB1_GRP1_PERIPH_TIM7    (1)
 621:Drivers/STM32G0xx_HAL_Driver/Inc/stm32g0xx_ll_bus.h ****   *         @arg @ref LL_APB1_GRP1_PERIPH_RTC
 622:Drivers/STM32G0xx_HAL_Driver/Inc/stm32g0xx_ll_bus.h ****   *         @arg @ref LL_APB1_GRP1_PERIPH_WWDG
 623:Drivers/STM32G0xx_HAL_Driver/Inc/stm32g0xx_ll_bus.h ****   *         @arg @ref LL_APB1_GRP1_PERIPH_SPI2
 624:Drivers/STM32G0xx_HAL_Driver/Inc/stm32g0xx_ll_bus.h ****   *         @arg @ref LL_APB1_GRP1_PERIPH_USART2
 625:Drivers/STM32G0xx_HAL_Driver/Inc/stm32g0xx_ll_bus.h ****   *         @arg @ref LL_APB1_GRP1_PERIPH_USART3  (1)
 626:Drivers/STM32G0xx_HAL_Driver/Inc/stm32g0xx_ll_bus.h ****   *         @arg @ref LL_APB1_GRP1_PERIPH_USART4  (1)
 627:Drivers/STM32G0xx_HAL_Driver/Inc/stm32g0xx_ll_bus.h ****   *         @arg @ref LL_APB1_GRP1_PERIPH_LPUART1 (1)
 628:Drivers/STM32G0xx_HAL_Driver/Inc/stm32g0xx_ll_bus.h ****   *         @arg @ref LL_APB1_GRP1_PERIPH_I2C1
 629:Drivers/STM32G0xx_HAL_Driver/Inc/stm32g0xx_ll_bus.h ****   *         @arg @ref LL_APB1_GRP1_PERIPH_I2C2
 630:Drivers/STM32G0xx_HAL_Driver/Inc/stm32g0xx_ll_bus.h ****   *         @arg @ref LL_APB1_GRP1_PERIPH_CEC     (1)
 631:Drivers/STM32G0xx_HAL_Driver/Inc/stm32g0xx_ll_bus.h ****   *         @arg @ref LL_APB1_GRP1_PERIPH_UCPD1   (1)
 632:Drivers/STM32G0xx_HAL_Driver/Inc/stm32g0xx_ll_bus.h ****   *         @arg @ref LL_APB1_GRP1_PERIPH_UCPD2   (1)
 633:Drivers/STM32G0xx_HAL_Driver/Inc/stm32g0xx_ll_bus.h ****   *         @arg @ref LL_APB1_GRP1_PERIPH_DBGMCU
 634:Drivers/STM32G0xx_HAL_Driver/Inc/stm32g0xx_ll_bus.h ****   *         @arg @ref LL_APB1_GRP1_PERIPH_PWR
 635:Drivers/STM32G0xx_HAL_Driver/Inc/stm32g0xx_ll_bus.h ****   *         @arg @ref LL_APB1_GRP1_PERIPH_DAC1    (1)
 636:Drivers/STM32G0xx_HAL_Driver/Inc/stm32g0xx_ll_bus.h ****   *         @arg @ref LL_APB1_GRP1_PERIPH_LPTIM2  (1)
 637:Drivers/STM32G0xx_HAL_Driver/Inc/stm32g0xx_ll_bus.h ****   *         @arg @ref LL_APB1_GRP1_PERIPH_LPTIM1  (1)
 638:Drivers/STM32G0xx_HAL_Driver/Inc/stm32g0xx_ll_bus.h ****   * @note Peripheral marked with (1) are not available all devices
 639:Drivers/STM32G0xx_HAL_Driver/Inc/stm32g0xx_ll_bus.h ****   * @retval None
 640:Drivers/STM32G0xx_HAL_Driver/Inc/stm32g0xx_ll_bus.h **** */
 641:Drivers/STM32G0xx_HAL_Driver/Inc/stm32g0xx_ll_bus.h **** __STATIC_INLINE void LL_APB1_GRP1_ReleaseReset(uint32_t Periphs)
 642:Drivers/STM32G0xx_HAL_Driver/Inc/stm32g0xx_ll_bus.h **** {
 643:Drivers/STM32G0xx_HAL_Driver/Inc/stm32g0xx_ll_bus.h ****   CLEAR_BIT(RCC->APBRSTR1, Periphs);
 644:Drivers/STM32G0xx_HAL_Driver/Inc/stm32g0xx_ll_bus.h **** }
 645:Drivers/STM32G0xx_HAL_Driver/Inc/stm32g0xx_ll_bus.h **** 
 646:Drivers/STM32G0xx_HAL_Driver/Inc/stm32g0xx_ll_bus.h **** /**
 647:Drivers/STM32G0xx_HAL_Driver/Inc/stm32g0xx_ll_bus.h ****   * @brief  Enable APB1 peripheral clocks in Sleep and Stop modes
 648:Drivers/STM32G0xx_HAL_Driver/Inc/stm32g0xx_ll_bus.h ****   * @rmtoll APBSMENR1    TIM2SMEN      LL_APB1_GRP1_EnableClockStopSleep\n
 649:Drivers/STM32G0xx_HAL_Driver/Inc/stm32g0xx_ll_bus.h ****   *         APBSMENR1    TIM3SMEN      LL_APB1_GRP1_EnableClockStopSleep\n
 650:Drivers/STM32G0xx_HAL_Driver/Inc/stm32g0xx_ll_bus.h ****   *         APBSMENR1    TIM6SMEN      LL_APB1_GRP1_EnableClockStopSleep\n
 651:Drivers/STM32G0xx_HAL_Driver/Inc/stm32g0xx_ll_bus.h ****   *         APBSMENR1    TIM7SMEN      LL_APB1_GRP1_EnableClockStopSleep\n
 652:Drivers/STM32G0xx_HAL_Driver/Inc/stm32g0xx_ll_bus.h ****   *         APBSMENR1    RTCAPBSMEN    LL_APB1_GRP1_EnableClockStopSleep\n
 653:Drivers/STM32G0xx_HAL_Driver/Inc/stm32g0xx_ll_bus.h ****   *         APBSMENR1    WWDGSMEN      LL_APB1_GRP1_EnableClockStopSleep\n
 654:Drivers/STM32G0xx_HAL_Driver/Inc/stm32g0xx_ll_bus.h ****   *         APBSMENR1    SPI2SMEN      LL_APB1_GRP1_EnableClockStopSleep\n
 655:Drivers/STM32G0xx_HAL_Driver/Inc/stm32g0xx_ll_bus.h ****   *         APBSMENR1    USART2SMEN    LL_APB1_GRP1_EnableClockStopSleep\n
 656:Drivers/STM32G0xx_HAL_Driver/Inc/stm32g0xx_ll_bus.h ****   *         APBSMENR1    USART3SMEN    LL_APB1_GRP1_EnableClockStopSleep\n
 657:Drivers/STM32G0xx_HAL_Driver/Inc/stm32g0xx_ll_bus.h ****   *         APBSMENR1    USART4SMEN    LL_APB1_GRP1_EnableClockStopSleep\n
 658:Drivers/STM32G0xx_HAL_Driver/Inc/stm32g0xx_ll_bus.h ****   *         APBSMENR1    LPUART1SMEN   LL_APB1_GRP1_EnableClockStopSleep\n
ARM GAS  /tmp/ccHKcJQI.s 			page 14


 659:Drivers/STM32G0xx_HAL_Driver/Inc/stm32g0xx_ll_bus.h ****   *         APBSMENR1    I2C1SMEN      LL_APB1_GRP1_EnableClockStopSleep\n
 660:Drivers/STM32G0xx_HAL_Driver/Inc/stm32g0xx_ll_bus.h ****   *         APBSMENR1    I2C2SMEN      LL_APB1_GRP1_EnableClockStopSleep\n
 661:Drivers/STM32G0xx_HAL_Driver/Inc/stm32g0xx_ll_bus.h ****   *         APBSMENR1    CECSMEN       LL_APB1_GRP1_EnableClockStopSleep\n
 662:Drivers/STM32G0xx_HAL_Driver/Inc/stm32g0xx_ll_bus.h ****   *         APBSMENR1    UCPD1SMEN     LL_APB1_GRP1_EnableClockStopSleep\n
 663:Drivers/STM32G0xx_HAL_Driver/Inc/stm32g0xx_ll_bus.h ****   *         APBSMENR1    UCPD2SMEN     LL_APB1_GRP1_EnableClockStopSleep\n
 664:Drivers/STM32G0xx_HAL_Driver/Inc/stm32g0xx_ll_bus.h ****   *         APBSMENR1    DBGSMEN       LL_APB1_GRP1_EnableClockStopSleep\n
 665:Drivers/STM32G0xx_HAL_Driver/Inc/stm32g0xx_ll_bus.h ****   *         APBSMENR1    PWRSMEN       LL_APB1_GRP1_EnableClockStopSleep\n
 666:Drivers/STM32G0xx_HAL_Driver/Inc/stm32g0xx_ll_bus.h ****   *         APBSMENR1    DAC1SMEN      LL_APB1_GRP1_EnableClockStopSleep\n
 667:Drivers/STM32G0xx_HAL_Driver/Inc/stm32g0xx_ll_bus.h ****   *         APBSMENR1    LPTIM2SMEN    LL_APB1_GRP1_EnableClockStopSleep\n
 668:Drivers/STM32G0xx_HAL_Driver/Inc/stm32g0xx_ll_bus.h ****   *         APBSMENR1    LPTIM1SMEN    LL_APB1_GRP1_EnableClockStopSleep
 669:Drivers/STM32G0xx_HAL_Driver/Inc/stm32g0xx_ll_bus.h ****   * @param  Periphs This parameter can be a combination of the following values:
 670:Drivers/STM32G0xx_HAL_Driver/Inc/stm32g0xx_ll_bus.h ****   *         @arg @ref LL_APB1_GRP1_PERIPH_TIM2    (1)
 671:Drivers/STM32G0xx_HAL_Driver/Inc/stm32g0xx_ll_bus.h ****   *         @arg @ref LL_APB1_GRP1_PERIPH_TIM3
 672:Drivers/STM32G0xx_HAL_Driver/Inc/stm32g0xx_ll_bus.h ****   *         @arg @ref LL_APB1_GRP1_PERIPH_TIM6    (1)
 673:Drivers/STM32G0xx_HAL_Driver/Inc/stm32g0xx_ll_bus.h ****   *         @arg @ref LL_APB1_GRP1_PERIPH_TIM7    (1)
 674:Drivers/STM32G0xx_HAL_Driver/Inc/stm32g0xx_ll_bus.h ****   *         @arg @ref LL_APB1_GRP1_PERIPH_RTC
 675:Drivers/STM32G0xx_HAL_Driver/Inc/stm32g0xx_ll_bus.h ****   *         @arg @ref LL_APB1_GRP1_PERIPH_WWDG
 676:Drivers/STM32G0xx_HAL_Driver/Inc/stm32g0xx_ll_bus.h ****   *         @arg @ref LL_APB1_GRP1_PERIPH_SPI2
 677:Drivers/STM32G0xx_HAL_Driver/Inc/stm32g0xx_ll_bus.h ****   *         @arg @ref LL_APB1_GRP1_PERIPH_USART2
 678:Drivers/STM32G0xx_HAL_Driver/Inc/stm32g0xx_ll_bus.h ****   *         @arg @ref LL_APB1_GRP1_PERIPH_USART3  (1)
 679:Drivers/STM32G0xx_HAL_Driver/Inc/stm32g0xx_ll_bus.h ****   *         @arg @ref LL_APB1_GRP1_PERIPH_USART4  (1)
 680:Drivers/STM32G0xx_HAL_Driver/Inc/stm32g0xx_ll_bus.h ****   *         @arg @ref LL_APB1_GRP1_PERIPH_LPUART1 (1)
 681:Drivers/STM32G0xx_HAL_Driver/Inc/stm32g0xx_ll_bus.h ****   *         @arg @ref LL_APB1_GRP1_PERIPH_I2C1
 682:Drivers/STM32G0xx_HAL_Driver/Inc/stm32g0xx_ll_bus.h ****   *         @arg @ref LL_APB1_GRP1_PERIPH_I2C2
 683:Drivers/STM32G0xx_HAL_Driver/Inc/stm32g0xx_ll_bus.h ****   *         @arg @ref LL_APB1_GRP1_PERIPH_CEC     (1)
 684:Drivers/STM32G0xx_HAL_Driver/Inc/stm32g0xx_ll_bus.h ****   *         @arg @ref LL_APB1_GRP1_PERIPH_UCPD1   (1)
 685:Drivers/STM32G0xx_HAL_Driver/Inc/stm32g0xx_ll_bus.h ****   *         @arg @ref LL_APB1_GRP1_PERIPH_UCPD2   (1)
 686:Drivers/STM32G0xx_HAL_Driver/Inc/stm32g0xx_ll_bus.h ****   *         @arg @ref LL_APB1_GRP1_PERIPH_DBGMCU
 687:Drivers/STM32G0xx_HAL_Driver/Inc/stm32g0xx_ll_bus.h ****   *         @arg @ref LL_APB1_GRP1_PERIPH_PWR
 688:Drivers/STM32G0xx_HAL_Driver/Inc/stm32g0xx_ll_bus.h ****   *         @arg @ref LL_APB1_GRP1_PERIPH_DAC1    (1)
 689:Drivers/STM32G0xx_HAL_Driver/Inc/stm32g0xx_ll_bus.h ****   *         @arg @ref LL_APB1_GRP1_PERIPH_LPTIM2  (1)
 690:Drivers/STM32G0xx_HAL_Driver/Inc/stm32g0xx_ll_bus.h ****   *         @arg @ref LL_APB1_GRP1_PERIPH_LPTIM1  (1)
 691:Drivers/STM32G0xx_HAL_Driver/Inc/stm32g0xx_ll_bus.h ****   * @note Peripheral marked with (1) are not available all devices
 692:Drivers/STM32G0xx_HAL_Driver/Inc/stm32g0xx_ll_bus.h ****   * @retval None
 693:Drivers/STM32G0xx_HAL_Driver/Inc/stm32g0xx_ll_bus.h **** */
 694:Drivers/STM32G0xx_HAL_Driver/Inc/stm32g0xx_ll_bus.h **** __STATIC_INLINE void LL_APB1_GRP1_EnableClockStopSleep(uint32_t Periphs)
 695:Drivers/STM32G0xx_HAL_Driver/Inc/stm32g0xx_ll_bus.h **** {
 696:Drivers/STM32G0xx_HAL_Driver/Inc/stm32g0xx_ll_bus.h ****   __IO uint32_t tmpreg;
 697:Drivers/STM32G0xx_HAL_Driver/Inc/stm32g0xx_ll_bus.h ****   SET_BIT(RCC->APBSMENR1, Periphs);
 698:Drivers/STM32G0xx_HAL_Driver/Inc/stm32g0xx_ll_bus.h ****   /* Delay after an RCC peripheral clock enabling */
 699:Drivers/STM32G0xx_HAL_Driver/Inc/stm32g0xx_ll_bus.h ****   tmpreg = READ_BIT(RCC->APBSMENR1, Periphs);
 700:Drivers/STM32G0xx_HAL_Driver/Inc/stm32g0xx_ll_bus.h ****   (void)tmpreg;
 701:Drivers/STM32G0xx_HAL_Driver/Inc/stm32g0xx_ll_bus.h **** }
 702:Drivers/STM32G0xx_HAL_Driver/Inc/stm32g0xx_ll_bus.h **** 
 703:Drivers/STM32G0xx_HAL_Driver/Inc/stm32g0xx_ll_bus.h **** /**
 704:Drivers/STM32G0xx_HAL_Driver/Inc/stm32g0xx_ll_bus.h ****   * @brief  Disable APB1 peripheral clocks in Sleep and Stop modes
 705:Drivers/STM32G0xx_HAL_Driver/Inc/stm32g0xx_ll_bus.h ****   * @rmtoll APBSMENR1    TIM2SMEN      LL_APB1_GRP1_DisableClockStopSleep\n
 706:Drivers/STM32G0xx_HAL_Driver/Inc/stm32g0xx_ll_bus.h ****   *         APBSMENR1    TIM3SMEN      LL_APB1_GRP1_DisableClockStopSleep\n
 707:Drivers/STM32G0xx_HAL_Driver/Inc/stm32g0xx_ll_bus.h ****   *         APBSMENR1    TIM6SMEN      LL_APB1_GRP1_DisableClockStopSleep\n
 708:Drivers/STM32G0xx_HAL_Driver/Inc/stm32g0xx_ll_bus.h ****   *         APBSMENR1    TIM7SMEN      LL_APB1_GRP1_DisableClockStopSleep\n
 709:Drivers/STM32G0xx_HAL_Driver/Inc/stm32g0xx_ll_bus.h ****   *         APBSMENR1    RTCAPBSMEN    LL_APB1_GRP1_DisableClockStopSleep\n
 710:Drivers/STM32G0xx_HAL_Driver/Inc/stm32g0xx_ll_bus.h ****   *         APBSMENR1    WWDGSMEN      LL_APB1_GRP1_DisableClockStopSleep\n
 711:Drivers/STM32G0xx_HAL_Driver/Inc/stm32g0xx_ll_bus.h ****   *         APBSMENR1    SPI2SMEN      LL_APB1_GRP1_DisableClockStopSleep\n
 712:Drivers/STM32G0xx_HAL_Driver/Inc/stm32g0xx_ll_bus.h ****   *         APBSMENR1    USART2SMEN    LL_APB1_GRP1_DisableClockStopSleep\n
 713:Drivers/STM32G0xx_HAL_Driver/Inc/stm32g0xx_ll_bus.h ****   *         APBSMENR1    USART3SMEN    LL_APB1_GRP1_DisableClockStopSleep\n
 714:Drivers/STM32G0xx_HAL_Driver/Inc/stm32g0xx_ll_bus.h ****   *         APBSMENR1    USART4SMEN    LL_APB1_GRP1_DisableClockStopSleep\n
 715:Drivers/STM32G0xx_HAL_Driver/Inc/stm32g0xx_ll_bus.h ****   *         APBSMENR1    LPUART1SMEN   LL_APB1_GRP1_DisableClockStopSleep\n
ARM GAS  /tmp/ccHKcJQI.s 			page 15


 716:Drivers/STM32G0xx_HAL_Driver/Inc/stm32g0xx_ll_bus.h ****   *         APBSMENR1    I2C1SMEN      LL_APB1_GRP1_DisableClockStopSleep\n
 717:Drivers/STM32G0xx_HAL_Driver/Inc/stm32g0xx_ll_bus.h ****   *         APBSMENR1    I2C2SMEN      LL_APB1_GRP1_DisableClockStopSleep\n
 718:Drivers/STM32G0xx_HAL_Driver/Inc/stm32g0xx_ll_bus.h ****   *         APBSMENR1    CECSMEN       LL_APB1_GRP1_DisableClockStopSleep\n
 719:Drivers/STM32G0xx_HAL_Driver/Inc/stm32g0xx_ll_bus.h ****   *         APBSMENR1    UCPD1SMEN     LL_APB1_GRP1_DisableClockStopSleep\n
 720:Drivers/STM32G0xx_HAL_Driver/Inc/stm32g0xx_ll_bus.h ****   *         APBSMENR1    UCPD2SMEN     LL_APB1_GRP1_DisableClockStopSleep\n
 721:Drivers/STM32G0xx_HAL_Driver/Inc/stm32g0xx_ll_bus.h ****   *         APBSMENR1    DBGSMEN       LL_APB1_GRP1_DisableClockStopSleep\n
 722:Drivers/STM32G0xx_HAL_Driver/Inc/stm32g0xx_ll_bus.h ****   *         APBSMENR1    PWRSMEN       LL_APB1_GRP1_DisableClockStopSleep\n
 723:Drivers/STM32G0xx_HAL_Driver/Inc/stm32g0xx_ll_bus.h ****   *         APBSMENR1    DAC1SMEN      LL_APB1_GRP1_DisableClockStopSleep\n
 724:Drivers/STM32G0xx_HAL_Driver/Inc/stm32g0xx_ll_bus.h ****   *         APBSMENR1    LPTIM2SMEN    LL_APB1_GRP1_DisableClockStopSleep\n
 725:Drivers/STM32G0xx_HAL_Driver/Inc/stm32g0xx_ll_bus.h ****   *         APBSMENR1    LPTIM1SMEN    LL_APB1_GRP1_DisableClockStopSleep
 726:Drivers/STM32G0xx_HAL_Driver/Inc/stm32g0xx_ll_bus.h ****   * @param  Periphs This parameter can be a combination of the following values:
 727:Drivers/STM32G0xx_HAL_Driver/Inc/stm32g0xx_ll_bus.h ****   *         @arg @ref LL_APB1_GRP1_PERIPH_TIM2    (1)
 728:Drivers/STM32G0xx_HAL_Driver/Inc/stm32g0xx_ll_bus.h ****   *         @arg @ref LL_APB1_GRP1_PERIPH_TIM3
 729:Drivers/STM32G0xx_HAL_Driver/Inc/stm32g0xx_ll_bus.h ****   *         @arg @ref LL_APB1_GRP1_PERIPH_TIM6    (1)
 730:Drivers/STM32G0xx_HAL_Driver/Inc/stm32g0xx_ll_bus.h ****   *         @arg @ref LL_APB1_GRP1_PERIPH_TIM7    (1)
 731:Drivers/STM32G0xx_HAL_Driver/Inc/stm32g0xx_ll_bus.h ****   *         @arg @ref LL_APB1_GRP1_PERIPH_RTC
 732:Drivers/STM32G0xx_HAL_Driver/Inc/stm32g0xx_ll_bus.h ****   *         @arg @ref LL_APB1_GRP1_PERIPH_WWDG
 733:Drivers/STM32G0xx_HAL_Driver/Inc/stm32g0xx_ll_bus.h ****   *         @arg @ref LL_APB1_GRP1_PERIPH_SPI2
 734:Drivers/STM32G0xx_HAL_Driver/Inc/stm32g0xx_ll_bus.h ****   *         @arg @ref LL_APB1_GRP1_PERIPH_USART2
 735:Drivers/STM32G0xx_HAL_Driver/Inc/stm32g0xx_ll_bus.h ****   *         @arg @ref LL_APB1_GRP1_PERIPH_USART3  (1)
 736:Drivers/STM32G0xx_HAL_Driver/Inc/stm32g0xx_ll_bus.h ****   *         @arg @ref LL_APB1_GRP1_PERIPH_USART4  (1)
 737:Drivers/STM32G0xx_HAL_Driver/Inc/stm32g0xx_ll_bus.h ****   *         @arg @ref LL_APB1_GRP1_PERIPH_LPUART1 (1)
 738:Drivers/STM32G0xx_HAL_Driver/Inc/stm32g0xx_ll_bus.h ****   *         @arg @ref LL_APB1_GRP1_PERIPH_I2C1
 739:Drivers/STM32G0xx_HAL_Driver/Inc/stm32g0xx_ll_bus.h ****   *         @arg @ref LL_APB1_GRP1_PERIPH_I2C2
 740:Drivers/STM32G0xx_HAL_Driver/Inc/stm32g0xx_ll_bus.h ****   *         @arg @ref LL_APB1_GRP1_PERIPH_CEC     (1)
 741:Drivers/STM32G0xx_HAL_Driver/Inc/stm32g0xx_ll_bus.h ****   *         @arg @ref LL_APB1_GRP1_PERIPH_UCPD1   (1)
 742:Drivers/STM32G0xx_HAL_Driver/Inc/stm32g0xx_ll_bus.h ****   *         @arg @ref LL_APB1_GRP1_PERIPH_UCPD2   (1)
 743:Drivers/STM32G0xx_HAL_Driver/Inc/stm32g0xx_ll_bus.h ****   *         @arg @ref LL_APB1_GRP1_PERIPH_DBGMCU
 744:Drivers/STM32G0xx_HAL_Driver/Inc/stm32g0xx_ll_bus.h ****   *         @arg @ref LL_APB1_GRP1_PERIPH_PWR
 745:Drivers/STM32G0xx_HAL_Driver/Inc/stm32g0xx_ll_bus.h ****   *         @arg @ref LL_APB1_GRP1_PERIPH_DAC1    (1)
 746:Drivers/STM32G0xx_HAL_Driver/Inc/stm32g0xx_ll_bus.h ****   *         @arg @ref LL_APB1_GRP1_PERIPH_LPTIM2  (1)
 747:Drivers/STM32G0xx_HAL_Driver/Inc/stm32g0xx_ll_bus.h ****   *         @arg @ref LL_APB1_GRP1_PERIPH_LPTIM1  (1)
 748:Drivers/STM32G0xx_HAL_Driver/Inc/stm32g0xx_ll_bus.h ****   * @note Peripheral marked with (1) are not available all devices
 749:Drivers/STM32G0xx_HAL_Driver/Inc/stm32g0xx_ll_bus.h ****   * @retval None
 750:Drivers/STM32G0xx_HAL_Driver/Inc/stm32g0xx_ll_bus.h **** */
 751:Drivers/STM32G0xx_HAL_Driver/Inc/stm32g0xx_ll_bus.h **** __STATIC_INLINE void LL_APB1_GRP1_DisableClockStopSleep(uint32_t Periphs)
 752:Drivers/STM32G0xx_HAL_Driver/Inc/stm32g0xx_ll_bus.h **** {
 753:Drivers/STM32G0xx_HAL_Driver/Inc/stm32g0xx_ll_bus.h ****   CLEAR_BIT(RCC->APBSMENR1, Periphs);
 754:Drivers/STM32G0xx_HAL_Driver/Inc/stm32g0xx_ll_bus.h **** }
 755:Drivers/STM32G0xx_HAL_Driver/Inc/stm32g0xx_ll_bus.h **** 
 756:Drivers/STM32G0xx_HAL_Driver/Inc/stm32g0xx_ll_bus.h **** /**
 757:Drivers/STM32G0xx_HAL_Driver/Inc/stm32g0xx_ll_bus.h ****   * @}
 758:Drivers/STM32G0xx_HAL_Driver/Inc/stm32g0xx_ll_bus.h ****   */
 759:Drivers/STM32G0xx_HAL_Driver/Inc/stm32g0xx_ll_bus.h **** 
 760:Drivers/STM32G0xx_HAL_Driver/Inc/stm32g0xx_ll_bus.h **** /** @defgroup BUS_LL_EF_APB2 APB2
 761:Drivers/STM32G0xx_HAL_Driver/Inc/stm32g0xx_ll_bus.h ****   * @{
 762:Drivers/STM32G0xx_HAL_Driver/Inc/stm32g0xx_ll_bus.h ****   */
 763:Drivers/STM32G0xx_HAL_Driver/Inc/stm32g0xx_ll_bus.h **** 
 764:Drivers/STM32G0xx_HAL_Driver/Inc/stm32g0xx_ll_bus.h **** /**
 765:Drivers/STM32G0xx_HAL_Driver/Inc/stm32g0xx_ll_bus.h ****   * @brief  Enable APB2 peripherals clock.
 766:Drivers/STM32G0xx_HAL_Driver/Inc/stm32g0xx_ll_bus.h ****   * @rmtoll APBENR2      SYSCFGEN      LL_APB2_GRP1_EnableClock\n
 767:Drivers/STM32G0xx_HAL_Driver/Inc/stm32g0xx_ll_bus.h ****   *         APBENR2      TIM1EN        LL_APB2_GRP1_EnableClock\n
 768:Drivers/STM32G0xx_HAL_Driver/Inc/stm32g0xx_ll_bus.h ****   *         APBENR2      SPI1EN        LL_APB2_GRP1_EnableClock\n
 769:Drivers/STM32G0xx_HAL_Driver/Inc/stm32g0xx_ll_bus.h ****   *         APBENR2      USART1EN      LL_APB2_GRP1_EnableClock\n
 770:Drivers/STM32G0xx_HAL_Driver/Inc/stm32g0xx_ll_bus.h ****   *         APBENR2      TIM14EN       LL_APB2_GRP1_EnableClock\n
 771:Drivers/STM32G0xx_HAL_Driver/Inc/stm32g0xx_ll_bus.h ****   *         APBENR2      TIM15EN       LL_APB2_GRP1_EnableClock\n (*)
 772:Drivers/STM32G0xx_HAL_Driver/Inc/stm32g0xx_ll_bus.h ****   *         APBENR2      TIM16EN       LL_APB2_GRP1_EnableClock\n
ARM GAS  /tmp/ccHKcJQI.s 			page 16


 773:Drivers/STM32G0xx_HAL_Driver/Inc/stm32g0xx_ll_bus.h ****   *         APBENR2      TIM17EN       LL_APB2_GRP1_EnableClock\n
 774:Drivers/STM32G0xx_HAL_Driver/Inc/stm32g0xx_ll_bus.h ****   *         APBENR2      ADCEN         LL_APB2_GRP1_EnableClock
 775:Drivers/STM32G0xx_HAL_Driver/Inc/stm32g0xx_ll_bus.h ****   * @param  Periphs This parameter can be a combination of the following values:
 776:Drivers/STM32G0xx_HAL_Driver/Inc/stm32g0xx_ll_bus.h ****   *         @arg @ref LL_APB2_GRP1_PERIPH_SYSCFG
 777:Drivers/STM32G0xx_HAL_Driver/Inc/stm32g0xx_ll_bus.h ****   *         @arg @ref LL_APB2_GRP1_PERIPH_TIM1
 778:Drivers/STM32G0xx_HAL_Driver/Inc/stm32g0xx_ll_bus.h ****   *         @arg @ref LL_APB2_GRP1_PERIPH_SPI1
 779:Drivers/STM32G0xx_HAL_Driver/Inc/stm32g0xx_ll_bus.h ****   *         @arg @ref LL_APB2_GRP1_PERIPH_USART1
 780:Drivers/STM32G0xx_HAL_Driver/Inc/stm32g0xx_ll_bus.h ****   *         @arg @ref LL_APB2_GRP1_PERIPH_TIM14
 781:Drivers/STM32G0xx_HAL_Driver/Inc/stm32g0xx_ll_bus.h ****   *         @arg @ref LL_APB2_GRP1_PERIPH_TIM15 (*)
 782:Drivers/STM32G0xx_HAL_Driver/Inc/stm32g0xx_ll_bus.h ****   *         @arg @ref LL_APB2_GRP1_PERIPH_TIM16
 783:Drivers/STM32G0xx_HAL_Driver/Inc/stm32g0xx_ll_bus.h ****   *         @arg @ref LL_APB2_GRP1_PERIPH_TIM17
 784:Drivers/STM32G0xx_HAL_Driver/Inc/stm32g0xx_ll_bus.h ****   *         @arg @ref LL_APB2_GRP1_PERIPH_ADC
 785:Drivers/STM32G0xx_HAL_Driver/Inc/stm32g0xx_ll_bus.h ****   * @note (*) peripheral not available on all devices
 786:Drivers/STM32G0xx_HAL_Driver/Inc/stm32g0xx_ll_bus.h ****   * @retval None
 787:Drivers/STM32G0xx_HAL_Driver/Inc/stm32g0xx_ll_bus.h **** */
 788:Drivers/STM32G0xx_HAL_Driver/Inc/stm32g0xx_ll_bus.h **** __STATIC_INLINE void LL_APB2_GRP1_EnableClock(uint32_t Periphs)
  36              		.loc 2 788 22 view .LVU2
  37              	.LVL0:
  38              	.LBB61:
 789:Drivers/STM32G0xx_HAL_Driver/Inc/stm32g0xx_ll_bus.h **** {
 790:Drivers/STM32G0xx_HAL_Driver/Inc/stm32g0xx_ll_bus.h ****   __IO uint32_t tmpreg;
  39              		.loc 2 790 3 view .LVU3
 791:Drivers/STM32G0xx_HAL_Driver/Inc/stm32g0xx_ll_bus.h ****   SET_BIT(RCC->APBENR2, Periphs);
  40              		.loc 2 791 3 view .LVU4
  41              	.LBE61:
  42              	.LBE60:
  48:Middlewares/ST/STM32_USBPD_Library/Devices/STM32G0XX/src/usbpd_timersserver.c ****   TIMX_CLK_ENABLE;
  43              		.loc 1 48 1 is_stmt 0 view .LVU5
  44 0000 73B5     		push	{r0, r1, r4, r5, r6, lr}
  45              	.LCFI0:
  46              		.cfi_def_cfa_offset 24
  47              		.cfi_offset 0, -24
  48              		.cfi_offset 1, -20
  49              		.cfi_offset 4, -16
  50              		.cfi_offset 5, -12
  51              		.cfi_offset 6, -8
  52              		.cfi_offset 14, -4
  53              	.LBB65:
  54              	.LBB62:
  55              		.loc 2 791 3 view .LVU6
  56 0002 8020     		movs	r0, #128
  57 0004 2A4A     		ldr	r2, .L6
  58 0006 0001     		lsls	r0, r0, #4
  59 0008 116C     		ldr	r1, [r2, #64]
  60              	.LBE62:
  61              	.LBE65:
  62              	.LBB66:
  63              	.LBB67:
  64              		.file 3 "Drivers/STM32G0xx_HAL_Driver/Inc/stm32g0xx_ll_tim.h"
   1:Drivers/STM32G0xx_HAL_Driver/Inc/stm32g0xx_ll_tim.h **** /**
   2:Drivers/STM32G0xx_HAL_Driver/Inc/stm32g0xx_ll_tim.h ****   ******************************************************************************
   3:Drivers/STM32G0xx_HAL_Driver/Inc/stm32g0xx_ll_tim.h ****   * @file    stm32g0xx_ll_tim.h
   4:Drivers/STM32G0xx_HAL_Driver/Inc/stm32g0xx_ll_tim.h ****   * @author  MCD Application Team
   5:Drivers/STM32G0xx_HAL_Driver/Inc/stm32g0xx_ll_tim.h ****   * @brief   Header file of TIM LL module.
   6:Drivers/STM32G0xx_HAL_Driver/Inc/stm32g0xx_ll_tim.h ****   ******************************************************************************
   7:Drivers/STM32G0xx_HAL_Driver/Inc/stm32g0xx_ll_tim.h ****   * @attention
   8:Drivers/STM32G0xx_HAL_Driver/Inc/stm32g0xx_ll_tim.h ****   *
ARM GAS  /tmp/ccHKcJQI.s 			page 17


   9:Drivers/STM32G0xx_HAL_Driver/Inc/stm32g0xx_ll_tim.h ****   * <h2><center>&copy; Copyright (c) 2018 STMicroelectronics.
  10:Drivers/STM32G0xx_HAL_Driver/Inc/stm32g0xx_ll_tim.h ****   * All rights reserved.</center></h2>
  11:Drivers/STM32G0xx_HAL_Driver/Inc/stm32g0xx_ll_tim.h ****   *
  12:Drivers/STM32G0xx_HAL_Driver/Inc/stm32g0xx_ll_tim.h ****   * This software component is licensed by ST under BSD 3-Clause license,
  13:Drivers/STM32G0xx_HAL_Driver/Inc/stm32g0xx_ll_tim.h ****   * the "License"; You may not use this file except in compliance with the
  14:Drivers/STM32G0xx_HAL_Driver/Inc/stm32g0xx_ll_tim.h ****   * License. You may obtain a copy of the License at:
  15:Drivers/STM32G0xx_HAL_Driver/Inc/stm32g0xx_ll_tim.h ****   *                        opensource.org/licenses/BSD-3-Clause
  16:Drivers/STM32G0xx_HAL_Driver/Inc/stm32g0xx_ll_tim.h ****   *
  17:Drivers/STM32G0xx_HAL_Driver/Inc/stm32g0xx_ll_tim.h ****   ******************************************************************************
  18:Drivers/STM32G0xx_HAL_Driver/Inc/stm32g0xx_ll_tim.h ****   */
  19:Drivers/STM32G0xx_HAL_Driver/Inc/stm32g0xx_ll_tim.h **** 
  20:Drivers/STM32G0xx_HAL_Driver/Inc/stm32g0xx_ll_tim.h **** /* Define to prevent recursive inclusion -------------------------------------*/
  21:Drivers/STM32G0xx_HAL_Driver/Inc/stm32g0xx_ll_tim.h **** #ifndef __STM32G0xx_LL_TIM_H
  22:Drivers/STM32G0xx_HAL_Driver/Inc/stm32g0xx_ll_tim.h **** #define __STM32G0xx_LL_TIM_H
  23:Drivers/STM32G0xx_HAL_Driver/Inc/stm32g0xx_ll_tim.h **** 
  24:Drivers/STM32G0xx_HAL_Driver/Inc/stm32g0xx_ll_tim.h **** #ifdef __cplusplus
  25:Drivers/STM32G0xx_HAL_Driver/Inc/stm32g0xx_ll_tim.h **** extern "C" {
  26:Drivers/STM32G0xx_HAL_Driver/Inc/stm32g0xx_ll_tim.h **** #endif
  27:Drivers/STM32G0xx_HAL_Driver/Inc/stm32g0xx_ll_tim.h **** 
  28:Drivers/STM32G0xx_HAL_Driver/Inc/stm32g0xx_ll_tim.h **** /* Includes ------------------------------------------------------------------*/
  29:Drivers/STM32G0xx_HAL_Driver/Inc/stm32g0xx_ll_tim.h **** #include "stm32g0xx.h"
  30:Drivers/STM32G0xx_HAL_Driver/Inc/stm32g0xx_ll_tim.h **** 
  31:Drivers/STM32G0xx_HAL_Driver/Inc/stm32g0xx_ll_tim.h **** /** @addtogroup STM32G0xx_LL_Driver
  32:Drivers/STM32G0xx_HAL_Driver/Inc/stm32g0xx_ll_tim.h ****   * @{
  33:Drivers/STM32G0xx_HAL_Driver/Inc/stm32g0xx_ll_tim.h ****   */
  34:Drivers/STM32G0xx_HAL_Driver/Inc/stm32g0xx_ll_tim.h **** 
  35:Drivers/STM32G0xx_HAL_Driver/Inc/stm32g0xx_ll_tim.h **** #if defined (TIM1) || defined (TIM2) || defined (TIM3) ||  defined (TIM14) ||  defined (TIM15) || d
  36:Drivers/STM32G0xx_HAL_Driver/Inc/stm32g0xx_ll_tim.h **** 
  37:Drivers/STM32G0xx_HAL_Driver/Inc/stm32g0xx_ll_tim.h **** /** @defgroup TIM_LL TIM
  38:Drivers/STM32G0xx_HAL_Driver/Inc/stm32g0xx_ll_tim.h ****   * @{
  39:Drivers/STM32G0xx_HAL_Driver/Inc/stm32g0xx_ll_tim.h ****   */
  40:Drivers/STM32G0xx_HAL_Driver/Inc/stm32g0xx_ll_tim.h **** 
  41:Drivers/STM32G0xx_HAL_Driver/Inc/stm32g0xx_ll_tim.h **** /* Private types -------------------------------------------------------------*/
  42:Drivers/STM32G0xx_HAL_Driver/Inc/stm32g0xx_ll_tim.h **** /* Private variables ---------------------------------------------------------*/
  43:Drivers/STM32G0xx_HAL_Driver/Inc/stm32g0xx_ll_tim.h **** /** @defgroup TIM_LL_Private_Variables TIM Private Variables
  44:Drivers/STM32G0xx_HAL_Driver/Inc/stm32g0xx_ll_tim.h ****   * @{
  45:Drivers/STM32G0xx_HAL_Driver/Inc/stm32g0xx_ll_tim.h ****   */
  46:Drivers/STM32G0xx_HAL_Driver/Inc/stm32g0xx_ll_tim.h **** static const uint8_t OFFSET_TAB_CCMRx[] =
  47:Drivers/STM32G0xx_HAL_Driver/Inc/stm32g0xx_ll_tim.h **** {
  48:Drivers/STM32G0xx_HAL_Driver/Inc/stm32g0xx_ll_tim.h ****   0x00U,   /* 0: TIMx_CH1  */
  49:Drivers/STM32G0xx_HAL_Driver/Inc/stm32g0xx_ll_tim.h ****   0x00U,   /* 1: TIMx_CH1N */
  50:Drivers/STM32G0xx_HAL_Driver/Inc/stm32g0xx_ll_tim.h ****   0x00U,   /* 2: TIMx_CH2  */
  51:Drivers/STM32G0xx_HAL_Driver/Inc/stm32g0xx_ll_tim.h ****   0x00U,   /* 3: TIMx_CH2N */
  52:Drivers/STM32G0xx_HAL_Driver/Inc/stm32g0xx_ll_tim.h ****   0x04U,   /* 4: TIMx_CH3  */
  53:Drivers/STM32G0xx_HAL_Driver/Inc/stm32g0xx_ll_tim.h ****   0x04U,   /* 5: TIMx_CH3N */
  54:Drivers/STM32G0xx_HAL_Driver/Inc/stm32g0xx_ll_tim.h ****   0x04U,   /* 6: TIMx_CH4  */
  55:Drivers/STM32G0xx_HAL_Driver/Inc/stm32g0xx_ll_tim.h ****   0x3CU,   /* 7: TIMx_CH5  */
  56:Drivers/STM32G0xx_HAL_Driver/Inc/stm32g0xx_ll_tim.h ****   0x3CU    /* 8: TIMx_CH6  */
  57:Drivers/STM32G0xx_HAL_Driver/Inc/stm32g0xx_ll_tim.h **** };
  58:Drivers/STM32G0xx_HAL_Driver/Inc/stm32g0xx_ll_tim.h **** 
  59:Drivers/STM32G0xx_HAL_Driver/Inc/stm32g0xx_ll_tim.h **** static const uint8_t SHIFT_TAB_OCxx[] =
  60:Drivers/STM32G0xx_HAL_Driver/Inc/stm32g0xx_ll_tim.h **** {
  61:Drivers/STM32G0xx_HAL_Driver/Inc/stm32g0xx_ll_tim.h ****   0U,            /* 0: OC1M, OC1FE, OC1PE */
  62:Drivers/STM32G0xx_HAL_Driver/Inc/stm32g0xx_ll_tim.h ****   0U,            /* 1: - NA */
  63:Drivers/STM32G0xx_HAL_Driver/Inc/stm32g0xx_ll_tim.h ****   8U,            /* 2: OC2M, OC2FE, OC2PE */
  64:Drivers/STM32G0xx_HAL_Driver/Inc/stm32g0xx_ll_tim.h ****   0U,            /* 3: - NA */
  65:Drivers/STM32G0xx_HAL_Driver/Inc/stm32g0xx_ll_tim.h ****   0U,            /* 4: OC3M, OC3FE, OC3PE */
ARM GAS  /tmp/ccHKcJQI.s 			page 18


  66:Drivers/STM32G0xx_HAL_Driver/Inc/stm32g0xx_ll_tim.h ****   0U,            /* 5: - NA */
  67:Drivers/STM32G0xx_HAL_Driver/Inc/stm32g0xx_ll_tim.h ****   8U,            /* 6: OC4M, OC4FE, OC4PE */
  68:Drivers/STM32G0xx_HAL_Driver/Inc/stm32g0xx_ll_tim.h ****   0U,            /* 7: OC5M, OC5FE, OC5PE */
  69:Drivers/STM32G0xx_HAL_Driver/Inc/stm32g0xx_ll_tim.h ****   8U             /* 8: OC6M, OC6FE, OC6PE */
  70:Drivers/STM32G0xx_HAL_Driver/Inc/stm32g0xx_ll_tim.h **** };
  71:Drivers/STM32G0xx_HAL_Driver/Inc/stm32g0xx_ll_tim.h **** 
  72:Drivers/STM32G0xx_HAL_Driver/Inc/stm32g0xx_ll_tim.h **** static const uint8_t SHIFT_TAB_ICxx[] =
  73:Drivers/STM32G0xx_HAL_Driver/Inc/stm32g0xx_ll_tim.h **** {
  74:Drivers/STM32G0xx_HAL_Driver/Inc/stm32g0xx_ll_tim.h ****   0U,            /* 0: CC1S, IC1PSC, IC1F */
  75:Drivers/STM32G0xx_HAL_Driver/Inc/stm32g0xx_ll_tim.h ****   0U,            /* 1: - NA */
  76:Drivers/STM32G0xx_HAL_Driver/Inc/stm32g0xx_ll_tim.h ****   8U,            /* 2: CC2S, IC2PSC, IC2F */
  77:Drivers/STM32G0xx_HAL_Driver/Inc/stm32g0xx_ll_tim.h ****   0U,            /* 3: - NA */
  78:Drivers/STM32G0xx_HAL_Driver/Inc/stm32g0xx_ll_tim.h ****   0U,            /* 4: CC3S, IC3PSC, IC3F */
  79:Drivers/STM32G0xx_HAL_Driver/Inc/stm32g0xx_ll_tim.h ****   0U,            /* 5: - NA */
  80:Drivers/STM32G0xx_HAL_Driver/Inc/stm32g0xx_ll_tim.h ****   8U,            /* 6: CC4S, IC4PSC, IC4F */
  81:Drivers/STM32G0xx_HAL_Driver/Inc/stm32g0xx_ll_tim.h ****   0U,            /* 7: - NA */
  82:Drivers/STM32G0xx_HAL_Driver/Inc/stm32g0xx_ll_tim.h ****   0U             /* 8: - NA */
  83:Drivers/STM32G0xx_HAL_Driver/Inc/stm32g0xx_ll_tim.h **** };
  84:Drivers/STM32G0xx_HAL_Driver/Inc/stm32g0xx_ll_tim.h **** 
  85:Drivers/STM32G0xx_HAL_Driver/Inc/stm32g0xx_ll_tim.h **** static const uint8_t SHIFT_TAB_CCxP[] =
  86:Drivers/STM32G0xx_HAL_Driver/Inc/stm32g0xx_ll_tim.h **** {
  87:Drivers/STM32G0xx_HAL_Driver/Inc/stm32g0xx_ll_tim.h ****   0U,            /* 0: CC1P */
  88:Drivers/STM32G0xx_HAL_Driver/Inc/stm32g0xx_ll_tim.h ****   2U,            /* 1: CC1NP */
  89:Drivers/STM32G0xx_HAL_Driver/Inc/stm32g0xx_ll_tim.h ****   4U,            /* 2: CC2P */
  90:Drivers/STM32G0xx_HAL_Driver/Inc/stm32g0xx_ll_tim.h ****   6U,            /* 3: CC2NP */
  91:Drivers/STM32G0xx_HAL_Driver/Inc/stm32g0xx_ll_tim.h ****   8U,            /* 4: CC3P */
  92:Drivers/STM32G0xx_HAL_Driver/Inc/stm32g0xx_ll_tim.h ****   10U,           /* 5: CC3NP */
  93:Drivers/STM32G0xx_HAL_Driver/Inc/stm32g0xx_ll_tim.h ****   12U,           /* 6: CC4P */
  94:Drivers/STM32G0xx_HAL_Driver/Inc/stm32g0xx_ll_tim.h ****   16U,           /* 7: CC5P */
  95:Drivers/STM32G0xx_HAL_Driver/Inc/stm32g0xx_ll_tim.h ****   20U            /* 8: CC6P */
  96:Drivers/STM32G0xx_HAL_Driver/Inc/stm32g0xx_ll_tim.h **** };
  97:Drivers/STM32G0xx_HAL_Driver/Inc/stm32g0xx_ll_tim.h **** 
  98:Drivers/STM32G0xx_HAL_Driver/Inc/stm32g0xx_ll_tim.h **** static const uint8_t SHIFT_TAB_OISx[] =
  99:Drivers/STM32G0xx_HAL_Driver/Inc/stm32g0xx_ll_tim.h **** {
 100:Drivers/STM32G0xx_HAL_Driver/Inc/stm32g0xx_ll_tim.h ****   0U,            /* 0: OIS1 */
 101:Drivers/STM32G0xx_HAL_Driver/Inc/stm32g0xx_ll_tim.h ****   1U,            /* 1: OIS1N */
 102:Drivers/STM32G0xx_HAL_Driver/Inc/stm32g0xx_ll_tim.h ****   2U,            /* 2: OIS2 */
 103:Drivers/STM32G0xx_HAL_Driver/Inc/stm32g0xx_ll_tim.h ****   3U,            /* 3: OIS2N */
 104:Drivers/STM32G0xx_HAL_Driver/Inc/stm32g0xx_ll_tim.h ****   4U,            /* 4: OIS3 */
 105:Drivers/STM32G0xx_HAL_Driver/Inc/stm32g0xx_ll_tim.h ****   5U,            /* 5: OIS3N */
 106:Drivers/STM32G0xx_HAL_Driver/Inc/stm32g0xx_ll_tim.h ****   6U,            /* 6: OIS4 */
 107:Drivers/STM32G0xx_HAL_Driver/Inc/stm32g0xx_ll_tim.h ****   8U,            /* 7: OIS5 */
 108:Drivers/STM32G0xx_HAL_Driver/Inc/stm32g0xx_ll_tim.h ****   10U            /* 8: OIS6 */
 109:Drivers/STM32G0xx_HAL_Driver/Inc/stm32g0xx_ll_tim.h **** };
 110:Drivers/STM32G0xx_HAL_Driver/Inc/stm32g0xx_ll_tim.h **** /**
 111:Drivers/STM32G0xx_HAL_Driver/Inc/stm32g0xx_ll_tim.h ****   * @}
 112:Drivers/STM32G0xx_HAL_Driver/Inc/stm32g0xx_ll_tim.h ****   */
 113:Drivers/STM32G0xx_HAL_Driver/Inc/stm32g0xx_ll_tim.h **** 
 114:Drivers/STM32G0xx_HAL_Driver/Inc/stm32g0xx_ll_tim.h **** /* Private constants ---------------------------------------------------------*/
 115:Drivers/STM32G0xx_HAL_Driver/Inc/stm32g0xx_ll_tim.h **** /** @defgroup TIM_LL_Private_Constants TIM Private Constants
 116:Drivers/STM32G0xx_HAL_Driver/Inc/stm32g0xx_ll_tim.h ****   * @{
 117:Drivers/STM32G0xx_HAL_Driver/Inc/stm32g0xx_ll_tim.h ****   */
 118:Drivers/STM32G0xx_HAL_Driver/Inc/stm32g0xx_ll_tim.h **** 
 119:Drivers/STM32G0xx_HAL_Driver/Inc/stm32g0xx_ll_tim.h **** /* Defines used for the bit position in the register and perform offsets */
 120:Drivers/STM32G0xx_HAL_Driver/Inc/stm32g0xx_ll_tim.h **** #define TIM_POSITION_BRK_SOURCE            ((Source >> 1U) & 0x1FUL)
 121:Drivers/STM32G0xx_HAL_Driver/Inc/stm32g0xx_ll_tim.h **** 
 122:Drivers/STM32G0xx_HAL_Driver/Inc/stm32g0xx_ll_tim.h **** /* Generic bit definitions for TIMx_AF1 register */
ARM GAS  /tmp/ccHKcJQI.s 			page 19


 123:Drivers/STM32G0xx_HAL_Driver/Inc/stm32g0xx_ll_tim.h **** #define TIMx_AF1_BKINE     TIM1_AF1_BKINE     /*!< BRK BKIN input enable */
 124:Drivers/STM32G0xx_HAL_Driver/Inc/stm32g0xx_ll_tim.h **** #if defined(COMP1) && defined(COMP2)
 125:Drivers/STM32G0xx_HAL_Driver/Inc/stm32g0xx_ll_tim.h **** #define TIMx_AF1_BKCOMP1E  TIM1_AF1_BKCMP1E   /*!< BRK COMP1 enable */
 126:Drivers/STM32G0xx_HAL_Driver/Inc/stm32g0xx_ll_tim.h **** #define TIMx_AF1_BKCOMP2E  TIM1_AF1_BKCMP2E   /*!< BRK COMP2 enable */
 127:Drivers/STM32G0xx_HAL_Driver/Inc/stm32g0xx_ll_tim.h **** #endif /* COMP1 && COMP2 */
 128:Drivers/STM32G0xx_HAL_Driver/Inc/stm32g0xx_ll_tim.h **** #define TIMx_AF1_BKINP     TIM1_AF1_BKINP     /*!< BRK BKIN input polarity */
 129:Drivers/STM32G0xx_HAL_Driver/Inc/stm32g0xx_ll_tim.h **** #if defined(COMP1) && defined(COMP2)
 130:Drivers/STM32G0xx_HAL_Driver/Inc/stm32g0xx_ll_tim.h **** #define TIMx_AF1_BKCOMP1P  TIM1_AF1_BKCMP1P   /*!< BRK COMP1 input polarity */
 131:Drivers/STM32G0xx_HAL_Driver/Inc/stm32g0xx_ll_tim.h **** #define TIMx_AF1_BKCOMP2P  TIM1_AF1_BKCMP2P   /*!< BRK COMP2 input polarity */
 132:Drivers/STM32G0xx_HAL_Driver/Inc/stm32g0xx_ll_tim.h **** #endif /* COMP1 && COMP2 */
 133:Drivers/STM32G0xx_HAL_Driver/Inc/stm32g0xx_ll_tim.h **** #define TIMx_AF1_ETRSEL    TIM1_AF1_ETRSEL    /*!< TIMx ETR source selection */
 134:Drivers/STM32G0xx_HAL_Driver/Inc/stm32g0xx_ll_tim.h **** 
 135:Drivers/STM32G0xx_HAL_Driver/Inc/stm32g0xx_ll_tim.h **** /* Generic bit definitions for TIMx_AF2 register */
 136:Drivers/STM32G0xx_HAL_Driver/Inc/stm32g0xx_ll_tim.h **** #define TIMx_AF2_BK2INE    TIM1_AF2_BK2INE      /*!< BRK2 BKIN2 input enable */
 137:Drivers/STM32G0xx_HAL_Driver/Inc/stm32g0xx_ll_tim.h **** #if defined(COMP1) && defined(COMP2)
 138:Drivers/STM32G0xx_HAL_Driver/Inc/stm32g0xx_ll_tim.h **** #define TIMx_AF2_BK2COMP1E TIM1_AF2_BK2CMP1E    /*!< BRK2 COMP1 enable */
 139:Drivers/STM32G0xx_HAL_Driver/Inc/stm32g0xx_ll_tim.h **** #define TIMx_AF2_BK2COMP2E TIM1_AF2_BK2CMP2E    /*!< BRK2 COMP2 enable */
 140:Drivers/STM32G0xx_HAL_Driver/Inc/stm32g0xx_ll_tim.h **** #endif /* COMP1 && COMP2 */
 141:Drivers/STM32G0xx_HAL_Driver/Inc/stm32g0xx_ll_tim.h **** #define TIMx_AF2_BK2INP    TIM1_AF2_BK2INP      /*!< BRK2 BKIN2 input polarity */
 142:Drivers/STM32G0xx_HAL_Driver/Inc/stm32g0xx_ll_tim.h **** #if defined(COMP1) && defined(COMP2)
 143:Drivers/STM32G0xx_HAL_Driver/Inc/stm32g0xx_ll_tim.h **** #define TIMx_AF2_BK2COMP1P TIM1_AF2_BK2CMP1P    /*!< BRK2 COMP1 input polarity */
 144:Drivers/STM32G0xx_HAL_Driver/Inc/stm32g0xx_ll_tim.h **** #define TIMx_AF2_BK2COMP2P TIM1_AF2_BK2CMP2P    /*!< BRK2 COMP2 input polarity */
 145:Drivers/STM32G0xx_HAL_Driver/Inc/stm32g0xx_ll_tim.h **** 
 146:Drivers/STM32G0xx_HAL_Driver/Inc/stm32g0xx_ll_tim.h **** #endif /* COMP1 && COMP2 */
 147:Drivers/STM32G0xx_HAL_Driver/Inc/stm32g0xx_ll_tim.h **** 
 148:Drivers/STM32G0xx_HAL_Driver/Inc/stm32g0xx_ll_tim.h **** 
 149:Drivers/STM32G0xx_HAL_Driver/Inc/stm32g0xx_ll_tim.h **** /* Mask used to set the TDG[x:0] of the DTG bits of the TIMx_BDTR register */
 150:Drivers/STM32G0xx_HAL_Driver/Inc/stm32g0xx_ll_tim.h **** #define DT_DELAY_1 ((uint8_t)0x7F)
 151:Drivers/STM32G0xx_HAL_Driver/Inc/stm32g0xx_ll_tim.h **** #define DT_DELAY_2 ((uint8_t)0x3F)
 152:Drivers/STM32G0xx_HAL_Driver/Inc/stm32g0xx_ll_tim.h **** #define DT_DELAY_3 ((uint8_t)0x1F)
 153:Drivers/STM32G0xx_HAL_Driver/Inc/stm32g0xx_ll_tim.h **** #define DT_DELAY_4 ((uint8_t)0x1F)
 154:Drivers/STM32G0xx_HAL_Driver/Inc/stm32g0xx_ll_tim.h **** 
 155:Drivers/STM32G0xx_HAL_Driver/Inc/stm32g0xx_ll_tim.h **** /* Mask used to set the DTG[7:5] bits of the DTG bits of the TIMx_BDTR register */
 156:Drivers/STM32G0xx_HAL_Driver/Inc/stm32g0xx_ll_tim.h **** #define DT_RANGE_1 ((uint8_t)0x00)
 157:Drivers/STM32G0xx_HAL_Driver/Inc/stm32g0xx_ll_tim.h **** #define DT_RANGE_2 ((uint8_t)0x80)
 158:Drivers/STM32G0xx_HAL_Driver/Inc/stm32g0xx_ll_tim.h **** #define DT_RANGE_3 ((uint8_t)0xC0)
 159:Drivers/STM32G0xx_HAL_Driver/Inc/stm32g0xx_ll_tim.h **** #define DT_RANGE_4 ((uint8_t)0xE0)
 160:Drivers/STM32G0xx_HAL_Driver/Inc/stm32g0xx_ll_tim.h **** 
 161:Drivers/STM32G0xx_HAL_Driver/Inc/stm32g0xx_ll_tim.h **** /** Legacy definitions for compatibility purpose
 162:Drivers/STM32G0xx_HAL_Driver/Inc/stm32g0xx_ll_tim.h **** @cond 0
 163:Drivers/STM32G0xx_HAL_Driver/Inc/stm32g0xx_ll_tim.h ****   */
 164:Drivers/STM32G0xx_HAL_Driver/Inc/stm32g0xx_ll_tim.h **** /**
 165:Drivers/STM32G0xx_HAL_Driver/Inc/stm32g0xx_ll_tim.h **** @endcond
 166:Drivers/STM32G0xx_HAL_Driver/Inc/stm32g0xx_ll_tim.h ****   */
 167:Drivers/STM32G0xx_HAL_Driver/Inc/stm32g0xx_ll_tim.h **** 
 168:Drivers/STM32G0xx_HAL_Driver/Inc/stm32g0xx_ll_tim.h **** #define OCREF_CLEAR_SELECT_Pos (16U)
 169:Drivers/STM32G0xx_HAL_Driver/Inc/stm32g0xx_ll_tim.h **** #define OCREF_CLEAR_SELECT_Msk (0x1U << OCREF_CLEAR_SELECT_Pos)                /*!< 0x00010000 */
 170:Drivers/STM32G0xx_HAL_Driver/Inc/stm32g0xx_ll_tim.h **** /**
 171:Drivers/STM32G0xx_HAL_Driver/Inc/stm32g0xx_ll_tim.h ****   * @}
 172:Drivers/STM32G0xx_HAL_Driver/Inc/stm32g0xx_ll_tim.h ****   */
 173:Drivers/STM32G0xx_HAL_Driver/Inc/stm32g0xx_ll_tim.h **** 
 174:Drivers/STM32G0xx_HAL_Driver/Inc/stm32g0xx_ll_tim.h **** /* Private macros ------------------------------------------------------------*/
 175:Drivers/STM32G0xx_HAL_Driver/Inc/stm32g0xx_ll_tim.h **** /** @defgroup TIM_LL_Private_Macros TIM Private Macros
 176:Drivers/STM32G0xx_HAL_Driver/Inc/stm32g0xx_ll_tim.h ****   * @{
 177:Drivers/STM32G0xx_HAL_Driver/Inc/stm32g0xx_ll_tim.h ****   */
 178:Drivers/STM32G0xx_HAL_Driver/Inc/stm32g0xx_ll_tim.h **** /** @brief  Convert channel id into channel index.
 179:Drivers/STM32G0xx_HAL_Driver/Inc/stm32g0xx_ll_tim.h ****   * @param  __CHANNEL__ This parameter can be one of the following values:
ARM GAS  /tmp/ccHKcJQI.s 			page 20


 180:Drivers/STM32G0xx_HAL_Driver/Inc/stm32g0xx_ll_tim.h ****   *         @arg @ref LL_TIM_CHANNEL_CH1
 181:Drivers/STM32G0xx_HAL_Driver/Inc/stm32g0xx_ll_tim.h ****   *         @arg @ref LL_TIM_CHANNEL_CH1N
 182:Drivers/STM32G0xx_HAL_Driver/Inc/stm32g0xx_ll_tim.h ****   *         @arg @ref LL_TIM_CHANNEL_CH2
 183:Drivers/STM32G0xx_HAL_Driver/Inc/stm32g0xx_ll_tim.h ****   *         @arg @ref LL_TIM_CHANNEL_CH2N
 184:Drivers/STM32G0xx_HAL_Driver/Inc/stm32g0xx_ll_tim.h ****   *         @arg @ref LL_TIM_CHANNEL_CH3
 185:Drivers/STM32G0xx_HAL_Driver/Inc/stm32g0xx_ll_tim.h ****   *         @arg @ref LL_TIM_CHANNEL_CH3N
 186:Drivers/STM32G0xx_HAL_Driver/Inc/stm32g0xx_ll_tim.h ****   *         @arg @ref LL_TIM_CHANNEL_CH4
 187:Drivers/STM32G0xx_HAL_Driver/Inc/stm32g0xx_ll_tim.h ****   *         @arg @ref LL_TIM_CHANNEL_CH5
 188:Drivers/STM32G0xx_HAL_Driver/Inc/stm32g0xx_ll_tim.h ****   *         @arg @ref LL_TIM_CHANNEL_CH6
 189:Drivers/STM32G0xx_HAL_Driver/Inc/stm32g0xx_ll_tim.h ****   * @retval none
 190:Drivers/STM32G0xx_HAL_Driver/Inc/stm32g0xx_ll_tim.h ****   */
 191:Drivers/STM32G0xx_HAL_Driver/Inc/stm32g0xx_ll_tim.h **** #define TIM_GET_CHANNEL_INDEX( __CHANNEL__) \
 192:Drivers/STM32G0xx_HAL_Driver/Inc/stm32g0xx_ll_tim.h ****   (((__CHANNEL__) == LL_TIM_CHANNEL_CH1) ? 0U :\
 193:Drivers/STM32G0xx_HAL_Driver/Inc/stm32g0xx_ll_tim.h ****    ((__CHANNEL__) == LL_TIM_CHANNEL_CH1N) ? 1U :\
 194:Drivers/STM32G0xx_HAL_Driver/Inc/stm32g0xx_ll_tim.h ****    ((__CHANNEL__) == LL_TIM_CHANNEL_CH2) ? 2U :\
 195:Drivers/STM32G0xx_HAL_Driver/Inc/stm32g0xx_ll_tim.h ****    ((__CHANNEL__) == LL_TIM_CHANNEL_CH2N) ? 3U :\
 196:Drivers/STM32G0xx_HAL_Driver/Inc/stm32g0xx_ll_tim.h ****    ((__CHANNEL__) == LL_TIM_CHANNEL_CH3) ? 4U :\
 197:Drivers/STM32G0xx_HAL_Driver/Inc/stm32g0xx_ll_tim.h ****    ((__CHANNEL__) == LL_TIM_CHANNEL_CH3N) ? 5U :\
 198:Drivers/STM32G0xx_HAL_Driver/Inc/stm32g0xx_ll_tim.h ****    ((__CHANNEL__) == LL_TIM_CHANNEL_CH4) ? 6U :\
 199:Drivers/STM32G0xx_HAL_Driver/Inc/stm32g0xx_ll_tim.h ****    ((__CHANNEL__) == LL_TIM_CHANNEL_CH5) ? 7U : 8U)
 200:Drivers/STM32G0xx_HAL_Driver/Inc/stm32g0xx_ll_tim.h **** 
 201:Drivers/STM32G0xx_HAL_Driver/Inc/stm32g0xx_ll_tim.h **** /** @brief  Calculate the deadtime sampling period(in ps).
 202:Drivers/STM32G0xx_HAL_Driver/Inc/stm32g0xx_ll_tim.h ****   * @param  __TIMCLK__ timer input clock frequency (in Hz).
 203:Drivers/STM32G0xx_HAL_Driver/Inc/stm32g0xx_ll_tim.h ****   * @param  __CKD__ This parameter can be one of the following values:
 204:Drivers/STM32G0xx_HAL_Driver/Inc/stm32g0xx_ll_tim.h ****   *         @arg @ref LL_TIM_CLOCKDIVISION_DIV1
 205:Drivers/STM32G0xx_HAL_Driver/Inc/stm32g0xx_ll_tim.h ****   *         @arg @ref LL_TIM_CLOCKDIVISION_DIV2
 206:Drivers/STM32G0xx_HAL_Driver/Inc/stm32g0xx_ll_tim.h ****   *         @arg @ref LL_TIM_CLOCKDIVISION_DIV4
 207:Drivers/STM32G0xx_HAL_Driver/Inc/stm32g0xx_ll_tim.h ****   * @retval none
 208:Drivers/STM32G0xx_HAL_Driver/Inc/stm32g0xx_ll_tim.h ****   */
 209:Drivers/STM32G0xx_HAL_Driver/Inc/stm32g0xx_ll_tim.h **** #define TIM_CALC_DTS(__TIMCLK__, __CKD__)                                                        \
 210:Drivers/STM32G0xx_HAL_Driver/Inc/stm32g0xx_ll_tim.h ****   (((__CKD__) == LL_TIM_CLOCKDIVISION_DIV1) ? ((uint64_t)1000000000000U/(__TIMCLK__))         : \
 211:Drivers/STM32G0xx_HAL_Driver/Inc/stm32g0xx_ll_tim.h ****    ((__CKD__) == LL_TIM_CLOCKDIVISION_DIV2) ? ((uint64_t)1000000000000U/((__TIMCLK__) >> 1U)) : \
 212:Drivers/STM32G0xx_HAL_Driver/Inc/stm32g0xx_ll_tim.h ****    ((uint64_t)1000000000000U/((__TIMCLK__) >> 2U)))
 213:Drivers/STM32G0xx_HAL_Driver/Inc/stm32g0xx_ll_tim.h **** /**
 214:Drivers/STM32G0xx_HAL_Driver/Inc/stm32g0xx_ll_tim.h ****   * @}
 215:Drivers/STM32G0xx_HAL_Driver/Inc/stm32g0xx_ll_tim.h ****   */
 216:Drivers/STM32G0xx_HAL_Driver/Inc/stm32g0xx_ll_tim.h **** 
 217:Drivers/STM32G0xx_HAL_Driver/Inc/stm32g0xx_ll_tim.h **** 
 218:Drivers/STM32G0xx_HAL_Driver/Inc/stm32g0xx_ll_tim.h **** /* Exported types ------------------------------------------------------------*/
 219:Drivers/STM32G0xx_HAL_Driver/Inc/stm32g0xx_ll_tim.h **** #if defined(USE_FULL_LL_DRIVER)
 220:Drivers/STM32G0xx_HAL_Driver/Inc/stm32g0xx_ll_tim.h **** /** @defgroup TIM_LL_ES_INIT TIM Exported Init structure
 221:Drivers/STM32G0xx_HAL_Driver/Inc/stm32g0xx_ll_tim.h ****   * @{
 222:Drivers/STM32G0xx_HAL_Driver/Inc/stm32g0xx_ll_tim.h ****   */
 223:Drivers/STM32G0xx_HAL_Driver/Inc/stm32g0xx_ll_tim.h **** 
 224:Drivers/STM32G0xx_HAL_Driver/Inc/stm32g0xx_ll_tim.h **** /**
 225:Drivers/STM32G0xx_HAL_Driver/Inc/stm32g0xx_ll_tim.h ****   * @brief  TIM Time Base configuration structure definition.
 226:Drivers/STM32G0xx_HAL_Driver/Inc/stm32g0xx_ll_tim.h ****   */
 227:Drivers/STM32G0xx_HAL_Driver/Inc/stm32g0xx_ll_tim.h **** typedef struct
 228:Drivers/STM32G0xx_HAL_Driver/Inc/stm32g0xx_ll_tim.h **** {
 229:Drivers/STM32G0xx_HAL_Driver/Inc/stm32g0xx_ll_tim.h ****   uint16_t Prescaler;         /*!< Specifies the prescaler value used to divide the TIM clock.
 230:Drivers/STM32G0xx_HAL_Driver/Inc/stm32g0xx_ll_tim.h ****                                    This parameter can be a number between Min_Data=0x0000 and Max_D
 231:Drivers/STM32G0xx_HAL_Driver/Inc/stm32g0xx_ll_tim.h **** 
 232:Drivers/STM32G0xx_HAL_Driver/Inc/stm32g0xx_ll_tim.h ****                                    This feature can be modified afterwards using unitary function @
 233:Drivers/STM32G0xx_HAL_Driver/Inc/stm32g0xx_ll_tim.h **** 
 234:Drivers/STM32G0xx_HAL_Driver/Inc/stm32g0xx_ll_tim.h ****   uint32_t CounterMode;       /*!< Specifies the counter mode.
 235:Drivers/STM32G0xx_HAL_Driver/Inc/stm32g0xx_ll_tim.h ****                                    This parameter can be a value of @ref TIM_LL_EC_COUNTERMODE.
 236:Drivers/STM32G0xx_HAL_Driver/Inc/stm32g0xx_ll_tim.h **** 
ARM GAS  /tmp/ccHKcJQI.s 			page 21


 237:Drivers/STM32G0xx_HAL_Driver/Inc/stm32g0xx_ll_tim.h ****                                    This feature can be modified afterwards using unitary function @
 238:Drivers/STM32G0xx_HAL_Driver/Inc/stm32g0xx_ll_tim.h **** 
 239:Drivers/STM32G0xx_HAL_Driver/Inc/stm32g0xx_ll_tim.h ****   uint32_t Autoreload;        /*!< Specifies the auto reload value to be loaded into the active
 240:Drivers/STM32G0xx_HAL_Driver/Inc/stm32g0xx_ll_tim.h ****                                    Auto-Reload Register at the next update event.
 241:Drivers/STM32G0xx_HAL_Driver/Inc/stm32g0xx_ll_tim.h ****                                    This parameter must be a number between Min_Data=0x0000 and Max_
 242:Drivers/STM32G0xx_HAL_Driver/Inc/stm32g0xx_ll_tim.h ****                                    Some timer instances may support 32 bits counters. In that case 
 243:Drivers/STM32G0xx_HAL_Driver/Inc/stm32g0xx_ll_tim.h **** 
 244:Drivers/STM32G0xx_HAL_Driver/Inc/stm32g0xx_ll_tim.h ****                                    This feature can be modified afterwards using unitary function @
 245:Drivers/STM32G0xx_HAL_Driver/Inc/stm32g0xx_ll_tim.h **** 
 246:Drivers/STM32G0xx_HAL_Driver/Inc/stm32g0xx_ll_tim.h ****   uint32_t ClockDivision;     /*!< Specifies the clock division.
 247:Drivers/STM32G0xx_HAL_Driver/Inc/stm32g0xx_ll_tim.h ****                                    This parameter can be a value of @ref TIM_LL_EC_CLOCKDIVISION.
 248:Drivers/STM32G0xx_HAL_Driver/Inc/stm32g0xx_ll_tim.h **** 
 249:Drivers/STM32G0xx_HAL_Driver/Inc/stm32g0xx_ll_tim.h ****                                    This feature can be modified afterwards using unitary function @
 250:Drivers/STM32G0xx_HAL_Driver/Inc/stm32g0xx_ll_tim.h **** 
 251:Drivers/STM32G0xx_HAL_Driver/Inc/stm32g0xx_ll_tim.h ****   uint8_t RepetitionCounter;  /*!< Specifies the repetition counter value. Each time the RCR downco
 252:Drivers/STM32G0xx_HAL_Driver/Inc/stm32g0xx_ll_tim.h ****                                    reaches zero, an update event is generated and counting restarts
 253:Drivers/STM32G0xx_HAL_Driver/Inc/stm32g0xx_ll_tim.h ****                                    from the RCR value (N).
 254:Drivers/STM32G0xx_HAL_Driver/Inc/stm32g0xx_ll_tim.h ****                                    This means in PWM mode that (N+1) corresponds to:
 255:Drivers/STM32G0xx_HAL_Driver/Inc/stm32g0xx_ll_tim.h ****                                       - the number of PWM periods in edge-aligned mode
 256:Drivers/STM32G0xx_HAL_Driver/Inc/stm32g0xx_ll_tim.h ****                                       - the number of half PWM period in center-aligned mode
 257:Drivers/STM32G0xx_HAL_Driver/Inc/stm32g0xx_ll_tim.h ****                                    This parameter must be a number between 0x00 and 0xFF.
 258:Drivers/STM32G0xx_HAL_Driver/Inc/stm32g0xx_ll_tim.h **** 
 259:Drivers/STM32G0xx_HAL_Driver/Inc/stm32g0xx_ll_tim.h ****                                    This feature can be modified afterwards using unitary function @
 260:Drivers/STM32G0xx_HAL_Driver/Inc/stm32g0xx_ll_tim.h **** } LL_TIM_InitTypeDef;
 261:Drivers/STM32G0xx_HAL_Driver/Inc/stm32g0xx_ll_tim.h **** 
 262:Drivers/STM32G0xx_HAL_Driver/Inc/stm32g0xx_ll_tim.h **** /**
 263:Drivers/STM32G0xx_HAL_Driver/Inc/stm32g0xx_ll_tim.h ****   * @brief  TIM Output Compare configuration structure definition.
 264:Drivers/STM32G0xx_HAL_Driver/Inc/stm32g0xx_ll_tim.h ****   */
 265:Drivers/STM32G0xx_HAL_Driver/Inc/stm32g0xx_ll_tim.h **** typedef struct
 266:Drivers/STM32G0xx_HAL_Driver/Inc/stm32g0xx_ll_tim.h **** {
 267:Drivers/STM32G0xx_HAL_Driver/Inc/stm32g0xx_ll_tim.h ****   uint32_t OCMode;        /*!< Specifies the output mode.
 268:Drivers/STM32G0xx_HAL_Driver/Inc/stm32g0xx_ll_tim.h ****                                This parameter can be a value of @ref TIM_LL_EC_OCMODE.
 269:Drivers/STM32G0xx_HAL_Driver/Inc/stm32g0xx_ll_tim.h **** 
 270:Drivers/STM32G0xx_HAL_Driver/Inc/stm32g0xx_ll_tim.h ****                                This feature can be modified afterwards using unitary function @ref 
 271:Drivers/STM32G0xx_HAL_Driver/Inc/stm32g0xx_ll_tim.h **** 
 272:Drivers/STM32G0xx_HAL_Driver/Inc/stm32g0xx_ll_tim.h ****   uint32_t OCState;       /*!< Specifies the TIM Output Compare state.
 273:Drivers/STM32G0xx_HAL_Driver/Inc/stm32g0xx_ll_tim.h ****                                This parameter can be a value of @ref TIM_LL_EC_OCSTATE.
 274:Drivers/STM32G0xx_HAL_Driver/Inc/stm32g0xx_ll_tim.h **** 
 275:Drivers/STM32G0xx_HAL_Driver/Inc/stm32g0xx_ll_tim.h ****                                This feature can be modified afterwards using unitary functions @ref
 276:Drivers/STM32G0xx_HAL_Driver/Inc/stm32g0xx_ll_tim.h **** 
 277:Drivers/STM32G0xx_HAL_Driver/Inc/stm32g0xx_ll_tim.h ****   uint32_t OCNState;      /*!< Specifies the TIM complementary Output Compare state.
 278:Drivers/STM32G0xx_HAL_Driver/Inc/stm32g0xx_ll_tim.h ****                                This parameter can be a value of @ref TIM_LL_EC_OCSTATE.
 279:Drivers/STM32G0xx_HAL_Driver/Inc/stm32g0xx_ll_tim.h **** 
 280:Drivers/STM32G0xx_HAL_Driver/Inc/stm32g0xx_ll_tim.h ****                                This feature can be modified afterwards using unitary functions @ref
 281:Drivers/STM32G0xx_HAL_Driver/Inc/stm32g0xx_ll_tim.h **** 
 282:Drivers/STM32G0xx_HAL_Driver/Inc/stm32g0xx_ll_tim.h ****   uint32_t CompareValue;  /*!< Specifies the Compare value to be loaded into the Capture Compare Re
 283:Drivers/STM32G0xx_HAL_Driver/Inc/stm32g0xx_ll_tim.h ****                                This parameter can be a number between Min_Data=0x0000 and Max_Data=
 284:Drivers/STM32G0xx_HAL_Driver/Inc/stm32g0xx_ll_tim.h **** 
 285:Drivers/STM32G0xx_HAL_Driver/Inc/stm32g0xx_ll_tim.h ****                                This feature can be modified afterwards using unitary function LL_TI
 286:Drivers/STM32G0xx_HAL_Driver/Inc/stm32g0xx_ll_tim.h **** 
 287:Drivers/STM32G0xx_HAL_Driver/Inc/stm32g0xx_ll_tim.h ****   uint32_t OCPolarity;    /*!< Specifies the output polarity.
 288:Drivers/STM32G0xx_HAL_Driver/Inc/stm32g0xx_ll_tim.h ****                                This parameter can be a value of @ref TIM_LL_EC_OCPOLARITY.
 289:Drivers/STM32G0xx_HAL_Driver/Inc/stm32g0xx_ll_tim.h **** 
 290:Drivers/STM32G0xx_HAL_Driver/Inc/stm32g0xx_ll_tim.h ****                                This feature can be modified afterwards using unitary function @ref 
 291:Drivers/STM32G0xx_HAL_Driver/Inc/stm32g0xx_ll_tim.h **** 
 292:Drivers/STM32G0xx_HAL_Driver/Inc/stm32g0xx_ll_tim.h ****   uint32_t OCNPolarity;   /*!< Specifies the complementary output polarity.
 293:Drivers/STM32G0xx_HAL_Driver/Inc/stm32g0xx_ll_tim.h ****                                This parameter can be a value of @ref TIM_LL_EC_OCPOLARITY.
ARM GAS  /tmp/ccHKcJQI.s 			page 22


 294:Drivers/STM32G0xx_HAL_Driver/Inc/stm32g0xx_ll_tim.h **** 
 295:Drivers/STM32G0xx_HAL_Driver/Inc/stm32g0xx_ll_tim.h ****                                This feature can be modified afterwards using unitary function @ref 
 296:Drivers/STM32G0xx_HAL_Driver/Inc/stm32g0xx_ll_tim.h **** 
 297:Drivers/STM32G0xx_HAL_Driver/Inc/stm32g0xx_ll_tim.h **** 
 298:Drivers/STM32G0xx_HAL_Driver/Inc/stm32g0xx_ll_tim.h ****   uint32_t OCIdleState;   /*!< Specifies the TIM Output Compare pin state during Idle state.
 299:Drivers/STM32G0xx_HAL_Driver/Inc/stm32g0xx_ll_tim.h ****                                This parameter can be a value of @ref TIM_LL_EC_OCIDLESTATE.
 300:Drivers/STM32G0xx_HAL_Driver/Inc/stm32g0xx_ll_tim.h **** 
 301:Drivers/STM32G0xx_HAL_Driver/Inc/stm32g0xx_ll_tim.h ****                                This feature can be modified afterwards using unitary function @ref 
 302:Drivers/STM32G0xx_HAL_Driver/Inc/stm32g0xx_ll_tim.h **** 
 303:Drivers/STM32G0xx_HAL_Driver/Inc/stm32g0xx_ll_tim.h ****   uint32_t OCNIdleState;  /*!< Specifies the TIM Output Compare pin state during Idle state.
 304:Drivers/STM32G0xx_HAL_Driver/Inc/stm32g0xx_ll_tim.h ****                                This parameter can be a value of @ref TIM_LL_EC_OCIDLESTATE.
 305:Drivers/STM32G0xx_HAL_Driver/Inc/stm32g0xx_ll_tim.h **** 
 306:Drivers/STM32G0xx_HAL_Driver/Inc/stm32g0xx_ll_tim.h ****                                This feature can be modified afterwards using unitary function @ref 
 307:Drivers/STM32G0xx_HAL_Driver/Inc/stm32g0xx_ll_tim.h **** } LL_TIM_OC_InitTypeDef;
 308:Drivers/STM32G0xx_HAL_Driver/Inc/stm32g0xx_ll_tim.h **** 
 309:Drivers/STM32G0xx_HAL_Driver/Inc/stm32g0xx_ll_tim.h **** /**
 310:Drivers/STM32G0xx_HAL_Driver/Inc/stm32g0xx_ll_tim.h ****   * @brief  TIM Input Capture configuration structure definition.
 311:Drivers/STM32G0xx_HAL_Driver/Inc/stm32g0xx_ll_tim.h ****   */
 312:Drivers/STM32G0xx_HAL_Driver/Inc/stm32g0xx_ll_tim.h **** 
 313:Drivers/STM32G0xx_HAL_Driver/Inc/stm32g0xx_ll_tim.h **** typedef struct
 314:Drivers/STM32G0xx_HAL_Driver/Inc/stm32g0xx_ll_tim.h **** {
 315:Drivers/STM32G0xx_HAL_Driver/Inc/stm32g0xx_ll_tim.h **** 
 316:Drivers/STM32G0xx_HAL_Driver/Inc/stm32g0xx_ll_tim.h ****   uint32_t ICPolarity;    /*!< Specifies the active edge of the input signal.
 317:Drivers/STM32G0xx_HAL_Driver/Inc/stm32g0xx_ll_tim.h ****                                This parameter can be a value of @ref TIM_LL_EC_IC_POLARITY.
 318:Drivers/STM32G0xx_HAL_Driver/Inc/stm32g0xx_ll_tim.h **** 
 319:Drivers/STM32G0xx_HAL_Driver/Inc/stm32g0xx_ll_tim.h ****                                This feature can be modified afterwards using unitary function @ref 
 320:Drivers/STM32G0xx_HAL_Driver/Inc/stm32g0xx_ll_tim.h **** 
 321:Drivers/STM32G0xx_HAL_Driver/Inc/stm32g0xx_ll_tim.h ****   uint32_t ICActiveInput; /*!< Specifies the input.
 322:Drivers/STM32G0xx_HAL_Driver/Inc/stm32g0xx_ll_tim.h ****                                This parameter can be a value of @ref TIM_LL_EC_ACTIVEINPUT.
 323:Drivers/STM32G0xx_HAL_Driver/Inc/stm32g0xx_ll_tim.h **** 
 324:Drivers/STM32G0xx_HAL_Driver/Inc/stm32g0xx_ll_tim.h ****                                This feature can be modified afterwards using unitary function @ref 
 325:Drivers/STM32G0xx_HAL_Driver/Inc/stm32g0xx_ll_tim.h **** 
 326:Drivers/STM32G0xx_HAL_Driver/Inc/stm32g0xx_ll_tim.h ****   uint32_t ICPrescaler;   /*!< Specifies the Input Capture Prescaler.
 327:Drivers/STM32G0xx_HAL_Driver/Inc/stm32g0xx_ll_tim.h ****                                This parameter can be a value of @ref TIM_LL_EC_ICPSC.
 328:Drivers/STM32G0xx_HAL_Driver/Inc/stm32g0xx_ll_tim.h **** 
 329:Drivers/STM32G0xx_HAL_Driver/Inc/stm32g0xx_ll_tim.h ****                                This feature can be modified afterwards using unitary function @ref 
 330:Drivers/STM32G0xx_HAL_Driver/Inc/stm32g0xx_ll_tim.h **** 
 331:Drivers/STM32G0xx_HAL_Driver/Inc/stm32g0xx_ll_tim.h ****   uint32_t ICFilter;      /*!< Specifies the input capture filter.
 332:Drivers/STM32G0xx_HAL_Driver/Inc/stm32g0xx_ll_tim.h ****                                This parameter can be a value of @ref TIM_LL_EC_IC_FILTER.
 333:Drivers/STM32G0xx_HAL_Driver/Inc/stm32g0xx_ll_tim.h **** 
 334:Drivers/STM32G0xx_HAL_Driver/Inc/stm32g0xx_ll_tim.h ****                                This feature can be modified afterwards using unitary function @ref 
 335:Drivers/STM32G0xx_HAL_Driver/Inc/stm32g0xx_ll_tim.h **** } LL_TIM_IC_InitTypeDef;
 336:Drivers/STM32G0xx_HAL_Driver/Inc/stm32g0xx_ll_tim.h **** 
 337:Drivers/STM32G0xx_HAL_Driver/Inc/stm32g0xx_ll_tim.h **** 
 338:Drivers/STM32G0xx_HAL_Driver/Inc/stm32g0xx_ll_tim.h **** /**
 339:Drivers/STM32G0xx_HAL_Driver/Inc/stm32g0xx_ll_tim.h ****   * @brief  TIM Encoder interface configuration structure definition.
 340:Drivers/STM32G0xx_HAL_Driver/Inc/stm32g0xx_ll_tim.h ****   */
 341:Drivers/STM32G0xx_HAL_Driver/Inc/stm32g0xx_ll_tim.h **** typedef struct
 342:Drivers/STM32G0xx_HAL_Driver/Inc/stm32g0xx_ll_tim.h **** {
 343:Drivers/STM32G0xx_HAL_Driver/Inc/stm32g0xx_ll_tim.h ****   uint32_t EncoderMode;     /*!< Specifies the encoder resolution (x2 or x4).
 344:Drivers/STM32G0xx_HAL_Driver/Inc/stm32g0xx_ll_tim.h ****                                  This parameter can be a value of @ref TIM_LL_EC_ENCODERMODE.
 345:Drivers/STM32G0xx_HAL_Driver/Inc/stm32g0xx_ll_tim.h **** 
 346:Drivers/STM32G0xx_HAL_Driver/Inc/stm32g0xx_ll_tim.h ****                                  This feature can be modified afterwards using unitary function @re
 347:Drivers/STM32G0xx_HAL_Driver/Inc/stm32g0xx_ll_tim.h **** 
 348:Drivers/STM32G0xx_HAL_Driver/Inc/stm32g0xx_ll_tim.h ****   uint32_t IC1Polarity;     /*!< Specifies the active edge of TI1 input.
 349:Drivers/STM32G0xx_HAL_Driver/Inc/stm32g0xx_ll_tim.h ****                                  This parameter can be a value of @ref TIM_LL_EC_IC_POLARITY.
 350:Drivers/STM32G0xx_HAL_Driver/Inc/stm32g0xx_ll_tim.h **** 
ARM GAS  /tmp/ccHKcJQI.s 			page 23


 351:Drivers/STM32G0xx_HAL_Driver/Inc/stm32g0xx_ll_tim.h ****                                  This feature can be modified afterwards using unitary function @re
 352:Drivers/STM32G0xx_HAL_Driver/Inc/stm32g0xx_ll_tim.h **** 
 353:Drivers/STM32G0xx_HAL_Driver/Inc/stm32g0xx_ll_tim.h ****   uint32_t IC1ActiveInput;  /*!< Specifies the TI1 input source
 354:Drivers/STM32G0xx_HAL_Driver/Inc/stm32g0xx_ll_tim.h ****                                  This parameter can be a value of @ref TIM_LL_EC_ACTIVEINPUT.
 355:Drivers/STM32G0xx_HAL_Driver/Inc/stm32g0xx_ll_tim.h **** 
 356:Drivers/STM32G0xx_HAL_Driver/Inc/stm32g0xx_ll_tim.h ****                                  This feature can be modified afterwards using unitary function @re
 357:Drivers/STM32G0xx_HAL_Driver/Inc/stm32g0xx_ll_tim.h **** 
 358:Drivers/STM32G0xx_HAL_Driver/Inc/stm32g0xx_ll_tim.h ****   uint32_t IC1Prescaler;    /*!< Specifies the TI1 input prescaler value.
 359:Drivers/STM32G0xx_HAL_Driver/Inc/stm32g0xx_ll_tim.h ****                                  This parameter can be a value of @ref TIM_LL_EC_ICPSC.
 360:Drivers/STM32G0xx_HAL_Driver/Inc/stm32g0xx_ll_tim.h **** 
 361:Drivers/STM32G0xx_HAL_Driver/Inc/stm32g0xx_ll_tim.h ****                                  This feature can be modified afterwards using unitary function @re
 362:Drivers/STM32G0xx_HAL_Driver/Inc/stm32g0xx_ll_tim.h **** 
 363:Drivers/STM32G0xx_HAL_Driver/Inc/stm32g0xx_ll_tim.h ****   uint32_t IC1Filter;       /*!< Specifies the TI1 input filter.
 364:Drivers/STM32G0xx_HAL_Driver/Inc/stm32g0xx_ll_tim.h ****                                  This parameter can be a value of @ref TIM_LL_EC_IC_FILTER.
 365:Drivers/STM32G0xx_HAL_Driver/Inc/stm32g0xx_ll_tim.h **** 
 366:Drivers/STM32G0xx_HAL_Driver/Inc/stm32g0xx_ll_tim.h ****                                  This feature can be modified afterwards using unitary function @re
 367:Drivers/STM32G0xx_HAL_Driver/Inc/stm32g0xx_ll_tim.h **** 
 368:Drivers/STM32G0xx_HAL_Driver/Inc/stm32g0xx_ll_tim.h ****   uint32_t IC2Polarity;      /*!< Specifies the active edge of TI2 input.
 369:Drivers/STM32G0xx_HAL_Driver/Inc/stm32g0xx_ll_tim.h ****                                  This parameter can be a value of @ref TIM_LL_EC_IC_POLARITY.
 370:Drivers/STM32G0xx_HAL_Driver/Inc/stm32g0xx_ll_tim.h **** 
 371:Drivers/STM32G0xx_HAL_Driver/Inc/stm32g0xx_ll_tim.h ****                                  This feature can be modified afterwards using unitary function @re
 372:Drivers/STM32G0xx_HAL_Driver/Inc/stm32g0xx_ll_tim.h **** 
 373:Drivers/STM32G0xx_HAL_Driver/Inc/stm32g0xx_ll_tim.h ****   uint32_t IC2ActiveInput;  /*!< Specifies the TI2 input source
 374:Drivers/STM32G0xx_HAL_Driver/Inc/stm32g0xx_ll_tim.h ****                                  This parameter can be a value of @ref TIM_LL_EC_ACTIVEINPUT.
 375:Drivers/STM32G0xx_HAL_Driver/Inc/stm32g0xx_ll_tim.h **** 
 376:Drivers/STM32G0xx_HAL_Driver/Inc/stm32g0xx_ll_tim.h ****                                  This feature can be modified afterwards using unitary function @re
 377:Drivers/STM32G0xx_HAL_Driver/Inc/stm32g0xx_ll_tim.h **** 
 378:Drivers/STM32G0xx_HAL_Driver/Inc/stm32g0xx_ll_tim.h ****   uint32_t IC2Prescaler;    /*!< Specifies the TI2 input prescaler value.
 379:Drivers/STM32G0xx_HAL_Driver/Inc/stm32g0xx_ll_tim.h ****                                  This parameter can be a value of @ref TIM_LL_EC_ICPSC.
 380:Drivers/STM32G0xx_HAL_Driver/Inc/stm32g0xx_ll_tim.h **** 
 381:Drivers/STM32G0xx_HAL_Driver/Inc/stm32g0xx_ll_tim.h ****                                  This feature can be modified afterwards using unitary function @re
 382:Drivers/STM32G0xx_HAL_Driver/Inc/stm32g0xx_ll_tim.h **** 
 383:Drivers/STM32G0xx_HAL_Driver/Inc/stm32g0xx_ll_tim.h ****   uint32_t IC2Filter;       /*!< Specifies the TI2 input filter.
 384:Drivers/STM32G0xx_HAL_Driver/Inc/stm32g0xx_ll_tim.h ****                                  This parameter can be a value of @ref TIM_LL_EC_IC_FILTER.
 385:Drivers/STM32G0xx_HAL_Driver/Inc/stm32g0xx_ll_tim.h **** 
 386:Drivers/STM32G0xx_HAL_Driver/Inc/stm32g0xx_ll_tim.h ****                                  This feature can be modified afterwards using unitary function @re
 387:Drivers/STM32G0xx_HAL_Driver/Inc/stm32g0xx_ll_tim.h **** 
 388:Drivers/STM32G0xx_HAL_Driver/Inc/stm32g0xx_ll_tim.h **** } LL_TIM_ENCODER_InitTypeDef;
 389:Drivers/STM32G0xx_HAL_Driver/Inc/stm32g0xx_ll_tim.h **** 
 390:Drivers/STM32G0xx_HAL_Driver/Inc/stm32g0xx_ll_tim.h **** /**
 391:Drivers/STM32G0xx_HAL_Driver/Inc/stm32g0xx_ll_tim.h ****   * @brief  TIM Hall sensor interface configuration structure definition.
 392:Drivers/STM32G0xx_HAL_Driver/Inc/stm32g0xx_ll_tim.h ****   */
 393:Drivers/STM32G0xx_HAL_Driver/Inc/stm32g0xx_ll_tim.h **** typedef struct
 394:Drivers/STM32G0xx_HAL_Driver/Inc/stm32g0xx_ll_tim.h **** {
 395:Drivers/STM32G0xx_HAL_Driver/Inc/stm32g0xx_ll_tim.h **** 
 396:Drivers/STM32G0xx_HAL_Driver/Inc/stm32g0xx_ll_tim.h ****   uint32_t IC1Polarity;        /*!< Specifies the active edge of TI1 input.
 397:Drivers/STM32G0xx_HAL_Driver/Inc/stm32g0xx_ll_tim.h ****                                     This parameter can be a value of @ref TIM_LL_EC_IC_POLARITY.
 398:Drivers/STM32G0xx_HAL_Driver/Inc/stm32g0xx_ll_tim.h **** 
 399:Drivers/STM32G0xx_HAL_Driver/Inc/stm32g0xx_ll_tim.h ****                                     This feature can be modified afterwards using unitary function 
 400:Drivers/STM32G0xx_HAL_Driver/Inc/stm32g0xx_ll_tim.h **** 
 401:Drivers/STM32G0xx_HAL_Driver/Inc/stm32g0xx_ll_tim.h ****   uint32_t IC1Prescaler;       /*!< Specifies the TI1 input prescaler value.
 402:Drivers/STM32G0xx_HAL_Driver/Inc/stm32g0xx_ll_tim.h ****                                     Prescaler must be set to get a maximum counter period longer th
 403:Drivers/STM32G0xx_HAL_Driver/Inc/stm32g0xx_ll_tim.h ****                                     time interval between 2 consecutive changes on the Hall inputs.
 404:Drivers/STM32G0xx_HAL_Driver/Inc/stm32g0xx_ll_tim.h ****                                     This parameter can be a value of @ref TIM_LL_EC_ICPSC.
 405:Drivers/STM32G0xx_HAL_Driver/Inc/stm32g0xx_ll_tim.h **** 
 406:Drivers/STM32G0xx_HAL_Driver/Inc/stm32g0xx_ll_tim.h ****                                     This feature can be modified afterwards using unitary function 
 407:Drivers/STM32G0xx_HAL_Driver/Inc/stm32g0xx_ll_tim.h **** 
ARM GAS  /tmp/ccHKcJQI.s 			page 24


 408:Drivers/STM32G0xx_HAL_Driver/Inc/stm32g0xx_ll_tim.h ****   uint32_t IC1Filter;          /*!< Specifies the TI1 input filter.
 409:Drivers/STM32G0xx_HAL_Driver/Inc/stm32g0xx_ll_tim.h ****                                     This parameter can be a value of @ref TIM_LL_EC_IC_FILTER.
 410:Drivers/STM32G0xx_HAL_Driver/Inc/stm32g0xx_ll_tim.h **** 
 411:Drivers/STM32G0xx_HAL_Driver/Inc/stm32g0xx_ll_tim.h ****                                     This feature can be modified afterwards using unitary function 
 412:Drivers/STM32G0xx_HAL_Driver/Inc/stm32g0xx_ll_tim.h **** 
 413:Drivers/STM32G0xx_HAL_Driver/Inc/stm32g0xx_ll_tim.h ****   uint32_t CommutationDelay;   /*!< Specifies the compare value to be loaded into the Capture Compa
 414:Drivers/STM32G0xx_HAL_Driver/Inc/stm32g0xx_ll_tim.h ****                                     A positive pulse (TRGO event) is generated with a programmable 
 415:Drivers/STM32G0xx_HAL_Driver/Inc/stm32g0xx_ll_tim.h ****                                     a change occurs on the Hall inputs.
 416:Drivers/STM32G0xx_HAL_Driver/Inc/stm32g0xx_ll_tim.h ****                                     This parameter can be a number between Min_Data = 0x0000 and Ma
 417:Drivers/STM32G0xx_HAL_Driver/Inc/stm32g0xx_ll_tim.h **** 
 418:Drivers/STM32G0xx_HAL_Driver/Inc/stm32g0xx_ll_tim.h ****                                     This feature can be modified afterwards using unitary function 
 419:Drivers/STM32G0xx_HAL_Driver/Inc/stm32g0xx_ll_tim.h **** } LL_TIM_HALLSENSOR_InitTypeDef;
 420:Drivers/STM32G0xx_HAL_Driver/Inc/stm32g0xx_ll_tim.h **** 
 421:Drivers/STM32G0xx_HAL_Driver/Inc/stm32g0xx_ll_tim.h **** /**
 422:Drivers/STM32G0xx_HAL_Driver/Inc/stm32g0xx_ll_tim.h ****   * @brief  BDTR (Break and Dead Time) structure definition
 423:Drivers/STM32G0xx_HAL_Driver/Inc/stm32g0xx_ll_tim.h ****   */
 424:Drivers/STM32G0xx_HAL_Driver/Inc/stm32g0xx_ll_tim.h **** typedef struct
 425:Drivers/STM32G0xx_HAL_Driver/Inc/stm32g0xx_ll_tim.h **** {
 426:Drivers/STM32G0xx_HAL_Driver/Inc/stm32g0xx_ll_tim.h ****   uint32_t OSSRState;            /*!< Specifies the Off-State selection used in Run mode.
 427:Drivers/STM32G0xx_HAL_Driver/Inc/stm32g0xx_ll_tim.h ****                                       This parameter can be a value of @ref TIM_LL_EC_OSSR
 428:Drivers/STM32G0xx_HAL_Driver/Inc/stm32g0xx_ll_tim.h **** 
 429:Drivers/STM32G0xx_HAL_Driver/Inc/stm32g0xx_ll_tim.h ****                                       This feature can be modified afterwards using unitary functio
 430:Drivers/STM32G0xx_HAL_Driver/Inc/stm32g0xx_ll_tim.h **** 
 431:Drivers/STM32G0xx_HAL_Driver/Inc/stm32g0xx_ll_tim.h ****                                       @note This bit-field cannot be modified as long as LOCK level
 432:Drivers/STM32G0xx_HAL_Driver/Inc/stm32g0xx_ll_tim.h **** 
 433:Drivers/STM32G0xx_HAL_Driver/Inc/stm32g0xx_ll_tim.h ****   uint32_t OSSIState;            /*!< Specifies the Off-State used in Idle state.
 434:Drivers/STM32G0xx_HAL_Driver/Inc/stm32g0xx_ll_tim.h ****                                       This parameter can be a value of @ref TIM_LL_EC_OSSI
 435:Drivers/STM32G0xx_HAL_Driver/Inc/stm32g0xx_ll_tim.h **** 
 436:Drivers/STM32G0xx_HAL_Driver/Inc/stm32g0xx_ll_tim.h ****                                       This feature can be modified afterwards using unitary functio
 437:Drivers/STM32G0xx_HAL_Driver/Inc/stm32g0xx_ll_tim.h **** 
 438:Drivers/STM32G0xx_HAL_Driver/Inc/stm32g0xx_ll_tim.h ****                                       @note This bit-field cannot be modified as long as LOCK level
 439:Drivers/STM32G0xx_HAL_Driver/Inc/stm32g0xx_ll_tim.h **** 
 440:Drivers/STM32G0xx_HAL_Driver/Inc/stm32g0xx_ll_tim.h ****   uint32_t LockLevel;            /*!< Specifies the LOCK level parameters.
 441:Drivers/STM32G0xx_HAL_Driver/Inc/stm32g0xx_ll_tim.h ****                                       This parameter can be a value of @ref TIM_LL_EC_LOCKLEVEL
 442:Drivers/STM32G0xx_HAL_Driver/Inc/stm32g0xx_ll_tim.h **** 
 443:Drivers/STM32G0xx_HAL_Driver/Inc/stm32g0xx_ll_tim.h ****                                       @note The LOCK bits can be written only once after the reset.
 444:Drivers/STM32G0xx_HAL_Driver/Inc/stm32g0xx_ll_tim.h ****                                             has been written, their content is frozen until the nex
 445:Drivers/STM32G0xx_HAL_Driver/Inc/stm32g0xx_ll_tim.h **** 
 446:Drivers/STM32G0xx_HAL_Driver/Inc/stm32g0xx_ll_tim.h ****   uint8_t DeadTime;              /*!< Specifies the delay time between the switching-off and the
 447:Drivers/STM32G0xx_HAL_Driver/Inc/stm32g0xx_ll_tim.h ****                                       switching-on of the outputs.
 448:Drivers/STM32G0xx_HAL_Driver/Inc/stm32g0xx_ll_tim.h ****                                       This parameter can be a number between Min_Data = 0x00 and Ma
 449:Drivers/STM32G0xx_HAL_Driver/Inc/stm32g0xx_ll_tim.h **** 
 450:Drivers/STM32G0xx_HAL_Driver/Inc/stm32g0xx_ll_tim.h ****                                       This feature can be modified afterwards using unitary functio
 451:Drivers/STM32G0xx_HAL_Driver/Inc/stm32g0xx_ll_tim.h **** 
 452:Drivers/STM32G0xx_HAL_Driver/Inc/stm32g0xx_ll_tim.h ****                                       @note This bit-field can not be modified as long as LOCK leve
 453:Drivers/STM32G0xx_HAL_Driver/Inc/stm32g0xx_ll_tim.h **** 
 454:Drivers/STM32G0xx_HAL_Driver/Inc/stm32g0xx_ll_tim.h ****   uint16_t BreakState;           /*!< Specifies whether the TIM Break input is enabled or not.
 455:Drivers/STM32G0xx_HAL_Driver/Inc/stm32g0xx_ll_tim.h ****                                       This parameter can be a value of @ref TIM_LL_EC_BREAK_ENABLE
 456:Drivers/STM32G0xx_HAL_Driver/Inc/stm32g0xx_ll_tim.h **** 
 457:Drivers/STM32G0xx_HAL_Driver/Inc/stm32g0xx_ll_tim.h ****                                       This feature can be modified afterwards using unitary functio
 458:Drivers/STM32G0xx_HAL_Driver/Inc/stm32g0xx_ll_tim.h **** 
 459:Drivers/STM32G0xx_HAL_Driver/Inc/stm32g0xx_ll_tim.h ****                                       @note This bit-field can not be modified as long as LOCK leve
 460:Drivers/STM32G0xx_HAL_Driver/Inc/stm32g0xx_ll_tim.h **** 
 461:Drivers/STM32G0xx_HAL_Driver/Inc/stm32g0xx_ll_tim.h ****   uint32_t BreakPolarity;        /*!< Specifies the TIM Break Input pin polarity.
 462:Drivers/STM32G0xx_HAL_Driver/Inc/stm32g0xx_ll_tim.h ****                                       This parameter can be a value of @ref TIM_LL_EC_BREAK_POLARIT
 463:Drivers/STM32G0xx_HAL_Driver/Inc/stm32g0xx_ll_tim.h **** 
 464:Drivers/STM32G0xx_HAL_Driver/Inc/stm32g0xx_ll_tim.h ****                                       This feature can be modified afterwards using unitary functio
ARM GAS  /tmp/ccHKcJQI.s 			page 25


 465:Drivers/STM32G0xx_HAL_Driver/Inc/stm32g0xx_ll_tim.h **** 
 466:Drivers/STM32G0xx_HAL_Driver/Inc/stm32g0xx_ll_tim.h ****                                       @note This bit-field can not be modified as long as LOCK leve
 467:Drivers/STM32G0xx_HAL_Driver/Inc/stm32g0xx_ll_tim.h **** 
 468:Drivers/STM32G0xx_HAL_Driver/Inc/stm32g0xx_ll_tim.h ****   uint32_t BreakFilter;          /*!< Specifies the TIM Break Filter.
 469:Drivers/STM32G0xx_HAL_Driver/Inc/stm32g0xx_ll_tim.h ****                                       This parameter can be a value of @ref TIM_LL_EC_BREAK_FILTER
 470:Drivers/STM32G0xx_HAL_Driver/Inc/stm32g0xx_ll_tim.h **** 
 471:Drivers/STM32G0xx_HAL_Driver/Inc/stm32g0xx_ll_tim.h ****                                       This feature can be modified afterwards using unitary functio
 472:Drivers/STM32G0xx_HAL_Driver/Inc/stm32g0xx_ll_tim.h **** 
 473:Drivers/STM32G0xx_HAL_Driver/Inc/stm32g0xx_ll_tim.h ****                                       @note This bit-field can not be modified as long as LOCK leve
 474:Drivers/STM32G0xx_HAL_Driver/Inc/stm32g0xx_ll_tim.h **** 
 475:Drivers/STM32G0xx_HAL_Driver/Inc/stm32g0xx_ll_tim.h ****   uint32_t BreakAFMode;           /*!< Specifies the alternate function mode of the break input.
 476:Drivers/STM32G0xx_HAL_Driver/Inc/stm32g0xx_ll_tim.h ****                                       This parameter can be a value of @ref TIM_LL_EC_BREAK_AFMODE
 477:Drivers/STM32G0xx_HAL_Driver/Inc/stm32g0xx_ll_tim.h **** 
 478:Drivers/STM32G0xx_HAL_Driver/Inc/stm32g0xx_ll_tim.h ****                                       This feature can be modified afterwards using unitary functio
 479:Drivers/STM32G0xx_HAL_Driver/Inc/stm32g0xx_ll_tim.h **** 
 480:Drivers/STM32G0xx_HAL_Driver/Inc/stm32g0xx_ll_tim.h ****                                       @note Bidirectional break input is only supported by advanced
 481:Drivers/STM32G0xx_HAL_Driver/Inc/stm32g0xx_ll_tim.h **** 
 482:Drivers/STM32G0xx_HAL_Driver/Inc/stm32g0xx_ll_tim.h ****                                       @note This bit-field can not be modified as long as LOCK leve
 483:Drivers/STM32G0xx_HAL_Driver/Inc/stm32g0xx_ll_tim.h **** 
 484:Drivers/STM32G0xx_HAL_Driver/Inc/stm32g0xx_ll_tim.h ****   uint32_t Break2State;          /*!< Specifies whether the TIM Break2 input is enabled or not.
 485:Drivers/STM32G0xx_HAL_Driver/Inc/stm32g0xx_ll_tim.h ****                                       This parameter can be a value of @ref TIM_LL_EC_BREAK2_ENABLE
 486:Drivers/STM32G0xx_HAL_Driver/Inc/stm32g0xx_ll_tim.h **** 
 487:Drivers/STM32G0xx_HAL_Driver/Inc/stm32g0xx_ll_tim.h ****                                       This feature can be modified afterwards using unitary functio
 488:Drivers/STM32G0xx_HAL_Driver/Inc/stm32g0xx_ll_tim.h **** 
 489:Drivers/STM32G0xx_HAL_Driver/Inc/stm32g0xx_ll_tim.h ****                                       @note This bit-field can not be modified as long as LOCK leve
 490:Drivers/STM32G0xx_HAL_Driver/Inc/stm32g0xx_ll_tim.h **** 
 491:Drivers/STM32G0xx_HAL_Driver/Inc/stm32g0xx_ll_tim.h ****   uint32_t Break2Polarity;        /*!< Specifies the TIM Break2 Input pin polarity.
 492:Drivers/STM32G0xx_HAL_Driver/Inc/stm32g0xx_ll_tim.h ****                                       This parameter can be a value of @ref TIM_LL_EC_BREAK2_POLARI
 493:Drivers/STM32G0xx_HAL_Driver/Inc/stm32g0xx_ll_tim.h **** 
 494:Drivers/STM32G0xx_HAL_Driver/Inc/stm32g0xx_ll_tim.h ****                                       This feature can be modified afterwards using unitary functio
 495:Drivers/STM32G0xx_HAL_Driver/Inc/stm32g0xx_ll_tim.h **** 
 496:Drivers/STM32G0xx_HAL_Driver/Inc/stm32g0xx_ll_tim.h ****                                       @note This bit-field can not be modified as long as LOCK leve
 497:Drivers/STM32G0xx_HAL_Driver/Inc/stm32g0xx_ll_tim.h **** 
 498:Drivers/STM32G0xx_HAL_Driver/Inc/stm32g0xx_ll_tim.h ****   uint32_t Break2Filter;          /*!< Specifies the TIM Break2 Filter.
 499:Drivers/STM32G0xx_HAL_Driver/Inc/stm32g0xx_ll_tim.h ****                                       This parameter can be a value of @ref TIM_LL_EC_BREAK2_FILTER
 500:Drivers/STM32G0xx_HAL_Driver/Inc/stm32g0xx_ll_tim.h **** 
 501:Drivers/STM32G0xx_HAL_Driver/Inc/stm32g0xx_ll_tim.h ****                                       This feature can be modified afterwards using unitary functio
 502:Drivers/STM32G0xx_HAL_Driver/Inc/stm32g0xx_ll_tim.h **** 
 503:Drivers/STM32G0xx_HAL_Driver/Inc/stm32g0xx_ll_tim.h ****                                       @note This bit-field can not be modified as long as LOCK leve
 504:Drivers/STM32G0xx_HAL_Driver/Inc/stm32g0xx_ll_tim.h **** 
 505:Drivers/STM32G0xx_HAL_Driver/Inc/stm32g0xx_ll_tim.h ****   uint32_t Break2AFMode;          /*!< Specifies the alternate function mode of the break2 input.
 506:Drivers/STM32G0xx_HAL_Driver/Inc/stm32g0xx_ll_tim.h ****                                       This parameter can be a value of @ref TIM_LL_EC_BREAK2_AFMODE
 507:Drivers/STM32G0xx_HAL_Driver/Inc/stm32g0xx_ll_tim.h **** 
 508:Drivers/STM32G0xx_HAL_Driver/Inc/stm32g0xx_ll_tim.h ****                                       This feature can be modified afterwards using unitary functio
 509:Drivers/STM32G0xx_HAL_Driver/Inc/stm32g0xx_ll_tim.h **** 
 510:Drivers/STM32G0xx_HAL_Driver/Inc/stm32g0xx_ll_tim.h ****                                       @note Bidirectional break input is only supported by advanced
 511:Drivers/STM32G0xx_HAL_Driver/Inc/stm32g0xx_ll_tim.h **** 
 512:Drivers/STM32G0xx_HAL_Driver/Inc/stm32g0xx_ll_tim.h ****                                       @note This bit-field can not be modified as long as LOCK leve
 513:Drivers/STM32G0xx_HAL_Driver/Inc/stm32g0xx_ll_tim.h **** 
 514:Drivers/STM32G0xx_HAL_Driver/Inc/stm32g0xx_ll_tim.h ****   uint32_t AutomaticOutput;      /*!< Specifies whether the TIM Automatic Output feature is enabled
 515:Drivers/STM32G0xx_HAL_Driver/Inc/stm32g0xx_ll_tim.h ****                                       This parameter can be a value of @ref TIM_LL_EC_AUTOMATICOUTP
 516:Drivers/STM32G0xx_HAL_Driver/Inc/stm32g0xx_ll_tim.h **** 
 517:Drivers/STM32G0xx_HAL_Driver/Inc/stm32g0xx_ll_tim.h ****                                       This feature can be modified afterwards using unitary functio
 518:Drivers/STM32G0xx_HAL_Driver/Inc/stm32g0xx_ll_tim.h **** 
 519:Drivers/STM32G0xx_HAL_Driver/Inc/stm32g0xx_ll_tim.h ****                                       @note This bit-field can not be modified as long as LOCK leve
 520:Drivers/STM32G0xx_HAL_Driver/Inc/stm32g0xx_ll_tim.h **** } LL_TIM_BDTR_InitTypeDef;
 521:Drivers/STM32G0xx_HAL_Driver/Inc/stm32g0xx_ll_tim.h **** 
ARM GAS  /tmp/ccHKcJQI.s 			page 26


 522:Drivers/STM32G0xx_HAL_Driver/Inc/stm32g0xx_ll_tim.h **** /**
 523:Drivers/STM32G0xx_HAL_Driver/Inc/stm32g0xx_ll_tim.h ****   * @}
 524:Drivers/STM32G0xx_HAL_Driver/Inc/stm32g0xx_ll_tim.h ****   */
 525:Drivers/STM32G0xx_HAL_Driver/Inc/stm32g0xx_ll_tim.h **** #endif /* USE_FULL_LL_DRIVER */
 526:Drivers/STM32G0xx_HAL_Driver/Inc/stm32g0xx_ll_tim.h **** 
 527:Drivers/STM32G0xx_HAL_Driver/Inc/stm32g0xx_ll_tim.h **** /* Exported constants --------------------------------------------------------*/
 528:Drivers/STM32G0xx_HAL_Driver/Inc/stm32g0xx_ll_tim.h **** /** @defgroup TIM_LL_Exported_Constants TIM Exported Constants
 529:Drivers/STM32G0xx_HAL_Driver/Inc/stm32g0xx_ll_tim.h ****   * @{
 530:Drivers/STM32G0xx_HAL_Driver/Inc/stm32g0xx_ll_tim.h ****   */
 531:Drivers/STM32G0xx_HAL_Driver/Inc/stm32g0xx_ll_tim.h **** 
 532:Drivers/STM32G0xx_HAL_Driver/Inc/stm32g0xx_ll_tim.h **** /** @defgroup TIM_LL_EC_GET_FLAG Get Flags Defines
 533:Drivers/STM32G0xx_HAL_Driver/Inc/stm32g0xx_ll_tim.h ****   * @brief    Flags defines which can be used with LL_TIM_ReadReg function.
 534:Drivers/STM32G0xx_HAL_Driver/Inc/stm32g0xx_ll_tim.h ****   * @{
 535:Drivers/STM32G0xx_HAL_Driver/Inc/stm32g0xx_ll_tim.h ****   */
 536:Drivers/STM32G0xx_HAL_Driver/Inc/stm32g0xx_ll_tim.h **** #define LL_TIM_SR_UIF                          TIM_SR_UIF           /*!< Update interrupt flag */
 537:Drivers/STM32G0xx_HAL_Driver/Inc/stm32g0xx_ll_tim.h **** #define LL_TIM_SR_CC1IF                        TIM_SR_CC1IF         /*!< Capture/compare 1 interrup
 538:Drivers/STM32G0xx_HAL_Driver/Inc/stm32g0xx_ll_tim.h **** #define LL_TIM_SR_CC2IF                        TIM_SR_CC2IF         /*!< Capture/compare 2 interrup
 539:Drivers/STM32G0xx_HAL_Driver/Inc/stm32g0xx_ll_tim.h **** #define LL_TIM_SR_CC3IF                        TIM_SR_CC3IF         /*!< Capture/compare 3 interrup
 540:Drivers/STM32G0xx_HAL_Driver/Inc/stm32g0xx_ll_tim.h **** #define LL_TIM_SR_CC4IF                        TIM_SR_CC4IF         /*!< Capture/compare 4 interrup
 541:Drivers/STM32G0xx_HAL_Driver/Inc/stm32g0xx_ll_tim.h **** #define LL_TIM_SR_CC5IF                        TIM_SR_CC5IF         /*!< Capture/compare 5 interrup
 542:Drivers/STM32G0xx_HAL_Driver/Inc/stm32g0xx_ll_tim.h **** #define LL_TIM_SR_CC6IF                        TIM_SR_CC6IF         /*!< Capture/compare 6 interrup
 543:Drivers/STM32G0xx_HAL_Driver/Inc/stm32g0xx_ll_tim.h **** #define LL_TIM_SR_COMIF                        TIM_SR_COMIF         /*!< COM interrupt flag */
 544:Drivers/STM32G0xx_HAL_Driver/Inc/stm32g0xx_ll_tim.h **** #define LL_TIM_SR_TIF                          TIM_SR_TIF           /*!< Trigger interrupt flag */
 545:Drivers/STM32G0xx_HAL_Driver/Inc/stm32g0xx_ll_tim.h **** #define LL_TIM_SR_BIF                          TIM_SR_BIF           /*!< Break interrupt flag */
 546:Drivers/STM32G0xx_HAL_Driver/Inc/stm32g0xx_ll_tim.h **** #define LL_TIM_SR_B2IF                         TIM_SR_B2IF          /*!< Second break interrupt fla
 547:Drivers/STM32G0xx_HAL_Driver/Inc/stm32g0xx_ll_tim.h **** #define LL_TIM_SR_CC1OF                        TIM_SR_CC1OF         /*!< Capture/Compare 1 overcapt
 548:Drivers/STM32G0xx_HAL_Driver/Inc/stm32g0xx_ll_tim.h **** #define LL_TIM_SR_CC2OF                        TIM_SR_CC2OF         /*!< Capture/Compare 2 overcapt
 549:Drivers/STM32G0xx_HAL_Driver/Inc/stm32g0xx_ll_tim.h **** #define LL_TIM_SR_CC3OF                        TIM_SR_CC3OF         /*!< Capture/Compare 3 overcapt
 550:Drivers/STM32G0xx_HAL_Driver/Inc/stm32g0xx_ll_tim.h **** #define LL_TIM_SR_CC4OF                        TIM_SR_CC4OF         /*!< Capture/Compare 4 overcapt
 551:Drivers/STM32G0xx_HAL_Driver/Inc/stm32g0xx_ll_tim.h **** #define LL_TIM_SR_SBIF                         TIM_SR_SBIF          /*!< System Break interrupt fla
 552:Drivers/STM32G0xx_HAL_Driver/Inc/stm32g0xx_ll_tim.h **** /**
 553:Drivers/STM32G0xx_HAL_Driver/Inc/stm32g0xx_ll_tim.h ****   * @}
 554:Drivers/STM32G0xx_HAL_Driver/Inc/stm32g0xx_ll_tim.h ****   */
 555:Drivers/STM32G0xx_HAL_Driver/Inc/stm32g0xx_ll_tim.h **** 
 556:Drivers/STM32G0xx_HAL_Driver/Inc/stm32g0xx_ll_tim.h **** #if defined(USE_FULL_LL_DRIVER)
 557:Drivers/STM32G0xx_HAL_Driver/Inc/stm32g0xx_ll_tim.h **** /** @defgroup TIM_LL_EC_BREAK_ENABLE Break Enable
 558:Drivers/STM32G0xx_HAL_Driver/Inc/stm32g0xx_ll_tim.h ****   * @{
 559:Drivers/STM32G0xx_HAL_Driver/Inc/stm32g0xx_ll_tim.h ****   */
 560:Drivers/STM32G0xx_HAL_Driver/Inc/stm32g0xx_ll_tim.h **** #define LL_TIM_BREAK_DISABLE            0x00000000U             /*!< Break function disabled */
 561:Drivers/STM32G0xx_HAL_Driver/Inc/stm32g0xx_ll_tim.h **** #define LL_TIM_BREAK_ENABLE             TIM_BDTR_BKE            /*!< Break function enabled */
 562:Drivers/STM32G0xx_HAL_Driver/Inc/stm32g0xx_ll_tim.h **** /**
 563:Drivers/STM32G0xx_HAL_Driver/Inc/stm32g0xx_ll_tim.h ****   * @}
 564:Drivers/STM32G0xx_HAL_Driver/Inc/stm32g0xx_ll_tim.h ****   */
 565:Drivers/STM32G0xx_HAL_Driver/Inc/stm32g0xx_ll_tim.h **** 
 566:Drivers/STM32G0xx_HAL_Driver/Inc/stm32g0xx_ll_tim.h **** /** @defgroup TIM_LL_EC_BREAK2_ENABLE Break2 Enable
 567:Drivers/STM32G0xx_HAL_Driver/Inc/stm32g0xx_ll_tim.h ****   * @{
 568:Drivers/STM32G0xx_HAL_Driver/Inc/stm32g0xx_ll_tim.h ****   */
 569:Drivers/STM32G0xx_HAL_Driver/Inc/stm32g0xx_ll_tim.h **** #define LL_TIM_BREAK2_DISABLE            0x00000000U              /*!< Break2 function disabled */
 570:Drivers/STM32G0xx_HAL_Driver/Inc/stm32g0xx_ll_tim.h **** #define LL_TIM_BREAK2_ENABLE             TIM_BDTR_BK2E            /*!< Break2 function enabled */
 571:Drivers/STM32G0xx_HAL_Driver/Inc/stm32g0xx_ll_tim.h **** /**
 572:Drivers/STM32G0xx_HAL_Driver/Inc/stm32g0xx_ll_tim.h ****   * @}
 573:Drivers/STM32G0xx_HAL_Driver/Inc/stm32g0xx_ll_tim.h ****   */
 574:Drivers/STM32G0xx_HAL_Driver/Inc/stm32g0xx_ll_tim.h **** 
 575:Drivers/STM32G0xx_HAL_Driver/Inc/stm32g0xx_ll_tim.h **** /** @defgroup TIM_LL_EC_AUTOMATICOUTPUT_ENABLE Automatic output enable
 576:Drivers/STM32G0xx_HAL_Driver/Inc/stm32g0xx_ll_tim.h ****   * @{
 577:Drivers/STM32G0xx_HAL_Driver/Inc/stm32g0xx_ll_tim.h ****   */
 578:Drivers/STM32G0xx_HAL_Driver/Inc/stm32g0xx_ll_tim.h **** #define LL_TIM_AUTOMATICOUTPUT_DISABLE         0x00000000U             /*!< MOE can be set only by 
ARM GAS  /tmp/ccHKcJQI.s 			page 27


 579:Drivers/STM32G0xx_HAL_Driver/Inc/stm32g0xx_ll_tim.h **** #define LL_TIM_AUTOMATICOUTPUT_ENABLE          TIM_BDTR_AOE            /*!< MOE can be set by softw
 580:Drivers/STM32G0xx_HAL_Driver/Inc/stm32g0xx_ll_tim.h **** /**
 581:Drivers/STM32G0xx_HAL_Driver/Inc/stm32g0xx_ll_tim.h ****   * @}
 582:Drivers/STM32G0xx_HAL_Driver/Inc/stm32g0xx_ll_tim.h ****   */
 583:Drivers/STM32G0xx_HAL_Driver/Inc/stm32g0xx_ll_tim.h **** #endif /* USE_FULL_LL_DRIVER */
 584:Drivers/STM32G0xx_HAL_Driver/Inc/stm32g0xx_ll_tim.h **** 
 585:Drivers/STM32G0xx_HAL_Driver/Inc/stm32g0xx_ll_tim.h **** /** @defgroup TIM_LL_EC_IT IT Defines
 586:Drivers/STM32G0xx_HAL_Driver/Inc/stm32g0xx_ll_tim.h ****   * @brief    IT defines which can be used with LL_TIM_ReadReg and  LL_TIM_WriteReg functions.
 587:Drivers/STM32G0xx_HAL_Driver/Inc/stm32g0xx_ll_tim.h ****   * @{
 588:Drivers/STM32G0xx_HAL_Driver/Inc/stm32g0xx_ll_tim.h ****   */
 589:Drivers/STM32G0xx_HAL_Driver/Inc/stm32g0xx_ll_tim.h **** #define LL_TIM_DIER_UIE                        TIM_DIER_UIE         /*!< Update interrupt enable */
 590:Drivers/STM32G0xx_HAL_Driver/Inc/stm32g0xx_ll_tim.h **** #define LL_TIM_DIER_CC1IE                      TIM_DIER_CC1IE       /*!< Capture/compare 1 interrup
 591:Drivers/STM32G0xx_HAL_Driver/Inc/stm32g0xx_ll_tim.h **** #define LL_TIM_DIER_CC2IE                      TIM_DIER_CC2IE       /*!< Capture/compare 2 interrup
 592:Drivers/STM32G0xx_HAL_Driver/Inc/stm32g0xx_ll_tim.h **** #define LL_TIM_DIER_CC3IE                      TIM_DIER_CC3IE       /*!< Capture/compare 3 interrup
 593:Drivers/STM32G0xx_HAL_Driver/Inc/stm32g0xx_ll_tim.h **** #define LL_TIM_DIER_CC4IE                      TIM_DIER_CC4IE       /*!< Capture/compare 4 interrup
 594:Drivers/STM32G0xx_HAL_Driver/Inc/stm32g0xx_ll_tim.h **** #define LL_TIM_DIER_COMIE                      TIM_DIER_COMIE       /*!< COM interrupt enable */
 595:Drivers/STM32G0xx_HAL_Driver/Inc/stm32g0xx_ll_tim.h **** #define LL_TIM_DIER_TIE                        TIM_DIER_TIE         /*!< Trigger interrupt enable *
 596:Drivers/STM32G0xx_HAL_Driver/Inc/stm32g0xx_ll_tim.h **** #define LL_TIM_DIER_BIE                        TIM_DIER_BIE         /*!< Break interrupt enable */
 597:Drivers/STM32G0xx_HAL_Driver/Inc/stm32g0xx_ll_tim.h **** /**
 598:Drivers/STM32G0xx_HAL_Driver/Inc/stm32g0xx_ll_tim.h ****   * @}
 599:Drivers/STM32G0xx_HAL_Driver/Inc/stm32g0xx_ll_tim.h ****   */
 600:Drivers/STM32G0xx_HAL_Driver/Inc/stm32g0xx_ll_tim.h **** 
 601:Drivers/STM32G0xx_HAL_Driver/Inc/stm32g0xx_ll_tim.h **** /** @defgroup TIM_LL_EC_UPDATESOURCE Update Source
 602:Drivers/STM32G0xx_HAL_Driver/Inc/stm32g0xx_ll_tim.h ****   * @{
 603:Drivers/STM32G0xx_HAL_Driver/Inc/stm32g0xx_ll_tim.h ****   */
 604:Drivers/STM32G0xx_HAL_Driver/Inc/stm32g0xx_ll_tim.h **** #define LL_TIM_UPDATESOURCE_REGULAR            0x00000000U          /*!< Counter overflow/underflow
 605:Drivers/STM32G0xx_HAL_Driver/Inc/stm32g0xx_ll_tim.h **** #define LL_TIM_UPDATESOURCE_COUNTER            TIM_CR1_URS          /*!< Only counter overflow/unde
 606:Drivers/STM32G0xx_HAL_Driver/Inc/stm32g0xx_ll_tim.h **** /**
 607:Drivers/STM32G0xx_HAL_Driver/Inc/stm32g0xx_ll_tim.h ****   * @}
 608:Drivers/STM32G0xx_HAL_Driver/Inc/stm32g0xx_ll_tim.h ****   */
 609:Drivers/STM32G0xx_HAL_Driver/Inc/stm32g0xx_ll_tim.h **** 
 610:Drivers/STM32G0xx_HAL_Driver/Inc/stm32g0xx_ll_tim.h **** /** @defgroup TIM_LL_EC_ONEPULSEMODE One Pulse Mode
 611:Drivers/STM32G0xx_HAL_Driver/Inc/stm32g0xx_ll_tim.h ****   * @{
 612:Drivers/STM32G0xx_HAL_Driver/Inc/stm32g0xx_ll_tim.h ****   */
 613:Drivers/STM32G0xx_HAL_Driver/Inc/stm32g0xx_ll_tim.h **** #define LL_TIM_ONEPULSEMODE_SINGLE             TIM_CR1_OPM          /*!< Counter is not stopped at 
 614:Drivers/STM32G0xx_HAL_Driver/Inc/stm32g0xx_ll_tim.h **** #define LL_TIM_ONEPULSEMODE_REPETITIVE         0x00000000U          /*!< Counter stops counting at 
 615:Drivers/STM32G0xx_HAL_Driver/Inc/stm32g0xx_ll_tim.h **** /**
 616:Drivers/STM32G0xx_HAL_Driver/Inc/stm32g0xx_ll_tim.h ****   * @}
 617:Drivers/STM32G0xx_HAL_Driver/Inc/stm32g0xx_ll_tim.h ****   */
 618:Drivers/STM32G0xx_HAL_Driver/Inc/stm32g0xx_ll_tim.h **** 
 619:Drivers/STM32G0xx_HAL_Driver/Inc/stm32g0xx_ll_tim.h **** /** @defgroup TIM_LL_EC_COUNTERMODE Counter Mode
 620:Drivers/STM32G0xx_HAL_Driver/Inc/stm32g0xx_ll_tim.h ****   * @{
 621:Drivers/STM32G0xx_HAL_Driver/Inc/stm32g0xx_ll_tim.h ****   */
 622:Drivers/STM32G0xx_HAL_Driver/Inc/stm32g0xx_ll_tim.h **** #define LL_TIM_COUNTERMODE_UP                  0x00000000U          /*!<Counter used as upcounter *
 623:Drivers/STM32G0xx_HAL_Driver/Inc/stm32g0xx_ll_tim.h **** #define LL_TIM_COUNTERMODE_DOWN                TIM_CR1_DIR          /*!< Counter used as downcounte
 624:Drivers/STM32G0xx_HAL_Driver/Inc/stm32g0xx_ll_tim.h **** #define LL_TIM_COUNTERMODE_CENTER_UP           TIM_CR1_CMS_0        /*!< The counter counts up and 
 625:Drivers/STM32G0xx_HAL_Driver/Inc/stm32g0xx_ll_tim.h **** #define LL_TIM_COUNTERMODE_CENTER_DOWN         TIM_CR1_CMS_1        /*!<The counter counts up and d
 626:Drivers/STM32G0xx_HAL_Driver/Inc/stm32g0xx_ll_tim.h **** #define LL_TIM_COUNTERMODE_CENTER_UP_DOWN      TIM_CR1_CMS          /*!< The counter counts up and 
 627:Drivers/STM32G0xx_HAL_Driver/Inc/stm32g0xx_ll_tim.h **** /**
 628:Drivers/STM32G0xx_HAL_Driver/Inc/stm32g0xx_ll_tim.h ****   * @}
 629:Drivers/STM32G0xx_HAL_Driver/Inc/stm32g0xx_ll_tim.h ****   */
 630:Drivers/STM32G0xx_HAL_Driver/Inc/stm32g0xx_ll_tim.h **** 
 631:Drivers/STM32G0xx_HAL_Driver/Inc/stm32g0xx_ll_tim.h **** /** @defgroup TIM_LL_EC_CLOCKDIVISION Clock Division
 632:Drivers/STM32G0xx_HAL_Driver/Inc/stm32g0xx_ll_tim.h ****   * @{
 633:Drivers/STM32G0xx_HAL_Driver/Inc/stm32g0xx_ll_tim.h ****   */
 634:Drivers/STM32G0xx_HAL_Driver/Inc/stm32g0xx_ll_tim.h **** #define LL_TIM_CLOCKDIVISION_DIV1              0x00000000U          /*!< tDTS=tCK_INT */
 635:Drivers/STM32G0xx_HAL_Driver/Inc/stm32g0xx_ll_tim.h **** #define LL_TIM_CLOCKDIVISION_DIV2              TIM_CR1_CKD_0        /*!< tDTS=2*tCK_INT */
ARM GAS  /tmp/ccHKcJQI.s 			page 28


 636:Drivers/STM32G0xx_HAL_Driver/Inc/stm32g0xx_ll_tim.h **** #define LL_TIM_CLOCKDIVISION_DIV4              TIM_CR1_CKD_1        /*!< tDTS=4*tCK_INT */
 637:Drivers/STM32G0xx_HAL_Driver/Inc/stm32g0xx_ll_tim.h **** /**
 638:Drivers/STM32G0xx_HAL_Driver/Inc/stm32g0xx_ll_tim.h ****   * @}
 639:Drivers/STM32G0xx_HAL_Driver/Inc/stm32g0xx_ll_tim.h ****   */
 640:Drivers/STM32G0xx_HAL_Driver/Inc/stm32g0xx_ll_tim.h **** 
 641:Drivers/STM32G0xx_HAL_Driver/Inc/stm32g0xx_ll_tim.h **** /** @defgroup TIM_LL_EC_COUNTERDIRECTION Counter Direction
 642:Drivers/STM32G0xx_HAL_Driver/Inc/stm32g0xx_ll_tim.h ****   * @{
 643:Drivers/STM32G0xx_HAL_Driver/Inc/stm32g0xx_ll_tim.h ****   */
 644:Drivers/STM32G0xx_HAL_Driver/Inc/stm32g0xx_ll_tim.h **** #define LL_TIM_COUNTERDIRECTION_UP             0x00000000U          /*!< Timer counter counts up */
 645:Drivers/STM32G0xx_HAL_Driver/Inc/stm32g0xx_ll_tim.h **** #define LL_TIM_COUNTERDIRECTION_DOWN           TIM_CR1_DIR          /*!< Timer counter counts down 
 646:Drivers/STM32G0xx_HAL_Driver/Inc/stm32g0xx_ll_tim.h **** /**
 647:Drivers/STM32G0xx_HAL_Driver/Inc/stm32g0xx_ll_tim.h ****   * @}
 648:Drivers/STM32G0xx_HAL_Driver/Inc/stm32g0xx_ll_tim.h ****   */
 649:Drivers/STM32G0xx_HAL_Driver/Inc/stm32g0xx_ll_tim.h **** 
 650:Drivers/STM32G0xx_HAL_Driver/Inc/stm32g0xx_ll_tim.h **** /** @defgroup TIM_LL_EC_CCUPDATESOURCE Capture Compare  Update Source
 651:Drivers/STM32G0xx_HAL_Driver/Inc/stm32g0xx_ll_tim.h ****   * @{
 652:Drivers/STM32G0xx_HAL_Driver/Inc/stm32g0xx_ll_tim.h ****   */
 653:Drivers/STM32G0xx_HAL_Driver/Inc/stm32g0xx_ll_tim.h **** #define LL_TIM_CCUPDATESOURCE_COMG_ONLY        0x00000000U          /*!< Capture/compare control bi
 654:Drivers/STM32G0xx_HAL_Driver/Inc/stm32g0xx_ll_tim.h **** #define LL_TIM_CCUPDATESOURCE_COMG_AND_TRGI    TIM_CR2_CCUS         /*!< Capture/compare control bi
 655:Drivers/STM32G0xx_HAL_Driver/Inc/stm32g0xx_ll_tim.h **** /**
 656:Drivers/STM32G0xx_HAL_Driver/Inc/stm32g0xx_ll_tim.h ****   * @}
 657:Drivers/STM32G0xx_HAL_Driver/Inc/stm32g0xx_ll_tim.h ****   */
 658:Drivers/STM32G0xx_HAL_Driver/Inc/stm32g0xx_ll_tim.h **** 
 659:Drivers/STM32G0xx_HAL_Driver/Inc/stm32g0xx_ll_tim.h **** /** @defgroup TIM_LL_EC_CCDMAREQUEST Capture Compare DMA Request
 660:Drivers/STM32G0xx_HAL_Driver/Inc/stm32g0xx_ll_tim.h ****   * @{
 661:Drivers/STM32G0xx_HAL_Driver/Inc/stm32g0xx_ll_tim.h ****   */
 662:Drivers/STM32G0xx_HAL_Driver/Inc/stm32g0xx_ll_tim.h **** #define LL_TIM_CCDMAREQUEST_CC                 0x00000000U          /*!< CCx DMA request sent when 
 663:Drivers/STM32G0xx_HAL_Driver/Inc/stm32g0xx_ll_tim.h **** #define LL_TIM_CCDMAREQUEST_UPDATE             TIM_CR2_CCDS         /*!< CCx DMA requests sent when
 664:Drivers/STM32G0xx_HAL_Driver/Inc/stm32g0xx_ll_tim.h **** /**
 665:Drivers/STM32G0xx_HAL_Driver/Inc/stm32g0xx_ll_tim.h ****   * @}
 666:Drivers/STM32G0xx_HAL_Driver/Inc/stm32g0xx_ll_tim.h ****   */
 667:Drivers/STM32G0xx_HAL_Driver/Inc/stm32g0xx_ll_tim.h **** 
 668:Drivers/STM32G0xx_HAL_Driver/Inc/stm32g0xx_ll_tim.h **** /** @defgroup TIM_LL_EC_LOCKLEVEL Lock Level
 669:Drivers/STM32G0xx_HAL_Driver/Inc/stm32g0xx_ll_tim.h ****   * @{
 670:Drivers/STM32G0xx_HAL_Driver/Inc/stm32g0xx_ll_tim.h ****   */
 671:Drivers/STM32G0xx_HAL_Driver/Inc/stm32g0xx_ll_tim.h **** #define LL_TIM_LOCKLEVEL_OFF                   0x00000000U          /*!< LOCK OFF - No bit is write
 672:Drivers/STM32G0xx_HAL_Driver/Inc/stm32g0xx_ll_tim.h **** #define LL_TIM_LOCKLEVEL_1                     TIM_BDTR_LOCK_0      /*!< LOCK Level 1 */
 673:Drivers/STM32G0xx_HAL_Driver/Inc/stm32g0xx_ll_tim.h **** #define LL_TIM_LOCKLEVEL_2                     TIM_BDTR_LOCK_1      /*!< LOCK Level 2 */
 674:Drivers/STM32G0xx_HAL_Driver/Inc/stm32g0xx_ll_tim.h **** #define LL_TIM_LOCKLEVEL_3                     TIM_BDTR_LOCK        /*!< LOCK Level 3 */
 675:Drivers/STM32G0xx_HAL_Driver/Inc/stm32g0xx_ll_tim.h **** /**
 676:Drivers/STM32G0xx_HAL_Driver/Inc/stm32g0xx_ll_tim.h ****   * @}
 677:Drivers/STM32G0xx_HAL_Driver/Inc/stm32g0xx_ll_tim.h ****   */
 678:Drivers/STM32G0xx_HAL_Driver/Inc/stm32g0xx_ll_tim.h **** 
 679:Drivers/STM32G0xx_HAL_Driver/Inc/stm32g0xx_ll_tim.h **** /** @defgroup TIM_LL_EC_CHANNEL Channel
 680:Drivers/STM32G0xx_HAL_Driver/Inc/stm32g0xx_ll_tim.h ****   * @{
 681:Drivers/STM32G0xx_HAL_Driver/Inc/stm32g0xx_ll_tim.h ****   */
 682:Drivers/STM32G0xx_HAL_Driver/Inc/stm32g0xx_ll_tim.h **** #define LL_TIM_CHANNEL_CH1                     TIM_CCER_CC1E     /*!< Timer input/output channel 1 
 683:Drivers/STM32G0xx_HAL_Driver/Inc/stm32g0xx_ll_tim.h **** #define LL_TIM_CHANNEL_CH1N                    TIM_CCER_CC1NE    /*!< Timer complementary output ch
 684:Drivers/STM32G0xx_HAL_Driver/Inc/stm32g0xx_ll_tim.h **** #define LL_TIM_CHANNEL_CH2                     TIM_CCER_CC2E     /*!< Timer input/output channel 2 
 685:Drivers/STM32G0xx_HAL_Driver/Inc/stm32g0xx_ll_tim.h **** #define LL_TIM_CHANNEL_CH2N                    TIM_CCER_CC2NE    /*!< Timer complementary output ch
 686:Drivers/STM32G0xx_HAL_Driver/Inc/stm32g0xx_ll_tim.h **** #define LL_TIM_CHANNEL_CH3                     TIM_CCER_CC3E     /*!< Timer input/output channel 3 
 687:Drivers/STM32G0xx_HAL_Driver/Inc/stm32g0xx_ll_tim.h **** #define LL_TIM_CHANNEL_CH3N                    TIM_CCER_CC3NE    /*!< Timer complementary output ch
 688:Drivers/STM32G0xx_HAL_Driver/Inc/stm32g0xx_ll_tim.h **** #define LL_TIM_CHANNEL_CH4                     TIM_CCER_CC4E     /*!< Timer input/output channel 4 
 689:Drivers/STM32G0xx_HAL_Driver/Inc/stm32g0xx_ll_tim.h **** #define LL_TIM_CHANNEL_CH5                     TIM_CCER_CC5E     /*!< Timer output channel 5 */
 690:Drivers/STM32G0xx_HAL_Driver/Inc/stm32g0xx_ll_tim.h **** #define LL_TIM_CHANNEL_CH6                     TIM_CCER_CC6E     /*!< Timer output channel 6 */
 691:Drivers/STM32G0xx_HAL_Driver/Inc/stm32g0xx_ll_tim.h **** /**
 692:Drivers/STM32G0xx_HAL_Driver/Inc/stm32g0xx_ll_tim.h ****   * @}
ARM GAS  /tmp/ccHKcJQI.s 			page 29


 693:Drivers/STM32G0xx_HAL_Driver/Inc/stm32g0xx_ll_tim.h ****   */
 694:Drivers/STM32G0xx_HAL_Driver/Inc/stm32g0xx_ll_tim.h **** 
 695:Drivers/STM32G0xx_HAL_Driver/Inc/stm32g0xx_ll_tim.h **** #if defined(USE_FULL_LL_DRIVER)
 696:Drivers/STM32G0xx_HAL_Driver/Inc/stm32g0xx_ll_tim.h **** /** @defgroup TIM_LL_EC_OCSTATE Output Configuration State
 697:Drivers/STM32G0xx_HAL_Driver/Inc/stm32g0xx_ll_tim.h ****   * @{
 698:Drivers/STM32G0xx_HAL_Driver/Inc/stm32g0xx_ll_tim.h ****   */
 699:Drivers/STM32G0xx_HAL_Driver/Inc/stm32g0xx_ll_tim.h **** #define LL_TIM_OCSTATE_DISABLE                 0x00000000U             /*!< OCx is not active */
 700:Drivers/STM32G0xx_HAL_Driver/Inc/stm32g0xx_ll_tim.h **** #define LL_TIM_OCSTATE_ENABLE                  TIM_CCER_CC1E           /*!< OCx signal is output on
 701:Drivers/STM32G0xx_HAL_Driver/Inc/stm32g0xx_ll_tim.h **** /**
 702:Drivers/STM32G0xx_HAL_Driver/Inc/stm32g0xx_ll_tim.h ****   * @}
 703:Drivers/STM32G0xx_HAL_Driver/Inc/stm32g0xx_ll_tim.h ****   */
 704:Drivers/STM32G0xx_HAL_Driver/Inc/stm32g0xx_ll_tim.h **** #endif /* USE_FULL_LL_DRIVER */
 705:Drivers/STM32G0xx_HAL_Driver/Inc/stm32g0xx_ll_tim.h **** 
 706:Drivers/STM32G0xx_HAL_Driver/Inc/stm32g0xx_ll_tim.h **** /** @defgroup TIM_LL_EC_OCMODE Output Configuration Mode
 707:Drivers/STM32G0xx_HAL_Driver/Inc/stm32g0xx_ll_tim.h ****   * @{
 708:Drivers/STM32G0xx_HAL_Driver/Inc/stm32g0xx_ll_tim.h ****   */
 709:Drivers/STM32G0xx_HAL_Driver/Inc/stm32g0xx_ll_tim.h **** #define LL_TIM_OCMODE_FROZEN                   0x00000000U                                         
 710:Drivers/STM32G0xx_HAL_Driver/Inc/stm32g0xx_ll_tim.h **** #define LL_TIM_OCMODE_ACTIVE                   TIM_CCMR1_OC1M_0                                    
 711:Drivers/STM32G0xx_HAL_Driver/Inc/stm32g0xx_ll_tim.h **** #define LL_TIM_OCMODE_INACTIVE                 TIM_CCMR1_OC1M_1                                    
 712:Drivers/STM32G0xx_HAL_Driver/Inc/stm32g0xx_ll_tim.h **** #define LL_TIM_OCMODE_TOGGLE                   (TIM_CCMR1_OC1M_1 | TIM_CCMR1_OC1M_0)               
 713:Drivers/STM32G0xx_HAL_Driver/Inc/stm32g0xx_ll_tim.h **** #define LL_TIM_OCMODE_FORCED_INACTIVE          TIM_CCMR1_OC1M_2                                    
 714:Drivers/STM32G0xx_HAL_Driver/Inc/stm32g0xx_ll_tim.h **** #define LL_TIM_OCMODE_FORCED_ACTIVE            (TIM_CCMR1_OC1M_2 | TIM_CCMR1_OC1M_0)               
 715:Drivers/STM32G0xx_HAL_Driver/Inc/stm32g0xx_ll_tim.h **** #define LL_TIM_OCMODE_PWM1                     (TIM_CCMR1_OC1M_2 | TIM_CCMR1_OC1M_1)               
 716:Drivers/STM32G0xx_HAL_Driver/Inc/stm32g0xx_ll_tim.h **** #define LL_TIM_OCMODE_PWM2                     (TIM_CCMR1_OC1M_2 | TIM_CCMR1_OC1M_1 | TIM_CCMR1_OC1
 717:Drivers/STM32G0xx_HAL_Driver/Inc/stm32g0xx_ll_tim.h **** #define LL_TIM_OCMODE_RETRIG_OPM1              TIM_CCMR1_OC1M_3                                    
 718:Drivers/STM32G0xx_HAL_Driver/Inc/stm32g0xx_ll_tim.h **** #define LL_TIM_OCMODE_RETRIG_OPM2              (TIM_CCMR1_OC1M_3 | TIM_CCMR1_OC1M_0)               
 719:Drivers/STM32G0xx_HAL_Driver/Inc/stm32g0xx_ll_tim.h **** #define LL_TIM_OCMODE_COMBINED_PWM1            (TIM_CCMR1_OC1M_3 | TIM_CCMR1_OC1M_2)               
 720:Drivers/STM32G0xx_HAL_Driver/Inc/stm32g0xx_ll_tim.h **** #define LL_TIM_OCMODE_COMBINED_PWM2            (TIM_CCMR1_OC1M_3 | TIM_CCMR1_OC1M_0 | TIM_CCMR1_OC1
 721:Drivers/STM32G0xx_HAL_Driver/Inc/stm32g0xx_ll_tim.h **** #define LL_TIM_OCMODE_ASSYMETRIC_PWM1          (TIM_CCMR1_OC1M_3 | TIM_CCMR1_OC1M_1 | TIM_CCMR1_OC1
 722:Drivers/STM32G0xx_HAL_Driver/Inc/stm32g0xx_ll_tim.h **** #define LL_TIM_OCMODE_ASSYMETRIC_PWM2          (TIM_CCMR1_OC1M_3 | TIM_CCMR1_OC1M)                 
 723:Drivers/STM32G0xx_HAL_Driver/Inc/stm32g0xx_ll_tim.h **** /**
 724:Drivers/STM32G0xx_HAL_Driver/Inc/stm32g0xx_ll_tim.h ****   * @}
 725:Drivers/STM32G0xx_HAL_Driver/Inc/stm32g0xx_ll_tim.h ****   */
 726:Drivers/STM32G0xx_HAL_Driver/Inc/stm32g0xx_ll_tim.h **** 
 727:Drivers/STM32G0xx_HAL_Driver/Inc/stm32g0xx_ll_tim.h **** /** @defgroup TIM_LL_EC_OCPOLARITY Output Configuration Polarity
 728:Drivers/STM32G0xx_HAL_Driver/Inc/stm32g0xx_ll_tim.h ****   * @{
 729:Drivers/STM32G0xx_HAL_Driver/Inc/stm32g0xx_ll_tim.h ****   */
 730:Drivers/STM32G0xx_HAL_Driver/Inc/stm32g0xx_ll_tim.h **** #define LL_TIM_OCPOLARITY_HIGH                 0x00000000U                 /*!< OCxactive high*/
 731:Drivers/STM32G0xx_HAL_Driver/Inc/stm32g0xx_ll_tim.h **** #define LL_TIM_OCPOLARITY_LOW                  TIM_CCER_CC1P               /*!< OCxactive low*/
 732:Drivers/STM32G0xx_HAL_Driver/Inc/stm32g0xx_ll_tim.h **** /**
 733:Drivers/STM32G0xx_HAL_Driver/Inc/stm32g0xx_ll_tim.h ****   * @}
 734:Drivers/STM32G0xx_HAL_Driver/Inc/stm32g0xx_ll_tim.h ****   */
 735:Drivers/STM32G0xx_HAL_Driver/Inc/stm32g0xx_ll_tim.h **** 
 736:Drivers/STM32G0xx_HAL_Driver/Inc/stm32g0xx_ll_tim.h **** /** @defgroup TIM_LL_EC_OCIDLESTATE Output Configuration Idle State
 737:Drivers/STM32G0xx_HAL_Driver/Inc/stm32g0xx_ll_tim.h ****   * @{
 738:Drivers/STM32G0xx_HAL_Driver/Inc/stm32g0xx_ll_tim.h ****   */
 739:Drivers/STM32G0xx_HAL_Driver/Inc/stm32g0xx_ll_tim.h **** #define LL_TIM_OCIDLESTATE_LOW                 0x00000000U             /*!<OCx=0 (after a dead-time
 740:Drivers/STM32G0xx_HAL_Driver/Inc/stm32g0xx_ll_tim.h **** #define LL_TIM_OCIDLESTATE_HIGH                TIM_CR2_OIS1            /*!<OCx=1 (after a dead-time
 741:Drivers/STM32G0xx_HAL_Driver/Inc/stm32g0xx_ll_tim.h **** /**
 742:Drivers/STM32G0xx_HAL_Driver/Inc/stm32g0xx_ll_tim.h ****   * @}
 743:Drivers/STM32G0xx_HAL_Driver/Inc/stm32g0xx_ll_tim.h ****   */
 744:Drivers/STM32G0xx_HAL_Driver/Inc/stm32g0xx_ll_tim.h **** 
 745:Drivers/STM32G0xx_HAL_Driver/Inc/stm32g0xx_ll_tim.h **** /** @defgroup TIM_LL_EC_GROUPCH5 GROUPCH5
 746:Drivers/STM32G0xx_HAL_Driver/Inc/stm32g0xx_ll_tim.h ****   * @{
 747:Drivers/STM32G0xx_HAL_Driver/Inc/stm32g0xx_ll_tim.h ****   */
 748:Drivers/STM32G0xx_HAL_Driver/Inc/stm32g0xx_ll_tim.h **** #define LL_TIM_GROUPCH5_NONE                   0x00000000U           /*!< No effect of OC5REF on OC
 749:Drivers/STM32G0xx_HAL_Driver/Inc/stm32g0xx_ll_tim.h **** #define LL_TIM_GROUPCH5_OC1REFC                TIM_CCR5_GC5C1        /*!< OC1REFC is the logical AN
ARM GAS  /tmp/ccHKcJQI.s 			page 30


 750:Drivers/STM32G0xx_HAL_Driver/Inc/stm32g0xx_ll_tim.h **** #define LL_TIM_GROUPCH5_OC2REFC                TIM_CCR5_GC5C2        /*!< OC2REFC is the logical AN
 751:Drivers/STM32G0xx_HAL_Driver/Inc/stm32g0xx_ll_tim.h **** #define LL_TIM_GROUPCH5_OC3REFC                TIM_CCR5_GC5C3        /*!< OC3REFC is the logical AN
 752:Drivers/STM32G0xx_HAL_Driver/Inc/stm32g0xx_ll_tim.h **** /**
 753:Drivers/STM32G0xx_HAL_Driver/Inc/stm32g0xx_ll_tim.h ****   * @}
 754:Drivers/STM32G0xx_HAL_Driver/Inc/stm32g0xx_ll_tim.h ****   */
 755:Drivers/STM32G0xx_HAL_Driver/Inc/stm32g0xx_ll_tim.h **** 
 756:Drivers/STM32G0xx_HAL_Driver/Inc/stm32g0xx_ll_tim.h **** /** @defgroup TIM_LL_EC_ACTIVEINPUT Active Input Selection
 757:Drivers/STM32G0xx_HAL_Driver/Inc/stm32g0xx_ll_tim.h ****   * @{
 758:Drivers/STM32G0xx_HAL_Driver/Inc/stm32g0xx_ll_tim.h ****   */
 759:Drivers/STM32G0xx_HAL_Driver/Inc/stm32g0xx_ll_tim.h **** #define LL_TIM_ACTIVEINPUT_DIRECTTI            (TIM_CCMR1_CC1S_0 << 16U) /*!< ICx is mapped on TIx 
 760:Drivers/STM32G0xx_HAL_Driver/Inc/stm32g0xx_ll_tim.h **** #define LL_TIM_ACTIVEINPUT_INDIRECTTI          (TIM_CCMR1_CC1S_1 << 16U) /*!< ICx is mapped on TIy 
 761:Drivers/STM32G0xx_HAL_Driver/Inc/stm32g0xx_ll_tim.h **** #define LL_TIM_ACTIVEINPUT_TRC                 (TIM_CCMR1_CC1S << 16U)   /*!< ICx is mapped on TRC 
 762:Drivers/STM32G0xx_HAL_Driver/Inc/stm32g0xx_ll_tim.h **** /**
 763:Drivers/STM32G0xx_HAL_Driver/Inc/stm32g0xx_ll_tim.h ****   * @}
 764:Drivers/STM32G0xx_HAL_Driver/Inc/stm32g0xx_ll_tim.h ****   */
 765:Drivers/STM32G0xx_HAL_Driver/Inc/stm32g0xx_ll_tim.h **** 
 766:Drivers/STM32G0xx_HAL_Driver/Inc/stm32g0xx_ll_tim.h **** /** @defgroup TIM_LL_EC_ICPSC Input Configuration Prescaler
 767:Drivers/STM32G0xx_HAL_Driver/Inc/stm32g0xx_ll_tim.h ****   * @{
 768:Drivers/STM32G0xx_HAL_Driver/Inc/stm32g0xx_ll_tim.h ****   */
 769:Drivers/STM32G0xx_HAL_Driver/Inc/stm32g0xx_ll_tim.h **** #define LL_TIM_ICPSC_DIV1                      0x00000000U                    /*!< No prescaler, ca
 770:Drivers/STM32G0xx_HAL_Driver/Inc/stm32g0xx_ll_tim.h **** #define LL_TIM_ICPSC_DIV2                      (TIM_CCMR1_IC1PSC_0 << 16U)    /*!< Capture is done 
 771:Drivers/STM32G0xx_HAL_Driver/Inc/stm32g0xx_ll_tim.h **** #define LL_TIM_ICPSC_DIV4                      (TIM_CCMR1_IC1PSC_1 << 16U)    /*!< Capture is done 
 772:Drivers/STM32G0xx_HAL_Driver/Inc/stm32g0xx_ll_tim.h **** #define LL_TIM_ICPSC_DIV8                      (TIM_CCMR1_IC1PSC << 16U)      /*!< Capture is done 
 773:Drivers/STM32G0xx_HAL_Driver/Inc/stm32g0xx_ll_tim.h **** /**
 774:Drivers/STM32G0xx_HAL_Driver/Inc/stm32g0xx_ll_tim.h ****   * @}
 775:Drivers/STM32G0xx_HAL_Driver/Inc/stm32g0xx_ll_tim.h ****   */
 776:Drivers/STM32G0xx_HAL_Driver/Inc/stm32g0xx_ll_tim.h **** 
 777:Drivers/STM32G0xx_HAL_Driver/Inc/stm32g0xx_ll_tim.h **** /** @defgroup TIM_LL_EC_IC_FILTER Input Configuration Filter
 778:Drivers/STM32G0xx_HAL_Driver/Inc/stm32g0xx_ll_tim.h ****   * @{
 779:Drivers/STM32G0xx_HAL_Driver/Inc/stm32g0xx_ll_tim.h ****   */
 780:Drivers/STM32G0xx_HAL_Driver/Inc/stm32g0xx_ll_tim.h **** #define LL_TIM_IC_FILTER_FDIV1                 0x00000000U                                         
 781:Drivers/STM32G0xx_HAL_Driver/Inc/stm32g0xx_ll_tim.h **** #define LL_TIM_IC_FILTER_FDIV1_N2              (TIM_CCMR1_IC1F_0 << 16U)                           
 782:Drivers/STM32G0xx_HAL_Driver/Inc/stm32g0xx_ll_tim.h **** #define LL_TIM_IC_FILTER_FDIV1_N4              (TIM_CCMR1_IC1F_1 << 16U)                           
 783:Drivers/STM32G0xx_HAL_Driver/Inc/stm32g0xx_ll_tim.h **** #define LL_TIM_IC_FILTER_FDIV1_N8              ((TIM_CCMR1_IC1F_1 | TIM_CCMR1_IC1F_0) << 16U)      
 784:Drivers/STM32G0xx_HAL_Driver/Inc/stm32g0xx_ll_tim.h **** #define LL_TIM_IC_FILTER_FDIV2_N6              (TIM_CCMR1_IC1F_2 << 16U)                           
 785:Drivers/STM32G0xx_HAL_Driver/Inc/stm32g0xx_ll_tim.h **** #define LL_TIM_IC_FILTER_FDIV2_N8              ((TIM_CCMR1_IC1F_2 | TIM_CCMR1_IC1F_0) << 16U)      
 786:Drivers/STM32G0xx_HAL_Driver/Inc/stm32g0xx_ll_tim.h **** #define LL_TIM_IC_FILTER_FDIV4_N6              ((TIM_CCMR1_IC1F_2 | TIM_CCMR1_IC1F_1) << 16U)      
 787:Drivers/STM32G0xx_HAL_Driver/Inc/stm32g0xx_ll_tim.h **** #define LL_TIM_IC_FILTER_FDIV4_N8              ((TIM_CCMR1_IC1F_2 | TIM_CCMR1_IC1F_1 | TIM_CCMR1_IC
 788:Drivers/STM32G0xx_HAL_Driver/Inc/stm32g0xx_ll_tim.h **** #define LL_TIM_IC_FILTER_FDIV8_N6              (TIM_CCMR1_IC1F_3 << 16U)                           
 789:Drivers/STM32G0xx_HAL_Driver/Inc/stm32g0xx_ll_tim.h **** #define LL_TIM_IC_FILTER_FDIV8_N8              ((TIM_CCMR1_IC1F_3 | TIM_CCMR1_IC1F_0) << 16U)      
 790:Drivers/STM32G0xx_HAL_Driver/Inc/stm32g0xx_ll_tim.h **** #define LL_TIM_IC_FILTER_FDIV16_N5             ((TIM_CCMR1_IC1F_3 | TIM_CCMR1_IC1F_1) << 16U)      
 791:Drivers/STM32G0xx_HAL_Driver/Inc/stm32g0xx_ll_tim.h **** #define LL_TIM_IC_FILTER_FDIV16_N6             ((TIM_CCMR1_IC1F_3 | TIM_CCMR1_IC1F_1 | TIM_CCMR1_IC
 792:Drivers/STM32G0xx_HAL_Driver/Inc/stm32g0xx_ll_tim.h **** #define LL_TIM_IC_FILTER_FDIV16_N8             ((TIM_CCMR1_IC1F_3 | TIM_CCMR1_IC1F_2) << 16U)      
 793:Drivers/STM32G0xx_HAL_Driver/Inc/stm32g0xx_ll_tim.h **** #define LL_TIM_IC_FILTER_FDIV32_N5             ((TIM_CCMR1_IC1F_3 | TIM_CCMR1_IC1F_2 | TIM_CCMR1_IC
 794:Drivers/STM32G0xx_HAL_Driver/Inc/stm32g0xx_ll_tim.h **** #define LL_TIM_IC_FILTER_FDIV32_N6             ((TIM_CCMR1_IC1F_3 | TIM_CCMR1_IC1F_2 | TIM_CCMR1_IC
 795:Drivers/STM32G0xx_HAL_Driver/Inc/stm32g0xx_ll_tim.h **** #define LL_TIM_IC_FILTER_FDIV32_N8             (TIM_CCMR1_IC1F << 16U)                             
 796:Drivers/STM32G0xx_HAL_Driver/Inc/stm32g0xx_ll_tim.h **** /**
 797:Drivers/STM32G0xx_HAL_Driver/Inc/stm32g0xx_ll_tim.h ****   * @}
 798:Drivers/STM32G0xx_HAL_Driver/Inc/stm32g0xx_ll_tim.h ****   */
 799:Drivers/STM32G0xx_HAL_Driver/Inc/stm32g0xx_ll_tim.h **** 
 800:Drivers/STM32G0xx_HAL_Driver/Inc/stm32g0xx_ll_tim.h **** /** @defgroup TIM_LL_EC_IC_POLARITY Input Configuration Polarity
 801:Drivers/STM32G0xx_HAL_Driver/Inc/stm32g0xx_ll_tim.h ****   * @{
 802:Drivers/STM32G0xx_HAL_Driver/Inc/stm32g0xx_ll_tim.h ****   */
 803:Drivers/STM32G0xx_HAL_Driver/Inc/stm32g0xx_ll_tim.h **** #define LL_TIM_IC_POLARITY_RISING              0x00000000U                      /*!< The circuit is
 804:Drivers/STM32G0xx_HAL_Driver/Inc/stm32g0xx_ll_tim.h **** #define LL_TIM_IC_POLARITY_FALLING             TIM_CCER_CC1P                    /*!< The circuit is
 805:Drivers/STM32G0xx_HAL_Driver/Inc/stm32g0xx_ll_tim.h **** #define LL_TIM_IC_POLARITY_BOTHEDGE            (TIM_CCER_CC1P | TIM_CCER_CC1NP) /*!< The circuit is
 806:Drivers/STM32G0xx_HAL_Driver/Inc/stm32g0xx_ll_tim.h **** /**
ARM GAS  /tmp/ccHKcJQI.s 			page 31


 807:Drivers/STM32G0xx_HAL_Driver/Inc/stm32g0xx_ll_tim.h ****   * @}
 808:Drivers/STM32G0xx_HAL_Driver/Inc/stm32g0xx_ll_tim.h ****   */
 809:Drivers/STM32G0xx_HAL_Driver/Inc/stm32g0xx_ll_tim.h **** 
 810:Drivers/STM32G0xx_HAL_Driver/Inc/stm32g0xx_ll_tim.h **** /** @defgroup TIM_LL_EC_CLOCKSOURCE Clock Source
 811:Drivers/STM32G0xx_HAL_Driver/Inc/stm32g0xx_ll_tim.h ****   * @{
 812:Drivers/STM32G0xx_HAL_Driver/Inc/stm32g0xx_ll_tim.h ****   */
 813:Drivers/STM32G0xx_HAL_Driver/Inc/stm32g0xx_ll_tim.h **** #define LL_TIM_CLOCKSOURCE_INTERNAL            0x00000000U                                         
 814:Drivers/STM32G0xx_HAL_Driver/Inc/stm32g0xx_ll_tim.h **** #define LL_TIM_CLOCKSOURCE_EXT_MODE1           (TIM_SMCR_SMS_2 | TIM_SMCR_SMS_1 | TIM_SMCR_SMS_0)  
 815:Drivers/STM32G0xx_HAL_Driver/Inc/stm32g0xx_ll_tim.h **** #define LL_TIM_CLOCKSOURCE_EXT_MODE2           TIM_SMCR_ECE                                        
 816:Drivers/STM32G0xx_HAL_Driver/Inc/stm32g0xx_ll_tim.h **** /**
 817:Drivers/STM32G0xx_HAL_Driver/Inc/stm32g0xx_ll_tim.h ****   * @}
 818:Drivers/STM32G0xx_HAL_Driver/Inc/stm32g0xx_ll_tim.h ****   */
 819:Drivers/STM32G0xx_HAL_Driver/Inc/stm32g0xx_ll_tim.h **** 
 820:Drivers/STM32G0xx_HAL_Driver/Inc/stm32g0xx_ll_tim.h **** /** @defgroup TIM_LL_EC_ENCODERMODE Encoder Mode
 821:Drivers/STM32G0xx_HAL_Driver/Inc/stm32g0xx_ll_tim.h ****   * @{
 822:Drivers/STM32G0xx_HAL_Driver/Inc/stm32g0xx_ll_tim.h ****   */
 823:Drivers/STM32G0xx_HAL_Driver/Inc/stm32g0xx_ll_tim.h **** #define LL_TIM_ENCODERMODE_X2_TI1                     TIM_SMCR_SMS_0                               
 824:Drivers/STM32G0xx_HAL_Driver/Inc/stm32g0xx_ll_tim.h **** #define LL_TIM_ENCODERMODE_X2_TI2                     TIM_SMCR_SMS_1                               
 825:Drivers/STM32G0xx_HAL_Driver/Inc/stm32g0xx_ll_tim.h **** #define LL_TIM_ENCODERMODE_X4_TI12                   (TIM_SMCR_SMS_1 | TIM_SMCR_SMS_0)             
 826:Drivers/STM32G0xx_HAL_Driver/Inc/stm32g0xx_ll_tim.h **** /**
 827:Drivers/STM32G0xx_HAL_Driver/Inc/stm32g0xx_ll_tim.h ****   * @}
 828:Drivers/STM32G0xx_HAL_Driver/Inc/stm32g0xx_ll_tim.h ****   */
 829:Drivers/STM32G0xx_HAL_Driver/Inc/stm32g0xx_ll_tim.h **** 
 830:Drivers/STM32G0xx_HAL_Driver/Inc/stm32g0xx_ll_tim.h **** /** @defgroup TIM_LL_EC_TRGO Trigger Output
 831:Drivers/STM32G0xx_HAL_Driver/Inc/stm32g0xx_ll_tim.h ****   * @{
 832:Drivers/STM32G0xx_HAL_Driver/Inc/stm32g0xx_ll_tim.h ****   */
 833:Drivers/STM32G0xx_HAL_Driver/Inc/stm32g0xx_ll_tim.h **** #define LL_TIM_TRGO_RESET                      0x00000000U                                     /*!<
 834:Drivers/STM32G0xx_HAL_Driver/Inc/stm32g0xx_ll_tim.h **** #define LL_TIM_TRGO_ENABLE                     TIM_CR2_MMS_0                                   /*!<
 835:Drivers/STM32G0xx_HAL_Driver/Inc/stm32g0xx_ll_tim.h **** #define LL_TIM_TRGO_UPDATE                     TIM_CR2_MMS_1                                   /*!<
 836:Drivers/STM32G0xx_HAL_Driver/Inc/stm32g0xx_ll_tim.h **** #define LL_TIM_TRGO_CC1IF                      (TIM_CR2_MMS_1 | TIM_CR2_MMS_0)                 /*!<
 837:Drivers/STM32G0xx_HAL_Driver/Inc/stm32g0xx_ll_tim.h **** #define LL_TIM_TRGO_OC1REF                     TIM_CR2_MMS_2                                   /*!<
 838:Drivers/STM32G0xx_HAL_Driver/Inc/stm32g0xx_ll_tim.h **** #define LL_TIM_TRGO_OC2REF                     (TIM_CR2_MMS_2 | TIM_CR2_MMS_0)                 /*!<
 839:Drivers/STM32G0xx_HAL_Driver/Inc/stm32g0xx_ll_tim.h **** #define LL_TIM_TRGO_OC3REF                     (TIM_CR2_MMS_2 | TIM_CR2_MMS_1)                 /*!<
 840:Drivers/STM32G0xx_HAL_Driver/Inc/stm32g0xx_ll_tim.h **** #define LL_TIM_TRGO_OC4REF                     (TIM_CR2_MMS_2 | TIM_CR2_MMS_1 | TIM_CR2_MMS_0) /*!<
 841:Drivers/STM32G0xx_HAL_Driver/Inc/stm32g0xx_ll_tim.h **** /**
 842:Drivers/STM32G0xx_HAL_Driver/Inc/stm32g0xx_ll_tim.h ****   * @}
 843:Drivers/STM32G0xx_HAL_Driver/Inc/stm32g0xx_ll_tim.h ****   */
 844:Drivers/STM32G0xx_HAL_Driver/Inc/stm32g0xx_ll_tim.h **** 
 845:Drivers/STM32G0xx_HAL_Driver/Inc/stm32g0xx_ll_tim.h **** /** @defgroup TIM_LL_EC_TRGO2 Trigger Output 2
 846:Drivers/STM32G0xx_HAL_Driver/Inc/stm32g0xx_ll_tim.h ****   * @{
 847:Drivers/STM32G0xx_HAL_Driver/Inc/stm32g0xx_ll_tim.h ****   */
 848:Drivers/STM32G0xx_HAL_Driver/Inc/stm32g0xx_ll_tim.h **** #define LL_TIM_TRGO2_RESET                     0x00000000U                                         
 849:Drivers/STM32G0xx_HAL_Driver/Inc/stm32g0xx_ll_tim.h **** #define LL_TIM_TRGO2_ENABLE                    TIM_CR2_MMS2_0                                      
 850:Drivers/STM32G0xx_HAL_Driver/Inc/stm32g0xx_ll_tim.h **** #define LL_TIM_TRGO2_UPDATE                    TIM_CR2_MMS2_1                                      
 851:Drivers/STM32G0xx_HAL_Driver/Inc/stm32g0xx_ll_tim.h **** #define LL_TIM_TRGO2_CC1F                      (TIM_CR2_MMS2_1 | TIM_CR2_MMS2_0)                   
 852:Drivers/STM32G0xx_HAL_Driver/Inc/stm32g0xx_ll_tim.h **** #define LL_TIM_TRGO2_OC1                       TIM_CR2_MMS2_2                                      
 853:Drivers/STM32G0xx_HAL_Driver/Inc/stm32g0xx_ll_tim.h **** #define LL_TIM_TRGO2_OC2                       (TIM_CR2_MMS2_2 | TIM_CR2_MMS2_0)                   
 854:Drivers/STM32G0xx_HAL_Driver/Inc/stm32g0xx_ll_tim.h **** #define LL_TIM_TRGO2_OC3                       (TIM_CR2_MMS2_2 | TIM_CR2_MMS2_1)                   
 855:Drivers/STM32G0xx_HAL_Driver/Inc/stm32g0xx_ll_tim.h **** #define LL_TIM_TRGO2_OC4                       (TIM_CR2_MMS2_2 | TIM_CR2_MMS2_1 | TIM_CR2_MMS2_0)  
 856:Drivers/STM32G0xx_HAL_Driver/Inc/stm32g0xx_ll_tim.h **** #define LL_TIM_TRGO2_OC5                       TIM_CR2_MMS2_3                                      
 857:Drivers/STM32G0xx_HAL_Driver/Inc/stm32g0xx_ll_tim.h **** #define LL_TIM_TRGO2_OC6                       (TIM_CR2_MMS2_3 | TIM_CR2_MMS2_0)                   
 858:Drivers/STM32G0xx_HAL_Driver/Inc/stm32g0xx_ll_tim.h **** #define LL_TIM_TRGO2_OC4_RISINGFALLING         (TIM_CR2_MMS2_3 | TIM_CR2_MMS2_1)                   
 859:Drivers/STM32G0xx_HAL_Driver/Inc/stm32g0xx_ll_tim.h **** #define LL_TIM_TRGO2_OC6_RISINGFALLING         (TIM_CR2_MMS2_3 | TIM_CR2_MMS2_1 | TIM_CR2_MMS2_0)  
 860:Drivers/STM32G0xx_HAL_Driver/Inc/stm32g0xx_ll_tim.h **** #define LL_TIM_TRGO2_OC4_RISING_OC6_RISING     (TIM_CR2_MMS2_3 | TIM_CR2_MMS2_2)                   
 861:Drivers/STM32G0xx_HAL_Driver/Inc/stm32g0xx_ll_tim.h **** #define LL_TIM_TRGO2_OC4_RISING_OC6_FALLING    (TIM_CR2_MMS2_3 | TIM_CR2_MMS2_2 | TIM_CR2_MMS2_0)  
 862:Drivers/STM32G0xx_HAL_Driver/Inc/stm32g0xx_ll_tim.h **** #define LL_TIM_TRGO2_OC5_RISING_OC6_RISING     (TIM_CR2_MMS2_3 | TIM_CR2_MMS2_2 |TIM_CR2_MMS2_1)   
 863:Drivers/STM32G0xx_HAL_Driver/Inc/stm32g0xx_ll_tim.h **** #define LL_TIM_TRGO2_OC5_RISING_OC6_FALLING    (TIM_CR2_MMS2_3 | TIM_CR2_MMS2_2 | TIM_CR2_MMS2_1 | 
ARM GAS  /tmp/ccHKcJQI.s 			page 32


 864:Drivers/STM32G0xx_HAL_Driver/Inc/stm32g0xx_ll_tim.h **** /**
 865:Drivers/STM32G0xx_HAL_Driver/Inc/stm32g0xx_ll_tim.h ****   * @}
 866:Drivers/STM32G0xx_HAL_Driver/Inc/stm32g0xx_ll_tim.h ****   */
 867:Drivers/STM32G0xx_HAL_Driver/Inc/stm32g0xx_ll_tim.h **** 
 868:Drivers/STM32G0xx_HAL_Driver/Inc/stm32g0xx_ll_tim.h **** /** @defgroup TIM_LL_EC_SLAVEMODE Slave Mode
 869:Drivers/STM32G0xx_HAL_Driver/Inc/stm32g0xx_ll_tim.h ****   * @{
 870:Drivers/STM32G0xx_HAL_Driver/Inc/stm32g0xx_ll_tim.h ****   */
 871:Drivers/STM32G0xx_HAL_Driver/Inc/stm32g0xx_ll_tim.h **** #define LL_TIM_SLAVEMODE_DISABLED              0x00000000U                         /*!< Slave mode 
 872:Drivers/STM32G0xx_HAL_Driver/Inc/stm32g0xx_ll_tim.h **** #define LL_TIM_SLAVEMODE_RESET                 TIM_SMCR_SMS_2                      /*!< Reset Mode 
 873:Drivers/STM32G0xx_HAL_Driver/Inc/stm32g0xx_ll_tim.h **** #define LL_TIM_SLAVEMODE_GATED                 (TIM_SMCR_SMS_2 | TIM_SMCR_SMS_0)   /*!< Gated Mode 
 874:Drivers/STM32G0xx_HAL_Driver/Inc/stm32g0xx_ll_tim.h **** #define LL_TIM_SLAVEMODE_TRIGGER               (TIM_SMCR_SMS_2 | TIM_SMCR_SMS_1)   /*!< Trigger Mod
 875:Drivers/STM32G0xx_HAL_Driver/Inc/stm32g0xx_ll_tim.h **** #define LL_TIM_SLAVEMODE_COMBINED_RESETTRIGGER TIM_SMCR_SMS_3                      /*!< Combined re
 876:Drivers/STM32G0xx_HAL_Driver/Inc/stm32g0xx_ll_tim.h **** /**
 877:Drivers/STM32G0xx_HAL_Driver/Inc/stm32g0xx_ll_tim.h ****   * @}
 878:Drivers/STM32G0xx_HAL_Driver/Inc/stm32g0xx_ll_tim.h ****   */
 879:Drivers/STM32G0xx_HAL_Driver/Inc/stm32g0xx_ll_tim.h **** 
 880:Drivers/STM32G0xx_HAL_Driver/Inc/stm32g0xx_ll_tim.h **** /** @defgroup TIM_LL_EC_TS Trigger Selection
 881:Drivers/STM32G0xx_HAL_Driver/Inc/stm32g0xx_ll_tim.h ****   * @{
 882:Drivers/STM32G0xx_HAL_Driver/Inc/stm32g0xx_ll_tim.h ****   */
 883:Drivers/STM32G0xx_HAL_Driver/Inc/stm32g0xx_ll_tim.h **** #define LL_TIM_TS_ITR0                         0x00000000U                                         
 884:Drivers/STM32G0xx_HAL_Driver/Inc/stm32g0xx_ll_tim.h **** #define LL_TIM_TS_ITR1                         TIM_SMCR_TS_0                                       
 885:Drivers/STM32G0xx_HAL_Driver/Inc/stm32g0xx_ll_tim.h **** #define LL_TIM_TS_ITR2                         TIM_SMCR_TS_1                                       
 886:Drivers/STM32G0xx_HAL_Driver/Inc/stm32g0xx_ll_tim.h **** #define LL_TIM_TS_ITR3                         (TIM_SMCR_TS_0 | TIM_SMCR_TS_1)                     
 887:Drivers/STM32G0xx_HAL_Driver/Inc/stm32g0xx_ll_tim.h **** #define LL_TIM_TS_TI1F_ED                      TIM_SMCR_TS_2                                       
 888:Drivers/STM32G0xx_HAL_Driver/Inc/stm32g0xx_ll_tim.h **** #define LL_TIM_TS_TI1FP1                       (TIM_SMCR_TS_2 | TIM_SMCR_TS_0)                     
 889:Drivers/STM32G0xx_HAL_Driver/Inc/stm32g0xx_ll_tim.h **** #define LL_TIM_TS_TI2FP2                       (TIM_SMCR_TS_2 | TIM_SMCR_TS_1)                     
 890:Drivers/STM32G0xx_HAL_Driver/Inc/stm32g0xx_ll_tim.h **** #define LL_TIM_TS_ETRF                         (TIM_SMCR_TS_2 | TIM_SMCR_TS_1 | TIM_SMCR_TS_0)     
 891:Drivers/STM32G0xx_HAL_Driver/Inc/stm32g0xx_ll_tim.h **** /**
 892:Drivers/STM32G0xx_HAL_Driver/Inc/stm32g0xx_ll_tim.h ****   * @}
 893:Drivers/STM32G0xx_HAL_Driver/Inc/stm32g0xx_ll_tim.h ****   */
 894:Drivers/STM32G0xx_HAL_Driver/Inc/stm32g0xx_ll_tim.h **** 
 895:Drivers/STM32G0xx_HAL_Driver/Inc/stm32g0xx_ll_tim.h **** /** @defgroup TIM_LL_EC_ETR_POLARITY External Trigger Polarity
 896:Drivers/STM32G0xx_HAL_Driver/Inc/stm32g0xx_ll_tim.h ****   * @{
 897:Drivers/STM32G0xx_HAL_Driver/Inc/stm32g0xx_ll_tim.h ****   */
 898:Drivers/STM32G0xx_HAL_Driver/Inc/stm32g0xx_ll_tim.h **** #define LL_TIM_ETR_POLARITY_NONINVERTED        0x00000000U             /*!< ETR is non-inverted, ac
 899:Drivers/STM32G0xx_HAL_Driver/Inc/stm32g0xx_ll_tim.h **** #define LL_TIM_ETR_POLARITY_INVERTED           TIM_SMCR_ETP            /*!< ETR is inverted, active
 900:Drivers/STM32G0xx_HAL_Driver/Inc/stm32g0xx_ll_tim.h **** /**
 901:Drivers/STM32G0xx_HAL_Driver/Inc/stm32g0xx_ll_tim.h ****   * @}
 902:Drivers/STM32G0xx_HAL_Driver/Inc/stm32g0xx_ll_tim.h ****   */
 903:Drivers/STM32G0xx_HAL_Driver/Inc/stm32g0xx_ll_tim.h **** 
 904:Drivers/STM32G0xx_HAL_Driver/Inc/stm32g0xx_ll_tim.h **** /** @defgroup TIM_LL_EC_ETR_PRESCALER External Trigger Prescaler
 905:Drivers/STM32G0xx_HAL_Driver/Inc/stm32g0xx_ll_tim.h ****   * @{
 906:Drivers/STM32G0xx_HAL_Driver/Inc/stm32g0xx_ll_tim.h ****   */
 907:Drivers/STM32G0xx_HAL_Driver/Inc/stm32g0xx_ll_tim.h **** #define LL_TIM_ETR_PRESCALER_DIV1              0x00000000U             /*!< ETR prescaler OFF */
 908:Drivers/STM32G0xx_HAL_Driver/Inc/stm32g0xx_ll_tim.h **** #define LL_TIM_ETR_PRESCALER_DIV2              TIM_SMCR_ETPS_0         /*!< ETR frequency is divide
 909:Drivers/STM32G0xx_HAL_Driver/Inc/stm32g0xx_ll_tim.h **** #define LL_TIM_ETR_PRESCALER_DIV4              TIM_SMCR_ETPS_1         /*!< ETR frequency is divide
 910:Drivers/STM32G0xx_HAL_Driver/Inc/stm32g0xx_ll_tim.h **** #define LL_TIM_ETR_PRESCALER_DIV8              TIM_SMCR_ETPS           /*!< ETR frequency is divide
 911:Drivers/STM32G0xx_HAL_Driver/Inc/stm32g0xx_ll_tim.h **** /**
 912:Drivers/STM32G0xx_HAL_Driver/Inc/stm32g0xx_ll_tim.h ****   * @}
 913:Drivers/STM32G0xx_HAL_Driver/Inc/stm32g0xx_ll_tim.h ****   */
 914:Drivers/STM32G0xx_HAL_Driver/Inc/stm32g0xx_ll_tim.h **** 
 915:Drivers/STM32G0xx_HAL_Driver/Inc/stm32g0xx_ll_tim.h **** /** @defgroup TIM_LL_EC_ETR_FILTER External Trigger Filter
 916:Drivers/STM32G0xx_HAL_Driver/Inc/stm32g0xx_ll_tim.h ****   * @{
 917:Drivers/STM32G0xx_HAL_Driver/Inc/stm32g0xx_ll_tim.h ****   */
 918:Drivers/STM32G0xx_HAL_Driver/Inc/stm32g0xx_ll_tim.h **** #define LL_TIM_ETR_FILTER_FDIV1                0x00000000U                                         
 919:Drivers/STM32G0xx_HAL_Driver/Inc/stm32g0xx_ll_tim.h **** #define LL_TIM_ETR_FILTER_FDIV1_N2             TIM_SMCR_ETF_0                                      
 920:Drivers/STM32G0xx_HAL_Driver/Inc/stm32g0xx_ll_tim.h **** #define LL_TIM_ETR_FILTER_FDIV1_N4             TIM_SMCR_ETF_1                                      
ARM GAS  /tmp/ccHKcJQI.s 			page 33


 921:Drivers/STM32G0xx_HAL_Driver/Inc/stm32g0xx_ll_tim.h **** #define LL_TIM_ETR_FILTER_FDIV1_N8             (TIM_SMCR_ETF_1 | TIM_SMCR_ETF_0)                   
 922:Drivers/STM32G0xx_HAL_Driver/Inc/stm32g0xx_ll_tim.h **** #define LL_TIM_ETR_FILTER_FDIV2_N6             TIM_SMCR_ETF_2                                      
 923:Drivers/STM32G0xx_HAL_Driver/Inc/stm32g0xx_ll_tim.h **** #define LL_TIM_ETR_FILTER_FDIV2_N8             (TIM_SMCR_ETF_2 | TIM_SMCR_ETF_0)                   
 924:Drivers/STM32G0xx_HAL_Driver/Inc/stm32g0xx_ll_tim.h **** #define LL_TIM_ETR_FILTER_FDIV4_N6             (TIM_SMCR_ETF_2 | TIM_SMCR_ETF_1)                   
 925:Drivers/STM32G0xx_HAL_Driver/Inc/stm32g0xx_ll_tim.h **** #define LL_TIM_ETR_FILTER_FDIV4_N8             (TIM_SMCR_ETF_2 | TIM_SMCR_ETF_1 | TIM_SMCR_ETF_0)  
 926:Drivers/STM32G0xx_HAL_Driver/Inc/stm32g0xx_ll_tim.h **** #define LL_TIM_ETR_FILTER_FDIV8_N6             TIM_SMCR_ETF_3                                      
 927:Drivers/STM32G0xx_HAL_Driver/Inc/stm32g0xx_ll_tim.h **** #define LL_TIM_ETR_FILTER_FDIV8_N8             (TIM_SMCR_ETF_3 | TIM_SMCR_ETF_0)                   
 928:Drivers/STM32G0xx_HAL_Driver/Inc/stm32g0xx_ll_tim.h **** #define LL_TIM_ETR_FILTER_FDIV16_N5            (TIM_SMCR_ETF_3 | TIM_SMCR_ETF_1)                   
 929:Drivers/STM32G0xx_HAL_Driver/Inc/stm32g0xx_ll_tim.h **** #define LL_TIM_ETR_FILTER_FDIV16_N6            (TIM_SMCR_ETF_3 | TIM_SMCR_ETF_1 | TIM_SMCR_ETF_0)  
 930:Drivers/STM32G0xx_HAL_Driver/Inc/stm32g0xx_ll_tim.h **** #define LL_TIM_ETR_FILTER_FDIV16_N8            (TIM_SMCR_ETF_3 | TIM_SMCR_ETF_2)                   
 931:Drivers/STM32G0xx_HAL_Driver/Inc/stm32g0xx_ll_tim.h **** #define LL_TIM_ETR_FILTER_FDIV32_N5            (TIM_SMCR_ETF_3 | TIM_SMCR_ETF_2 | TIM_SMCR_ETF_0)  
 932:Drivers/STM32G0xx_HAL_Driver/Inc/stm32g0xx_ll_tim.h **** #define LL_TIM_ETR_FILTER_FDIV32_N6            (TIM_SMCR_ETF_3 | TIM_SMCR_ETF_2 | TIM_SMCR_ETF_1)  
 933:Drivers/STM32G0xx_HAL_Driver/Inc/stm32g0xx_ll_tim.h **** #define LL_TIM_ETR_FILTER_FDIV32_N8            TIM_SMCR_ETF                                        
 934:Drivers/STM32G0xx_HAL_Driver/Inc/stm32g0xx_ll_tim.h **** /**
 935:Drivers/STM32G0xx_HAL_Driver/Inc/stm32g0xx_ll_tim.h ****   * @}
 936:Drivers/STM32G0xx_HAL_Driver/Inc/stm32g0xx_ll_tim.h ****   */
 937:Drivers/STM32G0xx_HAL_Driver/Inc/stm32g0xx_ll_tim.h **** 
 938:Drivers/STM32G0xx_HAL_Driver/Inc/stm32g0xx_ll_tim.h **** /** @defgroup TIM_LL_EC_ETRSOURCE External Trigger Source
 939:Drivers/STM32G0xx_HAL_Driver/Inc/stm32g0xx_ll_tim.h ****   * @{
 940:Drivers/STM32G0xx_HAL_Driver/Inc/stm32g0xx_ll_tim.h ****   */
 941:Drivers/STM32G0xx_HAL_Driver/Inc/stm32g0xx_ll_tim.h **** #define LL_TIM_ETRSOURCE_GPIO                  0x00000000U                                         
 942:Drivers/STM32G0xx_HAL_Driver/Inc/stm32g0xx_ll_tim.h **** #if defined(COMP1) && defined(COMP2)
 943:Drivers/STM32G0xx_HAL_Driver/Inc/stm32g0xx_ll_tim.h **** #define LL_TIM_ETRSOURCE_COMP1                 TIM1_AF1_ETRSEL_0                                 /*
 944:Drivers/STM32G0xx_HAL_Driver/Inc/stm32g0xx_ll_tim.h **** #define LL_TIM_ETRSOURCE_COMP2                 TIM1_AF1_ETRSEL_1                                 /*
 945:Drivers/STM32G0xx_HAL_Driver/Inc/stm32g0xx_ll_tim.h **** #endif /* COMP1 && COMP2 */
 946:Drivers/STM32G0xx_HAL_Driver/Inc/stm32g0xx_ll_tim.h **** #define LL_TIM_ETRSOURCE_ADC1_AWD1             (TIM1_AF1_ETRSEL_1 | TIM1_AF1_ETRSEL_0) /*!< ETR inp
 947:Drivers/STM32G0xx_HAL_Driver/Inc/stm32g0xx_ll_tim.h **** #define LL_TIM_ETRSOURCE_ADC1_AWD2             TIM1_AF1_ETRSEL_2                                 /*
 948:Drivers/STM32G0xx_HAL_Driver/Inc/stm32g0xx_ll_tim.h **** #define LL_TIM_ETRSOURCE_ADC1_AWD3             (TIM1_AF1_ETRSEL_2 | TIM1_AF1_ETRSEL_0) /*!< ETR inp
 949:Drivers/STM32G0xx_HAL_Driver/Inc/stm32g0xx_ll_tim.h **** #define LL_TIM_ETRSOURCE_LSE                   (TIM1_AF1_ETRSEL_1 | TIM1_AF1_ETRSEL_0) /*!< ETR inp
 950:Drivers/STM32G0xx_HAL_Driver/Inc/stm32g0xx_ll_tim.h **** /**
 951:Drivers/STM32G0xx_HAL_Driver/Inc/stm32g0xx_ll_tim.h ****   * @}
 952:Drivers/STM32G0xx_HAL_Driver/Inc/stm32g0xx_ll_tim.h ****   */
 953:Drivers/STM32G0xx_HAL_Driver/Inc/stm32g0xx_ll_tim.h **** 
 954:Drivers/STM32G0xx_HAL_Driver/Inc/stm32g0xx_ll_tim.h **** /** @defgroup TIM_LL_EC_BREAK_POLARITY break polarity
 955:Drivers/STM32G0xx_HAL_Driver/Inc/stm32g0xx_ll_tim.h ****   * @{
 956:Drivers/STM32G0xx_HAL_Driver/Inc/stm32g0xx_ll_tim.h ****   */
 957:Drivers/STM32G0xx_HAL_Driver/Inc/stm32g0xx_ll_tim.h **** #define LL_TIM_BREAK_POLARITY_LOW              0x00000000U               /*!< Break input BRK is ac
 958:Drivers/STM32G0xx_HAL_Driver/Inc/stm32g0xx_ll_tim.h **** #define LL_TIM_BREAK_POLARITY_HIGH             TIM_BDTR_BKP              /*!< Break input BRK is ac
 959:Drivers/STM32G0xx_HAL_Driver/Inc/stm32g0xx_ll_tim.h **** /**
 960:Drivers/STM32G0xx_HAL_Driver/Inc/stm32g0xx_ll_tim.h ****   * @}
 961:Drivers/STM32G0xx_HAL_Driver/Inc/stm32g0xx_ll_tim.h ****   */
 962:Drivers/STM32G0xx_HAL_Driver/Inc/stm32g0xx_ll_tim.h **** 
 963:Drivers/STM32G0xx_HAL_Driver/Inc/stm32g0xx_ll_tim.h **** /** @defgroup TIM_LL_EC_BREAK_FILTER break filter
 964:Drivers/STM32G0xx_HAL_Driver/Inc/stm32g0xx_ll_tim.h ****   * @{
 965:Drivers/STM32G0xx_HAL_Driver/Inc/stm32g0xx_ll_tim.h ****   */
 966:Drivers/STM32G0xx_HAL_Driver/Inc/stm32g0xx_ll_tim.h **** #define LL_TIM_BREAK_FILTER_FDIV1              0x00000000U   /*!< No filter, BRK acts asynchronousl
 967:Drivers/STM32G0xx_HAL_Driver/Inc/stm32g0xx_ll_tim.h **** #define LL_TIM_BREAK_FILTER_FDIV1_N2           0x00010000U   /*!< fSAMPLING=fCK_INT, N=2 */
 968:Drivers/STM32G0xx_HAL_Driver/Inc/stm32g0xx_ll_tim.h **** #define LL_TIM_BREAK_FILTER_FDIV1_N4           0x00020000U   /*!< fSAMPLING=fCK_INT, N=4 */
 969:Drivers/STM32G0xx_HAL_Driver/Inc/stm32g0xx_ll_tim.h **** #define LL_TIM_BREAK_FILTER_FDIV1_N8           0x00030000U   /*!< fSAMPLING=fCK_INT, N=8 */
 970:Drivers/STM32G0xx_HAL_Driver/Inc/stm32g0xx_ll_tim.h **** #define LL_TIM_BREAK_FILTER_FDIV2_N6           0x00040000U   /*!< fSAMPLING=fDTS/2, N=6 */
 971:Drivers/STM32G0xx_HAL_Driver/Inc/stm32g0xx_ll_tim.h **** #define LL_TIM_BREAK_FILTER_FDIV2_N8           0x00050000U   /*!< fSAMPLING=fDTS/2, N=8 */
 972:Drivers/STM32G0xx_HAL_Driver/Inc/stm32g0xx_ll_tim.h **** #define LL_TIM_BREAK_FILTER_FDIV4_N6           0x00060000U   /*!< fSAMPLING=fDTS/4, N=6 */
 973:Drivers/STM32G0xx_HAL_Driver/Inc/stm32g0xx_ll_tim.h **** #define LL_TIM_BREAK_FILTER_FDIV4_N8           0x00070000U   /*!< fSAMPLING=fDTS/4, N=8 */
 974:Drivers/STM32G0xx_HAL_Driver/Inc/stm32g0xx_ll_tim.h **** #define LL_TIM_BREAK_FILTER_FDIV8_N6           0x00080000U   /*!< fSAMPLING=fDTS/8, N=6 */
 975:Drivers/STM32G0xx_HAL_Driver/Inc/stm32g0xx_ll_tim.h **** #define LL_TIM_BREAK_FILTER_FDIV8_N8           0x00090000U   /*!< fSAMPLING=fDTS/8, N=8 */
 976:Drivers/STM32G0xx_HAL_Driver/Inc/stm32g0xx_ll_tim.h **** #define LL_TIM_BREAK_FILTER_FDIV16_N5          0x000A0000U   /*!< fSAMPLING=fDTS/16, N=5 */
 977:Drivers/STM32G0xx_HAL_Driver/Inc/stm32g0xx_ll_tim.h **** #define LL_TIM_BREAK_FILTER_FDIV16_N6          0x000B0000U   /*!< fSAMPLING=fDTS/16, N=6 */
ARM GAS  /tmp/ccHKcJQI.s 			page 34


 978:Drivers/STM32G0xx_HAL_Driver/Inc/stm32g0xx_ll_tim.h **** #define LL_TIM_BREAK_FILTER_FDIV16_N8          0x000C0000U   /*!< fSAMPLING=fDTS/16, N=8 */
 979:Drivers/STM32G0xx_HAL_Driver/Inc/stm32g0xx_ll_tim.h **** #define LL_TIM_BREAK_FILTER_FDIV32_N5          0x000D0000U   /*!< fSAMPLING=fDTS/32, N=5 */
 980:Drivers/STM32G0xx_HAL_Driver/Inc/stm32g0xx_ll_tim.h **** #define LL_TIM_BREAK_FILTER_FDIV32_N6          0x000E0000U   /*!< fSAMPLING=fDTS/32, N=6 */
 981:Drivers/STM32G0xx_HAL_Driver/Inc/stm32g0xx_ll_tim.h **** #define LL_TIM_BREAK_FILTER_FDIV32_N8          0x000F0000U   /*!< fSAMPLING=fDTS/32, N=8 */
 982:Drivers/STM32G0xx_HAL_Driver/Inc/stm32g0xx_ll_tim.h **** /**
 983:Drivers/STM32G0xx_HAL_Driver/Inc/stm32g0xx_ll_tim.h ****   * @}
 984:Drivers/STM32G0xx_HAL_Driver/Inc/stm32g0xx_ll_tim.h ****   */
 985:Drivers/STM32G0xx_HAL_Driver/Inc/stm32g0xx_ll_tim.h **** 
 986:Drivers/STM32G0xx_HAL_Driver/Inc/stm32g0xx_ll_tim.h **** /** @defgroup TIM_LL_EC_BREAK2_POLARITY BREAK2 POLARITY
 987:Drivers/STM32G0xx_HAL_Driver/Inc/stm32g0xx_ll_tim.h ****   * @{
 988:Drivers/STM32G0xx_HAL_Driver/Inc/stm32g0xx_ll_tim.h ****   */
 989:Drivers/STM32G0xx_HAL_Driver/Inc/stm32g0xx_ll_tim.h **** #define LL_TIM_BREAK2_POLARITY_LOW             0x00000000U             /*!< Break input BRK2 is act
 990:Drivers/STM32G0xx_HAL_Driver/Inc/stm32g0xx_ll_tim.h **** #define LL_TIM_BREAK2_POLARITY_HIGH            TIM_BDTR_BK2P           /*!< Break input BRK2 is act
 991:Drivers/STM32G0xx_HAL_Driver/Inc/stm32g0xx_ll_tim.h **** /**
 992:Drivers/STM32G0xx_HAL_Driver/Inc/stm32g0xx_ll_tim.h ****   * @}
 993:Drivers/STM32G0xx_HAL_Driver/Inc/stm32g0xx_ll_tim.h ****   */
 994:Drivers/STM32G0xx_HAL_Driver/Inc/stm32g0xx_ll_tim.h **** 
 995:Drivers/STM32G0xx_HAL_Driver/Inc/stm32g0xx_ll_tim.h **** /** @defgroup TIM_LL_EC_BREAK2_FILTER BREAK2 FILTER
 996:Drivers/STM32G0xx_HAL_Driver/Inc/stm32g0xx_ll_tim.h ****   * @{
 997:Drivers/STM32G0xx_HAL_Driver/Inc/stm32g0xx_ll_tim.h ****   */
 998:Drivers/STM32G0xx_HAL_Driver/Inc/stm32g0xx_ll_tim.h **** #define LL_TIM_BREAK2_FILTER_FDIV1             0x00000000U   /*!< No filter, BRK acts asynchronousl
 999:Drivers/STM32G0xx_HAL_Driver/Inc/stm32g0xx_ll_tim.h **** #define LL_TIM_BREAK2_FILTER_FDIV1_N2          0x00100000U   /*!< fSAMPLING=fCK_INT, N=2 */
1000:Drivers/STM32G0xx_HAL_Driver/Inc/stm32g0xx_ll_tim.h **** #define LL_TIM_BREAK2_FILTER_FDIV1_N4          0x00200000U   /*!< fSAMPLING=fCK_INT, N=4 */
1001:Drivers/STM32G0xx_HAL_Driver/Inc/stm32g0xx_ll_tim.h **** #define LL_TIM_BREAK2_FILTER_FDIV1_N8          0x00300000U   /*!< fSAMPLING=fCK_INT, N=8 */
1002:Drivers/STM32G0xx_HAL_Driver/Inc/stm32g0xx_ll_tim.h **** #define LL_TIM_BREAK2_FILTER_FDIV2_N6          0x00400000U   /*!< fSAMPLING=fDTS/2, N=6 */
1003:Drivers/STM32G0xx_HAL_Driver/Inc/stm32g0xx_ll_tim.h **** #define LL_TIM_BREAK2_FILTER_FDIV2_N8          0x00500000U   /*!< fSAMPLING=fDTS/2, N=8 */
1004:Drivers/STM32G0xx_HAL_Driver/Inc/stm32g0xx_ll_tim.h **** #define LL_TIM_BREAK2_FILTER_FDIV4_N6          0x00600000U   /*!< fSAMPLING=fDTS/4, N=6 */
1005:Drivers/STM32G0xx_HAL_Driver/Inc/stm32g0xx_ll_tim.h **** #define LL_TIM_BREAK2_FILTER_FDIV4_N8          0x00700000U   /*!< fSAMPLING=fDTS/4, N=8 */
1006:Drivers/STM32G0xx_HAL_Driver/Inc/stm32g0xx_ll_tim.h **** #define LL_TIM_BREAK2_FILTER_FDIV8_N6          0x00800000U   /*!< fSAMPLING=fDTS/8, N=6 */
1007:Drivers/STM32G0xx_HAL_Driver/Inc/stm32g0xx_ll_tim.h **** #define LL_TIM_BREAK2_FILTER_FDIV8_N8          0x00900000U   /*!< fSAMPLING=fDTS/8, N=8 */
1008:Drivers/STM32G0xx_HAL_Driver/Inc/stm32g0xx_ll_tim.h **** #define LL_TIM_BREAK2_FILTER_FDIV16_N5         0x00A00000U   /*!< fSAMPLING=fDTS/16, N=5 */
1009:Drivers/STM32G0xx_HAL_Driver/Inc/stm32g0xx_ll_tim.h **** #define LL_TIM_BREAK2_FILTER_FDIV16_N6         0x00B00000U   /*!< fSAMPLING=fDTS/16, N=6 */
1010:Drivers/STM32G0xx_HAL_Driver/Inc/stm32g0xx_ll_tim.h **** #define LL_TIM_BREAK2_FILTER_FDIV16_N8         0x00C00000U   /*!< fSAMPLING=fDTS/16, N=8 */
1011:Drivers/STM32G0xx_HAL_Driver/Inc/stm32g0xx_ll_tim.h **** #define LL_TIM_BREAK2_FILTER_FDIV32_N5         0x00D00000U   /*!< fSAMPLING=fDTS/32, N=5 */
1012:Drivers/STM32G0xx_HAL_Driver/Inc/stm32g0xx_ll_tim.h **** #define LL_TIM_BREAK2_FILTER_FDIV32_N6         0x00E00000U   /*!< fSAMPLING=fDTS/32, N=6 */
1013:Drivers/STM32G0xx_HAL_Driver/Inc/stm32g0xx_ll_tim.h **** #define LL_TIM_BREAK2_FILTER_FDIV32_N8         0x00F00000U   /*!< fSAMPLING=fDTS/32, N=8 */
1014:Drivers/STM32G0xx_HAL_Driver/Inc/stm32g0xx_ll_tim.h **** /**
1015:Drivers/STM32G0xx_HAL_Driver/Inc/stm32g0xx_ll_tim.h ****   * @}
1016:Drivers/STM32G0xx_HAL_Driver/Inc/stm32g0xx_ll_tim.h ****   */
1017:Drivers/STM32G0xx_HAL_Driver/Inc/stm32g0xx_ll_tim.h **** 
1018:Drivers/STM32G0xx_HAL_Driver/Inc/stm32g0xx_ll_tim.h **** /** @defgroup TIM_LL_EC_OSSI OSSI
1019:Drivers/STM32G0xx_HAL_Driver/Inc/stm32g0xx_ll_tim.h ****   * @{
1020:Drivers/STM32G0xx_HAL_Driver/Inc/stm32g0xx_ll_tim.h ****   */
1021:Drivers/STM32G0xx_HAL_Driver/Inc/stm32g0xx_ll_tim.h **** #define LL_TIM_OSSI_DISABLE                    0x00000000U             /*!< When inactive, OCx/OCxN
1022:Drivers/STM32G0xx_HAL_Driver/Inc/stm32g0xx_ll_tim.h **** #define LL_TIM_OSSI_ENABLE                     TIM_BDTR_OSSI           /*!< When inactive, OxC/OCxN
1023:Drivers/STM32G0xx_HAL_Driver/Inc/stm32g0xx_ll_tim.h **** /**
1024:Drivers/STM32G0xx_HAL_Driver/Inc/stm32g0xx_ll_tim.h ****   * @}
1025:Drivers/STM32G0xx_HAL_Driver/Inc/stm32g0xx_ll_tim.h ****   */
1026:Drivers/STM32G0xx_HAL_Driver/Inc/stm32g0xx_ll_tim.h **** 
1027:Drivers/STM32G0xx_HAL_Driver/Inc/stm32g0xx_ll_tim.h **** /** @defgroup TIM_LL_EC_OSSR OSSR
1028:Drivers/STM32G0xx_HAL_Driver/Inc/stm32g0xx_ll_tim.h ****   * @{
1029:Drivers/STM32G0xx_HAL_Driver/Inc/stm32g0xx_ll_tim.h ****   */
1030:Drivers/STM32G0xx_HAL_Driver/Inc/stm32g0xx_ll_tim.h **** #define LL_TIM_OSSR_DISABLE                    0x00000000U             /*!< When inactive, OCx/OCxN
1031:Drivers/STM32G0xx_HAL_Driver/Inc/stm32g0xx_ll_tim.h **** #define LL_TIM_OSSR_ENABLE                     TIM_BDTR_OSSR           /*!< When inactive, OC/OCN o
1032:Drivers/STM32G0xx_HAL_Driver/Inc/stm32g0xx_ll_tim.h **** /**
1033:Drivers/STM32G0xx_HAL_Driver/Inc/stm32g0xx_ll_tim.h ****   * @}
1034:Drivers/STM32G0xx_HAL_Driver/Inc/stm32g0xx_ll_tim.h ****   */
ARM GAS  /tmp/ccHKcJQI.s 			page 35


1035:Drivers/STM32G0xx_HAL_Driver/Inc/stm32g0xx_ll_tim.h **** 
1036:Drivers/STM32G0xx_HAL_Driver/Inc/stm32g0xx_ll_tim.h **** /** @defgroup TIM_LL_EC_BREAK_INPUT BREAK INPUT
1037:Drivers/STM32G0xx_HAL_Driver/Inc/stm32g0xx_ll_tim.h ****   * @{
1038:Drivers/STM32G0xx_HAL_Driver/Inc/stm32g0xx_ll_tim.h ****   */
1039:Drivers/STM32G0xx_HAL_Driver/Inc/stm32g0xx_ll_tim.h **** #define LL_TIM_BREAK_INPUT_BKIN                0x00000000U  /*!< TIMx_BKIN input */
1040:Drivers/STM32G0xx_HAL_Driver/Inc/stm32g0xx_ll_tim.h **** #define LL_TIM_BREAK_INPUT_BKIN2               0x00000004U  /*!< TIMx_BKIN2 input */
1041:Drivers/STM32G0xx_HAL_Driver/Inc/stm32g0xx_ll_tim.h **** /**
1042:Drivers/STM32G0xx_HAL_Driver/Inc/stm32g0xx_ll_tim.h ****   * @}
1043:Drivers/STM32G0xx_HAL_Driver/Inc/stm32g0xx_ll_tim.h ****   */
1044:Drivers/STM32G0xx_HAL_Driver/Inc/stm32g0xx_ll_tim.h **** 
1045:Drivers/STM32G0xx_HAL_Driver/Inc/stm32g0xx_ll_tim.h **** /** @defgroup TIM_LL_EC_BKIN_SOURCE BKIN SOURCE
1046:Drivers/STM32G0xx_HAL_Driver/Inc/stm32g0xx_ll_tim.h ****   * @{
1047:Drivers/STM32G0xx_HAL_Driver/Inc/stm32g0xx_ll_tim.h ****   */
1048:Drivers/STM32G0xx_HAL_Driver/Inc/stm32g0xx_ll_tim.h **** #define LL_TIM_BKIN_SOURCE_BKIN                TIM1_AF1_BKINE      /*!< BKIN input from AF controll
1049:Drivers/STM32G0xx_HAL_Driver/Inc/stm32g0xx_ll_tim.h **** #if defined(COMP1) && defined(COMP2)
1050:Drivers/STM32G0xx_HAL_Driver/Inc/stm32g0xx_ll_tim.h **** #define LL_TIM_BKIN_SOURCE_BKCOMP1             TIM1_AF1_BKCMP1E    /*!< internal signal: COMP1 outp
1051:Drivers/STM32G0xx_HAL_Driver/Inc/stm32g0xx_ll_tim.h **** #define LL_TIM_BKIN_SOURCE_BKCOMP2             TIM1_AF1_BKCMP2E    /*!< internal signal: COMP2 outp
1052:Drivers/STM32G0xx_HAL_Driver/Inc/stm32g0xx_ll_tim.h **** #endif /* COMP1 && COMP2 */
1053:Drivers/STM32G0xx_HAL_Driver/Inc/stm32g0xx_ll_tim.h **** /**
1054:Drivers/STM32G0xx_HAL_Driver/Inc/stm32g0xx_ll_tim.h ****   * @}
1055:Drivers/STM32G0xx_HAL_Driver/Inc/stm32g0xx_ll_tim.h ****   */
1056:Drivers/STM32G0xx_HAL_Driver/Inc/stm32g0xx_ll_tim.h **** 
1057:Drivers/STM32G0xx_HAL_Driver/Inc/stm32g0xx_ll_tim.h **** /** @defgroup TIM_LL_EC_BKIN_POLARITY BKIN POLARITY
1058:Drivers/STM32G0xx_HAL_Driver/Inc/stm32g0xx_ll_tim.h ****   * @{
1059:Drivers/STM32G0xx_HAL_Driver/Inc/stm32g0xx_ll_tim.h ****   */
1060:Drivers/STM32G0xx_HAL_Driver/Inc/stm32g0xx_ll_tim.h **** #define LL_TIM_BKIN_POLARITY_LOW               TIM1_AF1_BKINP           /*!< BRK BKIN input is acti
1061:Drivers/STM32G0xx_HAL_Driver/Inc/stm32g0xx_ll_tim.h **** #define LL_TIM_BKIN_POLARITY_HIGH              0x00000000U              /*!< BRK BKIN input is acti
1062:Drivers/STM32G0xx_HAL_Driver/Inc/stm32g0xx_ll_tim.h **** /**
1063:Drivers/STM32G0xx_HAL_Driver/Inc/stm32g0xx_ll_tim.h ****   * @}
1064:Drivers/STM32G0xx_HAL_Driver/Inc/stm32g0xx_ll_tim.h ****   */
1065:Drivers/STM32G0xx_HAL_Driver/Inc/stm32g0xx_ll_tim.h **** 
1066:Drivers/STM32G0xx_HAL_Driver/Inc/stm32g0xx_ll_tim.h **** /** @defgroup TIM_LL_EC_BREAK_AFMODE BREAK AF MODE
1067:Drivers/STM32G0xx_HAL_Driver/Inc/stm32g0xx_ll_tim.h ****   * @{
1068:Drivers/STM32G0xx_HAL_Driver/Inc/stm32g0xx_ll_tim.h ****   */
1069:Drivers/STM32G0xx_HAL_Driver/Inc/stm32g0xx_ll_tim.h **** #define LL_TIM_BREAK_AFMODE_INPUT              0x00000000U              /*!< Break input BRK in inp
1070:Drivers/STM32G0xx_HAL_Driver/Inc/stm32g0xx_ll_tim.h **** #define LL_TIM_BREAK_AFMODE_BIDIRECTIONAL      TIM_BDTR_BKBID           /*!< Break input BRK in bid
1071:Drivers/STM32G0xx_HAL_Driver/Inc/stm32g0xx_ll_tim.h **** /**
1072:Drivers/STM32G0xx_HAL_Driver/Inc/stm32g0xx_ll_tim.h ****   * @}
1073:Drivers/STM32G0xx_HAL_Driver/Inc/stm32g0xx_ll_tim.h ****   */
1074:Drivers/STM32G0xx_HAL_Driver/Inc/stm32g0xx_ll_tim.h **** 
1075:Drivers/STM32G0xx_HAL_Driver/Inc/stm32g0xx_ll_tim.h **** /** @defgroup TIM_LL_EC_BREAK2_AFMODE BREAK2 AF MODE
1076:Drivers/STM32G0xx_HAL_Driver/Inc/stm32g0xx_ll_tim.h ****   * @{
1077:Drivers/STM32G0xx_HAL_Driver/Inc/stm32g0xx_ll_tim.h ****   */
1078:Drivers/STM32G0xx_HAL_Driver/Inc/stm32g0xx_ll_tim.h **** #define LL_TIM_BREAK2_AFMODE_INPUT             0x00000000U             /*!< Break2 input BRK2 in in
1079:Drivers/STM32G0xx_HAL_Driver/Inc/stm32g0xx_ll_tim.h **** #define LL_TIM_BREAK2_AFMODE_BIDIRECTIONAL     TIM_BDTR_BK2BID         /*!< Break2 input BRK2 in bi
1080:Drivers/STM32G0xx_HAL_Driver/Inc/stm32g0xx_ll_tim.h **** /**
1081:Drivers/STM32G0xx_HAL_Driver/Inc/stm32g0xx_ll_tim.h ****   * @}
1082:Drivers/STM32G0xx_HAL_Driver/Inc/stm32g0xx_ll_tim.h ****   */
1083:Drivers/STM32G0xx_HAL_Driver/Inc/stm32g0xx_ll_tim.h **** 
1084:Drivers/STM32G0xx_HAL_Driver/Inc/stm32g0xx_ll_tim.h **** /** @defgroup TIM_LL_EC_DMABURST_BASEADDR DMA Burst Base Address
1085:Drivers/STM32G0xx_HAL_Driver/Inc/stm32g0xx_ll_tim.h ****   * @{
1086:Drivers/STM32G0xx_HAL_Driver/Inc/stm32g0xx_ll_tim.h ****   */
1087:Drivers/STM32G0xx_HAL_Driver/Inc/stm32g0xx_ll_tim.h **** #define LL_TIM_DMABURST_BASEADDR_CR1           0x00000000U                                         
1088:Drivers/STM32G0xx_HAL_Driver/Inc/stm32g0xx_ll_tim.h **** #define LL_TIM_DMABURST_BASEADDR_CR2           TIM_DCR_DBA_0                                       
1089:Drivers/STM32G0xx_HAL_Driver/Inc/stm32g0xx_ll_tim.h **** #define LL_TIM_DMABURST_BASEADDR_SMCR          TIM_DCR_DBA_1                                       
1090:Drivers/STM32G0xx_HAL_Driver/Inc/stm32g0xx_ll_tim.h **** #define LL_TIM_DMABURST_BASEADDR_DIER          (TIM_DCR_DBA_1 |  TIM_DCR_DBA_0)                    
1091:Drivers/STM32G0xx_HAL_Driver/Inc/stm32g0xx_ll_tim.h **** #define LL_TIM_DMABURST_BASEADDR_SR            TIM_DCR_DBA_2                                       
ARM GAS  /tmp/ccHKcJQI.s 			page 36


1092:Drivers/STM32G0xx_HAL_Driver/Inc/stm32g0xx_ll_tim.h **** #define LL_TIM_DMABURST_BASEADDR_EGR           (TIM_DCR_DBA_2 | TIM_DCR_DBA_0)                     
1093:Drivers/STM32G0xx_HAL_Driver/Inc/stm32g0xx_ll_tim.h **** #define LL_TIM_DMABURST_BASEADDR_CCMR1         (TIM_DCR_DBA_2 | TIM_DCR_DBA_1)                     
1094:Drivers/STM32G0xx_HAL_Driver/Inc/stm32g0xx_ll_tim.h **** #define LL_TIM_DMABURST_BASEADDR_CCMR2         (TIM_DCR_DBA_2 | TIM_DCR_DBA_1 | TIM_DCR_DBA_0)     
1095:Drivers/STM32G0xx_HAL_Driver/Inc/stm32g0xx_ll_tim.h **** #define LL_TIM_DMABURST_BASEADDR_CCER          TIM_DCR_DBA_3                                       
1096:Drivers/STM32G0xx_HAL_Driver/Inc/stm32g0xx_ll_tim.h **** #define LL_TIM_DMABURST_BASEADDR_CNT           (TIM_DCR_DBA_3 | TIM_DCR_DBA_0)                     
1097:Drivers/STM32G0xx_HAL_Driver/Inc/stm32g0xx_ll_tim.h **** #define LL_TIM_DMABURST_BASEADDR_PSC           (TIM_DCR_DBA_3 | TIM_DCR_DBA_1)                     
1098:Drivers/STM32G0xx_HAL_Driver/Inc/stm32g0xx_ll_tim.h **** #define LL_TIM_DMABURST_BASEADDR_ARR           (TIM_DCR_DBA_3 | TIM_DCR_DBA_1 | TIM_DCR_DBA_0)     
1099:Drivers/STM32G0xx_HAL_Driver/Inc/stm32g0xx_ll_tim.h **** #define LL_TIM_DMABURST_BASEADDR_RCR           (TIM_DCR_DBA_3 | TIM_DCR_DBA_2)                     
1100:Drivers/STM32G0xx_HAL_Driver/Inc/stm32g0xx_ll_tim.h **** #define LL_TIM_DMABURST_BASEADDR_CCR1          (TIM_DCR_DBA_3 | TIM_DCR_DBA_2 | TIM_DCR_DBA_0)     
1101:Drivers/STM32G0xx_HAL_Driver/Inc/stm32g0xx_ll_tim.h **** #define LL_TIM_DMABURST_BASEADDR_CCR2          (TIM_DCR_DBA_3 | TIM_DCR_DBA_2 | TIM_DCR_DBA_1)     
1102:Drivers/STM32G0xx_HAL_Driver/Inc/stm32g0xx_ll_tim.h **** #define LL_TIM_DMABURST_BASEADDR_CCR3          (TIM_DCR_DBA_3 | TIM_DCR_DBA_2 | TIM_DCR_DBA_1 | TIM
1103:Drivers/STM32G0xx_HAL_Driver/Inc/stm32g0xx_ll_tim.h **** #define LL_TIM_DMABURST_BASEADDR_CCR4          TIM_DCR_DBA_4                                       
1104:Drivers/STM32G0xx_HAL_Driver/Inc/stm32g0xx_ll_tim.h **** #define LL_TIM_DMABURST_BASEADDR_BDTR          (TIM_DCR_DBA_4 | TIM_DCR_DBA_0)                     
1105:Drivers/STM32G0xx_HAL_Driver/Inc/stm32g0xx_ll_tim.h **** #define LL_TIM_DMABURST_BASEADDR_OR1            (TIM_DCR_DBA_4 | TIM_DCR_DBA_2)                    
1106:Drivers/STM32G0xx_HAL_Driver/Inc/stm32g0xx_ll_tim.h **** #define LL_TIM_DMABURST_BASEADDR_CCMR3         (TIM_DCR_DBA_4 | TIM_DCR_DBA_2 | TIM_DCR_DBA_0)     
1107:Drivers/STM32G0xx_HAL_Driver/Inc/stm32g0xx_ll_tim.h **** #define LL_TIM_DMABURST_BASEADDR_CCR5          (TIM_DCR_DBA_4 | TIM_DCR_DBA_2 | TIM_DCR_DBA_1)     
1108:Drivers/STM32G0xx_HAL_Driver/Inc/stm32g0xx_ll_tim.h **** #define LL_TIM_DMABURST_BASEADDR_CCR6          (TIM_DCR_DBA_4 | TIM_DCR_DBA_2 | TIM_DCR_DBA_1 | TIM
1109:Drivers/STM32G0xx_HAL_Driver/Inc/stm32g0xx_ll_tim.h **** #define LL_TIM_DMABURST_BASEADDR_AF1           (TIM_DCR_DBA_4 | TIM_DCR_DBA_3)                     
1110:Drivers/STM32G0xx_HAL_Driver/Inc/stm32g0xx_ll_tim.h **** #define LL_TIM_DMABURST_BASEADDR_AF2           (TIM_DCR_DBA_4 | TIM_DCR_DBA_3 | TIM_DCR_DBA_0)     
1111:Drivers/STM32G0xx_HAL_Driver/Inc/stm32g0xx_ll_tim.h **** #define LL_TIM_DMABURST_BASEADDR_TISEL         (TIM_DCR_DBA_4 | TIM_DCR_DBA_3 | TIM_DCR_DBA_1)     
1112:Drivers/STM32G0xx_HAL_Driver/Inc/stm32g0xx_ll_tim.h **** /**
1113:Drivers/STM32G0xx_HAL_Driver/Inc/stm32g0xx_ll_tim.h ****   * @}
1114:Drivers/STM32G0xx_HAL_Driver/Inc/stm32g0xx_ll_tim.h ****   */
1115:Drivers/STM32G0xx_HAL_Driver/Inc/stm32g0xx_ll_tim.h **** 
1116:Drivers/STM32G0xx_HAL_Driver/Inc/stm32g0xx_ll_tim.h **** /** @defgroup TIM_LL_EC_DMABURST_LENGTH DMA Burst Length
1117:Drivers/STM32G0xx_HAL_Driver/Inc/stm32g0xx_ll_tim.h ****   * @{
1118:Drivers/STM32G0xx_HAL_Driver/Inc/stm32g0xx_ll_tim.h ****   */
1119:Drivers/STM32G0xx_HAL_Driver/Inc/stm32g0xx_ll_tim.h **** #define LL_TIM_DMABURST_LENGTH_1TRANSFER       0x00000000U                                         
1120:Drivers/STM32G0xx_HAL_Driver/Inc/stm32g0xx_ll_tim.h **** #define LL_TIM_DMABURST_LENGTH_2TRANSFERS      TIM_DCR_DBL_0                                       
1121:Drivers/STM32G0xx_HAL_Driver/Inc/stm32g0xx_ll_tim.h **** #define LL_TIM_DMABURST_LENGTH_3TRANSFERS      TIM_DCR_DBL_1                                       
1122:Drivers/STM32G0xx_HAL_Driver/Inc/stm32g0xx_ll_tim.h **** #define LL_TIM_DMABURST_LENGTH_4TRANSFERS      (TIM_DCR_DBL_1 |  TIM_DCR_DBL_0)                    
1123:Drivers/STM32G0xx_HAL_Driver/Inc/stm32g0xx_ll_tim.h **** #define LL_TIM_DMABURST_LENGTH_5TRANSFERS      TIM_DCR_DBL_2                                       
1124:Drivers/STM32G0xx_HAL_Driver/Inc/stm32g0xx_ll_tim.h **** #define LL_TIM_DMABURST_LENGTH_6TRANSFERS      (TIM_DCR_DBL_2 | TIM_DCR_DBL_0)                     
1125:Drivers/STM32G0xx_HAL_Driver/Inc/stm32g0xx_ll_tim.h **** #define LL_TIM_DMABURST_LENGTH_7TRANSFERS      (TIM_DCR_DBL_2 | TIM_DCR_DBL_1)                     
1126:Drivers/STM32G0xx_HAL_Driver/Inc/stm32g0xx_ll_tim.h **** #define LL_TIM_DMABURST_LENGTH_8TRANSFERS      (TIM_DCR_DBL_2 | TIM_DCR_DBL_1 | TIM_DCR_DBL_0)     
1127:Drivers/STM32G0xx_HAL_Driver/Inc/stm32g0xx_ll_tim.h **** #define LL_TIM_DMABURST_LENGTH_9TRANSFERS      TIM_DCR_DBL_3                                       
1128:Drivers/STM32G0xx_HAL_Driver/Inc/stm32g0xx_ll_tim.h **** #define LL_TIM_DMABURST_LENGTH_10TRANSFERS     (TIM_DCR_DBL_3 | TIM_DCR_DBL_0)                     
1129:Drivers/STM32G0xx_HAL_Driver/Inc/stm32g0xx_ll_tim.h **** #define LL_TIM_DMABURST_LENGTH_11TRANSFERS     (TIM_DCR_DBL_3 | TIM_DCR_DBL_1)                     
1130:Drivers/STM32G0xx_HAL_Driver/Inc/stm32g0xx_ll_tim.h **** #define LL_TIM_DMABURST_LENGTH_12TRANSFERS     (TIM_DCR_DBL_3 | TIM_DCR_DBL_1 | TIM_DCR_DBL_0)     
1131:Drivers/STM32G0xx_HAL_Driver/Inc/stm32g0xx_ll_tim.h **** #define LL_TIM_DMABURST_LENGTH_13TRANSFERS     (TIM_DCR_DBL_3 | TIM_DCR_DBL_2)                     
1132:Drivers/STM32G0xx_HAL_Driver/Inc/stm32g0xx_ll_tim.h **** #define LL_TIM_DMABURST_LENGTH_14TRANSFERS     (TIM_DCR_DBL_3 | TIM_DCR_DBL_2 | TIM_DCR_DBL_0)     
1133:Drivers/STM32G0xx_HAL_Driver/Inc/stm32g0xx_ll_tim.h **** #define LL_TIM_DMABURST_LENGTH_15TRANSFERS     (TIM_DCR_DBL_3 | TIM_DCR_DBL_2 | TIM_DCR_DBL_1)     
1134:Drivers/STM32G0xx_HAL_Driver/Inc/stm32g0xx_ll_tim.h **** #define LL_TIM_DMABURST_LENGTH_16TRANSFERS     (TIM_DCR_DBL_3 | TIM_DCR_DBL_2 | TIM_DCR_DBL_1 | TIM
1135:Drivers/STM32G0xx_HAL_Driver/Inc/stm32g0xx_ll_tim.h **** #define LL_TIM_DMABURST_LENGTH_17TRANSFERS     TIM_DCR_DBL_4                                       
1136:Drivers/STM32G0xx_HAL_Driver/Inc/stm32g0xx_ll_tim.h **** #define LL_TIM_DMABURST_LENGTH_18TRANSFERS     (TIM_DCR_DBL_4 |  TIM_DCR_DBL_0)                    
1137:Drivers/STM32G0xx_HAL_Driver/Inc/stm32g0xx_ll_tim.h **** /**
1138:Drivers/STM32G0xx_HAL_Driver/Inc/stm32g0xx_ll_tim.h ****   * @}
1139:Drivers/STM32G0xx_HAL_Driver/Inc/stm32g0xx_ll_tim.h ****   */
1140:Drivers/STM32G0xx_HAL_Driver/Inc/stm32g0xx_ll_tim.h **** 
1141:Drivers/STM32G0xx_HAL_Driver/Inc/stm32g0xx_ll_tim.h **** /** @defgroup TIM_LL_EC_TIM1_TI1_RMP  TIM1 Timer Input Ch1 Remap
1142:Drivers/STM32G0xx_HAL_Driver/Inc/stm32g0xx_ll_tim.h ****   * @{
1143:Drivers/STM32G0xx_HAL_Driver/Inc/stm32g0xx_ll_tim.h ****   */
1144:Drivers/STM32G0xx_HAL_Driver/Inc/stm32g0xx_ll_tim.h **** #define LL_TIM_TIM1_TI1_RMP_GPIO   0x00000000U                                       /*!< TIM1 inpu
1145:Drivers/STM32G0xx_HAL_Driver/Inc/stm32g0xx_ll_tim.h **** #if defined(COMP1)
1146:Drivers/STM32G0xx_HAL_Driver/Inc/stm32g0xx_ll_tim.h **** #define LL_TIM_TIM1_TI1_RMP_COMP1  TIM_TISEL_TI1SEL_0                                /*!< TIM1 inpu
1147:Drivers/STM32G0xx_HAL_Driver/Inc/stm32g0xx_ll_tim.h **** #endif
1148:Drivers/STM32G0xx_HAL_Driver/Inc/stm32g0xx_ll_tim.h **** /**
ARM GAS  /tmp/ccHKcJQI.s 			page 37


1149:Drivers/STM32G0xx_HAL_Driver/Inc/stm32g0xx_ll_tim.h ****   * @}
1150:Drivers/STM32G0xx_HAL_Driver/Inc/stm32g0xx_ll_tim.h ****   */
1151:Drivers/STM32G0xx_HAL_Driver/Inc/stm32g0xx_ll_tim.h **** 
1152:Drivers/STM32G0xx_HAL_Driver/Inc/stm32g0xx_ll_tim.h **** /** @defgroup TIM_LL_EC_TIM1_TI2_RMP  TIM1 Timer Input Ch2 Remap
1153:Drivers/STM32G0xx_HAL_Driver/Inc/stm32g0xx_ll_tim.h ****   * @{
1154:Drivers/STM32G0xx_HAL_Driver/Inc/stm32g0xx_ll_tim.h ****   */
1155:Drivers/STM32G0xx_HAL_Driver/Inc/stm32g0xx_ll_tim.h **** #define LL_TIM_TIM1_TI2_RMP_GPIO   0x00000000U                                       /*!< TIM1 inpu
1156:Drivers/STM32G0xx_HAL_Driver/Inc/stm32g0xx_ll_tim.h **** #if defined(COMP2)
1157:Drivers/STM32G0xx_HAL_Driver/Inc/stm32g0xx_ll_tim.h **** #define LL_TIM_TIM1_TI2_RMP_COMP2  TIM_TISEL_TI2SEL_0                                /*!< TIM1 inpu
1158:Drivers/STM32G0xx_HAL_Driver/Inc/stm32g0xx_ll_tim.h **** #endif
1159:Drivers/STM32G0xx_HAL_Driver/Inc/stm32g0xx_ll_tim.h **** /**
1160:Drivers/STM32G0xx_HAL_Driver/Inc/stm32g0xx_ll_tim.h ****   * @}
1161:Drivers/STM32G0xx_HAL_Driver/Inc/stm32g0xx_ll_tim.h ****   */
1162:Drivers/STM32G0xx_HAL_Driver/Inc/stm32g0xx_ll_tim.h **** 
1163:Drivers/STM32G0xx_HAL_Driver/Inc/stm32g0xx_ll_tim.h **** #if defined(TIM2)
1164:Drivers/STM32G0xx_HAL_Driver/Inc/stm32g0xx_ll_tim.h **** /** @defgroup TIM_LL_EC_TIM2_TI1_RMP  TIM2 Timer Input Ch1 Remap
1165:Drivers/STM32G0xx_HAL_Driver/Inc/stm32g0xx_ll_tim.h ****   * @{
1166:Drivers/STM32G0xx_HAL_Driver/Inc/stm32g0xx_ll_tim.h ****   */
1167:Drivers/STM32G0xx_HAL_Driver/Inc/stm32g0xx_ll_tim.h **** #define LL_TIM_TIM2_TI1_RMP_GPIO   0x00000000U                                       /*!< TIM2 inpu
1168:Drivers/STM32G0xx_HAL_Driver/Inc/stm32g0xx_ll_tim.h **** #define LL_TIM_TIM2_TI1_RMP_COMP1  TIM_TISEL_TI1SEL_0                                /*!< TIM2 inpu
1169:Drivers/STM32G0xx_HAL_Driver/Inc/stm32g0xx_ll_tim.h **** /**
1170:Drivers/STM32G0xx_HAL_Driver/Inc/stm32g0xx_ll_tim.h ****   * @}
1171:Drivers/STM32G0xx_HAL_Driver/Inc/stm32g0xx_ll_tim.h ****   */
1172:Drivers/STM32G0xx_HAL_Driver/Inc/stm32g0xx_ll_tim.h **** 
1173:Drivers/STM32G0xx_HAL_Driver/Inc/stm32g0xx_ll_tim.h **** /** @defgroup TIM_LL_EC_TIM2_TI2_RMP  TIM2 Timer Input Ch2 Remap
1174:Drivers/STM32G0xx_HAL_Driver/Inc/stm32g0xx_ll_tim.h ****   * @{
1175:Drivers/STM32G0xx_HAL_Driver/Inc/stm32g0xx_ll_tim.h ****   */
1176:Drivers/STM32G0xx_HAL_Driver/Inc/stm32g0xx_ll_tim.h **** #define LL_TIM_TIM2_TI2_RMP_GPIO   0x00000000U                                       /*!< TIM2 inpu
1177:Drivers/STM32G0xx_HAL_Driver/Inc/stm32g0xx_ll_tim.h **** #define LL_TIM_TIM2_TI2_RMP_COMP2  TIM_TISEL_TI2SEL_0                                /*!< TIM2 inpu
1178:Drivers/STM32G0xx_HAL_Driver/Inc/stm32g0xx_ll_tim.h **** /**
1179:Drivers/STM32G0xx_HAL_Driver/Inc/stm32g0xx_ll_tim.h ****   * @}
1180:Drivers/STM32G0xx_HAL_Driver/Inc/stm32g0xx_ll_tim.h ****   */
1181:Drivers/STM32G0xx_HAL_Driver/Inc/stm32g0xx_ll_tim.h **** #endif
1182:Drivers/STM32G0xx_HAL_Driver/Inc/stm32g0xx_ll_tim.h **** 
1183:Drivers/STM32G0xx_HAL_Driver/Inc/stm32g0xx_ll_tim.h **** /** @defgroup TIM_LL_EC_TIM3_TI1_RMP  TIM3 Timer Input Ch1 Remap
1184:Drivers/STM32G0xx_HAL_Driver/Inc/stm32g0xx_ll_tim.h ****   * @{
1185:Drivers/STM32G0xx_HAL_Driver/Inc/stm32g0xx_ll_tim.h ****   */
1186:Drivers/STM32G0xx_HAL_Driver/Inc/stm32g0xx_ll_tim.h **** #define LL_TIM_TIM3_TI1_RMP_GPIO   0x00000000U                                       /*!< TIM3 inpu
1187:Drivers/STM32G0xx_HAL_Driver/Inc/stm32g0xx_ll_tim.h **** #if defined(COMP1)
1188:Drivers/STM32G0xx_HAL_Driver/Inc/stm32g0xx_ll_tim.h **** #define LL_TIM_TIM3_TI1_RMP_COMP1  TIM_TISEL_TI1SEL_0                                /*!< TIM3 inpu
1189:Drivers/STM32G0xx_HAL_Driver/Inc/stm32g0xx_ll_tim.h **** #endif
1190:Drivers/STM32G0xx_HAL_Driver/Inc/stm32g0xx_ll_tim.h **** /**
1191:Drivers/STM32G0xx_HAL_Driver/Inc/stm32g0xx_ll_tim.h ****   * @}
1192:Drivers/STM32G0xx_HAL_Driver/Inc/stm32g0xx_ll_tim.h ****   */
1193:Drivers/STM32G0xx_HAL_Driver/Inc/stm32g0xx_ll_tim.h **** 
1194:Drivers/STM32G0xx_HAL_Driver/Inc/stm32g0xx_ll_tim.h **** /** @defgroup TIM_LL_EC_TIM3_TI2_RMP  TIM3 Timer Input Ch2 Remap
1195:Drivers/STM32G0xx_HAL_Driver/Inc/stm32g0xx_ll_tim.h ****   * @{
1196:Drivers/STM32G0xx_HAL_Driver/Inc/stm32g0xx_ll_tim.h ****   */
1197:Drivers/STM32G0xx_HAL_Driver/Inc/stm32g0xx_ll_tim.h **** #define LL_TIM_TIM3_TI2_RMP_GPIO   0x00000000U                                       /*!< TIM3 inpu
1198:Drivers/STM32G0xx_HAL_Driver/Inc/stm32g0xx_ll_tim.h **** #if defined(COMP2)
1199:Drivers/STM32G0xx_HAL_Driver/Inc/stm32g0xx_ll_tim.h **** #define LL_TIM_TIM3_TI2_RMP_COMP2  TIM_TISEL_TI2SEL_0                                /*!< TIM3 inpu
1200:Drivers/STM32G0xx_HAL_Driver/Inc/stm32g0xx_ll_tim.h **** #endif
1201:Drivers/STM32G0xx_HAL_Driver/Inc/stm32g0xx_ll_tim.h **** /**
1202:Drivers/STM32G0xx_HAL_Driver/Inc/stm32g0xx_ll_tim.h ****   * @}
1203:Drivers/STM32G0xx_HAL_Driver/Inc/stm32g0xx_ll_tim.h ****   */
1204:Drivers/STM32G0xx_HAL_Driver/Inc/stm32g0xx_ll_tim.h **** 
1205:Drivers/STM32G0xx_HAL_Driver/Inc/stm32g0xx_ll_tim.h **** /** @defgroup TIM_LL_EC_TIM14_TI1_RMP  TIM14 Timer Input Ch1 Remap
ARM GAS  /tmp/ccHKcJQI.s 			page 38


1206:Drivers/STM32G0xx_HAL_Driver/Inc/stm32g0xx_ll_tim.h ****   * @{
1207:Drivers/STM32G0xx_HAL_Driver/Inc/stm32g0xx_ll_tim.h ****   */
1208:Drivers/STM32G0xx_HAL_Driver/Inc/stm32g0xx_ll_tim.h **** #define LL_TIM_TIM14_TI1_RMP_GPIO     0x00000000U                                    /*!< TIM14 inp
1209:Drivers/STM32G0xx_HAL_Driver/Inc/stm32g0xx_ll_tim.h **** #define LL_TIM_TIM14_TI1_RMP_RTC_CLK  TIM_TISEL_TI1SEL_0                             /*!< TIM14 inp
1210:Drivers/STM32G0xx_HAL_Driver/Inc/stm32g0xx_ll_tim.h **** #define LL_TIM_TIM14_TI1_RMP_HSE_32   TIM_TISEL_TI1SEL_1                             /*!< TIM14_TI1
1211:Drivers/STM32G0xx_HAL_Driver/Inc/stm32g0xx_ll_tim.h **** #define LL_TIM_TIM14_TI1_RMP_MCO      (TIM_TISEL_TI1SEL_0  | TIM_TISEL_TI1SEL_1)     /*!< TIM14 inp
1212:Drivers/STM32G0xx_HAL_Driver/Inc/stm32g0xx_ll_tim.h **** /**
1213:Drivers/STM32G0xx_HAL_Driver/Inc/stm32g0xx_ll_tim.h ****   * @}
1214:Drivers/STM32G0xx_HAL_Driver/Inc/stm32g0xx_ll_tim.h ****   */
1215:Drivers/STM32G0xx_HAL_Driver/Inc/stm32g0xx_ll_tim.h **** 
1216:Drivers/STM32G0xx_HAL_Driver/Inc/stm32g0xx_ll_tim.h **** /** @defgroup TIM_LL_EC_TIM15_TI1_RMP  TIM15 Timer Input Ch1 Remap
1217:Drivers/STM32G0xx_HAL_Driver/Inc/stm32g0xx_ll_tim.h ****   * @{
1218:Drivers/STM32G0xx_HAL_Driver/Inc/stm32g0xx_ll_tim.h ****   */
1219:Drivers/STM32G0xx_HAL_Driver/Inc/stm32g0xx_ll_tim.h **** #if defined(TIM15)
1220:Drivers/STM32G0xx_HAL_Driver/Inc/stm32g0xx_ll_tim.h **** #define LL_TIM_TIM15_TI1_RMP_GPIO     0x00000000U                                    /*!< TIM15 inp
1221:Drivers/STM32G0xx_HAL_Driver/Inc/stm32g0xx_ll_tim.h **** #if defined(TIM2)
1222:Drivers/STM32G0xx_HAL_Driver/Inc/stm32g0xx_ll_tim.h **** #define LL_TIM_TIM15_TI1_RMP_TIM2_IC1 TIM_TISEL_TI1SEL_0                             /*!< TIM15 inp
1223:Drivers/STM32G0xx_HAL_Driver/Inc/stm32g0xx_ll_tim.h **** #endif
1224:Drivers/STM32G0xx_HAL_Driver/Inc/stm32g0xx_ll_tim.h **** #if defined(TIM3)
1225:Drivers/STM32G0xx_HAL_Driver/Inc/stm32g0xx_ll_tim.h **** #define LL_TIM_TIM15_TI1_RMP_TIM3_IC1 TIM_TISEL_TI1SEL_1                             /*!< TIM15 inp
1226:Drivers/STM32G0xx_HAL_Driver/Inc/stm32g0xx_ll_tim.h **** #endif
1227:Drivers/STM32G0xx_HAL_Driver/Inc/stm32g0xx_ll_tim.h **** #endif
1228:Drivers/STM32G0xx_HAL_Driver/Inc/stm32g0xx_ll_tim.h **** /**
1229:Drivers/STM32G0xx_HAL_Driver/Inc/stm32g0xx_ll_tim.h ****   * @}
1230:Drivers/STM32G0xx_HAL_Driver/Inc/stm32g0xx_ll_tim.h ****   */
1231:Drivers/STM32G0xx_HAL_Driver/Inc/stm32g0xx_ll_tim.h **** 
1232:Drivers/STM32G0xx_HAL_Driver/Inc/stm32g0xx_ll_tim.h **** /** @defgroup TIM_LL_EC_TIM15_TI2_RMP  TIM15 Timer Input Ch2 Remap
1233:Drivers/STM32G0xx_HAL_Driver/Inc/stm32g0xx_ll_tim.h ****   * @{
1234:Drivers/STM32G0xx_HAL_Driver/Inc/stm32g0xx_ll_tim.h ****   */
1235:Drivers/STM32G0xx_HAL_Driver/Inc/stm32g0xx_ll_tim.h **** #if defined(TIM15)
1236:Drivers/STM32G0xx_HAL_Driver/Inc/stm32g0xx_ll_tim.h **** #define LL_TIM_TIM15_TI2_RMP_GPIO     0x00000000U                                    /*!< TIM15 inp
1237:Drivers/STM32G0xx_HAL_Driver/Inc/stm32g0xx_ll_tim.h **** #if defined(TIM2)
1238:Drivers/STM32G0xx_HAL_Driver/Inc/stm32g0xx_ll_tim.h **** #define LL_TIM_TIM15_TI2_RMP_TIM2_IC2 TIM_TISEL_TI2SEL_0                             /*!< TIM15 inp
1239:Drivers/STM32G0xx_HAL_Driver/Inc/stm32g0xx_ll_tim.h **** #endif
1240:Drivers/STM32G0xx_HAL_Driver/Inc/stm32g0xx_ll_tim.h **** #if defined(TIM3)
1241:Drivers/STM32G0xx_HAL_Driver/Inc/stm32g0xx_ll_tim.h **** #define LL_TIM_TIM15_TI2_RMP_TIM3_IC2 TIM_TISEL_TI1SEL_1                             /*!< TIM15 inp
1242:Drivers/STM32G0xx_HAL_Driver/Inc/stm32g0xx_ll_tim.h **** #endif
1243:Drivers/STM32G0xx_HAL_Driver/Inc/stm32g0xx_ll_tim.h **** #endif
1244:Drivers/STM32G0xx_HAL_Driver/Inc/stm32g0xx_ll_tim.h **** /**
1245:Drivers/STM32G0xx_HAL_Driver/Inc/stm32g0xx_ll_tim.h ****   * @}
1246:Drivers/STM32G0xx_HAL_Driver/Inc/stm32g0xx_ll_tim.h ****   */
1247:Drivers/STM32G0xx_HAL_Driver/Inc/stm32g0xx_ll_tim.h **** 
1248:Drivers/STM32G0xx_HAL_Driver/Inc/stm32g0xx_ll_tim.h **** /** @defgroup TIM_LL_EC_TIM16_TI1_RMP  TIM16 Timer Input Ch1 Remap
1249:Drivers/STM32G0xx_HAL_Driver/Inc/stm32g0xx_ll_tim.h ****   * @{
1250:Drivers/STM32G0xx_HAL_Driver/Inc/stm32g0xx_ll_tim.h ****   */
1251:Drivers/STM32G0xx_HAL_Driver/Inc/stm32g0xx_ll_tim.h **** #define LL_TIM_TIM16_TI1_RMP_GPIO    0x00000000U                                     /*!< TIM16 inp
1252:Drivers/STM32G0xx_HAL_Driver/Inc/stm32g0xx_ll_tim.h **** #define LL_TIM_TIM16_TI1_RMP_LSI     TIM_TISEL_TI1SEL_0                              /*!< TIM16 inp
1253:Drivers/STM32G0xx_HAL_Driver/Inc/stm32g0xx_ll_tim.h **** #define LL_TIM_TIM16_TI1_RMP_LSE     TIM_TISEL_TI1SEL_1                              /*!< TIM16 inp
1254:Drivers/STM32G0xx_HAL_Driver/Inc/stm32g0xx_ll_tim.h **** #define LL_TIM_TIM16_TI1_RMP_RTC_WK  (TIM_TISEL_TI1SEL_0 | TIM_TISEL_TI1SEL_1)       /*!< TIM16 inp
1255:Drivers/STM32G0xx_HAL_Driver/Inc/stm32g0xx_ll_tim.h **** /**
1256:Drivers/STM32G0xx_HAL_Driver/Inc/stm32g0xx_ll_tim.h ****   * @}
1257:Drivers/STM32G0xx_HAL_Driver/Inc/stm32g0xx_ll_tim.h ****   */
1258:Drivers/STM32G0xx_HAL_Driver/Inc/stm32g0xx_ll_tim.h **** 
1259:Drivers/STM32G0xx_HAL_Driver/Inc/stm32g0xx_ll_tim.h **** /** @defgroup TIM_LL_EC_TIM17_TI1_RMP  TIM17 Timer Input Ch1 Remap
1260:Drivers/STM32G0xx_HAL_Driver/Inc/stm32g0xx_ll_tim.h ****   * @{
1261:Drivers/STM32G0xx_HAL_Driver/Inc/stm32g0xx_ll_tim.h ****   */
1262:Drivers/STM32G0xx_HAL_Driver/Inc/stm32g0xx_ll_tim.h **** #define LL_TIM_TIM17_TI1_RMP_GPIO    0x00000000U                                     /*!< TIM17 inp
ARM GAS  /tmp/ccHKcJQI.s 			page 39


1263:Drivers/STM32G0xx_HAL_Driver/Inc/stm32g0xx_ll_tim.h **** #define LL_TIM_TIM17_TI1_RMP_HSE_32  TIM_TISEL_TI1SEL_1                              /*!< TIM17 inp
1264:Drivers/STM32G0xx_HAL_Driver/Inc/stm32g0xx_ll_tim.h **** #define LL_TIM_TIM17_TI1_RMP_MCO    (TIM_TISEL_TI1SEL_0 | TIM_TISEL_TI1SEL_1)        /*!< TIM17 inp
1265:Drivers/STM32G0xx_HAL_Driver/Inc/stm32g0xx_ll_tim.h **** /**
1266:Drivers/STM32G0xx_HAL_Driver/Inc/stm32g0xx_ll_tim.h ****   * @}
1267:Drivers/STM32G0xx_HAL_Driver/Inc/stm32g0xx_ll_tim.h ****   */
1268:Drivers/STM32G0xx_HAL_Driver/Inc/stm32g0xx_ll_tim.h **** 
1269:Drivers/STM32G0xx_HAL_Driver/Inc/stm32g0xx_ll_tim.h **** /** @defgroup TIM_LL_EC_OCREF_CLR_INT OCREF clear input selection
1270:Drivers/STM32G0xx_HAL_Driver/Inc/stm32g0xx_ll_tim.h ****   * @{
1271:Drivers/STM32G0xx_HAL_Driver/Inc/stm32g0xx_ll_tim.h ****   */
1272:Drivers/STM32G0xx_HAL_Driver/Inc/stm32g0xx_ll_tim.h **** #define LL_TIM_OCREF_CLR_INT_ETR         OCREF_CLEAR_SELECT_Msk       /*!< OCREF_CLR_INT is connect
1273:Drivers/STM32G0xx_HAL_Driver/Inc/stm32g0xx_ll_tim.h **** #if defined(COMP1) && defined(COMP2)
1274:Drivers/STM32G0xx_HAL_Driver/Inc/stm32g0xx_ll_tim.h **** #define LL_TIM_OCREF_CLR_INT_COMP1       0x00000000U                  /*!< OCREF clear input is con
1275:Drivers/STM32G0xx_HAL_Driver/Inc/stm32g0xx_ll_tim.h **** #define LL_TIM_OCREF_CLR_INT_COMP2       TIM1_OR1_OCREF_CLR           /*!< OCREF clear input is con
1276:Drivers/STM32G0xx_HAL_Driver/Inc/stm32g0xx_ll_tim.h **** #endif /* COMP1 & COMP2 */
1277:Drivers/STM32G0xx_HAL_Driver/Inc/stm32g0xx_ll_tim.h **** /**
1278:Drivers/STM32G0xx_HAL_Driver/Inc/stm32g0xx_ll_tim.h ****   * @}
1279:Drivers/STM32G0xx_HAL_Driver/Inc/stm32g0xx_ll_tim.h ****   */
1280:Drivers/STM32G0xx_HAL_Driver/Inc/stm32g0xx_ll_tim.h **** 
1281:Drivers/STM32G0xx_HAL_Driver/Inc/stm32g0xx_ll_tim.h **** /** Legacy definitions for compatibility purpose
1282:Drivers/STM32G0xx_HAL_Driver/Inc/stm32g0xx_ll_tim.h **** @cond 0
1283:Drivers/STM32G0xx_HAL_Driver/Inc/stm32g0xx_ll_tim.h ****   */
1284:Drivers/STM32G0xx_HAL_Driver/Inc/stm32g0xx_ll_tim.h **** #define LL_TIM_BKIN_SOURCE_DFBK  LL_TIM_BKIN_SOURCE_DF1BK
1285:Drivers/STM32G0xx_HAL_Driver/Inc/stm32g0xx_ll_tim.h **** /**
1286:Drivers/STM32G0xx_HAL_Driver/Inc/stm32g0xx_ll_tim.h **** @endcond
1287:Drivers/STM32G0xx_HAL_Driver/Inc/stm32g0xx_ll_tim.h ****   */
1288:Drivers/STM32G0xx_HAL_Driver/Inc/stm32g0xx_ll_tim.h **** /**
1289:Drivers/STM32G0xx_HAL_Driver/Inc/stm32g0xx_ll_tim.h ****   * @}
1290:Drivers/STM32G0xx_HAL_Driver/Inc/stm32g0xx_ll_tim.h ****   */
1291:Drivers/STM32G0xx_HAL_Driver/Inc/stm32g0xx_ll_tim.h **** 
1292:Drivers/STM32G0xx_HAL_Driver/Inc/stm32g0xx_ll_tim.h **** /* Exported macro ------------------------------------------------------------*/
1293:Drivers/STM32G0xx_HAL_Driver/Inc/stm32g0xx_ll_tim.h **** /** @defgroup TIM_LL_Exported_Macros TIM Exported Macros
1294:Drivers/STM32G0xx_HAL_Driver/Inc/stm32g0xx_ll_tim.h ****   * @{
1295:Drivers/STM32G0xx_HAL_Driver/Inc/stm32g0xx_ll_tim.h ****   */
1296:Drivers/STM32G0xx_HAL_Driver/Inc/stm32g0xx_ll_tim.h **** 
1297:Drivers/STM32G0xx_HAL_Driver/Inc/stm32g0xx_ll_tim.h **** /** @defgroup TIM_LL_EM_WRITE_READ Common Write and read registers Macros
1298:Drivers/STM32G0xx_HAL_Driver/Inc/stm32g0xx_ll_tim.h ****   * @{
1299:Drivers/STM32G0xx_HAL_Driver/Inc/stm32g0xx_ll_tim.h ****   */
1300:Drivers/STM32G0xx_HAL_Driver/Inc/stm32g0xx_ll_tim.h **** /**
1301:Drivers/STM32G0xx_HAL_Driver/Inc/stm32g0xx_ll_tim.h ****   * @brief  Write a value in TIM register.
1302:Drivers/STM32G0xx_HAL_Driver/Inc/stm32g0xx_ll_tim.h ****   * @param  __INSTANCE__ TIM Instance
1303:Drivers/STM32G0xx_HAL_Driver/Inc/stm32g0xx_ll_tim.h ****   * @param  __REG__ Register to be written
1304:Drivers/STM32G0xx_HAL_Driver/Inc/stm32g0xx_ll_tim.h ****   * @param  __VALUE__ Value to be written in the register
1305:Drivers/STM32G0xx_HAL_Driver/Inc/stm32g0xx_ll_tim.h ****   * @retval None
1306:Drivers/STM32G0xx_HAL_Driver/Inc/stm32g0xx_ll_tim.h ****   */
1307:Drivers/STM32G0xx_HAL_Driver/Inc/stm32g0xx_ll_tim.h **** #define LL_TIM_WriteReg(__INSTANCE__, __REG__, __VALUE__) WRITE_REG((__INSTANCE__)->__REG__, (__VAL
1308:Drivers/STM32G0xx_HAL_Driver/Inc/stm32g0xx_ll_tim.h **** 
1309:Drivers/STM32G0xx_HAL_Driver/Inc/stm32g0xx_ll_tim.h **** /**
1310:Drivers/STM32G0xx_HAL_Driver/Inc/stm32g0xx_ll_tim.h ****   * @brief  Read a value in TIM register.
1311:Drivers/STM32G0xx_HAL_Driver/Inc/stm32g0xx_ll_tim.h ****   * @param  __INSTANCE__ TIM Instance
1312:Drivers/STM32G0xx_HAL_Driver/Inc/stm32g0xx_ll_tim.h ****   * @param  __REG__ Register to be read
1313:Drivers/STM32G0xx_HAL_Driver/Inc/stm32g0xx_ll_tim.h ****   * @retval Register value
1314:Drivers/STM32G0xx_HAL_Driver/Inc/stm32g0xx_ll_tim.h ****   */
1315:Drivers/STM32G0xx_HAL_Driver/Inc/stm32g0xx_ll_tim.h **** #define LL_TIM_ReadReg(__INSTANCE__, __REG__) READ_REG((__INSTANCE__)->__REG__)
1316:Drivers/STM32G0xx_HAL_Driver/Inc/stm32g0xx_ll_tim.h **** /**
1317:Drivers/STM32G0xx_HAL_Driver/Inc/stm32g0xx_ll_tim.h ****   * @}
1318:Drivers/STM32G0xx_HAL_Driver/Inc/stm32g0xx_ll_tim.h ****   */
1319:Drivers/STM32G0xx_HAL_Driver/Inc/stm32g0xx_ll_tim.h **** 
ARM GAS  /tmp/ccHKcJQI.s 			page 40


1320:Drivers/STM32G0xx_HAL_Driver/Inc/stm32g0xx_ll_tim.h **** /** @defgroup TIM_LL_EM_Exported_Macros Exported_Macros
1321:Drivers/STM32G0xx_HAL_Driver/Inc/stm32g0xx_ll_tim.h ****   * @{
1322:Drivers/STM32G0xx_HAL_Driver/Inc/stm32g0xx_ll_tim.h ****   */
1323:Drivers/STM32G0xx_HAL_Driver/Inc/stm32g0xx_ll_tim.h **** 
1324:Drivers/STM32G0xx_HAL_Driver/Inc/stm32g0xx_ll_tim.h **** /**
1325:Drivers/STM32G0xx_HAL_Driver/Inc/stm32g0xx_ll_tim.h ****   * @brief  HELPER macro retrieving the UIFCPY flag from the counter value.
1326:Drivers/STM32G0xx_HAL_Driver/Inc/stm32g0xx_ll_tim.h ****   * @note ex: @ref __LL_TIM_GETFLAG_UIFCPY (@ref LL_TIM_GetCounter ());
1327:Drivers/STM32G0xx_HAL_Driver/Inc/stm32g0xx_ll_tim.h ****   * @note  Relevant only if UIF flag remapping has been enabled  (UIF status bit is copied
1328:Drivers/STM32G0xx_HAL_Driver/Inc/stm32g0xx_ll_tim.h ****   *        to TIMx_CNT register bit 31)
1329:Drivers/STM32G0xx_HAL_Driver/Inc/stm32g0xx_ll_tim.h ****   * @param  __CNT__ Counter value
1330:Drivers/STM32G0xx_HAL_Driver/Inc/stm32g0xx_ll_tim.h ****   * @retval UIF status bit
1331:Drivers/STM32G0xx_HAL_Driver/Inc/stm32g0xx_ll_tim.h ****   */
1332:Drivers/STM32G0xx_HAL_Driver/Inc/stm32g0xx_ll_tim.h **** #define __LL_TIM_GETFLAG_UIFCPY(__CNT__)  \
1333:Drivers/STM32G0xx_HAL_Driver/Inc/stm32g0xx_ll_tim.h ****   (READ_BIT((__CNT__), TIM_CNT_UIFCPY) >> TIM_CNT_UIFCPY_Pos)
1334:Drivers/STM32G0xx_HAL_Driver/Inc/stm32g0xx_ll_tim.h **** 
1335:Drivers/STM32G0xx_HAL_Driver/Inc/stm32g0xx_ll_tim.h **** /**
1336:Drivers/STM32G0xx_HAL_Driver/Inc/stm32g0xx_ll_tim.h ****   * @brief  HELPER macro calculating DTG[0:7] in the TIMx_BDTR register to achieve the requested de
1337:Drivers/STM32G0xx_HAL_Driver/Inc/stm32g0xx_ll_tim.h ****   * @note ex: @ref __LL_TIM_CALC_DEADTIME (80000000, @ref LL_TIM_GetClockDivision (), 120);
1338:Drivers/STM32G0xx_HAL_Driver/Inc/stm32g0xx_ll_tim.h ****   * @param  __TIMCLK__ timer input clock frequency (in Hz)
1339:Drivers/STM32G0xx_HAL_Driver/Inc/stm32g0xx_ll_tim.h ****   * @param  __CKD__ This parameter can be one of the following values:
1340:Drivers/STM32G0xx_HAL_Driver/Inc/stm32g0xx_ll_tim.h ****   *         @arg @ref LL_TIM_CLOCKDIVISION_DIV1
1341:Drivers/STM32G0xx_HAL_Driver/Inc/stm32g0xx_ll_tim.h ****   *         @arg @ref LL_TIM_CLOCKDIVISION_DIV2
1342:Drivers/STM32G0xx_HAL_Driver/Inc/stm32g0xx_ll_tim.h ****   *         @arg @ref LL_TIM_CLOCKDIVISION_DIV4
1343:Drivers/STM32G0xx_HAL_Driver/Inc/stm32g0xx_ll_tim.h ****   * @param  __DT__ deadtime duration (in ns)
1344:Drivers/STM32G0xx_HAL_Driver/Inc/stm32g0xx_ll_tim.h ****   * @retval DTG[0:7]
1345:Drivers/STM32G0xx_HAL_Driver/Inc/stm32g0xx_ll_tim.h ****   */
1346:Drivers/STM32G0xx_HAL_Driver/Inc/stm32g0xx_ll_tim.h **** #define __LL_TIM_CALC_DEADTIME(__TIMCLK__, __CKD__, __DT__)  \
1347:Drivers/STM32G0xx_HAL_Driver/Inc/stm32g0xx_ll_tim.h ****   ( (((uint64_t)((__DT__)*1000U)) < ((DT_DELAY_1+1U) * TIM_CALC_DTS((__TIMCLK__), (__CKD__))))    ?
1348:Drivers/STM32G0xx_HAL_Driver/Inc/stm32g0xx_ll_tim.h ****     (((uint64_t)((__DT__)*1000U)) < ((64U + (DT_DELAY_2+1U)) * 2U * TIM_CALC_DTS((__TIMCLK__), (__C
1349:Drivers/STM32G0xx_HAL_Driver/Inc/stm32g0xx_ll_tim.h ****     (((uint64_t)((__DT__)*1000U)) < ((32U + (DT_DELAY_3+1U)) * 8U * TIM_CALC_DTS((__TIMCLK__), (__C
1350:Drivers/STM32G0xx_HAL_Driver/Inc/stm32g0xx_ll_tim.h ****     (((uint64_t)((__DT__)*1000U)) < ((32U + (DT_DELAY_4+1U)) * 16U * TIM_CALC_DTS((__TIMCLK__), (__
1351:Drivers/STM32G0xx_HAL_Driver/Inc/stm32g0xx_ll_tim.h ****     0U)
1352:Drivers/STM32G0xx_HAL_Driver/Inc/stm32g0xx_ll_tim.h **** 
1353:Drivers/STM32G0xx_HAL_Driver/Inc/stm32g0xx_ll_tim.h **** /**
1354:Drivers/STM32G0xx_HAL_Driver/Inc/stm32g0xx_ll_tim.h ****   * @brief  HELPER macro calculating the prescaler value to achieve the required counter clock freq
1355:Drivers/STM32G0xx_HAL_Driver/Inc/stm32g0xx_ll_tim.h ****   * @note ex: @ref __LL_TIM_CALC_PSC (80000000, 1000000);
1356:Drivers/STM32G0xx_HAL_Driver/Inc/stm32g0xx_ll_tim.h ****   * @param  __TIMCLK__ timer input clock frequency (in Hz)
1357:Drivers/STM32G0xx_HAL_Driver/Inc/stm32g0xx_ll_tim.h ****   * @param  __CNTCLK__ counter clock frequency (in Hz)
1358:Drivers/STM32G0xx_HAL_Driver/Inc/stm32g0xx_ll_tim.h ****   * @retval Prescaler value  (between Min_Data=0 and Max_Data=65535)
1359:Drivers/STM32G0xx_HAL_Driver/Inc/stm32g0xx_ll_tim.h ****   */
1360:Drivers/STM32G0xx_HAL_Driver/Inc/stm32g0xx_ll_tim.h **** #define __LL_TIM_CALC_PSC(__TIMCLK__, __CNTCLK__)   \
1361:Drivers/STM32G0xx_HAL_Driver/Inc/stm32g0xx_ll_tim.h ****   (((__TIMCLK__) >= (__CNTCLK__)) ? (uint32_t)(((__TIMCLK__)/(__CNTCLK__)) - 1U) : 0U)
1362:Drivers/STM32G0xx_HAL_Driver/Inc/stm32g0xx_ll_tim.h **** 
1363:Drivers/STM32G0xx_HAL_Driver/Inc/stm32g0xx_ll_tim.h **** /**
1364:Drivers/STM32G0xx_HAL_Driver/Inc/stm32g0xx_ll_tim.h ****   * @brief  HELPER macro calculating the auto-reload value to achieve the required output signal fr
1365:Drivers/STM32G0xx_HAL_Driver/Inc/stm32g0xx_ll_tim.h ****   * @note ex: @ref __LL_TIM_CALC_ARR (1000000, @ref LL_TIM_GetPrescaler (), 10000);
1366:Drivers/STM32G0xx_HAL_Driver/Inc/stm32g0xx_ll_tim.h ****   * @param  __TIMCLK__ timer input clock frequency (in Hz)
1367:Drivers/STM32G0xx_HAL_Driver/Inc/stm32g0xx_ll_tim.h ****   * @param  __PSC__ prescaler
1368:Drivers/STM32G0xx_HAL_Driver/Inc/stm32g0xx_ll_tim.h ****   * @param  __FREQ__ output signal frequency (in Hz)
1369:Drivers/STM32G0xx_HAL_Driver/Inc/stm32g0xx_ll_tim.h ****   * @retval  Auto-reload value  (between Min_Data=0 and Max_Data=65535)
1370:Drivers/STM32G0xx_HAL_Driver/Inc/stm32g0xx_ll_tim.h ****   */
1371:Drivers/STM32G0xx_HAL_Driver/Inc/stm32g0xx_ll_tim.h **** #define __LL_TIM_CALC_ARR(__TIMCLK__, __PSC__, __FREQ__) \
1372:Drivers/STM32G0xx_HAL_Driver/Inc/stm32g0xx_ll_tim.h ****   ((((__TIMCLK__)/((__PSC__) + 1U)) >= (__FREQ__)) ? (((__TIMCLK__)/((__FREQ__) * ((__PSC__) + 1U))
1373:Drivers/STM32G0xx_HAL_Driver/Inc/stm32g0xx_ll_tim.h **** 
1374:Drivers/STM32G0xx_HAL_Driver/Inc/stm32g0xx_ll_tim.h **** /**
1375:Drivers/STM32G0xx_HAL_Driver/Inc/stm32g0xx_ll_tim.h ****   * @brief  HELPER macro calculating the compare value required to achieve the required timer outpu
1376:Drivers/STM32G0xx_HAL_Driver/Inc/stm32g0xx_ll_tim.h ****   * @note ex: @ref __LL_TIM_CALC_DELAY (1000000, @ref LL_TIM_GetPrescaler (), 10);
ARM GAS  /tmp/ccHKcJQI.s 			page 41


1377:Drivers/STM32G0xx_HAL_Driver/Inc/stm32g0xx_ll_tim.h ****   * @param  __TIMCLK__ timer input clock frequency (in Hz)
1378:Drivers/STM32G0xx_HAL_Driver/Inc/stm32g0xx_ll_tim.h ****   * @param  __PSC__ prescaler
1379:Drivers/STM32G0xx_HAL_Driver/Inc/stm32g0xx_ll_tim.h ****   * @param  __DELAY__ timer output compare active/inactive delay (in us)
1380:Drivers/STM32G0xx_HAL_Driver/Inc/stm32g0xx_ll_tim.h ****   * @retval Compare value  (between Min_Data=0 and Max_Data=65535)
1381:Drivers/STM32G0xx_HAL_Driver/Inc/stm32g0xx_ll_tim.h ****   */
1382:Drivers/STM32G0xx_HAL_Driver/Inc/stm32g0xx_ll_tim.h **** #define __LL_TIM_CALC_DELAY(__TIMCLK__, __PSC__, __DELAY__)  \
1383:Drivers/STM32G0xx_HAL_Driver/Inc/stm32g0xx_ll_tim.h ****   ((uint32_t)(((uint64_t)(__TIMCLK__) * (uint64_t)(__DELAY__)) \
1384:Drivers/STM32G0xx_HAL_Driver/Inc/stm32g0xx_ll_tim.h ****               / ((uint64_t)1000000U * (uint64_t)((__PSC__) + 1U))))
1385:Drivers/STM32G0xx_HAL_Driver/Inc/stm32g0xx_ll_tim.h **** 
1386:Drivers/STM32G0xx_HAL_Driver/Inc/stm32g0xx_ll_tim.h **** /**
1387:Drivers/STM32G0xx_HAL_Driver/Inc/stm32g0xx_ll_tim.h ****   * @brief  HELPER macro calculating the auto-reload value to achieve the required pulse duration (
1388:Drivers/STM32G0xx_HAL_Driver/Inc/stm32g0xx_ll_tim.h ****   * @note ex: @ref __LL_TIM_CALC_PULSE (1000000, @ref LL_TIM_GetPrescaler (), 10, 20);
1389:Drivers/STM32G0xx_HAL_Driver/Inc/stm32g0xx_ll_tim.h ****   * @param  __TIMCLK__ timer input clock frequency (in Hz)
1390:Drivers/STM32G0xx_HAL_Driver/Inc/stm32g0xx_ll_tim.h ****   * @param  __PSC__ prescaler
1391:Drivers/STM32G0xx_HAL_Driver/Inc/stm32g0xx_ll_tim.h ****   * @param  __DELAY__ timer output compare active/inactive delay (in us)
1392:Drivers/STM32G0xx_HAL_Driver/Inc/stm32g0xx_ll_tim.h ****   * @param  __PULSE__ pulse duration (in us)
1393:Drivers/STM32G0xx_HAL_Driver/Inc/stm32g0xx_ll_tim.h ****   * @retval Auto-reload value  (between Min_Data=0 and Max_Data=65535)
1394:Drivers/STM32G0xx_HAL_Driver/Inc/stm32g0xx_ll_tim.h ****   */
1395:Drivers/STM32G0xx_HAL_Driver/Inc/stm32g0xx_ll_tim.h **** #define __LL_TIM_CALC_PULSE(__TIMCLK__, __PSC__, __DELAY__, __PULSE__)  \
1396:Drivers/STM32G0xx_HAL_Driver/Inc/stm32g0xx_ll_tim.h ****   ((uint32_t)(__LL_TIM_CALC_DELAY((__TIMCLK__), (__PSC__), (__PULSE__)) \
1397:Drivers/STM32G0xx_HAL_Driver/Inc/stm32g0xx_ll_tim.h ****               + __LL_TIM_CALC_DELAY((__TIMCLK__), (__PSC__), (__DELAY__))))
1398:Drivers/STM32G0xx_HAL_Driver/Inc/stm32g0xx_ll_tim.h **** 
1399:Drivers/STM32G0xx_HAL_Driver/Inc/stm32g0xx_ll_tim.h **** /**
1400:Drivers/STM32G0xx_HAL_Driver/Inc/stm32g0xx_ll_tim.h ****   * @brief  HELPER macro retrieving the ratio of the input capture prescaler
1401:Drivers/STM32G0xx_HAL_Driver/Inc/stm32g0xx_ll_tim.h ****   * @note ex: @ref __LL_TIM_GET_ICPSC_RATIO (@ref LL_TIM_IC_GetPrescaler ());
1402:Drivers/STM32G0xx_HAL_Driver/Inc/stm32g0xx_ll_tim.h ****   * @param  __ICPSC__ This parameter can be one of the following values:
1403:Drivers/STM32G0xx_HAL_Driver/Inc/stm32g0xx_ll_tim.h ****   *         @arg @ref LL_TIM_ICPSC_DIV1
1404:Drivers/STM32G0xx_HAL_Driver/Inc/stm32g0xx_ll_tim.h ****   *         @arg @ref LL_TIM_ICPSC_DIV2
1405:Drivers/STM32G0xx_HAL_Driver/Inc/stm32g0xx_ll_tim.h ****   *         @arg @ref LL_TIM_ICPSC_DIV4
1406:Drivers/STM32G0xx_HAL_Driver/Inc/stm32g0xx_ll_tim.h ****   *         @arg @ref LL_TIM_ICPSC_DIV8
1407:Drivers/STM32G0xx_HAL_Driver/Inc/stm32g0xx_ll_tim.h ****   * @retval Input capture prescaler ratio (1, 2, 4 or 8)
1408:Drivers/STM32G0xx_HAL_Driver/Inc/stm32g0xx_ll_tim.h ****   */
1409:Drivers/STM32G0xx_HAL_Driver/Inc/stm32g0xx_ll_tim.h **** #define __LL_TIM_GET_ICPSC_RATIO(__ICPSC__)  \
1410:Drivers/STM32G0xx_HAL_Driver/Inc/stm32g0xx_ll_tim.h ****   ((uint32_t)(0x01U << (((__ICPSC__) >> 16U) >> TIM_CCMR1_IC1PSC_Pos)))
1411:Drivers/STM32G0xx_HAL_Driver/Inc/stm32g0xx_ll_tim.h **** 
1412:Drivers/STM32G0xx_HAL_Driver/Inc/stm32g0xx_ll_tim.h **** 
1413:Drivers/STM32G0xx_HAL_Driver/Inc/stm32g0xx_ll_tim.h **** /**
1414:Drivers/STM32G0xx_HAL_Driver/Inc/stm32g0xx_ll_tim.h ****   * @}
1415:Drivers/STM32G0xx_HAL_Driver/Inc/stm32g0xx_ll_tim.h ****   */
1416:Drivers/STM32G0xx_HAL_Driver/Inc/stm32g0xx_ll_tim.h **** 
1417:Drivers/STM32G0xx_HAL_Driver/Inc/stm32g0xx_ll_tim.h **** 
1418:Drivers/STM32G0xx_HAL_Driver/Inc/stm32g0xx_ll_tim.h **** /**
1419:Drivers/STM32G0xx_HAL_Driver/Inc/stm32g0xx_ll_tim.h ****   * @}
1420:Drivers/STM32G0xx_HAL_Driver/Inc/stm32g0xx_ll_tim.h ****   */
1421:Drivers/STM32G0xx_HAL_Driver/Inc/stm32g0xx_ll_tim.h **** 
1422:Drivers/STM32G0xx_HAL_Driver/Inc/stm32g0xx_ll_tim.h **** /* Exported functions --------------------------------------------------------*/
1423:Drivers/STM32G0xx_HAL_Driver/Inc/stm32g0xx_ll_tim.h **** /** @defgroup TIM_LL_Exported_Functions TIM Exported Functions
1424:Drivers/STM32G0xx_HAL_Driver/Inc/stm32g0xx_ll_tim.h ****   * @{
1425:Drivers/STM32G0xx_HAL_Driver/Inc/stm32g0xx_ll_tim.h ****   */
1426:Drivers/STM32G0xx_HAL_Driver/Inc/stm32g0xx_ll_tim.h **** 
1427:Drivers/STM32G0xx_HAL_Driver/Inc/stm32g0xx_ll_tim.h **** /** @defgroup TIM_LL_EF_Time_Base Time Base configuration
1428:Drivers/STM32G0xx_HAL_Driver/Inc/stm32g0xx_ll_tim.h ****   * @{
1429:Drivers/STM32G0xx_HAL_Driver/Inc/stm32g0xx_ll_tim.h ****   */
1430:Drivers/STM32G0xx_HAL_Driver/Inc/stm32g0xx_ll_tim.h **** /**
1431:Drivers/STM32G0xx_HAL_Driver/Inc/stm32g0xx_ll_tim.h ****   * @brief  Enable timer counter.
1432:Drivers/STM32G0xx_HAL_Driver/Inc/stm32g0xx_ll_tim.h ****   * @rmtoll CR1          CEN           LL_TIM_EnableCounter
1433:Drivers/STM32G0xx_HAL_Driver/Inc/stm32g0xx_ll_tim.h ****   * @param  TIMx Timer instance
ARM GAS  /tmp/ccHKcJQI.s 			page 42


1434:Drivers/STM32G0xx_HAL_Driver/Inc/stm32g0xx_ll_tim.h ****   * @retval None
1435:Drivers/STM32G0xx_HAL_Driver/Inc/stm32g0xx_ll_tim.h ****   */
1436:Drivers/STM32G0xx_HAL_Driver/Inc/stm32g0xx_ll_tim.h **** __STATIC_INLINE void LL_TIM_EnableCounter(TIM_TypeDef *TIMx)
1437:Drivers/STM32G0xx_HAL_Driver/Inc/stm32g0xx_ll_tim.h **** {
1438:Drivers/STM32G0xx_HAL_Driver/Inc/stm32g0xx_ll_tim.h ****   SET_BIT(TIMx->CR1, TIM_CR1_CEN);
1439:Drivers/STM32G0xx_HAL_Driver/Inc/stm32g0xx_ll_tim.h **** }
1440:Drivers/STM32G0xx_HAL_Driver/Inc/stm32g0xx_ll_tim.h **** 
1441:Drivers/STM32G0xx_HAL_Driver/Inc/stm32g0xx_ll_tim.h **** /**
1442:Drivers/STM32G0xx_HAL_Driver/Inc/stm32g0xx_ll_tim.h ****   * @brief  Disable timer counter.
1443:Drivers/STM32G0xx_HAL_Driver/Inc/stm32g0xx_ll_tim.h ****   * @rmtoll CR1          CEN           LL_TIM_DisableCounter
1444:Drivers/STM32G0xx_HAL_Driver/Inc/stm32g0xx_ll_tim.h ****   * @param  TIMx Timer instance
1445:Drivers/STM32G0xx_HAL_Driver/Inc/stm32g0xx_ll_tim.h ****   * @retval None
1446:Drivers/STM32G0xx_HAL_Driver/Inc/stm32g0xx_ll_tim.h ****   */
1447:Drivers/STM32G0xx_HAL_Driver/Inc/stm32g0xx_ll_tim.h **** __STATIC_INLINE void LL_TIM_DisableCounter(TIM_TypeDef *TIMx)
